

Microchip MPLAB XC8 Assembler V3.10 build 20250813170317 
                                                                                               Thu May  7 15:10:12 2026

Microchip MPLAB XC8 C Compiler v3.10 (Free license) build 20250813170317 Og1 
     1                           	processor	18F46K22
     2                           	fnconf	rparam,??,?,0
     3                           	pagewidth 120
     4                           	opt	flic
     5                           	psect	idataCOMRAM,global,class=CODE,space=0,delta=1,noexec
     6                           	psect	idataBANK0,global,class=CODE,space=0,delta=1,noexec
     7                           	psect	cinit,global,reloc=2,class=CODE,space=0,delta=1
     8                           	psect	bssCOMRAM,global,class=COMRAM,space=1,delta=1,lowdata,noexec
     9                           	psect	dataCOMRAM,global,class=COMRAM,space=1,delta=1,lowdata,noexec
    10                           	psect	bssBANK0,global,class=BANK0,space=1,delta=1,lowdata,noexec
    11                           	psect	dataBANK0,global,class=BANK0,space=1,delta=1,lowdata,noexec
    12                           	psect	bssBIGRAM,global,class=BIGRAM,space=1,delta=1,noexec
    13                           	psect	cstackBANK3,global,class=BANK3,space=1,delta=1,lowdata,noexec
    14                           	psect	cstackBANK2,global,class=BANK2,space=1,delta=1,lowdata,noexec
    15                           	psect	cstackBANK1,global,class=BANK1,space=1,delta=1,lowdata,noexec
    16                           	psect	cstackBANK0,global,class=BANK0,space=1,delta=1,lowdata,noexec
    17                           	psect	cstackCOMRAM,global,class=COMRAM,space=1,delta=1,lowdata,noexec
    18                           	psect	text0,global,reloc=2,class=CODE,space=0,delta=1
    19                           	psect	text1,global,reloc=2,class=CODE,space=0,delta=1
    20                           	psect	text2,global,reloc=2,class=CODE,space=0,delta=1
    21                           	psect	text3,global,reloc=2,class=CODE,space=0,delta=1
    22                           	psect	text4,global,reloc=2,class=CODE,space=0,delta=1
    23                           	psect	text5,global,reloc=2,class=CODE,space=0,delta=1
    24                           	psect	text6,global,reloc=2,class=CODE,space=0,delta=1
    25                           	psect	text7,global,reloc=2,class=CODE,space=0,delta=1
    26                           	psect	text8,global,reloc=2,class=CODE,space=0,delta=1
    27                           	psect	text9,global,reloc=2,class=CODE,space=0,delta=1
    28                           	psect	text10,global,reloc=2,class=CODE,space=0,delta=1
    29                           	psect	text11,global,reloc=2,class=CODE,space=0,delta=1
    30                           	psect	text12,global,reloc=2,class=CODE,space=0,delta=1
    31                           	psect	text13,global,reloc=2,class=CODE,space=0,delta=1
    32                           	psect	text14,global,reloc=2,class=CODE,space=0,delta=1
    33                           	psect	text15,global,reloc=2,class=CODE,space=0,delta=1
    34                           	psect	text16,global,reloc=2,class=CODE,space=0,delta=1
    35                           	psect	text17,global,reloc=2,class=CODE,space=0,delta=1
    36                           	psect	text18,global,reloc=2,class=CODE,space=0,delta=1
    37                           	psect	text19,global,reloc=2,class=CODE,space=0,delta=1
    38                           	psect	text20,global,reloc=2,class=CODE,space=0,delta=1
    39                           	psect	text21,global,reloc=2,class=CODE,space=0,delta=1
    40                           	psect	text22,global,reloc=2,class=CODE,space=0,delta=1
    41                           	psect	text23,global,reloc=2,class=CODE,space=0,delta=1,group=1
    42                           	psect	text24,global,reloc=2,class=CODE,space=0,delta=1
    43                           	psect	text25,global,reloc=2,class=CODE,space=0,delta=1
    44                           	psect	text26,global,reloc=2,class=CODE,space=0,delta=1
    45                           	psect	text27,global,reloc=2,class=CODE,space=0,delta=1
    46                           	psect	text28,global,reloc=2,class=CODE,space=0,delta=1
    47                           	psect	text29,global,reloc=2,class=CODE,space=0,delta=1
    48                           	psect	intcode,global,reloc=2,class=CODE,space=0,delta=1
    49                           	psect	text31,global,reloc=2,class=CODE,space=0,delta=1
    50                           	psect	text32,global,reloc=2,class=CODE,space=0,delta=1
    51                           	psect	text33,global,reloc=2,class=CODE,space=0,delta=1
    52                           	psect	smallconst,global,reloc=2,class=SMALLCONST,space=0,delta=1,noexec
    53                           	psect	intsave_regs,global,class=BIGRAM,space=1,delta=1,noexec
    54                           	psect	rparam,global,class=COMRAM,space=1,delta=1,noexec
    55                           	dabs	1,0x1,1
    56   000000                     
    57                           ; Generated 24/03/2025 GMT
    58                           ; 
    59                           ; Copyright © 2025, Microchip Technology Inc. and its subsidiaries ("Microchip")
    60                           ; All rights reserved.
    61                           ; 
    62                           ; This software is developed by Microchip Technology Inc. and its subsidiaries ("Microch
      +                          ip").
    63                           ; 
    64                           ; Redistribution and use in source and binary forms, with or without modification, are
    65                           ; permitted provided that the following conditions are met:
    66                           ; 
    67                           ;     1. Redistributions of source code must retain the above copyright notice, this lis
      +                          t of
    68                           ;        conditions and the following disclaimer.
    69                           ; 
    70                           ;     2. Redistributions in binary form must reproduce the above copyright notice, this 
      +                          list
    71                           ;        of conditions and the following disclaimer in the documentation and/or other
    72                           ;        materials provided with the distribution. Publication is not required when
    73                           ;        this file is used in an embedded application.
    74                           ; 
    75                           ;     3. Microchip's name may not be used to endorse or promote products derived from th
      +                          is
    76                           ;        software without specific prior written permission.
    77                           ; 
    78                           ; THIS SOFTWARE IS PROVIDED BY MICROCHIP "AS IS" AND ANY EXPRESS OR IMPLIED WARRANTIES,
    79                           ; INCLUDING, BUT NOT LIMITED TO, THE IMPLIED WARRANTIES OF MERCHANTABILITY AND FITNESS F
      +                          OR
    80                           ; PURPOSE ARE DISCLAIMED.  IN NO EVENT SHALL MICROCHIP BE LIABLE FOR ANY DIRECT, INDIREC
      +                          T,
    81                           ; INCIDENTAL, SPECIAL, EXEMPLARY, OR CONSEQUENTIAL DAMAGES (INCLUDING BUT NOT LIMITED TO
    82                           ; PROCUREMENT OF SUBSTITUTE GOODS OR SERVICES; LOSS OF USE, DATA OR PROFITS; OR BUSINESS
    83                           ; INTERRUPTION) HOWSOEVER CAUSED AND ON ANY THEORY OF LIABILITY, WHETHER IN CONTRACT, ST
      +                          RICT
    84                           ; LIABILITY, OR TORT (INCLUDING NEGLIGENCE OR OTHERWISE) ARISING IN ANY WAY OUT OF THE U
      +                          SE OF
    85                           ; THIS SOFTWARE, EVEN IF ADVISED OF THE POSSIBILITY OF SUCH DAMAGE.
    86                           ; 
    87                           ; 
    88                           ; Code-generator required, PIC18F46K22 Definitions
    89                           ; 
    90                           ; SFR Addresses
    91   000FE0                     bsr             equ	4064
    92   000FE9                     fsr0            equ	4073
    93   000FEA                     fsr0h           equ	4074
    94   000FE9                     fsr0l           equ	4073
    95   000FE1                     fsr1            equ	4065
    96   000FE2                     fsr1h           equ	4066
    97   000FE1                     fsr1l           equ	4065
    98   000FD9                     fsr2            equ	4057
    99   000FDA                     fsr2h           equ	4058
   100   000FD9                     fsr2l           equ	4057
   101   000FEF                     indf0           equ	4079
   102   000FE7                     indf1           equ	4071
   103   000FDF                     indf2           equ	4063
   104   000FF2                     intcon          equ	4082
   105   000000                     nvmcon          equ	0
   106   000FF9                     pcl             equ	4089
   107   000FFA                     pclath          equ	4090
   108   000FFB                     pclatu          equ	4091
   109   000FEB                     plusw0          equ	4075
   110   000FE3                     plusw1          equ	4067
   111   000FDB                     plusw2          equ	4059
   112   000FED                     postdec0        equ	4077
   113   000FE5                     postdec1        equ	4069
   114   000FDD                     postdec2        equ	4061
   115   000FEE                     postinc0        equ	4078
   116   000FE6                     postinc1        equ	4070
   117   000FDE                     postinc2        equ	4062
   118   000FEC                     preinc0         equ	4076
   119   000FE4                     preinc1         equ	4068
   120   000FDC                     preinc2         equ	4060
   121   000FF3                     prod            equ	4083
   122   000FF4                     prodh           equ	4084
   123   000FF3                     prodl           equ	4083
   124   000FD8                     status          equ	4056
   125   000FF5                     tablat          equ	4085
   126   000FF6                     tblptr          equ	4086
   127   000FF7                     tblptrh         equ	4087
   128   000FF6                     tblptrl         equ	4086
   129   000FF8                     tblptru         equ	4088
   130   000FFD                     tosl            equ	4093
   131   000FE8                     wreg            equ	4072
   132   000F38                     ANSELA          equ	3896	;# 
   133   000F39                     ANSELB          equ	3897	;# 
   134   000F3A                     ANSELC          equ	3898	;# 
   135   000F3B                     ANSELD          equ	3899	;# 
   136   000F3C                     ANSELE          equ	3900	;# 
   137   000F3D                     PMD2            equ	3901	;# 
   138   000F3E                     PMD1            equ	3902	;# 
   139   000F3F                     PMD0            equ	3903	;# 
   140   000F40                     VREFCON2        equ	3904	;# 
   141   000F40                     DACCON1         equ	3904	;# 
   142   000F41                     VREFCON1        equ	3905	;# 
   143   000F41                     DACCON0         equ	3905	;# 
   144   000F42                     VREFCON0        equ	3906	;# 
   145   000F42                     FVRCON          equ	3906	;# 
   146   000F43                     CTMUICON        equ	3907	;# 
   147   000F43                     CTMUICONH       equ	3907	;# 
   148   000F44                     CTMUCONL        equ	3908	;# 
   149   000F44                     CTMUCON1        equ	3908	;# 
   150   000F45                     CTMUCONH        equ	3909	;# 
   151   000F45                     CTMUCON0        equ	3909	;# 
   152   000F46                     SRCON1          equ	3910	;# 
   153   000F47                     SRCON0          equ	3911	;# 
   154   000F48                     CCPTMRS1        equ	3912	;# 
   155   000F49                     CCPTMRS0        equ	3913	;# 
   156   000F4A                     T6CON           equ	3914	;# 
   157   000F4B                     PR6             equ	3915	;# 
   158   000F4C                     TMR6            equ	3916	;# 
   159   000F4D                     T5GCON          equ	3917	;# 
   160   000F4E                     T5CON           equ	3918	;# 
   161   000F4F                     TMR5            equ	3919	;# 
   162   000F4F                     TMR5L           equ	3919	;# 
   163   000F50                     TMR5H           equ	3920	;# 
   164   000F51                     T4CON           equ	3921	;# 
   165   000F52                     PR4             equ	3922	;# 
   166   000F53                     TMR4            equ	3923	;# 
   167   000F54                     CCP5CON         equ	3924	;# 
   168   000F55                     CCPR5           equ	3925	;# 
   169   000F55                     CCPR5L          equ	3925	;# 
   170   000F56                     CCPR5H          equ	3926	;# 
   171   000F57                     CCP4CON         equ	3927	;# 
   172   000F58                     CCPR4           equ	3928	;# 
   173   000F58                     CCPR4L          equ	3928	;# 
   174   000F59                     CCPR4H          equ	3929	;# 
   175   000F5A                     PSTR3CON        equ	3930	;# 
   176   000F5B                     ECCP3AS         equ	3931	;# 
   177   000F5B                     CCP3AS          equ	3931	;# 
   178   000F5C                     PWM3CON         equ	3932	;# 
   179   000F5D                     CCP3CON         equ	3933	;# 
   180   000F5E                     CCPR3           equ	3934	;# 
   181   000F5E                     CCPR3L          equ	3934	;# 
   182   000F5F                     CCPR3H          equ	3935	;# 
   183   000F60                     SLRCON          equ	3936	;# 
   184   000F61                     WPUB            equ	3937	;# 
   185   000F62                     IOCB            equ	3938	;# 
   186   000F63                     PSTR2CON        equ	3939	;# 
   187   000F64                     ECCP2AS         equ	3940	;# 
   188   000F64                     CCP2AS          equ	3940	;# 
   189   000F65                     PWM2CON         equ	3941	;# 
   190   000F66                     CCP2CON         equ	3942	;# 
   191   000F67                     CCPR2           equ	3943	;# 
   192   000F67                     CCPR2L          equ	3943	;# 
   193   000F68                     CCPR2H          equ	3944	;# 
   194   000F69                     SSP2CON3        equ	3945	;# 
   195   000F6A                     SSP2MSK         equ	3946	;# 
   196   000F6B                     SSP2CON2        equ	3947	;# 
   197   000F6C                     SSP2CON1        equ	3948	;# 
   198   000F6D                     SSP2STAT        equ	3949	;# 
   199   000F6E                     SSP2ADD         equ	3950	;# 
   200   000F6F                     SSP2BUF         equ	3951	;# 
   201   000F70                     BAUDCON2        equ	3952	;# 
   202   000F70                     BAUD2CON        equ	3952	;# 
   203   000F71                     RCSTA2          equ	3953	;# 
   204   000F71                     RC2STA          equ	3953	;# 
   205   000F72                     TXSTA2          equ	3954	;# 
   206   000F72                     TX2STA          equ	3954	;# 
   207   000F73                     TXREG2          equ	3955	;# 
   208   000F73                     TX2REG          equ	3955	;# 
   209   000F74                     RCREG2          equ	3956	;# 
   210   000F74                     RC2REG          equ	3956	;# 
   211   000F75                     SPBRG2          equ	3957	;# 
   212   000F75                     SP2BRG          equ	3957	;# 
   213   000F76                     SPBRGH2         equ	3958	;# 
   214   000F76                     SP2BRGH         equ	3958	;# 
   215   000F77                     CM2CON1         equ	3959	;# 
   216   000F77                     CM12CON         equ	3959	;# 
   217   000F78                     CM2CON0         equ	3960	;# 
   218   000F78                     CM2CON          equ	3960	;# 
   219   000F79                     CM1CON0         equ	3961	;# 
   220   000F79                     CM1CON          equ	3961	;# 
   221   000F7A                     PIE4            equ	3962	;# 
   222   000F7B                     PIR4            equ	3963	;# 
   223   000F7C                     IPR4            equ	3964	;# 
   224   000F7D                     PIE5            equ	3965	;# 
   225   000F7E                     PIR5            equ	3966	;# 
   226   000F7F                     IPR5            equ	3967	;# 
   227   000F80                     PORTA           equ	3968	;# 
   228   000F81                     PORTB           equ	3969	;# 
   229   000F82                     PORTC           equ	3970	;# 
   230   000F83                     PORTD           equ	3971	;# 
   231   000F84                     PORTE           equ	3972	;# 
   232   000F89                     LATA            equ	3977	;# 
   233   000F8A                     LATB            equ	3978	;# 
   234   000F8B                     LATC            equ	3979	;# 
   235   000F8C                     LATD            equ	3980	;# 
   236   000F8D                     LATE            equ	3981	;# 
   237   000F92                     TRISA           equ	3986	;# 
   238   000F92                     DDRA            equ	3986	;# 
   239   000F93                     TRISB           equ	3987	;# 
   240   000F93                     DDRB            equ	3987	;# 
   241   000F94                     TRISC           equ	3988	;# 
   242   000F94                     DDRC            equ	3988	;# 
   243   000F95                     TRISD           equ	3989	;# 
   244   000F95                     DDRD            equ	3989	;# 
   245   000F96                     TRISE           equ	3990	;# 
   246   000F96                     DDRE            equ	3990	;# 
   247   000F9B                     OSCTUNE         equ	3995	;# 
   248   000F9C                     HLVDCON         equ	3996	;# 
   249   000F9C                     LVDCON          equ	3996	;# 
   250   000F9D                     PIE1            equ	3997	;# 
   251   000F9E                     PIR1            equ	3998	;# 
   252   000F9F                     IPR1            equ	3999	;# 
   253   000FA0                     PIE2            equ	4000	;# 
   254   000FA1                     PIR2            equ	4001	;# 
   255   000FA2                     IPR2            equ	4002	;# 
   256   000FA3                     PIE3            equ	4003	;# 
   257   000FA4                     PIR3            equ	4004	;# 
   258   000FA5                     IPR3            equ	4005	;# 
   259   000FA6                     EECON1          equ	4006	;# 
   260   000FA7                     EECON2          equ	4007	;# 
   261   000FA8                     EEDATA          equ	4008	;# 
   262   000FA9                     EEADR           equ	4009	;# 
   263   000FAA                     EEADRH          equ	4010	;# 
   264   000FAB                     RCSTA1          equ	4011	;# 
   265   000FAB                     RCSTA           equ	4011	;# 
   266   000FAB                     RC1STA          equ	4011	;# 
   267   000FAC                     TXSTA1          equ	4012	;# 
   268   000FAC                     TXSTA           equ	4012	;# 
   269   000FAC                     TX1STA          equ	4012	;# 
   270   000FAD                     TXREG1          equ	4013	;# 
   271   000FAD                     TXREG           equ	4013	;# 
   272   000FAD                     TX1REG          equ	4013	;# 
   273   000FAE                     RCREG1          equ	4014	;# 
   274   000FAE                     RCREG           equ	4014	;# 
   275   000FAE                     RC1REG          equ	4014	;# 
   276   000FAF                     SPBRG1          equ	4015	;# 
   277   000FAF                     SPBRG           equ	4015	;# 
   278   000FAF                     SP1BRG          equ	4015	;# 
   279   000FB0                     SPBRGH1         equ	4016	;# 
   280   000FB0                     SPBRGH          equ	4016	;# 
   281   000FB0                     SP1BRGH         equ	4016	;# 
   282   000FB1                     T3CON           equ	4017	;# 
   283   000FB2                     TMR3            equ	4018	;# 
   284   000FB2                     TMR3L           equ	4018	;# 
   285   000FB3                     TMR3H           equ	4019	;# 
   286   000FB4                     T3GCON          equ	4020	;# 
   287   000FB6                     ECCP1AS         equ	4022	;# 
   288   000FB6                     ECCPAS          equ	4022	;# 
   289   000FB7                     PWM1CON         equ	4023	;# 
   290   000FB7                     PWMCON          equ	4023	;# 
   291   000FB8                     BAUDCON1        equ	4024	;# 
   292   000FB8                     BAUDCON         equ	4024	;# 
   293   000FB8                     BAUDCTL         equ	4024	;# 
   294   000FB8                     BAUD1CON        equ	4024	;# 
   295   000FB9                     PSTR1CON        equ	4025	;# 
   296   000FB9                     PSTRCON         equ	4025	;# 
   297   000FBA                     T2CON           equ	4026	;# 
   298   000FBB                     PR2             equ	4027	;# 
   299   000FBC                     TMR2            equ	4028	;# 
   300   000FBD                     CCP1CON         equ	4029	;# 
   301   000FBE                     CCPR1           equ	4030	;# 
   302   000FBE                     CCPR1L          equ	4030	;# 
   303   000FBF                     CCPR1H          equ	4031	;# 
   304   000FC0                     ADCON2          equ	4032	;# 
   305   000FC1                     ADCON1          equ	4033	;# 
   306   000FC2                     ADCON0          equ	4034	;# 
   307   000FC3                     ADRES           equ	4035	;# 
   308   000FC3                     ADRESL          equ	4035	;# 
   309   000FC4                     ADRESH          equ	4036	;# 
   310   000FC5                     SSP1CON2        equ	4037	;# 
   311   000FC5                     SSPCON2         equ	4037	;# 
   312   000FC6                     SSP1CON1        equ	4038	;# 
   313   000FC6                     SSPCON1         equ	4038	;# 
   314   000FC7                     SSP1STAT        equ	4039	;# 
   315   000FC7                     SSPSTAT         equ	4039	;# 
   316   000FC8                     SSP1ADD         equ	4040	;# 
   317   000FC8                     SSPADD          equ	4040	;# 
   318   000FC9                     SSP1BUF         equ	4041	;# 
   319   000FC9                     SSPBUF          equ	4041	;# 
   320   000FCA                     SSP1MSK         equ	4042	;# 
   321   000FCA                     SSPMSK          equ	4042	;# 
   322   000FCB                     SSP1CON3        equ	4043	;# 
   323   000FCB                     SSPCON3         equ	4043	;# 
   324   000FCC                     T1GCON          equ	4044	;# 
   325   000FCD                     T1CON           equ	4045	;# 
   326   000FCE                     TMR1            equ	4046	;# 
   327   000FCE                     TMR1L           equ	4046	;# 
   328   000FCF                     TMR1H           equ	4047	;# 
   329   000FD0                     RCON            equ	4048	;# 
   330   000FD1                     WDTCON          equ	4049	;# 
   331   000FD2                     OSCCON2         equ	4050	;# 
   332   000FD3                     OSCCON          equ	4051	;# 
   333   000FD5                     T0CON           equ	4053	;# 
   334   000FD6                     TMR0            equ	4054	;# 
   335   000FD6                     TMR0L           equ	4054	;# 
   336   000FD7                     TMR0H           equ	4055	;# 
   337   000FD8                     STATUS          equ	4056	;# 
   338   000FD9                     FSR2            equ	4057	;# 
   339   000FD9                     FSR2L           equ	4057	;# 
   340   000FDA                     FSR2H           equ	4058	;# 
   341   000FDB                     PLUSW2          equ	4059	;# 
   342   000FDC                     PREINC2         equ	4060	;# 
   343   000FDD                     POSTDEC2        equ	4061	;# 
   344   000FDE                     POSTINC2        equ	4062	;# 
   345   000FDF                     INDF2           equ	4063	;# 
   346   000FE0                     BSR             equ	4064	;# 
   347   000FE1                     FSR1            equ	4065	;# 
   348   000FE1                     FSR1L           equ	4065	;# 
   349   000FE2                     FSR1H           equ	4066	;# 
   350   000FE3                     PLUSW1          equ	4067	;# 
   351   000FE4                     PREINC1         equ	4068	;# 
   352   000FE5                     POSTDEC1        equ	4069	;# 
   353   000FE6                     POSTINC1        equ	4070	;# 
   354   000FE7                     INDF1           equ	4071	;# 
   355   000FE8                     WREG            equ	4072	;# 
   356   000FE9                     FSR0            equ	4073	;# 
   357   000FE9                     FSR0L           equ	4073	;# 
   358   000FEA                     FSR0H           equ	4074	;# 
   359   000FEB                     PLUSW0          equ	4075	;# 
   360   000FEC                     PREINC0         equ	4076	;# 
   361   000FED                     POSTDEC0        equ	4077	;# 
   362   000FEE                     POSTINC0        equ	4078	;# 
   363   000FEF                     INDF0           equ	4079	;# 
   364   000FF0                     INTCON3         equ	4080	;# 
   365   000FF1                     INTCON2         equ	4081	;# 
   366   000FF2                     INTCON          equ	4082	;# 
   367   000FF3                     PROD            equ	4083	;# 
   368   000FF3                     PRODL           equ	4083	;# 
   369   000FF4                     PRODH           equ	4084	;# 
   370   000FF5                     TABLAT          equ	4085	;# 
   371   000FF6                     TBLPTR          equ	4086	;# 
   372   000FF6                     TBLPTRL         equ	4086	;# 
   373   000FF7                     TBLPTRH         equ	4087	;# 
   374   000FF8                     TBLPTRU         equ	4088	;# 
   375   000FF9                     PCLAT           equ	4089	;# 
   376   000FF9                     PC              equ	4089	;# 
   377   000FF9                     PCL             equ	4089	;# 
   378   000FFA                     PCLATH          equ	4090	;# 
   379   000FFB                     PCLATU          equ	4091	;# 
   380   000FFC                     STKPTR          equ	4092	;# 
   381   000FFD                     TOS             equ	4093	;# 
   382   000FFD                     TOSL            equ	4093	;# 
   383   000FFE                     TOSH            equ	4094	;# 
   384   000FFF                     TOSU            equ	4095	;# 
   385   000F38                     ANSELA          equ	3896	;# 
   386   000F39                     ANSELB          equ	3897	;# 
   387   000F3A                     ANSELC          equ	3898	;# 
   388   000F3B                     ANSELD          equ	3899	;# 
   389   000F3C                     ANSELE          equ	3900	;# 
   390   000F3D                     PMD2            equ	3901	;# 
   391   000F3E                     PMD1            equ	3902	;# 
   392   000F3F                     PMD0            equ	3903	;# 
   393   000F40                     VREFCON2        equ	3904	;# 
   394   000F40                     DACCON1         equ	3904	;# 
   395   000F41                     VREFCON1        equ	3905	;# 
   396   000F41                     DACCON0         equ	3905	;# 
   397   000F42                     VREFCON0        equ	3906	;# 
   398   000F42                     FVRCON          equ	3906	;# 
   399   000F43                     CTMUICON        equ	3907	;# 
   400   000F43                     CTMUICONH       equ	3907	;# 
   401   000F44                     CTMUCONL        equ	3908	;# 
   402   000F44                     CTMUCON1        equ	3908	;# 
   403   000F45                     CTMUCONH        equ	3909	;# 
   404   000F45                     CTMUCON0        equ	3909	;# 
   405   000F46                     SRCON1          equ	3910	;# 
   406   000F47                     SRCON0          equ	3911	;# 
   407   000F48                     CCPTMRS1        equ	3912	;# 
   408   000F49                     CCPTMRS0        equ	3913	;# 
   409   000F4A                     T6CON           equ	3914	;# 
   410   000F4B                     PR6             equ	3915	;# 
   411   000F4C                     TMR6            equ	3916	;# 
   412   000F4D                     T5GCON          equ	3917	;# 
   413   000F4E                     T5CON           equ	3918	;# 
   414   000F4F                     TMR5            equ	3919	;# 
   415   000F4F                     TMR5L           equ	3919	;# 
   416   000F50                     TMR5H           equ	3920	;# 
   417   000F51                     T4CON           equ	3921	;# 
   418   000F52                     PR4             equ	3922	;# 
   419   000F53                     TMR4            equ	3923	;# 
   420   000F54                     CCP5CON         equ	3924	;# 
   421   000F55                     CCPR5           equ	3925	;# 
   422   000F55                     CCPR5L          equ	3925	;# 
   423   000F56                     CCPR5H          equ	3926	;# 
   424   000F57                     CCP4CON         equ	3927	;# 
   425   000F58                     CCPR4           equ	3928	;# 
   426   000F58                     CCPR4L          equ	3928	;# 
   427   000F59                     CCPR4H          equ	3929	;# 
   428   000F5A                     PSTR3CON        equ	3930	;# 
   429   000F5B                     ECCP3AS         equ	3931	;# 
   430   000F5B                     CCP3AS          equ	3931	;# 
   431   000F5C                     PWM3CON         equ	3932	;# 
   432   000F5D                     CCP3CON         equ	3933	;# 
   433   000F5E                     CCPR3           equ	3934	;# 
   434   000F5E                     CCPR3L          equ	3934	;# 
   435   000F5F                     CCPR3H          equ	3935	;# 
   436   000F60                     SLRCON          equ	3936	;# 
   437   000F61                     WPUB            equ	3937	;# 
   438   000F62                     IOCB            equ	3938	;# 
   439   000F63                     PSTR2CON        equ	3939	;# 
   440   000F64                     ECCP2AS         equ	3940	;# 
   441   000F64                     CCP2AS          equ	3940	;# 
   442   000F65                     PWM2CON         equ	3941	;# 
   443   000F66                     CCP2CON         equ	3942	;# 
   444   000F67                     CCPR2           equ	3943	;# 
   445   000F67                     CCPR2L          equ	3943	;# 
   446   000F68                     CCPR2H          equ	3944	;# 
   447   000F69                     SSP2CON3        equ	3945	;# 
   448   000F6A                     SSP2MSK         equ	3946	;# 
   449   000F6B                     SSP2CON2        equ	3947	;# 
   450   000F6C                     SSP2CON1        equ	3948	;# 
   451   000F6D                     SSP2STAT        equ	3949	;# 
   452   000F6E                     SSP2ADD         equ	3950	;# 
   453   000F6F                     SSP2BUF         equ	3951	;# 
   454   000F70                     BAUDCON2        equ	3952	;# 
   455   000F70                     BAUD2CON        equ	3952	;# 
   456   000F71                     RCSTA2          equ	3953	;# 
   457   000F71                     RC2STA          equ	3953	;# 
   458   000F72                     TXSTA2          equ	3954	;# 
   459   000F72                     TX2STA          equ	3954	;# 
   460   000F73                     TXREG2          equ	3955	;# 
   461   000F73                     TX2REG          equ	3955	;# 
   462   000F74                     RCREG2          equ	3956	;# 
   463   000F74                     RC2REG          equ	3956	;# 
   464   000F75                     SPBRG2          equ	3957	;# 
   465   000F75                     SP2BRG          equ	3957	;# 
   466   000F76                     SPBRGH2         equ	3958	;# 
   467   000F76                     SP2BRGH         equ	3958	;# 
   468   000F77                     CM2CON1         equ	3959	;# 
   469   000F77                     CM12CON         equ	3959	;# 
   470   000F78                     CM2CON0         equ	3960	;# 
   471   000F78                     CM2CON          equ	3960	;# 
   472   000F79                     CM1CON0         equ	3961	;# 
   473   000F79                     CM1CON          equ	3961	;# 
   474   000F7A                     PIE4            equ	3962	;# 
   475   000F7B                     PIR4            equ	3963	;# 
   476   000F7C                     IPR4            equ	3964	;# 
   477   000F7D                     PIE5            equ	3965	;# 
   478   000F7E                     PIR5            equ	3966	;# 
   479   000F7F                     IPR5            equ	3967	;# 
   480   000F80                     PORTA           equ	3968	;# 
   481   000F81                     PORTB           equ	3969	;# 
   482   000F82                     PORTC           equ	3970	;# 
   483   000F83                     PORTD           equ	3971	;# 
   484   000F84                     PORTE           equ	3972	;# 
   485   000F89                     LATA            equ	3977	;# 
   486   000F8A                     LATB            equ	3978	;# 
   487   000F8B                     LATC            equ	3979	;# 
   488   000F8C                     LATD            equ	3980	;# 
   489   000F8D                     LATE            equ	3981	;# 
   490   000F92                     TRISA           equ	3986	;# 
   491   000F92                     DDRA            equ	3986	;# 
   492   000F93                     TRISB           equ	3987	;# 
   493   000F93                     DDRB            equ	3987	;# 
   494   000F94                     TRISC           equ	3988	;# 
   495   000F94                     DDRC            equ	3988	;# 
   496   000F95                     TRISD           equ	3989	;# 
   497   000F95                     DDRD            equ	3989	;# 
   498   000F96                     TRISE           equ	3990	;# 
   499   000F96                     DDRE            equ	3990	;# 
   500   000F9B                     OSCTUNE         equ	3995	;# 
   501   000F9C                     HLVDCON         equ	3996	;# 
   502   000F9C                     LVDCON          equ	3996	;# 
   503   000F9D                     PIE1            equ	3997	;# 
   504   000F9E                     PIR1            equ	3998	;# 
   505   000F9F                     IPR1            equ	3999	;# 
   506   000FA0                     PIE2            equ	4000	;# 
   507   000FA1                     PIR2            equ	4001	;# 
   508   000FA2                     IPR2            equ	4002	;# 
   509   000FA3                     PIE3            equ	4003	;# 
   510   000FA4                     PIR3            equ	4004	;# 
   511   000FA5                     IPR3            equ	4005	;# 
   512   000FA6                     EECON1          equ	4006	;# 
   513   000FA7                     EECON2          equ	4007	;# 
   514   000FA8                     EEDATA          equ	4008	;# 
   515   000FA9                     EEADR           equ	4009	;# 
   516   000FAA                     EEADRH          equ	4010	;# 
   517   000FAB                     RCSTA1          equ	4011	;# 
   518   000FAB                     RCSTA           equ	4011	;# 
   519   000FAB                     RC1STA          equ	4011	;# 
   520   000FAC                     TXSTA1          equ	4012	;# 
   521   000FAC                     TXSTA           equ	4012	;# 
   522   000FAC                     TX1STA          equ	4012	;# 
   523   000FAD                     TXREG1          equ	4013	;# 
   524   000FAD                     TXREG           equ	4013	;# 
   525   000FAD                     TX1REG          equ	4013	;# 
   526   000FAE                     RCREG1          equ	4014	;# 
   527   000FAE                     RCREG           equ	4014	;# 
   528   000FAE                     RC1REG          equ	4014	;# 
   529   000FAF                     SPBRG1          equ	4015	;# 
   530   000FAF                     SPBRG           equ	4015	;# 
   531   000FAF                     SP1BRG          equ	4015	;# 
   532   000FB0                     SPBRGH1         equ	4016	;# 
   533   000FB0                     SPBRGH          equ	4016	;# 
   534   000FB0                     SP1BRGH         equ	4016	;# 
   535   000FB1                     T3CON           equ	4017	;# 
   536   000FB2                     TMR3            equ	4018	;# 
   537   000FB2                     TMR3L           equ	4018	;# 
   538   000FB3                     TMR3H           equ	4019	;# 
   539   000FB4                     T3GCON          equ	4020	;# 
   540   000FB6                     ECCP1AS         equ	4022	;# 
   541   000FB6                     ECCPAS          equ	4022	;# 
   542   000FB7                     PWM1CON         equ	4023	;# 
   543   000FB7                     PWMCON          equ	4023	;# 
   544   000FB8                     BAUDCON1        equ	4024	;# 
   545   000FB8                     BAUDCON         equ	4024	;# 
   546   000FB8                     BAUDCTL         equ	4024	;# 
   547   000FB8                     BAUD1CON        equ	4024	;# 
   548   000FB9                     PSTR1CON        equ	4025	;# 
   549   000FB9                     PSTRCON         equ	4025	;# 
   550   000FBA                     T2CON           equ	4026	;# 
   551   000FBB                     PR2             equ	4027	;# 
   552   000FBC                     TMR2            equ	4028	;# 
   553   000FBD                     CCP1CON         equ	4029	;# 
   554   000FBE                     CCPR1           equ	4030	;# 
   555   000FBE                     CCPR1L          equ	4030	;# 
   556   000FBF                     CCPR1H          equ	4031	;# 
   557   000FC0                     ADCON2          equ	4032	;# 
   558   000FC1                     ADCON1          equ	4033	;# 
   559   000FC2                     ADCON0          equ	4034	;# 
   560   000FC3                     ADRES           equ	4035	;# 
   561   000FC3                     ADRESL          equ	4035	;# 
   562   000FC4                     ADRESH          equ	4036	;# 
   563   000FC5                     SSP1CON2        equ	4037	;# 
   564   000FC5                     SSPCON2         equ	4037	;# 
   565   000FC6                     SSP1CON1        equ	4038	;# 
   566   000FC6                     SSPCON1         equ	4038	;# 
   567   000FC7                     SSP1STAT        equ	4039	;# 
   568   000FC7                     SSPSTAT         equ	4039	;# 
   569   000FC8                     SSP1ADD         equ	4040	;# 
   570   000FC8                     SSPADD          equ	4040	;# 
   571   000FC9                     SSP1BUF         equ	4041	;# 
   572   000FC9                     SSPBUF          equ	4041	;# 
   573   000FCA                     SSP1MSK         equ	4042	;# 
   574   000FCA                     SSPMSK          equ	4042	;# 
   575   000FCB                     SSP1CON3        equ	4043	;# 
   576   000FCB                     SSPCON3         equ	4043	;# 
   577   000FCC                     T1GCON          equ	4044	;# 
   578   000FCD                     T1CON           equ	4045	;# 
   579   000FCE                     TMR1            equ	4046	;# 
   580   000FCE                     TMR1L           equ	4046	;# 
   581   000FCF                     TMR1H           equ	4047	;# 
   582   000FD0                     RCON            equ	4048	;# 
   583   000FD1                     WDTCON          equ	4049	;# 
   584   000FD2                     OSCCON2         equ	4050	;# 
   585   000FD3                     OSCCON          equ	4051	;# 
   586   000FD5                     T0CON           equ	4053	;# 
   587   000FD6                     TMR0            equ	4054	;# 
   588   000FD6                     TMR0L           equ	4054	;# 
   589   000FD7                     TMR0H           equ	4055	;# 
   590   000FD8                     STATUS          equ	4056	;# 
   591   000FD9                     FSR2            equ	4057	;# 
   592   000FD9                     FSR2L           equ	4057	;# 
   593   000FDA                     FSR2H           equ	4058	;# 
   594   000FDB                     PLUSW2          equ	4059	;# 
   595   000FDC                     PREINC2         equ	4060	;# 
   596   000FDD                     POSTDEC2        equ	4061	;# 
   597   000FDE                     POSTINC2        equ	4062	;# 
   598   000FDF                     INDF2           equ	4063	;# 
   599   000FE0                     BSR             equ	4064	;# 
   600   000FE1                     FSR1            equ	4065	;# 
   601   000FE1                     FSR1L           equ	4065	;# 
   602   000FE2                     FSR1H           equ	4066	;# 
   603   000FE3                     PLUSW1          equ	4067	;# 
   604   000FE4                     PREINC1         equ	4068	;# 
   605   000FE5                     POSTDEC1        equ	4069	;# 
   606   000FE6                     POSTINC1        equ	4070	;# 
   607   000FE7                     INDF1           equ	4071	;# 
   608   000FE8                     WREG            equ	4072	;# 
   609   000FE9                     FSR0            equ	4073	;# 
   610   000FE9                     FSR0L           equ	4073	;# 
   611   000FEA                     FSR0H           equ	4074	;# 
   612   000FEB                     PLUSW0          equ	4075	;# 
   613   000FEC                     PREINC0         equ	4076	;# 
   614   000FED                     POSTDEC0        equ	4077	;# 
   615   000FEE                     POSTINC0        equ	4078	;# 
   616   000FEF                     INDF0           equ	4079	;# 
   617   000FF0                     INTCON3         equ	4080	;# 
   618   000FF1                     INTCON2         equ	4081	;# 
   619   000FF2                     INTCON          equ	4082	;# 
   620   000FF3                     PROD            equ	4083	;# 
   621   000FF3                     PRODL           equ	4083	;# 
   622   000FF4                     PRODH           equ	4084	;# 
   623   000FF5                     TABLAT          equ	4085	;# 
   624   000FF6                     TBLPTR          equ	4086	;# 
   625   000FF6                     TBLPTRL         equ	4086	;# 
   626   000FF7                     TBLPTRH         equ	4087	;# 
   627   000FF8                     TBLPTRU         equ	4088	;# 
   628   000FF9                     PCLAT           equ	4089	;# 
   629   000FF9                     PC              equ	4089	;# 
   630   000FF9                     PCL             equ	4089	;# 
   631   000FFA                     PCLATH          equ	4090	;# 
   632   000FFB                     PCLATU          equ	4091	;# 
   633   000FFC                     STKPTR          equ	4092	;# 
   634   000FFD                     TOS             equ	4093	;# 
   635   000FFD                     TOSL            equ	4093	;# 
   636   000FFE                     TOSH            equ	4094	;# 
   637   000FFF                     TOSU            equ	4095	;# 
   638   000F38                     ANSELA          equ	3896	;# 
   639   000F39                     ANSELB          equ	3897	;# 
   640   000F3A                     ANSELC          equ	3898	;# 
   641   000F3B                     ANSELD          equ	3899	;# 
   642   000F3C                     ANSELE          equ	3900	;# 
   643   000F3D                     PMD2            equ	3901	;# 
   644   000F3E                     PMD1            equ	3902	;# 
   645   000F3F                     PMD0            equ	3903	;# 
   646   000F40                     VREFCON2        equ	3904	;# 
   647   000F40                     DACCON1         equ	3904	;# 
   648   000F41                     VREFCON1        equ	3905	;# 
   649   000F41                     DACCON0         equ	3905	;# 
   650   000F42                     VREFCON0        equ	3906	;# 
   651   000F42                     FVRCON          equ	3906	;# 
   652   000F43                     CTMUICON        equ	3907	;# 
   653   000F43                     CTMUICONH       equ	3907	;# 
   654   000F44                     CTMUCONL        equ	3908	;# 
   655   000F44                     CTMUCON1        equ	3908	;# 
   656   000F45                     CTMUCONH        equ	3909	;# 
   657   000F45                     CTMUCON0        equ	3909	;# 
   658   000F46                     SRCON1          equ	3910	;# 
   659   000F47                     SRCON0          equ	3911	;# 
   660   000F48                     CCPTMRS1        equ	3912	;# 
   661   000F49                     CCPTMRS0        equ	3913	;# 
   662   000F4A                     T6CON           equ	3914	;# 
   663   000F4B                     PR6             equ	3915	;# 
   664   000F4C                     TMR6            equ	3916	;# 
   665   000F4D                     T5GCON          equ	3917	;# 
   666   000F4E                     T5CON           equ	3918	;# 
   667   000F4F                     TMR5            equ	3919	;# 
   668   000F4F                     TMR5L           equ	3919	;# 
   669   000F50                     TMR5H           equ	3920	;# 
   670   000F51                     T4CON           equ	3921	;# 
   671   000F52                     PR4             equ	3922	;# 
   672   000F53                     TMR4            equ	3923	;# 
   673   000F54                     CCP5CON         equ	3924	;# 
   674   000F55                     CCPR5           equ	3925	;# 
   675   000F55                     CCPR5L          equ	3925	;# 
   676   000F56                     CCPR5H          equ	3926	;# 
   677   000F57                     CCP4CON         equ	3927	;# 
   678   000F58                     CCPR4           equ	3928	;# 
   679   000F58                     CCPR4L          equ	3928	;# 
   680   000F59                     CCPR4H          equ	3929	;# 
   681   000F5A                     PSTR3CON        equ	3930	;# 
   682   000F5B                     ECCP3AS         equ	3931	;# 
   683   000F5B                     CCP3AS          equ	3931	;# 
   684   000F5C                     PWM3CON         equ	3932	;# 
   685   000F5D                     CCP3CON         equ	3933	;# 
   686   000F5E                     CCPR3           equ	3934	;# 
   687   000F5E                     CCPR3L          equ	3934	;# 
   688   000F5F                     CCPR3H          equ	3935	;# 
   689   000F60                     SLRCON          equ	3936	;# 
   690   000F61                     WPUB            equ	3937	;# 
   691   000F62                     IOCB            equ	3938	;# 
   692   000F63                     PSTR2CON        equ	3939	;# 
   693   000F64                     ECCP2AS         equ	3940	;# 
   694   000F64                     CCP2AS          equ	3940	;# 
   695   000F65                     PWM2CON         equ	3941	;# 
   696   000F66                     CCP2CON         equ	3942	;# 
   697   000F67                     CCPR2           equ	3943	;# 
   698   000F67                     CCPR2L          equ	3943	;# 
   699   000F68                     CCPR2H          equ	3944	;# 
   700   000F69                     SSP2CON3        equ	3945	;# 
   701   000F6A                     SSP2MSK         equ	3946	;# 
   702   000F6B                     SSP2CON2        equ	3947	;# 
   703   000F6C                     SSP2CON1        equ	3948	;# 
   704   000F6D                     SSP2STAT        equ	3949	;# 
   705   000F6E                     SSP2ADD         equ	3950	;# 
   706   000F6F                     SSP2BUF         equ	3951	;# 
   707   000F70                     BAUDCON2        equ	3952	;# 
   708   000F70                     BAUD2CON        equ	3952	;# 
   709   000F71                     RCSTA2          equ	3953	;# 
   710   000F71                     RC2STA          equ	3953	;# 
   711   000F72                     TXSTA2          equ	3954	;# 
   712   000F72                     TX2STA          equ	3954	;# 
   713   000F73                     TXREG2          equ	3955	;# 
   714   000F73                     TX2REG          equ	3955	;# 
   715   000F74                     RCREG2          equ	3956	;# 
   716   000F74                     RC2REG          equ	3956	;# 
   717   000F75                     SPBRG2          equ	3957	;# 
   718   000F75                     SP2BRG          equ	3957	;# 
   719   000F76                     SPBRGH2         equ	3958	;# 
   720   000F76                     SP2BRGH         equ	3958	;# 
   721   000F77                     CM2CON1         equ	3959	;# 
   722   000F77                     CM12CON         equ	3959	;# 
   723   000F78                     CM2CON0         equ	3960	;# 
   724   000F78                     CM2CON          equ	3960	;# 
   725   000F79                     CM1CON0         equ	3961	;# 
   726   000F79                     CM1CON          equ	3961	;# 
   727   000F7A                     PIE4            equ	3962	;# 
   728   000F7B                     PIR4            equ	3963	;# 
   729   000F7C                     IPR4            equ	3964	;# 
   730   000F7D                     PIE5            equ	3965	;# 
   731   000F7E                     PIR5            equ	3966	;# 
   732   000F7F                     IPR5            equ	3967	;# 
   733   000F80                     PORTA           equ	3968	;# 
   734   000F81                     PORTB           equ	3969	;# 
   735   000F82                     PORTC           equ	3970	;# 
   736   000F83                     PORTD           equ	3971	;# 
   737   000F84                     PORTE           equ	3972	;# 
   738   000F89                     LATA            equ	3977	;# 
   739   000F8A                     LATB            equ	3978	;# 
   740   000F8B                     LATC            equ	3979	;# 
   741   000F8C                     LATD            equ	3980	;# 
   742   000F8D                     LATE            equ	3981	;# 
   743   000F92                     TRISA           equ	3986	;# 
   744   000F92                     DDRA            equ	3986	;# 
   745   000F93                     TRISB           equ	3987	;# 
   746   000F93                     DDRB            equ	3987	;# 
   747   000F94                     TRISC           equ	3988	;# 
   748   000F94                     DDRC            equ	3988	;# 
   749   000F95                     TRISD           equ	3989	;# 
   750   000F95                     DDRD            equ	3989	;# 
   751   000F96                     TRISE           equ	3990	;# 
   752   000F96                     DDRE            equ	3990	;# 
   753   000F9B                     OSCTUNE         equ	3995	;# 
   754   000F9C                     HLVDCON         equ	3996	;# 
   755   000F9C                     LVDCON          equ	3996	;# 
   756   000F9D                     PIE1            equ	3997	;# 
   757   000F9E                     PIR1            equ	3998	;# 
   758   000F9F                     IPR1            equ	3999	;# 
   759   000FA0                     PIE2            equ	4000	;# 
   760   000FA1                     PIR2            equ	4001	;# 
   761   000FA2                     IPR2            equ	4002	;# 
   762   000FA3                     PIE3            equ	4003	;# 
   763   000FA4                     PIR3            equ	4004	;# 
   764   000FA5                     IPR3            equ	4005	;# 
   765   000FA6                     EECON1          equ	4006	;# 
   766   000FA7                     EECON2          equ	4007	;# 
   767   000FA8                     EEDATA          equ	4008	;# 
   768   000FA9                     EEADR           equ	4009	;# 
   769   000FAA                     EEADRH          equ	4010	;# 
   770   000FAB                     RCSTA1          equ	4011	;# 
   771   000FAB                     RCSTA           equ	4011	;# 
   772   000FAB                     RC1STA          equ	4011	;# 
   773   000FAC                     TXSTA1          equ	4012	;# 
   774   000FAC                     TXSTA           equ	4012	;# 
   775   000FAC                     TX1STA          equ	4012	;# 
   776   000FAD                     TXREG1          equ	4013	;# 
   777   000FAD                     TXREG           equ	4013	;# 
   778   000FAD                     TX1REG          equ	4013	;# 
   779   000FAE                     RCREG1          equ	4014	;# 
   780   000FAE                     RCREG           equ	4014	;# 
   781   000FAE                     RC1REG          equ	4014	;# 
   782   000FAF                     SPBRG1          equ	4015	;# 
   783   000FAF                     SPBRG           equ	4015	;# 
   784   000FAF                     SP1BRG          equ	4015	;# 
   785   000FB0                     SPBRGH1         equ	4016	;# 
   786   000FB0                     SPBRGH          equ	4016	;# 
   787   000FB0                     SP1BRGH         equ	4016	;# 
   788   000FB1                     T3CON           equ	4017	;# 
   789   000FB2                     TMR3            equ	4018	;# 
   790   000FB2                     TMR3L           equ	4018	;# 
   791   000FB3                     TMR3H           equ	4019	;# 
   792   000FB4                     T3GCON          equ	4020	;# 
   793   000FB6                     ECCP1AS         equ	4022	;# 
   794   000FB6                     ECCPAS          equ	4022	;# 
   795   000FB7                     PWM1CON         equ	4023	;# 
   796   000FB7                     PWMCON          equ	4023	;# 
   797   000FB8                     BAUDCON1        equ	4024	;# 
   798   000FB8                     BAUDCON         equ	4024	;# 
   799   000FB8                     BAUDCTL         equ	4024	;# 
   800   000FB8                     BAUD1CON        equ	4024	;# 
   801   000FB9                     PSTR1CON        equ	4025	;# 
   802   000FB9                     PSTRCON         equ	4025	;# 
   803   000FBA                     T2CON           equ	4026	;# 
   804   000FBB                     PR2             equ	4027	;# 
   805   000FBC                     TMR2            equ	4028	;# 
   806   000FBD                     CCP1CON         equ	4029	;# 
   807   000FBE                     CCPR1           equ	4030	;# 
   808   000FBE                     CCPR1L          equ	4030	;# 
   809   000FBF                     CCPR1H          equ	4031	;# 
   810   000FC0                     ADCON2          equ	4032	;# 
   811   000FC1                     ADCON1          equ	4033	;# 
   812   000FC2                     ADCON0          equ	4034	;# 
   813   000FC3                     ADRES           equ	4035	;# 
   814   000FC3                     ADRESL          equ	4035	;# 
   815   000FC4                     ADRESH          equ	4036	;# 
   816   000FC5                     SSP1CON2        equ	4037	;# 
   817   000FC5                     SSPCON2         equ	4037	;# 
   818   000FC6                     SSP1CON1        equ	4038	;# 
   819   000FC6                     SSPCON1         equ	4038	;# 
   820   000FC7                     SSP1STAT        equ	4039	;# 
   821   000FC7                     SSPSTAT         equ	4039	;# 
   822   000FC8                     SSP1ADD         equ	4040	;# 
   823   000FC8                     SSPADD          equ	4040	;# 
   824   000FC9                     SSP1BUF         equ	4041	;# 
   825   000FC9                     SSPBUF          equ	4041	;# 
   826   000FCA                     SSP1MSK         equ	4042	;# 
   827   000FCA                     SSPMSK          equ	4042	;# 
   828   000FCB                     SSP1CON3        equ	4043	;# 
   829   000FCB                     SSPCON3         equ	4043	;# 
   830   000FCC                     T1GCON          equ	4044	;# 
   831   000FCD                     T1CON           equ	4045	;# 
   832   000FCE                     TMR1            equ	4046	;# 
   833   000FCE                     TMR1L           equ	4046	;# 
   834   000FCF                     TMR1H           equ	4047	;# 
   835   000FD0                     RCON            equ	4048	;# 
   836   000FD1                     WDTCON          equ	4049	;# 
   837   000FD2                     OSCCON2         equ	4050	;# 
   838   000FD3                     OSCCON          equ	4051	;# 
   839   000FD5                     T0CON           equ	4053	;# 
   840   000FD6                     TMR0            equ	4054	;# 
   841   000FD6                     TMR0L           equ	4054	;# 
   842   000FD7                     TMR0H           equ	4055	;# 
   843   000FD8                     STATUS          equ	4056	;# 
   844   000FD9                     FSR2            equ	4057	;# 
   845   000FD9                     FSR2L           equ	4057	;# 
   846   000FDA                     FSR2H           equ	4058	;# 
   847   000FDB                     PLUSW2          equ	4059	;# 
   848   000FDC                     PREINC2         equ	4060	;# 
   849   000FDD                     POSTDEC2        equ	4061	;# 
   850   000FDE                     POSTINC2        equ	4062	;# 
   851   000FDF                     INDF2           equ	4063	;# 
   852   000FE0                     BSR             equ	4064	;# 
   853   000FE1                     FSR1            equ	4065	;# 
   854   000FE1                     FSR1L           equ	4065	;# 
   855   000FE2                     FSR1H           equ	4066	;# 
   856   000FE3                     PLUSW1          equ	4067	;# 
   857   000FE4                     PREINC1         equ	4068	;# 
   858   000FE5                     POSTDEC1        equ	4069	;# 
   859   000FE6                     POSTINC1        equ	4070	;# 
   860   000FE7                     INDF1           equ	4071	;# 
   861   000FE8                     WREG            equ	4072	;# 
   862   000FE9                     FSR0            equ	4073	;# 
   863   000FE9                     FSR0L           equ	4073	;# 
   864   000FEA                     FSR0H           equ	4074	;# 
   865   000FEB                     PLUSW0          equ	4075	;# 
   866   000FEC                     PREINC0         equ	4076	;# 
   867   000FED                     POSTDEC0        equ	4077	;# 
   868   000FEE                     POSTINC0        equ	4078	;# 
   869   000FEF                     INDF0           equ	4079	;# 
   870   000FF0                     INTCON3         equ	4080	;# 
   871   000FF1                     INTCON2         equ	4081	;# 
   872   000FF2                     INTCON          equ	4082	;# 
   873   000FF3                     PROD            equ	4083	;# 
   874   000FF3                     PRODL           equ	4083	;# 
   875   000FF4                     PRODH           equ	4084	;# 
   876   000FF5                     TABLAT          equ	4085	;# 
   877   000FF6                     TBLPTR          equ	4086	;# 
   878   000FF6                     TBLPTRL         equ	4086	;# 
   879   000FF7                     TBLPTRH         equ	4087	;# 
   880   000FF8                     TBLPTRU         equ	4088	;# 
   881   000FF9                     PCLAT           equ	4089	;# 
   882   000FF9                     PC              equ	4089	;# 
   883   000FF9                     PCL             equ	4089	;# 
   884   000FFA                     PCLATH          equ	4090	;# 
   885   000FFB                     PCLATU          equ	4091	;# 
   886   000FFC                     STKPTR          equ	4092	;# 
   887   000FFD                     TOS             equ	4093	;# 
   888   000FFD                     TOSL            equ	4093	;# 
   889   000FFE                     TOSH            equ	4094	;# 
   890   000FFF                     TOSU            equ	4095	;# 
   891   000F38                     ANSELA          equ	3896	;# 
   892   000F39                     ANSELB          equ	3897	;# 
   893   000F3A                     ANSELC          equ	3898	;# 
   894   000F3B                     ANSELD          equ	3899	;# 
   895   000F3C                     ANSELE          equ	3900	;# 
   896   000F3D                     PMD2            equ	3901	;# 
   897   000F3E                     PMD1            equ	3902	;# 
   898   000F3F                     PMD0            equ	3903	;# 
   899   000F40                     VREFCON2        equ	3904	;# 
   900   000F40                     DACCON1         equ	3904	;# 
   901   000F41                     VREFCON1        equ	3905	;# 
   902   000F41                     DACCON0         equ	3905	;# 
   903   000F42                     VREFCON0        equ	3906	;# 
   904   000F42                     FVRCON          equ	3906	;# 
   905   000F43                     CTMUICON        equ	3907	;# 
   906   000F43                     CTMUICONH       equ	3907	;# 
   907   000F44                     CTMUCONL        equ	3908	;# 
   908   000F44                     CTMUCON1        equ	3908	;# 
   909   000F45                     CTMUCONH        equ	3909	;# 
   910   000F45                     CTMUCON0        equ	3909	;# 
   911   000F46                     SRCON1          equ	3910	;# 
   912   000F47                     SRCON0          equ	3911	;# 
   913   000F48                     CCPTMRS1        equ	3912	;# 
   914   000F49                     CCPTMRS0        equ	3913	;# 
   915   000F4A                     T6CON           equ	3914	;# 
   916   000F4B                     PR6             equ	3915	;# 
   917   000F4C                     TMR6            equ	3916	;# 
   918   000F4D                     T5GCON          equ	3917	;# 
   919   000F4E                     T5CON           equ	3918	;# 
   920   000F4F                     TMR5            equ	3919	;# 
   921   000F4F                     TMR5L           equ	3919	;# 
   922   000F50                     TMR5H           equ	3920	;# 
   923   000F51                     T4CON           equ	3921	;# 
   924   000F52                     PR4             equ	3922	;# 
   925   000F53                     TMR4            equ	3923	;# 
   926   000F54                     CCP5CON         equ	3924	;# 
   927   000F55                     CCPR5           equ	3925	;# 
   928   000F55                     CCPR5L          equ	3925	;# 
   929   000F56                     CCPR5H          equ	3926	;# 
   930   000F57                     CCP4CON         equ	3927	;# 
   931   000F58                     CCPR4           equ	3928	;# 
   932   000F58                     CCPR4L          equ	3928	;# 
   933   000F59                     CCPR4H          equ	3929	;# 
   934   000F5A                     PSTR3CON        equ	3930	;# 
   935   000F5B                     ECCP3AS         equ	3931	;# 
   936   000F5B                     CCP3AS          equ	3931	;# 
   937   000F5C                     PWM3CON         equ	3932	;# 
   938   000F5D                     CCP3CON         equ	3933	;# 
   939   000F5E                     CCPR3           equ	3934	;# 
   940   000F5E                     CCPR3L          equ	3934	;# 
   941   000F5F                     CCPR3H          equ	3935	;# 
   942   000F60                     SLRCON          equ	3936	;# 
   943   000F61                     WPUB            equ	3937	;# 
   944   000F62                     IOCB            equ	3938	;# 
   945   000F63                     PSTR2CON        equ	3939	;# 
   946   000F64                     ECCP2AS         equ	3940	;# 
   947   000F64                     CCP2AS          equ	3940	;# 
   948   000F65                     PWM2CON         equ	3941	;# 
   949   000F66                     CCP2CON         equ	3942	;# 
   950   000F67                     CCPR2           equ	3943	;# 
   951   000F67                     CCPR2L          equ	3943	;# 
   952   000F68                     CCPR2H          equ	3944	;# 
   953   000F69                     SSP2CON3        equ	3945	;# 
   954   000F6A                     SSP2MSK         equ	3946	;# 
   955   000F6B                     SSP2CON2        equ	3947	;# 
   956   000F6C                     SSP2CON1        equ	3948	;# 
   957   000F6D                     SSP2STAT        equ	3949	;# 
   958   000F6E                     SSP2ADD         equ	3950	;# 
   959   000F6F                     SSP2BUF         equ	3951	;# 
   960   000F70                     BAUDCON2        equ	3952	;# 
   961   000F70                     BAUD2CON        equ	3952	;# 
   962   000F71                     RCSTA2          equ	3953	;# 
   963   000F71                     RC2STA          equ	3953	;# 
   964   000F72                     TXSTA2          equ	3954	;# 
   965   000F72                     TX2STA          equ	3954	;# 
   966   000F73                     TXREG2          equ	3955	;# 
   967   000F73                     TX2REG          equ	3955	;# 
   968   000F74                     RCREG2          equ	3956	;# 
   969   000F74                     RC2REG          equ	3956	;# 
   970   000F75                     SPBRG2          equ	3957	;# 
   971   000F75                     SP2BRG          equ	3957	;# 
   972   000F76                     SPBRGH2         equ	3958	;# 
   973   000F76                     SP2BRGH         equ	3958	;# 
   974   000F77                     CM2CON1         equ	3959	;# 
   975   000F77                     CM12CON         equ	3959	;# 
   976   000F78                     CM2CON0         equ	3960	;# 
   977   000F78                     CM2CON          equ	3960	;# 
   978   000F79                     CM1CON0         equ	3961	;# 
   979   000F79                     CM1CON          equ	3961	;# 
   980   000F7A                     PIE4            equ	3962	;# 
   981   000F7B                     PIR4            equ	3963	;# 
   982   000F7C                     IPR4            equ	3964	;# 
   983   000F7D                     PIE5            equ	3965	;# 
   984   000F7E                     PIR5            equ	3966	;# 
   985   000F7F                     IPR5            equ	3967	;# 
   986   000F80                     PORTA           equ	3968	;# 
   987   000F81                     PORTB           equ	3969	;# 
   988   000F82                     PORTC           equ	3970	;# 
   989   000F83                     PORTD           equ	3971	;# 
   990   000F84                     PORTE           equ	3972	;# 
   991   000F89                     LATA            equ	3977	;# 
   992   000F8A                     LATB            equ	3978	;# 
   993   000F8B                     LATC            equ	3979	;# 
   994   000F8C                     LATD            equ	3980	;# 
   995   000F8D                     LATE            equ	3981	;# 
   996   000F92                     TRISA           equ	3986	;# 
   997   000F92                     DDRA            equ	3986	;# 
   998   000F93                     TRISB           equ	3987	;# 
   999   000F93                     DDRB            equ	3987	;# 
  1000   000F94                     TRISC           equ	3988	;# 
  1001   000F94                     DDRC            equ	3988	;# 
  1002   000F95                     TRISD           equ	3989	;# 
  1003   000F95                     DDRD            equ	3989	;# 
  1004   000F96                     TRISE           equ	3990	;# 
  1005   000F96                     DDRE            equ	3990	;# 
  1006   000F9B                     OSCTUNE         equ	3995	;# 
  1007   000F9C                     HLVDCON         equ	3996	;# 
  1008   000F9C                     LVDCON          equ	3996	;# 
  1009   000F9D                     PIE1            equ	3997	;# 
  1010   000F9E                     PIR1            equ	3998	;# 
  1011   000F9F                     IPR1            equ	3999	;# 
  1012   000FA0                     PIE2            equ	4000	;# 
  1013   000FA1                     PIR2            equ	4001	;# 
  1014   000FA2                     IPR2            equ	4002	;# 
  1015   000FA3                     PIE3            equ	4003	;# 
  1016   000FA4                     PIR3            equ	4004	;# 
  1017   000FA5                     IPR3            equ	4005	;# 
  1018   000FA6                     EECON1          equ	4006	;# 
  1019   000FA7                     EECON2          equ	4007	;# 
  1020   000FA8                     EEDATA          equ	4008	;# 
  1021   000FA9                     EEADR           equ	4009	;# 
  1022   000FAA                     EEADRH          equ	4010	;# 
  1023   000FAB                     RCSTA1          equ	4011	;# 
  1024   000FAB                     RCSTA           equ	4011	;# 
  1025   000FAB                     RC1STA          equ	4011	;# 
  1026   000FAC                     TXSTA1          equ	4012	;# 
  1027   000FAC                     TXSTA           equ	4012	;# 
  1028   000FAC                     TX1STA          equ	4012	;# 
  1029   000FAD                     TXREG1          equ	4013	;# 
  1030   000FAD                     TXREG           equ	4013	;# 
  1031   000FAD                     TX1REG          equ	4013	;# 
  1032   000FAE                     RCREG1          equ	4014	;# 
  1033   000FAE                     RCREG           equ	4014	;# 
  1034   000FAE                     RC1REG          equ	4014	;# 
  1035   000FAF                     SPBRG1          equ	4015	;# 
  1036   000FAF                     SPBRG           equ	4015	;# 
  1037   000FAF                     SP1BRG          equ	4015	;# 
  1038   000FB0                     SPBRGH1         equ	4016	;# 
  1039   000FB0                     SPBRGH          equ	4016	;# 
  1040   000FB0                     SP1BRGH         equ	4016	;# 
  1041   000FB1                     T3CON           equ	4017	;# 
  1042   000FB2                     TMR3            equ	4018	;# 
  1043   000FB2                     TMR3L           equ	4018	;# 
  1044   000FB3                     TMR3H           equ	4019	;# 
  1045   000FB4                     T3GCON          equ	4020	;# 
  1046   000FB6                     ECCP1AS         equ	4022	;# 
  1047   000FB6                     ECCPAS          equ	4022	;# 
  1048   000FB7                     PWM1CON         equ	4023	;# 
  1049   000FB7                     PWMCON          equ	4023	;# 
  1050   000FB8                     BAUDCON1        equ	4024	;# 
  1051   000FB8                     BAUDCON         equ	4024	;# 
  1052   000FB8                     BAUDCTL         equ	4024	;# 
  1053   000FB8                     BAUD1CON        equ	4024	;# 
  1054   000FB9                     PSTR1CON        equ	4025	;# 
  1055   000FB9                     PSTRCON         equ	4025	;# 
  1056   000FBA                     T2CON           equ	4026	;# 
  1057   000FBB                     PR2             equ	4027	;# 
  1058   000FBC                     TMR2            equ	4028	;# 
  1059   000FBD                     CCP1CON         equ	4029	;# 
  1060   000FBE                     CCPR1           equ	4030	;# 
  1061   000FBE                     CCPR1L          equ	4030	;# 
  1062   000FBF                     CCPR1H          equ	4031	;# 
  1063   000FC0                     ADCON2          equ	4032	;# 
  1064   000FC1                     ADCON1          equ	4033	;# 
  1065   000FC2                     ADCON0          equ	4034	;# 
  1066   000FC3                     ADRES           equ	4035	;# 
  1067   000FC3                     ADRESL          equ	4035	;# 
  1068   000FC4                     ADRESH          equ	4036	;# 
  1069   000FC5                     SSP1CON2        equ	4037	;# 
  1070   000FC5                     SSPCON2         equ	4037	;# 
  1071   000FC6                     SSP1CON1        equ	4038	;# 
  1072   000FC6                     SSPCON1         equ	4038	;# 
  1073   000FC7                     SSP1STAT        equ	4039	;# 
  1074   000FC7                     SSPSTAT         equ	4039	;# 
  1075   000FC8                     SSP1ADD         equ	4040	;# 
  1076   000FC8                     SSPADD          equ	4040	;# 
  1077   000FC9                     SSP1BUF         equ	4041	;# 
  1078   000FC9                     SSPBUF          equ	4041	;# 
  1079   000FCA                     SSP1MSK         equ	4042	;# 
  1080   000FCA                     SSPMSK          equ	4042	;# 
  1081   000FCB                     SSP1CON3        equ	4043	;# 
  1082   000FCB                     SSPCON3         equ	4043	;# 
  1083   000FCC                     T1GCON          equ	4044	;# 
  1084   000FCD                     T1CON           equ	4045	;# 
  1085   000FCE                     TMR1            equ	4046	;# 
  1086   000FCE                     TMR1L           equ	4046	;# 
  1087   000FCF                     TMR1H           equ	4047	;# 
  1088   000FD0                     RCON            equ	4048	;# 
  1089   000FD1                     WDTCON          equ	4049	;# 
  1090   000FD2                     OSCCON2         equ	4050	;# 
  1091   000FD3                     OSCCON          equ	4051	;# 
  1092   000FD5                     T0CON           equ	4053	;# 
  1093   000FD6                     TMR0            equ	4054	;# 
  1094   000FD6                     TMR0L           equ	4054	;# 
  1095   000FD7                     TMR0H           equ	4055	;# 
  1096   000FD8                     STATUS          equ	4056	;# 
  1097   000FD9                     FSR2            equ	4057	;# 
  1098   000FD9                     FSR2L           equ	4057	;# 
  1099   000FDA                     FSR2H           equ	4058	;# 
  1100   000FDB                     PLUSW2          equ	4059	;# 
  1101   000FDC                     PREINC2         equ	4060	;# 
  1102   000FDD                     POSTDEC2        equ	4061	;# 
  1103   000FDE                     POSTINC2        equ	4062	;# 
  1104   000FDF                     INDF2           equ	4063	;# 
  1105   000FE0                     BSR             equ	4064	;# 
  1106   000FE1                     FSR1            equ	4065	;# 
  1107   000FE1                     FSR1L           equ	4065	;# 
  1108   000FE2                     FSR1H           equ	4066	;# 
  1109   000FE3                     PLUSW1          equ	4067	;# 
  1110   000FE4                     PREINC1         equ	4068	;# 
  1111   000FE5                     POSTDEC1        equ	4069	;# 
  1112   000FE6                     POSTINC1        equ	4070	;# 
  1113   000FE7                     INDF1           equ	4071	;# 
  1114   000FE8                     WREG            equ	4072	;# 
  1115   000FE9                     FSR0            equ	4073	;# 
  1116   000FE9                     FSR0L           equ	4073	;# 
  1117   000FEA                     FSR0H           equ	4074	;# 
  1118   000FEB                     PLUSW0          equ	4075	;# 
  1119   000FEC                     PREINC0         equ	4076	;# 
  1120   000FED                     POSTDEC0        equ	4077	;# 
  1121   000FEE                     POSTINC0        equ	4078	;# 
  1122   000FEF                     INDF0           equ	4079	;# 
  1123   000FF0                     INTCON3         equ	4080	;# 
  1124   000FF1                     INTCON2         equ	4081	;# 
  1125   000FF2                     INTCON          equ	4082	;# 
  1126   000FF3                     PROD            equ	4083	;# 
  1127   000FF3                     PRODL           equ	4083	;# 
  1128   000FF4                     PRODH           equ	4084	;# 
  1129   000FF5                     TABLAT          equ	4085	;# 
  1130   000FF6                     TBLPTR          equ	4086	;# 
  1131   000FF6                     TBLPTRL         equ	4086	;# 
  1132   000FF7                     TBLPTRH         equ	4087	;# 
  1133   000FF8                     TBLPTRU         equ	4088	;# 
  1134   000FF9                     PCLAT           equ	4089	;# 
  1135   000FF9                     PC              equ	4089	;# 
  1136   000FF9                     PCL             equ	4089	;# 
  1137   000FFA                     PCLATH          equ	4090	;# 
  1138   000FFB                     PCLATU          equ	4091	;# 
  1139   000FFC                     STKPTR          equ	4092	;# 
  1140   000FFD                     TOS             equ	4093	;# 
  1141   000FFD                     TOSL            equ	4093	;# 
  1142   000FFE                     TOSH            equ	4094	;# 
  1143   000FFF                     TOSU            equ	4095	;# 
  1144   000F38                     ANSELA          equ	3896	;# 
  1145   000F39                     ANSELB          equ	3897	;# 
  1146   000F3A                     ANSELC          equ	3898	;# 
  1147   000F3B                     ANSELD          equ	3899	;# 
  1148   000F3C                     ANSELE          equ	3900	;# 
  1149   000F3D                     PMD2            equ	3901	;# 
  1150   000F3E                     PMD1            equ	3902	;# 
  1151   000F3F                     PMD0            equ	3903	;# 
  1152   000F40                     VREFCON2        equ	3904	;# 
  1153   000F40                     DACCON1         equ	3904	;# 
  1154   000F41                     VREFCON1        equ	3905	;# 
  1155   000F41                     DACCON0         equ	3905	;# 
  1156   000F42                     VREFCON0        equ	3906	;# 
  1157   000F42                     FVRCON          equ	3906	;# 
  1158   000F43                     CTMUICON        equ	3907	;# 
  1159   000F43                     CTMUICONH       equ	3907	;# 
  1160   000F44                     CTMUCONL        equ	3908	;# 
  1161   000F44                     CTMUCON1        equ	3908	;# 
  1162   000F45                     CTMUCONH        equ	3909	;# 
  1163   000F45                     CTMUCON0        equ	3909	;# 
  1164   000F46                     SRCON1          equ	3910	;# 
  1165   000F47                     SRCON0          equ	3911	;# 
  1166   000F48                     CCPTMRS1        equ	3912	;# 
  1167   000F49                     CCPTMRS0        equ	3913	;# 
  1168   000F4A                     T6CON           equ	3914	;# 
  1169   000F4B                     PR6             equ	3915	;# 
  1170   000F4C                     TMR6            equ	3916	;# 
  1171   000F4D                     T5GCON          equ	3917	;# 
  1172   000F4E                     T5CON           equ	3918	;# 
  1173   000F4F                     TMR5            equ	3919	;# 
  1174   000F4F                     TMR5L           equ	3919	;# 
  1175   000F50                     TMR5H           equ	3920	;# 
  1176   000F51                     T4CON           equ	3921	;# 
  1177   000F52                     PR4             equ	3922	;# 
  1178   000F53                     TMR4            equ	3923	;# 
  1179   000F54                     CCP5CON         equ	3924	;# 
  1180   000F55                     CCPR5           equ	3925	;# 
  1181   000F55                     CCPR5L          equ	3925	;# 
  1182   000F56                     CCPR5H          equ	3926	;# 
  1183   000F57                     CCP4CON         equ	3927	;# 
  1184   000F58                     CCPR4           equ	3928	;# 
  1185   000F58                     CCPR4L          equ	3928	;# 
  1186   000F59                     CCPR4H          equ	3929	;# 
  1187   000F5A                     PSTR3CON        equ	3930	;# 
  1188   000F5B                     ECCP3AS         equ	3931	;# 
  1189   000F5B                     CCP3AS          equ	3931	;# 
  1190   000F5C                     PWM3CON         equ	3932	;# 
  1191   000F5D                     CCP3CON         equ	3933	;# 
  1192   000F5E                     CCPR3           equ	3934	;# 
  1193   000F5E                     CCPR3L          equ	3934	;# 
  1194   000F5F                     CCPR3H          equ	3935	;# 
  1195   000F60                     SLRCON          equ	3936	;# 
  1196   000F61                     WPUB            equ	3937	;# 
  1197   000F62                     IOCB            equ	3938	;# 
  1198   000F63                     PSTR2CON        equ	3939	;# 
  1199   000F64                     ECCP2AS         equ	3940	;# 
  1200   000F64                     CCP2AS          equ	3940	;# 
  1201   000F65                     PWM2CON         equ	3941	;# 
  1202   000F66                     CCP2CON         equ	3942	;# 
  1203   000F67                     CCPR2           equ	3943	;# 
  1204   000F67                     CCPR2L          equ	3943	;# 
  1205   000F68                     CCPR2H          equ	3944	;# 
  1206   000F69                     SSP2CON3        equ	3945	;# 
  1207   000F6A                     SSP2MSK         equ	3946	;# 
  1208   000F6B                     SSP2CON2        equ	3947	;# 
  1209   000F6C                     SSP2CON1        equ	3948	;# 
  1210   000F6D                     SSP2STAT        equ	3949	;# 
  1211   000F6E                     SSP2ADD         equ	3950	;# 
  1212   000F6F                     SSP2BUF         equ	3951	;# 
  1213   000F70                     BAUDCON2        equ	3952	;# 
  1214   000F70                     BAUD2CON        equ	3952	;# 
  1215   000F71                     RCSTA2          equ	3953	;# 
  1216   000F71                     RC2STA          equ	3953	;# 
  1217   000F72                     TXSTA2          equ	3954	;# 
  1218   000F72                     TX2STA          equ	3954	;# 
  1219   000F73                     TXREG2          equ	3955	;# 
  1220   000F73                     TX2REG          equ	3955	;# 
  1221   000F74                     RCREG2          equ	3956	;# 
  1222   000F74                     RC2REG          equ	3956	;# 
  1223   000F75                     SPBRG2          equ	3957	;# 
  1224   000F75                     SP2BRG          equ	3957	;# 
  1225   000F76                     SPBRGH2         equ	3958	;# 
  1226   000F76                     SP2BRGH         equ	3958	;# 
  1227   000F77                     CM2CON1         equ	3959	;# 
  1228   000F77                     CM12CON         equ	3959	;# 
  1229   000F78                     CM2CON0         equ	3960	;# 
  1230   000F78                     CM2CON          equ	3960	;# 
  1231   000F79                     CM1CON0         equ	3961	;# 
  1232   000F79                     CM1CON          equ	3961	;# 
  1233   000F7A                     PIE4            equ	3962	;# 
  1234   000F7B                     PIR4            equ	3963	;# 
  1235   000F7C                     IPR4            equ	3964	;# 
  1236   000F7D                     PIE5            equ	3965	;# 
  1237   000F7E                     PIR5            equ	3966	;# 
  1238   000F7F                     IPR5            equ	3967	;# 
  1239   000F80                     PORTA           equ	3968	;# 
  1240   000F81                     PORTB           equ	3969	;# 
  1241   000F82                     PORTC           equ	3970	;# 
  1242   000F83                     PORTD           equ	3971	;# 
  1243   000F84                     PORTE           equ	3972	;# 
  1244   000F89                     LATA            equ	3977	;# 
  1245   000F8A                     LATB            equ	3978	;# 
  1246   000F8B                     LATC            equ	3979	;# 
  1247   000F8C                     LATD            equ	3980	;# 
  1248   000F8D                     LATE            equ	3981	;# 
  1249   000F92                     TRISA           equ	3986	;# 
  1250   000F92                     DDRA            equ	3986	;# 
  1251   000F93                     TRISB           equ	3987	;# 
  1252   000F93                     DDRB            equ	3987	;# 
  1253   000F94                     TRISC           equ	3988	;# 
  1254   000F94                     DDRC            equ	3988	;# 
  1255   000F95                     TRISD           equ	3989	;# 
  1256   000F95                     DDRD            equ	3989	;# 
  1257   000F96                     TRISE           equ	3990	;# 
  1258   000F96                     DDRE            equ	3990	;# 
  1259   000F9B                     OSCTUNE         equ	3995	;# 
  1260   000F9C                     HLVDCON         equ	3996	;# 
  1261   000F9C                     LVDCON          equ	3996	;# 
  1262   000F9D                     PIE1            equ	3997	;# 
  1263   000F9E                     PIR1            equ	3998	;# 
  1264   000F9F                     IPR1            equ	3999	;# 
  1265   000FA0                     PIE2            equ	4000	;# 
  1266   000FA1                     PIR2            equ	4001	;# 
  1267   000FA2                     IPR2            equ	4002	;# 
  1268   000FA3                     PIE3            equ	4003	;# 
  1269   000FA4                     PIR3            equ	4004	;# 
  1270   000FA5                     IPR3            equ	4005	;# 
  1271   000FA6                     EECON1          equ	4006	;# 
  1272   000FA7                     EECON2          equ	4007	;# 
  1273   000FA8                     EEDATA          equ	4008	;# 
  1274   000FA9                     EEADR           equ	4009	;# 
  1275   000FAA                     EEADRH          equ	4010	;# 
  1276   000FAB                     RCSTA1          equ	4011	;# 
  1277   000FAB                     RCSTA           equ	4011	;# 
  1278   000FAB                     RC1STA          equ	4011	;# 
  1279   000FAC                     TXSTA1          equ	4012	;# 
  1280   000FAC                     TXSTA           equ	4012	;# 
  1281   000FAC                     TX1STA          equ	4012	;# 
  1282   000FAD                     TXREG1          equ	4013	;# 
  1283   000FAD                     TXREG           equ	4013	;# 
  1284   000FAD                     TX1REG          equ	4013	;# 
  1285   000FAE                     RCREG1          equ	4014	;# 
  1286   000FAE                     RCREG           equ	4014	;# 
  1287   000FAE                     RC1REG          equ	4014	;# 
  1288   000FAF                     SPBRG1          equ	4015	;# 
  1289   000FAF                     SPBRG           equ	4015	;# 
  1290   000FAF                     SP1BRG          equ	4015	;# 
  1291   000FB0                     SPBRGH1         equ	4016	;# 
  1292   000FB0                     SPBRGH          equ	4016	;# 
  1293   000FB0                     SP1BRGH         equ	4016	;# 
  1294   000FB1                     T3CON           equ	4017	;# 
  1295   000FB2                     TMR3            equ	4018	;# 
  1296   000FB2                     TMR3L           equ	4018	;# 
  1297   000FB3                     TMR3H           equ	4019	;# 
  1298   000FB4                     T3GCON          equ	4020	;# 
  1299   000FB6                     ECCP1AS         equ	4022	;# 
  1300   000FB6                     ECCPAS          equ	4022	;# 
  1301   000FB7                     PWM1CON         equ	4023	;# 
  1302   000FB7                     PWMCON          equ	4023	;# 
  1303   000FB8                     BAUDCON1        equ	4024	;# 
  1304   000FB8                     BAUDCON         equ	4024	;# 
  1305   000FB8                     BAUDCTL         equ	4024	;# 
  1306   000FB8                     BAUD1CON        equ	4024	;# 
  1307   000FB9                     PSTR1CON        equ	4025	;# 
  1308   000FB9                     PSTRCON         equ	4025	;# 
  1309   000FBA                     T2CON           equ	4026	;# 
  1310   000FBB                     PR2             equ	4027	;# 
  1311   000FBC                     TMR2            equ	4028	;# 
  1312   000FBD                     CCP1CON         equ	4029	;# 
  1313   000FBE                     CCPR1           equ	4030	;# 
  1314   000FBE                     CCPR1L          equ	4030	;# 
  1315   000FBF                     CCPR1H          equ	4031	;# 
  1316   000FC0                     ADCON2          equ	4032	;# 
  1317   000FC1                     ADCON1          equ	4033	;# 
  1318   000FC2                     ADCON0          equ	4034	;# 
  1319   000FC3                     ADRES           equ	4035	;# 
  1320   000FC3                     ADRESL          equ	4035	;# 
  1321   000FC4                     ADRESH          equ	4036	;# 
  1322   000FC5                     SSP1CON2        equ	4037	;# 
  1323   000FC5                     SSPCON2         equ	4037	;# 
  1324   000FC6                     SSP1CON1        equ	4038	;# 
  1325   000FC6                     SSPCON1         equ	4038	;# 
  1326   000FC7                     SSP1STAT        equ	4039	;# 
  1327   000FC7                     SSPSTAT         equ	4039	;# 
  1328   000FC8                     SSP1ADD         equ	4040	;# 
  1329   000FC8                     SSPADD          equ	4040	;# 
  1330   000FC9                     SSP1BUF         equ	4041	;# 
  1331   000FC9                     SSPBUF          equ	4041	;# 
  1332   000FCA                     SSP1MSK         equ	4042	;# 
  1333   000FCA                     SSPMSK          equ	4042	;# 
  1334   000FCB                     SSP1CON3        equ	4043	;# 
  1335   000FCB                     SSPCON3         equ	4043	;# 
  1336   000FCC                     T1GCON          equ	4044	;# 
  1337   000FCD                     T1CON           equ	4045	;# 
  1338   000FCE                     TMR1            equ	4046	;# 
  1339   000FCE                     TMR1L           equ	4046	;# 
  1340   000FCF                     TMR1H           equ	4047	;# 
  1341   000FD0                     RCON            equ	4048	;# 
  1342   000FD1                     WDTCON          equ	4049	;# 
  1343   000FD2                     OSCCON2         equ	4050	;# 
  1344   000FD3                     OSCCON          equ	4051	;# 
  1345   000FD5                     T0CON           equ	4053	;# 
  1346   000FD6                     TMR0            equ	4054	;# 
  1347   000FD6                     TMR0L           equ	4054	;# 
  1348   000FD7                     TMR0H           equ	4055	;# 
  1349   000FD8                     STATUS          equ	4056	;# 
  1350   000FD9                     FSR2            equ	4057	;# 
  1351   000FD9                     FSR2L           equ	4057	;# 
  1352   000FDA                     FSR2H           equ	4058	;# 
  1353   000FDB                     PLUSW2          equ	4059	;# 
  1354   000FDC                     PREINC2         equ	4060	;# 
  1355   000FDD                     POSTDEC2        equ	4061	;# 
  1356   000FDE                     POSTINC2        equ	4062	;# 
  1357   000FDF                     INDF2           equ	4063	;# 
  1358   000FE0                     BSR             equ	4064	;# 
  1359   000FE1                     FSR1            equ	4065	;# 
  1360   000FE1                     FSR1L           equ	4065	;# 
  1361   000FE2                     FSR1H           equ	4066	;# 
  1362   000FE3                     PLUSW1          equ	4067	;# 
  1363   000FE4                     PREINC1         equ	4068	;# 
  1364   000FE5                     POSTDEC1        equ	4069	;# 
  1365   000FE6                     POSTINC1        equ	4070	;# 
  1366   000FE7                     INDF1           equ	4071	;# 
  1367   000FE8                     WREG            equ	4072	;# 
  1368   000FE9                     FSR0            equ	4073	;# 
  1369   000FE9                     FSR0L           equ	4073	;# 
  1370   000FEA                     FSR0H           equ	4074	;# 
  1371   000FEB                     PLUSW0          equ	4075	;# 
  1372   000FEC                     PREINC0         equ	4076	;# 
  1373   000FED                     POSTDEC0        equ	4077	;# 
  1374   000FEE                     POSTINC0        equ	4078	;# 
  1375   000FEF                     INDF0           equ	4079	;# 
  1376   000FF0                     INTCON3         equ	4080	;# 
  1377   000FF1                     INTCON2         equ	4081	;# 
  1378   000FF2                     INTCON          equ	4082	;# 
  1379   000FF3                     PROD            equ	4083	;# 
  1380   000FF3                     PRODL           equ	4083	;# 
  1381   000FF4                     PRODH           equ	4084	;# 
  1382   000FF5                     TABLAT          equ	4085	;# 
  1383   000FF6                     TBLPTR          equ	4086	;# 
  1384   000FF6                     TBLPTRL         equ	4086	;# 
  1385   000FF7                     TBLPTRH         equ	4087	;# 
  1386   000FF8                     TBLPTRU         equ	4088	;# 
  1387   000FF9                     PCLAT           equ	4089	;# 
  1388   000FF9                     PC              equ	4089	;# 
  1389   000FF9                     PCL             equ	4089	;# 
  1390   000FFA                     PCLATH          equ	4090	;# 
  1391   000FFB                     PCLATU          equ	4091	;# 
  1392   000FFC                     STKPTR          equ	4092	;# 
  1393   000FFD                     TOS             equ	4093	;# 
  1394   000FFD                     TOSL            equ	4093	;# 
  1395   000FFE                     TOSH            equ	4094	;# 
  1396   000FFF                     TOSU            equ	4095	;# 
  1397   000F38                     ANSELA          equ	3896	;# 
  1398   000F39                     ANSELB          equ	3897	;# 
  1399   000F3A                     ANSELC          equ	3898	;# 
  1400   000F3B                     ANSELD          equ	3899	;# 
  1401   000F3C                     ANSELE          equ	3900	;# 
  1402   000F3D                     PMD2            equ	3901	;# 
  1403   000F3E                     PMD1            equ	3902	;# 
  1404   000F3F                     PMD0            equ	3903	;# 
  1405   000F40                     VREFCON2        equ	3904	;# 
  1406   000F40                     DACCON1         equ	3904	;# 
  1407   000F41                     VREFCON1        equ	3905	;# 
  1408   000F41                     DACCON0         equ	3905	;# 
  1409   000F42                     VREFCON0        equ	3906	;# 
  1410   000F42                     FVRCON          equ	3906	;# 
  1411   000F43                     CTMUICON        equ	3907	;# 
  1412   000F43                     CTMUICONH       equ	3907	;# 
  1413   000F44                     CTMUCONL        equ	3908	;# 
  1414   000F44                     CTMUCON1        equ	3908	;# 
  1415   000F45                     CTMUCONH        equ	3909	;# 
  1416   000F45                     CTMUCON0        equ	3909	;# 
  1417   000F46                     SRCON1          equ	3910	;# 
  1418   000F47                     SRCON0          equ	3911	;# 
  1419   000F48                     CCPTMRS1        equ	3912	;# 
  1420   000F49                     CCPTMRS0        equ	3913	;# 
  1421   000F4A                     T6CON           equ	3914	;# 
  1422   000F4B                     PR6             equ	3915	;# 
  1423   000F4C                     TMR6            equ	3916	;# 
  1424   000F4D                     T5GCON          equ	3917	;# 
  1425   000F4E                     T5CON           equ	3918	;# 
  1426   000F4F                     TMR5            equ	3919	;# 
  1427   000F4F                     TMR5L           equ	3919	;# 
  1428   000F50                     TMR5H           equ	3920	;# 
  1429   000F51                     T4CON           equ	3921	;# 
  1430   000F52                     PR4             equ	3922	;# 
  1431   000F53                     TMR4            equ	3923	;# 
  1432   000F54                     CCP5CON         equ	3924	;# 
  1433   000F55                     CCPR5           equ	3925	;# 
  1434   000F55                     CCPR5L          equ	3925	;# 
  1435   000F56                     CCPR5H          equ	3926	;# 
  1436   000F57                     CCP4CON         equ	3927	;# 
  1437   000F58                     CCPR4           equ	3928	;# 
  1438   000F58                     CCPR4L          equ	3928	;# 
  1439   000F59                     CCPR4H          equ	3929	;# 
  1440   000F5A                     PSTR3CON        equ	3930	;# 
  1441   000F5B                     ECCP3AS         equ	3931	;# 
  1442   000F5B                     CCP3AS          equ	3931	;# 
  1443   000F5C                     PWM3CON         equ	3932	;# 
  1444   000F5D                     CCP3CON         equ	3933	;# 
  1445   000F5E                     CCPR3           equ	3934	;# 
  1446   000F5E                     CCPR3L          equ	3934	;# 
  1447   000F5F                     CCPR3H          equ	3935	;# 
  1448   000F60                     SLRCON          equ	3936	;# 
  1449   000F61                     WPUB            equ	3937	;# 
  1450   000F62                     IOCB            equ	3938	;# 
  1451   000F63                     PSTR2CON        equ	3939	;# 
  1452   000F64                     ECCP2AS         equ	3940	;# 
  1453   000F64                     CCP2AS          equ	3940	;# 
  1454   000F65                     PWM2CON         equ	3941	;# 
  1455   000F66                     CCP2CON         equ	3942	;# 
  1456   000F67                     CCPR2           equ	3943	;# 
  1457   000F67                     CCPR2L          equ	3943	;# 
  1458   000F68                     CCPR2H          equ	3944	;# 
  1459   000F69                     SSP2CON3        equ	3945	;# 
  1460   000F6A                     SSP2MSK         equ	3946	;# 
  1461   000F6B                     SSP2CON2        equ	3947	;# 
  1462   000F6C                     SSP2CON1        equ	3948	;# 
  1463   000F6D                     SSP2STAT        equ	3949	;# 
  1464   000F6E                     SSP2ADD         equ	3950	;# 
  1465   000F6F                     SSP2BUF         equ	3951	;# 
  1466   000F70                     BAUDCON2        equ	3952	;# 
  1467   000F70                     BAUD2CON        equ	3952	;# 
  1468   000F71                     RCSTA2          equ	3953	;# 
  1469   000F71                     RC2STA          equ	3953	;# 
  1470   000F72                     TXSTA2          equ	3954	;# 
  1471   000F72                     TX2STA          equ	3954	;# 
  1472   000F73                     TXREG2          equ	3955	;# 
  1473   000F73                     TX2REG          equ	3955	;# 
  1474   000F74                     RCREG2          equ	3956	;# 
  1475   000F74                     RC2REG          equ	3956	;# 
  1476   000F75                     SPBRG2          equ	3957	;# 
  1477   000F75                     SP2BRG          equ	3957	;# 
  1478   000F76                     SPBRGH2         equ	3958	;# 
  1479   000F76                     SP2BRGH         equ	3958	;# 
  1480   000F77                     CM2CON1         equ	3959	;# 
  1481   000F77                     CM12CON         equ	3959	;# 
  1482   000F78                     CM2CON0         equ	3960	;# 
  1483   000F78                     CM2CON          equ	3960	;# 
  1484   000F79                     CM1CON0         equ	3961	;# 
  1485   000F79                     CM1CON          equ	3961	;# 
  1486   000F7A                     PIE4            equ	3962	;# 
  1487   000F7B                     PIR4            equ	3963	;# 
  1488   000F7C                     IPR4            equ	3964	;# 
  1489   000F7D                     PIE5            equ	3965	;# 
  1490   000F7E                     PIR5            equ	3966	;# 
  1491   000F7F                     IPR5            equ	3967	;# 
  1492   000F80                     PORTA           equ	3968	;# 
  1493   000F81                     PORTB           equ	3969	;# 
  1494   000F82                     PORTC           equ	3970	;# 
  1495   000F83                     PORTD           equ	3971	;# 
  1496   000F84                     PORTE           equ	3972	;# 
  1497   000F89                     LATA            equ	3977	;# 
  1498   000F8A                     LATB            equ	3978	;# 
  1499   000F8B                     LATC            equ	3979	;# 
  1500   000F8C                     LATD            equ	3980	;# 
  1501   000F8D                     LATE            equ	3981	;# 
  1502   000F92                     TRISA           equ	3986	;# 
  1503   000F92                     DDRA            equ	3986	;# 
  1504   000F93                     TRISB           equ	3987	;# 
  1505   000F93                     DDRB            equ	3987	;# 
  1506   000F94                     TRISC           equ	3988	;# 
  1507   000F94                     DDRC            equ	3988	;# 
  1508   000F95                     TRISD           equ	3989	;# 
  1509   000F95                     DDRD            equ	3989	;# 
  1510   000F96                     TRISE           equ	3990	;# 
  1511   000F96                     DDRE            equ	3990	;# 
  1512   000F9B                     OSCTUNE         equ	3995	;# 
  1513   000F9C                     HLVDCON         equ	3996	;# 
  1514   000F9C                     LVDCON          equ	3996	;# 
  1515   000F9D                     PIE1            equ	3997	;# 
  1516   000F9E                     PIR1            equ	3998	;# 
  1517   000F9F                     IPR1            equ	3999	;# 
  1518   000FA0                     PIE2            equ	4000	;# 
  1519   000FA1                     PIR2            equ	4001	;# 
  1520   000FA2                     IPR2            equ	4002	;# 
  1521   000FA3                     PIE3            equ	4003	;# 
  1522   000FA4                     PIR3            equ	4004	;# 
  1523   000FA5                     IPR3            equ	4005	;# 
  1524   000FA6                     EECON1          equ	4006	;# 
  1525   000FA7                     EECON2          equ	4007	;# 
  1526   000FA8                     EEDATA          equ	4008	;# 
  1527   000FA9                     EEADR           equ	4009	;# 
  1528   000FAA                     EEADRH          equ	4010	;# 
  1529   000FAB                     RCSTA1          equ	4011	;# 
  1530   000FAB                     RCSTA           equ	4011	;# 
  1531   000FAB                     RC1STA          equ	4011	;# 
  1532   000FAC                     TXSTA1          equ	4012	;# 
  1533   000FAC                     TXSTA           equ	4012	;# 
  1534   000FAC                     TX1STA          equ	4012	;# 
  1535   000FAD                     TXREG1          equ	4013	;# 
  1536   000FAD                     TXREG           equ	4013	;# 
  1537   000FAD                     TX1REG          equ	4013	;# 
  1538   000FAE                     RCREG1          equ	4014	;# 
  1539   000FAE                     RCREG           equ	4014	;# 
  1540   000FAE                     RC1REG          equ	4014	;# 
  1541   000FAF                     SPBRG1          equ	4015	;# 
  1542   000FAF                     SPBRG           equ	4015	;# 
  1543   000FAF                     SP1BRG          equ	4015	;# 
  1544   000FB0                     SPBRGH1         equ	4016	;# 
  1545   000FB0                     SPBRGH          equ	4016	;# 
  1546   000FB0                     SP1BRGH         equ	4016	;# 
  1547   000FB1                     T3CON           equ	4017	;# 
  1548   000FB2                     TMR3            equ	4018	;# 
  1549   000FB2                     TMR3L           equ	4018	;# 
  1550   000FB3                     TMR3H           equ	4019	;# 
  1551   000FB4                     T3GCON          equ	4020	;# 
  1552   000FB6                     ECCP1AS         equ	4022	;# 
  1553   000FB6                     ECCPAS          equ	4022	;# 
  1554   000FB7                     PWM1CON         equ	4023	;# 
  1555   000FB7                     PWMCON          equ	4023	;# 
  1556   000FB8                     BAUDCON1        equ	4024	;# 
  1557   000FB8                     BAUDCON         equ	4024	;# 
  1558   000FB8                     BAUDCTL         equ	4024	;# 
  1559   000FB8                     BAUD1CON        equ	4024	;# 
  1560   000FB9                     PSTR1CON        equ	4025	;# 
  1561   000FB9                     PSTRCON         equ	4025	;# 
  1562   000FBA                     T2CON           equ	4026	;# 
  1563   000FBB                     PR2             equ	4027	;# 
  1564   000FBC                     TMR2            equ	4028	;# 
  1565   000FBD                     CCP1CON         equ	4029	;# 
  1566   000FBE                     CCPR1           equ	4030	;# 
  1567   000FBE                     CCPR1L          equ	4030	;# 
  1568   000FBF                     CCPR1H          equ	4031	;# 
  1569   000FC0                     ADCON2          equ	4032	;# 
  1570   000FC1                     ADCON1          equ	4033	;# 
  1571   000FC2                     ADCON0          equ	4034	;# 
  1572   000FC3                     ADRES           equ	4035	;# 
  1573   000FC3                     ADRESL          equ	4035	;# 
  1574   000FC4                     ADRESH          equ	4036	;# 
  1575   000FC5                     SSP1CON2        equ	4037	;# 
  1576   000FC5                     SSPCON2         equ	4037	;# 
  1577   000FC6                     SSP1CON1        equ	4038	;# 
  1578   000FC6                     SSPCON1         equ	4038	;# 
  1579   000FC7                     SSP1STAT        equ	4039	;# 
  1580   000FC7                     SSPSTAT         equ	4039	;# 
  1581   000FC8                     SSP1ADD         equ	4040	;# 
  1582   000FC8                     SSPADD          equ	4040	;# 
  1583   000FC9                     SSP1BUF         equ	4041	;# 
  1584   000FC9                     SSPBUF          equ	4041	;# 
  1585   000FCA                     SSP1MSK         equ	4042	;# 
  1586   000FCA                     SSPMSK          equ	4042	;# 
  1587   000FCB                     SSP1CON3        equ	4043	;# 
  1588   000FCB                     SSPCON3         equ	4043	;# 
  1589   000FCC                     T1GCON          equ	4044	;# 
  1590   000FCD                     T1CON           equ	4045	;# 
  1591   000FCE                     TMR1            equ	4046	;# 
  1592   000FCE                     TMR1L           equ	4046	;# 
  1593   000FCF                     TMR1H           equ	4047	;# 
  1594   000FD0                     RCON            equ	4048	;# 
  1595   000FD1                     WDTCON          equ	4049	;# 
  1596   000FD2                     OSCCON2         equ	4050	;# 
  1597   000FD3                     OSCCON          equ	4051	;# 
  1598   000FD5                     T0CON           equ	4053	;# 
  1599   000FD6                     TMR0            equ	4054	;# 
  1600   000FD6                     TMR0L           equ	4054	;# 
  1601   000FD7                     TMR0H           equ	4055	;# 
  1602   000FD8                     STATUS          equ	4056	;# 
  1603   000FD9                     FSR2            equ	4057	;# 
  1604   000FD9                     FSR2L           equ	4057	;# 
  1605   000FDA                     FSR2H           equ	4058	;# 
  1606   000FDB                     PLUSW2          equ	4059	;# 
  1607   000FDC                     PREINC2         equ	4060	;# 
  1608   000FDD                     POSTDEC2        equ	4061	;# 
  1609   000FDE                     POSTINC2        equ	4062	;# 
  1610   000FDF                     INDF2           equ	4063	;# 
  1611   000FE0                     BSR             equ	4064	;# 
  1612   000FE1                     FSR1            equ	4065	;# 
  1613   000FE1                     FSR1L           equ	4065	;# 
  1614   000FE2                     FSR1H           equ	4066	;# 
  1615   000FE3                     PLUSW1          equ	4067	;# 
  1616   000FE4                     PREINC1         equ	4068	;# 
  1617   000FE5                     POSTDEC1        equ	4069	;# 
  1618   000FE6                     POSTINC1        equ	4070	;# 
  1619   000FE7                     INDF1           equ	4071	;# 
  1620   000FE8                     WREG            equ	4072	;# 
  1621   000FE9                     FSR0            equ	4073	;# 
  1622   000FE9                     FSR0L           equ	4073	;# 
  1623   000FEA                     FSR0H           equ	4074	;# 
  1624   000FEB                     PLUSW0          equ	4075	;# 
  1625   000FEC                     PREINC0         equ	4076	;# 
  1626   000FED                     POSTDEC0        equ	4077	;# 
  1627   000FEE                     POSTINC0        equ	4078	;# 
  1628   000FEF                     INDF0           equ	4079	;# 
  1629   000FF0                     INTCON3         equ	4080	;# 
  1630   000FF1                     INTCON2         equ	4081	;# 
  1631   000FF2                     INTCON          equ	4082	;# 
  1632   000FF3                     PROD            equ	4083	;# 
  1633   000FF3                     PRODL           equ	4083	;# 
  1634   000FF4                     PRODH           equ	4084	;# 
  1635   000FF5                     TABLAT          equ	4085	;# 
  1636   000FF6                     TBLPTR          equ	4086	;# 
  1637   000FF6                     TBLPTRL         equ	4086	;# 
  1638   000FF7                     TBLPTRH         equ	4087	;# 
  1639   000FF8                     TBLPTRU         equ	4088	;# 
  1640   000FF9                     PCLAT           equ	4089	;# 
  1641   000FF9                     PC              equ	4089	;# 
  1642   000FF9                     PCL             equ	4089	;# 
  1643   000FFA                     PCLATH          equ	4090	;# 
  1644   000FFB                     PCLATU          equ	4091	;# 
  1645   000FFC                     STKPTR          equ	4092	;# 
  1646   000FFD                     TOS             equ	4093	;# 
  1647   000FFD                     TOSL            equ	4093	;# 
  1648   000FFE                     TOSH            equ	4094	;# 
  1649   000FFF                     TOSU            equ	4095	;# 
  1650   000F38                     ANSELA          equ	3896	;# 
  1651   000F39                     ANSELB          equ	3897	;# 
  1652   000F3A                     ANSELC          equ	3898	;# 
  1653   000F3B                     ANSELD          equ	3899	;# 
  1654   000F3C                     ANSELE          equ	3900	;# 
  1655   000F3D                     PMD2            equ	3901	;# 
  1656   000F3E                     PMD1            equ	3902	;# 
  1657   000F3F                     PMD0            equ	3903	;# 
  1658   000F40                     VREFCON2        equ	3904	;# 
  1659   000F40                     DACCON1         equ	3904	;# 
  1660   000F41                     VREFCON1        equ	3905	;# 
  1661   000F41                     DACCON0         equ	3905	;# 
  1662   000F42                     VREFCON0        equ	3906	;# 
  1663   000F42                     FVRCON          equ	3906	;# 
  1664   000F43                     CTMUICON        equ	3907	;# 
  1665   000F43                     CTMUICONH       equ	3907	;# 
  1666   000F44                     CTMUCONL        equ	3908	;# 
  1667   000F44                     CTMUCON1        equ	3908	;# 
  1668   000F45                     CTMUCONH        equ	3909	;# 
  1669   000F45                     CTMUCON0        equ	3909	;# 
  1670   000F46                     SRCON1          equ	3910	;# 
  1671   000F47                     SRCON0          equ	3911	;# 
  1672   000F48                     CCPTMRS1        equ	3912	;# 
  1673   000F49                     CCPTMRS0        equ	3913	;# 
  1674   000F4A                     T6CON           equ	3914	;# 
  1675   000F4B                     PR6             equ	3915	;# 
  1676   000F4C                     TMR6            equ	3916	;# 
  1677   000F4D                     T5GCON          equ	3917	;# 
  1678   000F4E                     T5CON           equ	3918	;# 
  1679   000F4F                     TMR5            equ	3919	;# 
  1680   000F4F                     TMR5L           equ	3919	;# 
  1681   000F50                     TMR5H           equ	3920	;# 
  1682   000F51                     T4CON           equ	3921	;# 
  1683   000F52                     PR4             equ	3922	;# 
  1684   000F53                     TMR4            equ	3923	;# 
  1685   000F54                     CCP5CON         equ	3924	;# 
  1686   000F55                     CCPR5           equ	3925	;# 
  1687   000F55                     CCPR5L          equ	3925	;# 
  1688   000F56                     CCPR5H          equ	3926	;# 
  1689   000F57                     CCP4CON         equ	3927	;# 
  1690   000F58                     CCPR4           equ	3928	;# 
  1691   000F58                     CCPR4L          equ	3928	;# 
  1692   000F59                     CCPR4H          equ	3929	;# 
  1693   000F5A                     PSTR3CON        equ	3930	;# 
  1694   000F5B                     ECCP3AS         equ	3931	;# 
  1695   000F5B                     CCP3AS          equ	3931	;# 
  1696   000F5C                     PWM3CON         equ	3932	;# 
  1697   000F5D                     CCP3CON         equ	3933	;# 
  1698   000F5E                     CCPR3           equ	3934	;# 
  1699   000F5E                     CCPR3L          equ	3934	;# 
  1700   000F5F                     CCPR3H          equ	3935	;# 
  1701   000F60                     SLRCON          equ	3936	;# 
  1702   000F61                     WPUB            equ	3937	;# 
  1703   000F62                     IOCB            equ	3938	;# 
  1704   000F63                     PSTR2CON        equ	3939	;# 
  1705   000F64                     ECCP2AS         equ	3940	;# 
  1706   000F64                     CCP2AS          equ	3940	;# 
  1707   000F65                     PWM2CON         equ	3941	;# 
  1708   000F66                     CCP2CON         equ	3942	;# 
  1709   000F67                     CCPR2           equ	3943	;# 
  1710   000F67                     CCPR2L          equ	3943	;# 
  1711   000F68                     CCPR2H          equ	3944	;# 
  1712   000F69                     SSP2CON3        equ	3945	;# 
  1713   000F6A                     SSP2MSK         equ	3946	;# 
  1714   000F6B                     SSP2CON2        equ	3947	;# 
  1715   000F6C                     SSP2CON1        equ	3948	;# 
  1716   000F6D                     SSP2STAT        equ	3949	;# 
  1717   000F6E                     SSP2ADD         equ	3950	;# 
  1718   000F6F                     SSP2BUF         equ	3951	;# 
  1719   000F70                     BAUDCON2        equ	3952	;# 
  1720   000F70                     BAUD2CON        equ	3952	;# 
  1721   000F71                     RCSTA2          equ	3953	;# 
  1722   000F71                     RC2STA          equ	3953	;# 
  1723   000F72                     TXSTA2          equ	3954	;# 
  1724   000F72                     TX2STA          equ	3954	;# 
  1725   000F73                     TXREG2          equ	3955	;# 
  1726   000F73                     TX2REG          equ	3955	;# 
  1727   000F74                     RCREG2          equ	3956	;# 
  1728   000F74                     RC2REG          equ	3956	;# 
  1729   000F75                     SPBRG2          equ	3957	;# 
  1730   000F75                     SP2BRG          equ	3957	;# 
  1731   000F76                     SPBRGH2         equ	3958	;# 
  1732   000F76                     SP2BRGH         equ	3958	;# 
  1733   000F77                     CM2CON1         equ	3959	;# 
  1734   000F77                     CM12CON         equ	3959	;# 
  1735   000F78                     CM2CON0         equ	3960	;# 
  1736   000F78                     CM2CON          equ	3960	;# 
  1737   000F79                     CM1CON0         equ	3961	;# 
  1738   000F79                     CM1CON          equ	3961	;# 
  1739   000F7A                     PIE4            equ	3962	;# 
  1740   000F7B                     PIR4            equ	3963	;# 
  1741   000F7C                     IPR4            equ	3964	;# 
  1742   000F7D                     PIE5            equ	3965	;# 
  1743   000F7E                     PIR5            equ	3966	;# 
  1744   000F7F                     IPR5            equ	3967	;# 
  1745   000F80                     PORTA           equ	3968	;# 
  1746   000F81                     PORTB           equ	3969	;# 
  1747   000F82                     PORTC           equ	3970	;# 
  1748   000F83                     PORTD           equ	3971	;# 
  1749   000F84                     PORTE           equ	3972	;# 
  1750   000F89                     LATA            equ	3977	;# 
  1751   000F8A                     LATB            equ	3978	;# 
  1752   000F8B                     LATC            equ	3979	;# 
  1753   000F8C                     LATD            equ	3980	;# 
  1754   000F8D                     LATE            equ	3981	;# 
  1755   000F92                     TRISA           equ	3986	;# 
  1756   000F92                     DDRA            equ	3986	;# 
  1757   000F93                     TRISB           equ	3987	;# 
  1758   000F93                     DDRB            equ	3987	;# 
  1759   000F94                     TRISC           equ	3988	;# 
  1760   000F94                     DDRC            equ	3988	;# 
  1761   000F95                     TRISD           equ	3989	;# 
  1762   000F95                     DDRD            equ	3989	;# 
  1763   000F96                     TRISE           equ	3990	;# 
  1764   000F96                     DDRE            equ	3990	;# 
  1765   000F9B                     OSCTUNE         equ	3995	;# 
  1766   000F9C                     HLVDCON         equ	3996	;# 
  1767   000F9C                     LVDCON          equ	3996	;# 
  1768   000F9D                     PIE1            equ	3997	;# 
  1769   000F9E                     PIR1            equ	3998	;# 
  1770   000F9F                     IPR1            equ	3999	;# 
  1771   000FA0                     PIE2            equ	4000	;# 
  1772   000FA1                     PIR2            equ	4001	;# 
  1773   000FA2                     IPR2            equ	4002	;# 
  1774   000FA3                     PIE3            equ	4003	;# 
  1775   000FA4                     PIR3            equ	4004	;# 
  1776   000FA5                     IPR3            equ	4005	;# 
  1777   000FA6                     EECON1          equ	4006	;# 
  1778   000FA7                     EECON2          equ	4007	;# 
  1779   000FA8                     EEDATA          equ	4008	;# 
  1780   000FA9                     EEADR           equ	4009	;# 
  1781   000FAA                     EEADRH          equ	4010	;# 
  1782   000FAB                     RCSTA1          equ	4011	;# 
  1783   000FAB                     RCSTA           equ	4011	;# 
  1784   000FAB                     RC1STA          equ	4011	;# 
  1785   000FAC                     TXSTA1          equ	4012	;# 
  1786   000FAC                     TXSTA           equ	4012	;# 
  1787   000FAC                     TX1STA          equ	4012	;# 
  1788   000FAD                     TXREG1          equ	4013	;# 
  1789   000FAD                     TXREG           equ	4013	;# 
  1790   000FAD                     TX1REG          equ	4013	;# 
  1791   000FAE                     RCREG1          equ	4014	;# 
  1792   000FAE                     RCREG           equ	4014	;# 
  1793   000FAE                     RC1REG          equ	4014	;# 
  1794   000FAF                     SPBRG1          equ	4015	;# 
  1795   000FAF                     SPBRG           equ	4015	;# 
  1796   000FAF                     SP1BRG          equ	4015	;# 
  1797   000FB0                     SPBRGH1         equ	4016	;# 
  1798   000FB0                     SPBRGH          equ	4016	;# 
  1799   000FB0                     SP1BRGH         equ	4016	;# 
  1800   000FB1                     T3CON           equ	4017	;# 
  1801   000FB2                     TMR3            equ	4018	;# 
  1802   000FB2                     TMR3L           equ	4018	;# 
  1803   000FB3                     TMR3H           equ	4019	;# 
  1804   000FB4                     T3GCON          equ	4020	;# 
  1805   000FB6                     ECCP1AS         equ	4022	;# 
  1806   000FB6                     ECCPAS          equ	4022	;# 
  1807   000FB7                     PWM1CON         equ	4023	;# 
  1808   000FB7                     PWMCON          equ	4023	;# 
  1809   000FB8                     BAUDCON1        equ	4024	;# 
  1810   000FB8                     BAUDCON         equ	4024	;# 
  1811   000FB8                     BAUDCTL         equ	4024	;# 
  1812   000FB8                     BAUD1CON        equ	4024	;# 
  1813   000FB9                     PSTR1CON        equ	4025	;# 
  1814   000FB9                     PSTRCON         equ	4025	;# 
  1815   000FBA                     T2CON           equ	4026	;# 
  1816   000FBB                     PR2             equ	4027	;# 
  1817   000FBC                     TMR2            equ	4028	;# 
  1818   000FBD                     CCP1CON         equ	4029	;# 
  1819   000FBE                     CCPR1           equ	4030	;# 
  1820   000FBE                     CCPR1L          equ	4030	;# 
  1821   000FBF                     CCPR1H          equ	4031	;# 
  1822   000FC0                     ADCON2          equ	4032	;# 
  1823   000FC1                     ADCON1          equ	4033	;# 
  1824   000FC2                     ADCON0          equ	4034	;# 
  1825   000FC3                     ADRES           equ	4035	;# 
  1826   000FC3                     ADRESL          equ	4035	;# 
  1827   000FC4                     ADRESH          equ	4036	;# 
  1828   000FC5                     SSP1CON2        equ	4037	;# 
  1829   000FC5                     SSPCON2         equ	4037	;# 
  1830   000FC6                     SSP1CON1        equ	4038	;# 
  1831   000FC6                     SSPCON1         equ	4038	;# 
  1832   000FC7                     SSP1STAT        equ	4039	;# 
  1833   000FC7                     SSPSTAT         equ	4039	;# 
  1834   000FC8                     SSP1ADD         equ	4040	;# 
  1835   000FC8                     SSPADD          equ	4040	;# 
  1836   000FC9                     SSP1BUF         equ	4041	;# 
  1837   000FC9                     SSPBUF          equ	4041	;# 
  1838   000FCA                     SSP1MSK         equ	4042	;# 
  1839   000FCA                     SSPMSK          equ	4042	;# 
  1840   000FCB                     SSP1CON3        equ	4043	;# 
  1841   000FCB                     SSPCON3         equ	4043	;# 
  1842   000FCC                     T1GCON          equ	4044	;# 
  1843   000FCD                     T1CON           equ	4045	;# 
  1844   000FCE                     TMR1            equ	4046	;# 
  1845   000FCE                     TMR1L           equ	4046	;# 
  1846   000FCF                     TMR1H           equ	4047	;# 
  1847   000FD0                     RCON            equ	4048	;# 
  1848   000FD1                     WDTCON          equ	4049	;# 
  1849   000FD2                     OSCCON2         equ	4050	;# 
  1850   000FD3                     OSCCON          equ	4051	;# 
  1851   000FD5                     T0CON           equ	4053	;# 
  1852   000FD6                     TMR0            equ	4054	;# 
  1853   000FD6                     TMR0L           equ	4054	;# 
  1854   000FD7                     TMR0H           equ	4055	;# 
  1855   000FD8                     STATUS          equ	4056	;# 
  1856   000FD9                     FSR2            equ	4057	;# 
  1857   000FD9                     FSR2L           equ	4057	;# 
  1858   000FDA                     FSR2H           equ	4058	;# 
  1859   000FDB                     PLUSW2          equ	4059	;# 
  1860   000FDC                     PREINC2         equ	4060	;# 
  1861   000FDD                     POSTDEC2        equ	4061	;# 
  1862   000FDE                     POSTINC2        equ	4062	;# 
  1863   000FDF                     INDF2           equ	4063	;# 
  1864   000FE0                     BSR             equ	4064	;# 
  1865   000FE1                     FSR1            equ	4065	;# 
  1866   000FE1                     FSR1L           equ	4065	;# 
  1867   000FE2                     FSR1H           equ	4066	;# 
  1868   000FE3                     PLUSW1          equ	4067	;# 
  1869   000FE4                     PREINC1         equ	4068	;# 
  1870   000FE5                     POSTDEC1        equ	4069	;# 
  1871   000FE6                     POSTINC1        equ	4070	;# 
  1872   000FE7                     INDF1           equ	4071	;# 
  1873   000FE8                     WREG            equ	4072	;# 
  1874   000FE9                     FSR0            equ	4073	;# 
  1875   000FE9                     FSR0L           equ	4073	;# 
  1876   000FEA                     FSR0H           equ	4074	;# 
  1877   000FEB                     PLUSW0          equ	4075	;# 
  1878   000FEC                     PREINC0         equ	4076	;# 
  1879   000FED                     POSTDEC0        equ	4077	;# 
  1880   000FEE                     POSTINC0        equ	4078	;# 
  1881   000FEF                     INDF0           equ	4079	;# 
  1882   000FF0                     INTCON3         equ	4080	;# 
  1883   000FF1                     INTCON2         equ	4081	;# 
  1884   000FF2                     INTCON          equ	4082	;# 
  1885   000FF3                     PROD            equ	4083	;# 
  1886   000FF3                     PRODL           equ	4083	;# 
  1887   000FF4                     PRODH           equ	4084	;# 
  1888   000FF5                     TABLAT          equ	4085	;# 
  1889   000FF6                     TBLPTR          equ	4086	;# 
  1890   000FF6                     TBLPTRL         equ	4086	;# 
  1891   000FF7                     TBLPTRH         equ	4087	;# 
  1892   000FF8                     TBLPTRU         equ	4088	;# 
  1893   000FF9                     PCLAT           equ	4089	;# 
  1894   000FF9                     PC              equ	4089	;# 
  1895   000FF9                     PCL             equ	4089	;# 
  1896   000FFA                     PCLATH          equ	4090	;# 
  1897   000FFB                     PCLATU          equ	4091	;# 
  1898   000FFC                     STKPTR          equ	4092	;# 
  1899   000FFD                     TOS             equ	4093	;# 
  1900   000FFD                     TOSL            equ	4093	;# 
  1901   000FFE                     TOSH            equ	4094	;# 
  1902   000FFF                     TOSU            equ	4095	;# 
  1903                           
  1904 ;; Function _tarefaOneShot is unused but had its address taken
  1905   000000                     _tarefaOneShot  equ	0
  1906                           
  1907                           	psect	idataCOMRAM
  1908   00321E                     __pidataCOMRAM:
  1909                           	callstack 0
  1910                           
  1911                           ;initializer for _rr_quantum
  1912   00321E  14                 	db	20
  1913                           
  1914                           	psect	idataBANK0
  1915   003218                     __pidataBANK0:
  1916                           	callstack 0
  1917                           
  1918                           ;initializer for LED_1@F6269
  1919   003218  4C                 	db	76
  1920   003219  4C                 	db	76
  1921   00321A  44                 	db	68
  1922   00321B  4C                 	db	76
  1923   00321C  44                 	db	68
  1924   00321D  44                 	db	68
  1925   000F3A                     _ANSELCbits     set	3898
  1926   000F3B                     _ANSELDbits     set	3899
  1927   000F39                     _ANSELBbits     set	3897
  1928   000F38                     _ANSELAbits     set	3896
  1929   000FD6                     _TMR0           set	4054
  1930   000FC3                     _ADRES          set	4035
  1931   000FD5                     _T0CONbits      set	4053
  1932   000F8C                     _LATDbits       set	3980
  1933   000F83                     _PORTDbits      set	3971
  1934   000FF1                     _INTCON2bits    set	4081
  1935   000F95                     _TRISDbits      set	3989
  1936   000F93                     _TRISBbits      set	3987
  1937   000FBD                     _CCP1CONbits    set	4029
  1938   000FBE                     _CCPR1L         set	4030
  1939   000FBA                     _T2CON          set	4026
  1940   000FBD                     _CCP1CON        set	4029
  1941   000FBB                     _PR2            set	4027
  1942   000F92                     _TRISAbits      set	3986
  1943   000FC0                     _ADCON2bits     set	4032
  1944   000FC1                     _ADCON1bits     set	4033
  1945   000FC2                     _ADCON0bits     set	4034
  1946   000F82                     _PORTCbits      set	3970
  1947   000F94                     _TRISCbits      set	3988
  1948   000FFC                     _STKPTR         set	4092
  1949   000FFF                     _TOSU           set	4095
  1950   000FFE                     _TOSH           set	4094
  1951   000FFD                     _TOSL           set	4093
  1952   000FD8                     _STATUS         set	4056
  1953   000FE8                     _WREG           set	4072
  1954   000FF8                     _TBLPTRU        set	4088
  1955   000FF6                     _TBLPTRL        set	4086
  1956   000FF7                     _TBLPTRH        set	4087
  1957   000FF5                     _TABLAT         set	4085
  1958   000FF3                     _PRODL          set	4083
  1959   000FF4                     _PRODH          set	4084
  1960   000FFB                     _PCLATU         set	4091
  1961   000FFA                     _PCLATH         set	4090
  1962   000FD9                     _FSR2L          set	4057
  1963   000FDA                     _FSR2H          set	4058
  1964   000FE1                     _FSR1L          set	4065
  1965   000FE2                     _FSR1H          set	4066
  1966   000FE9                     _FSR0L          set	4073
  1967   000FEA                     _FSR0H          set	4074
  1968   000FE0                     _BSR            set	4064
  1969   000FF2                     _INTCONbits     set	4082
  1970                           
  1971                           ; #config settings
  1972                           
  1973                           	psect	cinit
  1974   002DC6                     __pcinit:
  1975                           	callstack 0
  1976   002DC6                     start_initialization:
  1977                           	callstack 0
  1978   002DC6                     __initialization:
  1979                           	callstack 0
  1980                           
  1981                           ; Initialize objects allocated to BANK0 (6 bytes)
  1982                           ; load TBLPTR registers with __pidataBANK0
  1983   002DC6  0E18               	movlw	low __pidataBANK0
  1984   002DC8  6EF6               	movwf	tblptrl,c
  1985   002DCA  0E32               	movlw	high __pidataBANK0
  1986   002DCC  6EF7               	movwf	tblptrh,c
  1987   002DCE  0E00               	movlw	low (__pidataBANK0 shr (0+16))
  1988   002DD0  6EF8               	movwf	tblptru,c
  1989   002DD2  EE00  F08C         	lfsr	0,__pdataBANK0
  1990   002DD6  EE10 F006          	lfsr	1,6
  1991   002DDA                     copy_data0:
  1992   002DDA  0009               	tblrd		*+
  1993   002DDC  CFF5 FFEE          	movff	tablat,postinc0
  1994   002DE0  50E5               	movf	postdec1,w,c
  1995   002DE2  50E1               	movf	fsr1l,w,c
  1996   002DE4  E1FA               	bnz	copy_data0
  1997                           
  1998                           ; Initialize objects allocated to COMRAM (1 bytes)
  1999                           ; load TBLPTR registers with __pidataCOMRAM
  2000   002DE6  0E1E               	movlw	low __pidataCOMRAM
  2001   002DE8  6EF6               	movwf	tblptrl,c
  2002   002DEA  0E32               	movlw	high __pidataCOMRAM
  2003   002DEC  6EF7               	movwf	tblptrh,c
  2004   002DEE  0E00               	movlw	low (__pidataCOMRAM shr (0+16))
  2005   002DF0  6EF8               	movwf	tblptru,c
  2006   002DF2  0009               	tblrd		*+	;fetch initializer
  2007   002DF4  CFF5 F047          	movff	tablat,__pdataCOMRAM
  2008                           
  2009                           ; Clear objects allocated to BIGRAM (852 bytes)
  2010   002DF8  EE03  F035         	lfsr	0,__pbssBIGRAM
  2011   002DFC  EE13 F054          	lfsr	1,852
  2012   002E00                     clear_0:
  2013   002E00  6AEE               	clrf	postinc0,c
  2014   002E02  50E5               	movf	postdec1,w,c
  2015   002E04  50E1               	movf	fsr1l,w,c
  2016   002E06  E1FC               	bnz	clear_0
  2017   002E08  50E2               	movf	fsr1h,w,c
  2018   002E0A  E1FA               	bnz	clear_0
  2019                           
  2020                           ; Clear objects allocated to BANK0 (44 bytes)
  2021   002E0C  EE00  F060         	lfsr	0,__pbssBANK0
  2022   002E10  0E2C               	movlw	44
  2023   002E12                     clear_1:
  2024   002E12  6AEE               	clrf	postinc0,c
  2025   002E14  06E8               	decf	wreg,f,c
  2026   002E16  E1FD               	bnz	clear_1
  2027                           
  2028                           ; Clear objects allocated to COMRAM (1 bytes)
  2029   002E18  6A46               	clrf	__pbssCOMRAM& (0+255),c
  2030   002E1A                     end_of_initialization:
  2031                           	callstack 0
  2032   002E1A                     __end_of__initialization:
  2033                           	callstack 0
  2034   002E1A  9001               	bcf	int$flags,0,c	;clear compiler interrupt flag (level 1)
  2035   002E1C  9201               	bcf	int$flags,1,c	;clear compiler interrupt flag (level 2)
  2036   002E1E  0E00               	movlw	low (__Lmediumconst shr (0+16))
  2037   002E20  6EF8               	movwf	tblptru,c
  2038   002E22  0100               	movlb	0
  2039   002E24  EF14  F017         	goto	_main	;jump to C main() function
  2040                           
  2041                           	psect	bssCOMRAM
  2042   000046                     __pbssCOMRAM:
  2043                           	callstack 0
  2044   000046                     _dado:
  2045                           	callstack 0
  2046   000046                     	ds	1
  2047                           
  2048                           	psect	dataCOMRAM
  2049   000047                     __pdataCOMRAM:
  2050                           	callstack 0
  2051   000047                     _rr_quantum:
  2052                           	callstack 0
  2053   000047                     	ds	1
  2054                           
  2055                           	psect	bssBANK0
  2056   000060                     __pbssBANK0:
  2057                           	callstack 0
  2058   000060                     _p:
  2059                           	callstack 0
  2060   000060                     	ds	24
  2061   000078                     _m_led:
  2062                           	callstack 0
  2063   000078                     	ds	11
  2064   000083                     _s:
  2065                           	callstack 0
  2066   000083                     	ds	9
  2067                           
  2068                           	psect	dataBANK0
  2069   00008C                     __pdataBANK0:
  2070                           	callstack 0
  2071   00008C                     LED_1@F6269:
  2072                           	callstack 0
  2073   00008C                     	ds	6
  2074                           
  2075                           	psect	bssBIGRAM
  2076   000335                     __pbssBIGRAM:
  2077                           	callstack 0
  2078   000335                     __uDynamicHeap:
  2079                           	callstack 0
  2080   000335                     	ds	512
  2081   000535                     _r_queue:
  2082                           	callstack 0
  2083   000535                     	ds	340
  2084                           
  2085                           	psect	cstackBANK3
  2086   000300                     __pcstackBANK3:
  2087                           	callstack 0
  2088   000300                     sem_init@sem:
  2089                           	callstack 0
  2090   000300                     mutex_init@m:
  2091                           	callstack 0
  2092   000300                     os_create_task@func:
  2093                           	callstack 0
  2094   000300                     
  2095                           ; 1 bytes @ 0x0
  2096   000300                     	ds	1
  2097   000301                     sem_init@valor:
  2098                           	callstack 0
  2099   000301                     priority_rr_scheduler@current:
  2100                           	callstack 0
  2101                           
  2102                           ; 1 bytes @ 0x1
  2103   000301                     	ds	1
  2104   000302                     os_create_task@prior:
  2105                           	callstack 0
  2106   000302                     pipe_init@p:
  2107                           	callstack 0
  2108   000302                     priority_rr_scheduler@max_prio:
  2109                           	callstack 0
  2110                           
  2111                           ; 1 bytes @ 0x2
  2112   000302                     	ds	1
  2113   000303                     priority_rr_scheduler@found:
  2114                           	callstack 0
  2115   000303                     ??_os_create_task:
  2116                           
  2117                           ; 1 bytes @ 0x3
  2118   000303                     	ds	1
  2119   000304                     os_create_task@id:
  2120                           	callstack 0
  2121   000304                     priority_rr_scheduler@i_1768:
  2122                           	callstack 0
  2123                           
  2124                           ; 1 bytes @ 0x4
  2125   000304                     	ds	1
  2126   000305                     priority_rr_scheduler@i:
  2127                           	callstack 0
  2128   000305                     os_create_task@new_task:
  2129                           	callstack 0
  2130                           
  2131                           ; 48 bytes @ 0x5
  2132   000305                     	ds	1
  2133   000306                     priority_rr_scheduler@idx:
  2134                           	callstack 0
  2135                           
  2136                           ; 1 bytes @ 0x6
  2137   000306                     	ds	1
  2138   000307                     ??_scheduler:
  2139                           
  2140                           ; 1 bytes @ 0x7
  2141   000307                     	ds	3
  2142   00030A                     ??_os_start:
  2143                           
  2144                           ; 1 bytes @ 0xA
  2145   00030A                     	ds	43
  2146                           
  2147                           	psect	cstackBANK2
  2148   000200                     __pcstackBANK2:
  2149                           	callstack 0
  2150   000200                     	ds	92
  2151   00025C                     ?_adc_read:
  2152                           	callstack 0
  2153                           
  2154                           ; 2 bytes @ 0x5C
  2155   00025C                     	ds	18
  2156   00026E                     pwm_set_duty@duty:
  2157                           	callstack 0
  2158   00026E                     
  2159                           ; 1 bytes @ 0x6E
  2160   00026E                     	ds	1
  2161   00026F                     i1priority_rr_scheduler@current:
  2162                           	callstack 0
  2163                           
  2164                           ; 1 bytes @ 0x6F
  2165   00026F                     	ds	1
  2166   000270                     i1priority_rr_scheduler@max_prio:
  2167                           	callstack 0
  2168   000270                     ??_pwm_set_duty:
  2169                           
  2170                           ; 1 bytes @ 0x70
  2171   000270                     	ds	1
  2172   000271                     i1priority_rr_scheduler@found:
  2173                           	callstack 0
  2174                           
  2175                           ; 1 bytes @ 0x71
  2176   000271                     	ds	1
  2177   000272                     i1priority_rr_scheduler@i_1768:
  2178                           	callstack 0
  2179                           
  2180                           ; 1 bytes @ 0x72
  2181   000272                     	ds	1
  2182   000273                     i1priority_rr_scheduler@i:
  2183                           	callstack 0
  2184                           
  2185                           ; 1 bytes @ 0x73
  2186   000273                     	ds	1
  2187   000274                     i1priority_rr_scheduler@idx:
  2188                           	callstack 0
  2189                           
  2190                           ; 1 bytes @ 0x74
  2191   000274                     	ds	1
  2192   000275                     ??i1_scheduler:
  2193                           
  2194                           ; 1 bytes @ 0x75
  2195   000275                     	ds	3
  2196   000278                     ??_os_delay:
  2197                           
  2198                           ; 1 bytes @ 0x78
  2199   000278                     	ds	7
  2200   00027F                     os_delay@time:
  2201                           	callstack 0
  2202                           
  2203                           ; 1 bytes @ 0x7F
  2204   00027F                     	ds	1
  2205                           
  2206                           	psect	cstackBANK1
  2207   000100                     __pcstackBANK1:
  2208                           	callstack 0
  2209   000100                     	ds	48
  2210   000130                     mutex_lock@m:
  2211                           	callstack 0
  2212   000130                     mutex_unlock@m:
  2213                           	callstack 0
  2214                           
  2215                           ; 1 bytes @ 0x30
  2216   000130                     	ds	1
  2217   000131                     ??_mutex_lock:
  2218   000131                     ??_mutex_unlock:
  2219                           
  2220                           ; 1 bytes @ 0x31
  2221   000131                     	ds	2
  2222   000133                     mutex_unlock@task_idx:
  2223                           	callstack 0
  2224                           
  2225                           ; 1 bytes @ 0x33
  2226   000133                     	ds	5
  2227   000138                     pipe_write@p:
  2228                           	callstack 0
  2229                           
  2230                           ; 1 bytes @ 0x38
  2231   000138                     	ds	1
  2232   000139                     pipe_write@dado:
  2233                           	callstack 0
  2234                           
  2235                           ; 1 bytes @ 0x39
  2236   000139                     	ds	1
  2237   00013A                     ??_pipe_write:
  2238                           
  2239                           ; 1 bytes @ 0x3A
  2240   00013A                     	ds	1
  2241   00013B                     ??_LED_1:
  2242                           
  2243                           ; 1 bytes @ 0x3B
  2244   00013B                     	ds	1
  2245   00013C                     LED_1@seq:
  2246                           	callstack 0
  2247                           
  2248                           ; 6 bytes @ 0x3C
  2249   00013C                     	ds	6
  2250   000142                     LED_1@pos:
  2251                           	callstack 0
  2252                           
  2253                           ; 1 bytes @ 0x42
  2254   000142                     	ds	1
  2255   000143                     ?___awmod:
  2256                           	callstack 0
  2257   000143                     ___awmod@dividend:
  2258                           	callstack 0
  2259                           
  2260                           ; 2 bytes @ 0x43
  2261   000143                     	ds	2
  2262   000145                     ___awmod@divisor:
  2263                           	callstack 0
  2264                           
  2265                           ; 2 bytes @ 0x45
  2266   000145                     	ds	2
  2267   000147                     ___awmod@counter:
  2268                           	callstack 0
  2269                           
  2270                           ; 1 bytes @ 0x47
  2271   000147                     	ds	1
  2272   000148                     ___awmod@sign:
  2273                           	callstack 0
  2274                           
  2275                           ; 1 bytes @ 0x48
  2276   000148                     	ds	1
  2277   000149                     sem_wait@sem:
  2278                           	callstack 0
  2279   000149                     sem_post@sem:
  2280                           	callstack 0
  2281                           
  2282                           ; 1 bytes @ 0x49
  2283   000149                     	ds	1
  2284   00014A                     ??_sem_wait:
  2285   00014A                     ??_sem_post:
  2286                           
  2287                           ; 1 bytes @ 0x4A
  2288   00014A                     	ds	7
  2289   000151                     pipe_read@p:
  2290                           	callstack 0
  2291                           
  2292                           ; 1 bytes @ 0x51
  2293   000151                     	ds	1
  2294   000152                     pipe_read@dado:
  2295                           	callstack 0
  2296                           
  2297                           ; 1 bytes @ 0x52
  2298   000152                     	ds	1
  2299   000153                     ??_pipe_read:
  2300                           
  2301                           ; 1 bytes @ 0x53
  2302   000153                     	ds	1
  2303                           
  2304                           	psect	cstackBANK0
  2305   000092                     __pcstackBANK0:
  2306                           	callstack 0
  2307   000092                     ??_idle:
  2308                           
  2309                           ; 1 bytes @ 0x0
  2310   000092                     	ds	1
  2311                           
  2312                           	psect	cstackCOMRAM
  2313   000002                     __pcstackCOMRAM:
  2314                           	callstack 0
  2315   000002                     i2os_create_task@func:
  2316                           	callstack 0
  2317   000002                     
  2318                           ; 1 bytes @ 0x0
  2319   000002                     	ds	1
  2320   000003                     i2priority_rr_scheduler@current:
  2321                           	callstack 0
  2322                           
  2323                           ; 1 bytes @ 0x1
  2324   000003                     	ds	1
  2325   000004                     i2os_create_task@prior:
  2326                           	callstack 0
  2327   000004                     i2priority_rr_scheduler@max_prio:
  2328                           	callstack 0
  2329                           
  2330                           ; 1 bytes @ 0x2
  2331   000004                     	ds	1
  2332   000005                     i2priority_rr_scheduler@found:
  2333                           	callstack 0
  2334   000005                     ??i2_os_create_task:
  2335                           
  2336                           ; 1 bytes @ 0x3
  2337   000005                     	ds	1
  2338   000006                     i2os_create_task@id:
  2339                           	callstack 0
  2340   000006                     i2priority_rr_scheduler@i_1768:
  2341                           	callstack 0
  2342                           
  2343                           ; 1 bytes @ 0x4
  2344   000006                     	ds	1
  2345   000007                     i2priority_rr_scheduler@i:
  2346                           	callstack 0
  2347   000007                     i2os_create_task@new_task:
  2348                           	callstack 0
  2349                           
  2350                           ; 48 bytes @ 0x5
  2351   000007                     	ds	1
  2352   000008                     i2priority_rr_scheduler@idx:
  2353                           	callstack 0
  2354                           
  2355                           ; 1 bytes @ 0x6
  2356   000008                     	ds	1
  2357   000009                     ??i2_scheduler:
  2358                           
  2359                           ; 1 bytes @ 0x7
  2360   000009                     	ds	46
  2361   000037                     ??_ISR:
  2362                           
  2363                           ; 1 bytes @ 0x35
  2364   000037                     	ds	13
  2365   000044                     ISR@i:
  2366                           	callstack 0
  2367                           
  2368                           ; 2 bytes @ 0x42
  2369   000044                     	ds	2
  2370                           
  2371 ;;
  2372 ;;Main: autosize = 0, tempsize = 0, incstack = 0, save=0
  2373 ;;
  2374 ;; *************** function _main *****************
  2375 ;; Defined at:
  2376 ;;		line 8 in file "main.c"
  2377 ;; Parameters:    Size  Location     Type
  2378 ;;		None
  2379 ;; Auto vars:     Size  Location     Type
  2380 ;;		None
  2381 ;; Return value:  Size  Location     Type
  2382 ;;                  2   18[None  ] int 
  2383 ;; Registers used:
  2384 ;;		wreg, fsr1l, fsr1h, fsr2l, fsr2h, status,2, status,0, prodl, prodh, cstack
  2385 ;; Tracked objects:
  2386 ;;		On entry : 0/0
  2387 ;;		On exit  : 0/0
  2388 ;;		Unchanged: 0/0
  2389 ;; Data sizes:     COMRAM   BANK0   BANK1   BANK2   BANK3   BANK4   BANK5   BANK6   BANK7   BANK8   BANK9  BANK10  BANK1
      +1  BANK12  BANK13  BANK14  BANK15
  2390 ;;      Params:         0       0       0       0       0       0       0       0       0       0       0       0       
      +0       0       0       0       0
  2391 ;;      Locals:         0       0       0       0       0       0       0       0       0       0       0       0       
      +0       0       0       0       0
  2392 ;;      Temps:          0       0       0       0       0       0       0       0       0       0       0       0       
      +0       0       0       0       0
  2393 ;;      Totals:         0       0       0       0       0       0       0       0       0       0       0       0       
      +0       0       0       0       0
  2394 ;;Total ram usage:        0 bytes
  2395 ;; Hardware stack levels required when called: 12
  2396 ;; This function calls:
  2397 ;;		_os_config
  2398 ;;		_os_create_task
  2399 ;;		_os_start
  2400 ;; This function is called by:
  2401 ;;		Startup code after reset
  2402 ;; This function uses a non-reentrant model
  2403 ;;
  2404                           
  2405                           	psect	text0
  2406   002E28                     __ptext0:
  2407                           	callstack 0
  2408   002E28                     _main:
  2409                           	callstack 19
  2410   002E28                     
  2411                           ;main.c: 9:     os_config();
  2412   002E28  EC1B  F018         	call	_os_config	;wreg free
  2413                           
  2414                           ;main.c: 15:         os_create_task(2, LED_1, 1);
  2415   002E2C  0EC8               	movlw	low _LED_1
  2416   002E2E  0103               	movlb	3	; () banked
  2417   002E30  6F00               	movwf	os_create_task@func& (0+255),b
  2418   002E32  0E2B               	movlw	high _LED_1
  2419   002E34  6F01               	movwf	(os_create_task@func+1)& (0+255),b
  2420   002E36  0E01               	movlw	1
  2421   002E38  6F02               	movwf	os_create_task@prior& (0+255),b
  2422   002E3A  0E02               	movlw	2
  2423   002E3C  EC79  F016         	call	_os_create_task
  2424                           
  2425                           ;main.c: 16:         os_create_task(3, LED_2, 1);
  2426   002E40  0E32               	movlw	low _LED_2
  2427   002E42  0103               	movlb	3	; () banked
  2428   002E44  6F00               	movwf	os_create_task@func& (0+255),b
  2429   002E46  0E2F               	movlw	high _LED_2
  2430   002E48  6F01               	movwf	(os_create_task@func+1)& (0+255),b
  2431   002E4A  0E01               	movlw	1
  2432   002E4C  6F02               	movwf	os_create_task@prior& (0+255),b
  2433   002E4E  0E03               	movlw	3
  2434   002E50  EC79  F016         	call	_os_create_task
  2435                           
  2436                           ;main.c: 17:         os_create_task(4, READ_ADC, 1);
  2437   002E54  0E68               	movlw	low _READ_ADC
  2438   002E56  0103               	movlb	3	; () banked
  2439   002E58  6F00               	movwf	os_create_task@func& (0+255),b
  2440   002E5A  0E30               	movlw	high _READ_ADC
  2441   002E5C  6F01               	movwf	(os_create_task@func+1)& (0+255),b
  2442   002E5E  0E01               	movlw	1
  2443   002E60  6F02               	movwf	os_create_task@prior& (0+255),b
  2444   002E62  0E04               	movlw	4
  2445   002E64  EC79  F016         	call	_os_create_task
  2446                           
  2447                           ;main.c: 18:         os_create_task(5, tarefaPWN, 1);
  2448   002E68  0EF2               	movlw	low _tarefaPWN
  2449   002E6A  0103               	movlb	3	; () banked
  2450   002E6C  6F00               	movwf	os_create_task@func& (0+255),b
  2451   002E6E  0E31               	movlw	high _tarefaPWN
  2452   002E70  6F01               	movwf	(os_create_task@func+1)& (0+255),b
  2453   002E72  0E01               	movlw	1
  2454   002E74  6F02               	movwf	os_create_task@prior& (0+255),b
  2455   002E76  0E05               	movlw	5
  2456   002E78  EC79  F016         	call	_os_create_task
  2457                           
  2458                           ;main.c: 26:     os_start();
  2459   002E7C  EC8B  F011         	call	_os_start	;wreg free
  2460   002E80                     l19:
  2461   002E80  EF40  F017         	goto	l19
  2462   002E84  EF90  F006         	goto	start
  2463   002E88                     __end_of_main:
  2464                           	callstack 0
  2465                           
  2466 ;; *************** function _os_start *****************
  2467 ;; Defined at:
  2468 ;;		line 79 in file "kernel.c"
  2469 ;; Parameters:    Size  Location     Type
  2470 ;;		None
  2471 ;; Auto vars:     Size  Location     Type
  2472 ;;		None
  2473 ;; Return value:  Size  Location     Type
  2474 ;;                  1    wreg      void 
  2475 ;; Registers used:
  2476 ;;		wreg, fsr1l, fsr1h, fsr2l, fsr2h, status,2, status,0, prodl, prodh, cstack
  2477 ;; Tracked objects:
  2478 ;;		On entry : 0/0
  2479 ;;		On exit  : 0/0
  2480 ;;		Unchanged: 0/0
  2481 ;; Data sizes:     COMRAM   BANK0   BANK1   BANK2   BANK3   BANK4   BANK5   BANK6   BANK7   BANK8   BANK9  BANK10  BANK1
      +1  BANK12  BANK13  BANK14  BANK15
  2482 ;;      Params:         0       0       0       0       0       0       0       0       0       0       0       0       
      +0       0       0       0       0
  2483 ;;      Locals:         0       0       0       0       0       0       0       0       0       0       0       0       
      +0       0       0       0       0
  2484 ;;      Temps:          0       0       0       0       7       0       0       0       0       0       0       0       
      +0       0       0       0       0
  2485 ;;      Totals:         0       0       0       0       7       0       0       0       0       0       0       0       
      +0       0       0       0       0
  2486 ;;Total ram usage:        7 bytes
  2487 ;; Hardware stack levels used: 1
  2488 ;; Hardware stack levels required when called: 10
  2489 ;; This function calls:
  2490 ;;		_scheduler
  2491 ;;		_setup_hardware
  2492 ;; This function is called by:
  2493 ;;		_main
  2494 ;; This function uses a non-reentrant model
  2495 ;;
  2496                           
  2497                           	psect	text1
  2498   002316                     __ptext1:
  2499                           	callstack 0
  2500   002316                     _os_start:
  2501                           	callstack 20
  2502   002316                     
  2503                           ;kernel.c: 81:     setup_hardware();
  2504   002316  ECDE  F018         	call	_setup_hardware	;wreg free
  2505   00231A                     
  2506                           ;kernel.c: 82:     scheduler();
  2507   00231A  EC64  F018         	call	_scheduler	;wreg free
  2508   00231E  EE26  F086         	lfsr	2,_r_queue+337
  2509   002322  EE10 F001          	lfsr	1,1
  2510   002326  50DE               	movf	postinc2,w,c
  2511   002328  26E1               	addwf	fsr1l,f,c
  2512   00232A  50DD               	movf	postdec2,w,c
  2513   00232C  22E2               	addwfc	fsr1h,f,c
  2514   00232E  50E7               	movf	indf1,w,c
  2515   002330  A4D8               	btfss	status,2,c
  2516   002332  EF9D  F011         	goto	u5251
  2517   002336  EF9F  F011         	goto	u5250
  2518   00233A                     u5251:
  2519   00233A  EF36  F013         	goto	l5242
  2520   00233E                     u5250:
  2521   00233E  EE26  F086         	lfsr	2,_r_queue+337
  2522   002342  EE10 F001          	lfsr	1,1
  2523   002346  50DE               	movf	postinc2,w,c
  2524   002348  26E1               	addwf	fsr1l,f,c
  2525   00234A  50DD               	movf	postdec2,w,c
  2526   00234C  22E2               	addwfc	fsr1h,f,c
  2527   00234E  0E02               	movlw	2
  2528   002350  6EE7               	movwf	indf1,c
  2529   002352  EE26  F086         	lfsr	2,_r_queue+337
  2530   002356  EE10 F008          	lfsr	1,8
  2531   00235A  50DE               	movf	postinc2,w,c
  2532   00235C  26E1               	addwf	fsr1l,f,c
  2533   00235E  50DD               	movf	postdec2,w,c
  2534   002360  22E2               	addwfc	fsr1h,f,c
  2535   002362  50E7               	movf	indf1,w,c
  2536   002364  6EE0               	movwf	224,c	;volatile
  2537   002366  EE26  F086         	lfsr	2,_r_queue+337
  2538   00236A  EE10 F00C          	lfsr	1,12
  2539   00236E  50DE               	movf	postinc2,w,c
  2540   002370  26E1               	addwf	fsr1l,f,c
  2541   002372  50DD               	movf	postdec2,w,c
  2542   002374  22E2               	addwfc	fsr1h,f,c
  2543   002376  50E7               	movf	indf1,w,c
  2544   002378  6EEA               	movwf	234,c	;volatile
  2545   00237A  EE26  F086         	lfsr	2,_r_queue+337
  2546   00237E  EE10 F00B          	lfsr	1,11
  2547   002382  50DE               	movf	postinc2,w,c
  2548   002384  26E1               	addwf	fsr1l,f,c
  2549   002386  50DD               	movf	postdec2,w,c
  2550   002388  22E2               	addwfc	fsr1h,f,c
  2551   00238A  50E7               	movf	indf1,w,c
  2552   00238C  6EE9               	movwf	233,c	;volatile
  2553   00238E  EE26  F086         	lfsr	2,_r_queue+337
  2554   002392  EE10 F00E          	lfsr	1,14
  2555   002396  50DE               	movf	postinc2,w,c
  2556   002398  26E1               	addwf	fsr1l,f,c
  2557   00239A  50DD               	movf	postdec2,w,c
  2558   00239C  22E2               	addwfc	fsr1h,f,c
  2559   00239E  50E7               	movf	indf1,w,c
  2560   0023A0  6EE2               	movwf	226,c	;volatile
  2561   0023A2  EE26  F086         	lfsr	2,_r_queue+337
  2562   0023A6  EE10 F00D          	lfsr	1,13
  2563   0023AA  50DE               	movf	postinc2,w,c
  2564   0023AC  26E1               	addwf	fsr1l,f,c
  2565   0023AE  50DD               	movf	postdec2,w,c
  2566   0023B0  22E2               	addwfc	fsr1h,f,c
  2567   0023B2  50E7               	movf	indf1,w,c
  2568   0023B4  6EE1               	movwf	225,c	;volatile
  2569   0023B6  EE26  F086         	lfsr	2,_r_queue+337
  2570   0023BA  EE10 F010          	lfsr	1,16
  2571   0023BE  50DE               	movf	postinc2,w,c
  2572   0023C0  26E1               	addwf	fsr1l,f,c
  2573   0023C2  50DD               	movf	postdec2,w,c
  2574   0023C4  22E2               	addwfc	fsr1h,f,c
  2575   0023C6  50E7               	movf	indf1,w,c
  2576   0023C8  6EDA               	movwf	218,c	;volatile
  2577   0023CA  EE26  F086         	lfsr	2,_r_queue+337
  2578   0023CE  EE10 F00F          	lfsr	1,15
  2579   0023D2  50DE               	movf	postinc2,w,c
  2580   0023D4  26E1               	addwf	fsr1l,f,c
  2581   0023D6  50DD               	movf	postdec2,w,c
  2582   0023D8  22E2               	addwfc	fsr1h,f,c
  2583   0023DA  50E7               	movf	indf1,w,c
  2584   0023DC  6ED9               	movwf	217,c	;volatile
  2585   0023DE  EE26  F086         	lfsr	2,_r_queue+337
  2586   0023E2  EE10 F015          	lfsr	1,21
  2587   0023E6  50DE               	movf	postinc2,w,c
  2588   0023E8  26E1               	addwf	fsr1l,f,c
  2589   0023EA  50DD               	movf	postdec2,w,c
  2590   0023EC  22E2               	addwfc	fsr1h,f,c
  2591   0023EE  50E7               	movf	indf1,w,c
  2592   0023F0  6EFA               	movwf	250,c	;volatile
  2593   0023F2  EE26  F086         	lfsr	2,_r_queue+337
  2594   0023F6  EE10 F016          	lfsr	1,22
  2595   0023FA  50DE               	movf	postinc2,w,c
  2596   0023FC  26E1               	addwf	fsr1l,f,c
  2597   0023FE  50DD               	movf	postdec2,w,c
  2598   002400  22E2               	addwfc	fsr1h,f,c
  2599   002402  50E7               	movf	indf1,w,c
  2600   002404  6EFB               	movwf	251,c	;volatile
  2601   002406  EE26  F086         	lfsr	2,_r_queue+337
  2602   00240A  EE10 F00A          	lfsr	1,10
  2603   00240E  50DE               	movf	postinc2,w,c
  2604   002410  26E1               	addwf	fsr1l,f,c
  2605   002412  50DD               	movf	postdec2,w,c
  2606   002414  22E2               	addwfc	fsr1h,f,c
  2607   002416  50E7               	movf	indf1,w,c
  2608   002418  6EF4               	movwf	244,c	;volatile
  2609   00241A  EE26  F086         	lfsr	2,_r_queue+337
  2610   00241E  EE10 F009          	lfsr	1,9
  2611   002422  50DE               	movf	postinc2,w,c
  2612   002424  26E1               	addwf	fsr1l,f,c
  2613   002426  50DD               	movf	postdec2,w,c
  2614   002428  22E2               	addwfc	fsr1h,f,c
  2615   00242A  50E7               	movf	indf1,w,c
  2616   00242C  6EF3               	movwf	243,c	;volatile
  2617   00242E  EE26  F086         	lfsr	2,_r_queue+337
  2618   002432  EE10 F011          	lfsr	1,17
  2619   002436  50DE               	movf	postinc2,w,c
  2620   002438  26E1               	addwf	fsr1l,f,c
  2621   00243A  50DD               	movf	postdec2,w,c
  2622   00243C  22E2               	addwfc	fsr1h,f,c
  2623   00243E  50E7               	movf	indf1,w,c
  2624   002440  6EF5               	movwf	245,c	;volatile
  2625   002442  EE26  F086         	lfsr	2,_r_queue+337
  2626   002446  EE10 F013          	lfsr	1,19
  2627   00244A  50DE               	movf	postinc2,w,c
  2628   00244C  26E1               	addwf	fsr1l,f,c
  2629   00244E  50DD               	movf	postdec2,w,c
  2630   002450  22E2               	addwfc	fsr1h,f,c
  2631   002452  50E7               	movf	indf1,w,c
  2632   002454  6EF7               	movwf	247,c	;volatile
  2633   002456  EE26  F086         	lfsr	2,_r_queue+337
  2634   00245A  EE10 F012          	lfsr	1,18
  2635   00245E  50DE               	movf	postinc2,w,c
  2636   002460  26E1               	addwf	fsr1l,f,c
  2637   002462  50DD               	movf	postdec2,w,c
  2638   002464  22E2               	addwfc	fsr1h,f,c
  2639   002466  50E7               	movf	indf1,w,c
  2640   002468  6EF6               	movwf	246,c	;volatile
  2641   00246A  EE26  F086         	lfsr	2,_r_queue+337
  2642   00246E  EE10 F014          	lfsr	1,20
  2643   002472  50DE               	movf	postinc2,w,c
  2644   002474  26E1               	addwf	fsr1l,f,c
  2645   002476  50DD               	movf	postdec2,w,c
  2646   002478  22E2               	addwfc	fsr1h,f,c
  2647   00247A  50E7               	movf	indf1,w,c
  2648   00247C  6EF8               	movwf	248,c	;volatile
  2649   00247E  EE26  F086         	lfsr	2,_r_queue+337
  2650   002482  EE10 F007          	lfsr	1,7
  2651   002486  50DE               	movf	postinc2,w,c
  2652   002488  26E1               	addwf	fsr1l,f,c
  2653   00248A  50DD               	movf	postdec2,w,c
  2654   00248C  22E2               	addwfc	fsr1h,f,c
  2655   00248E  50E7               	movf	indf1,w,c
  2656   002490  6ED8               	movwf	216,c	;volatile
  2657   002492  EE26  F086         	lfsr	2,_r_queue+337
  2658   002496  EE10 F006          	lfsr	1,6
  2659   00249A  50DE               	movf	postinc2,w,c
  2660   00249C  26E1               	addwf	fsr1l,f,c
  2661   00249E  50DD               	movf	postdec2,w,c
  2662   0024A0  22E2               	addwfc	fsr1h,f,c
  2663   0024A2  50E7               	movf	indf1,w,c
  2664   0024A4  0103               	movlb	3	; () banked
  2665   0024A6  6F0A               	movwf	??_os_start& (0+255),b
  2666   0024A8  510A               	movf	??_os_start& (0+255),w,b
  2667   0024AA                     
  2668                           ; BSR set to: 3
  2669   0024AA  6AFC               	clrf	252,c	;volatile
  2670   0024AC  EE26  F086         	lfsr	2,_r_queue+337
  2671   0024B0  EE10 F02F          	lfsr	1,47
  2672   0024B4  50DE               	movf	postinc2,w,c
  2673   0024B6  26E1               	addwf	fsr1l,f,c
  2674   0024B8  50DD               	movf	postdec2,w,c
  2675   0024BA  22E2               	addwfc	fsr1h,f,c
  2676   0024BC  50E7               	movf	indf1,w,c
  2677   0024BE  B4D8               	btfsc	status,2,c
  2678   0024C0  EF64  F012         	goto	u5261
  2679   0024C4  EF66  F012         	goto	u5260
  2680   0024C8                     u5261:
  2681   0024C8  EFEF  F012         	goto	l125
  2682   0024CC                     u5260:
  2683   0024CC                     l126:
  2684                           
  2685                           ; BSR set to: 3
  2686   0024CC  0005               	push		;# 
  2687   0024CE  EE26  F086         	lfsr	2,_r_queue+337
  2688   0024D2  EE10 F02F          	lfsr	1,47
  2689   0024D6  50DE               	movf	postinc2,w,c
  2690   0024D8  26E1               	addwf	fsr1l,f,c
  2691   0024DA  50DD               	movf	postdec2,w,c
  2692   0024DC  22E2               	addwfc	fsr1h,f,c
  2693   0024DE  06E7               	decf	indf1,f,c
  2694   0024E0  EE26  F086         	lfsr	2,_r_queue+337
  2695   0024E4  EE10 F02F          	lfsr	1,47
  2696   0024E8  50DE               	movf	postinc2,w,c
  2697   0024EA  26E1               	addwf	fsr1l,f,c
  2698   0024EC  50DD               	movf	postdec2,w,c
  2699   0024EE  22E2               	addwfc	fsr1h,f,c
  2700   0024F0  50E7               	movf	indf1,w,c
  2701   0024F2  0103               	movlb	3	; () banked
  2702   0024F4  6F0A               	movwf	??_os_start& (0+255),b
  2703   0024F6  510A               	movf	??_os_start& (0+255),w,b
  2704   0024F8  0D03               	mullw	3
  2705   0024FA  CFF3 F30B          	movff	prodl,??_os_start+1
  2706   0024FE  CFF4 F30C          	movff	prodh,??_os_start+2
  2707   002502  EE26  F086         	lfsr	2,_r_queue+337
  2708   002506  CFDE F30D          	movff	postinc2,??_os_start+3
  2709   00250A  CFDD F30E          	movff	postdec2,??_os_start+4
  2710   00250E  510B               	movf	(??_os_start+1)& (0+255),w,b
  2711   002510  250D               	addwf	(??_os_start+3)& (0+255),w,b
  2712   002512  6F0F               	movwf	(??_os_start+5)& (0+255),b
  2713   002514  510C               	movf	(??_os_start+2)& (0+255),w,b
  2714   002516  210E               	addwfc	(??_os_start+4)& (0+255),w,b
  2715   002518  6F10               	movwf	(??_os_start+6)& (0+255),b
  2716   00251A  0E17               	movlw	23
  2717   00251C  250F               	addwf	(??_os_start+5)& (0+255),w,b
  2718   00251E  6ED9               	movwf	fsr2l,c
  2719   002520  0E00               	movlw	0
  2720   002522  2110               	addwfc	(??_os_start+6)& (0+255),w,b
  2721   002524  6EDA               	movwf	fsr2h,c
  2722   002526  50DF               	movf	indf2,w,c
  2723   002528  6EFD               	movwf	253,c	;volatile
  2724   00252A                     
  2725                           ; BSR set to: 3
  2726   00252A  EE26  F086         	lfsr	2,_r_queue+337
  2727   00252E  EE10 F02F          	lfsr	1,47
  2728   002532  50DE               	movf	postinc2,w,c
  2729   002534  26E1               	addwf	fsr1l,f,c
  2730   002536  50DD               	movf	postdec2,w,c
  2731   002538  22E2               	addwfc	fsr1h,f,c
  2732   00253A  50E7               	movf	indf1,w,c
  2733   00253C  6F0A               	movwf	??_os_start& (0+255),b
  2734   00253E  510A               	movf	??_os_start& (0+255),w,b
  2735   002540  0D03               	mullw	3
  2736   002542  CFF3 F30B          	movff	prodl,??_os_start+1
  2737   002546  CFF4 F30C          	movff	prodh,??_os_start+2
  2738   00254A  EE26  F086         	lfsr	2,_r_queue+337
  2739   00254E  CFDE F30D          	movff	postinc2,??_os_start+3
  2740   002552  CFDD F30E          	movff	postdec2,??_os_start+4
  2741   002556  510B               	movf	(??_os_start+1)& (0+255),w,b
  2742   002558  250D               	addwf	(??_os_start+3)& (0+255),w,b
  2743   00255A  6F0F               	movwf	(??_os_start+5)& (0+255),b
  2744   00255C  510C               	movf	(??_os_start+2)& (0+255),w,b
  2745   00255E  210E               	addwfc	(??_os_start+4)& (0+255),w,b
  2746   002560  6F10               	movwf	(??_os_start+6)& (0+255),b
  2747   002562  0E18               	movlw	24
  2748   002564  250F               	addwf	(??_os_start+5)& (0+255),w,b
  2749   002566  6ED9               	movwf	fsr2l,c
  2750   002568  0E00               	movlw	0
  2751   00256A  2110               	addwfc	(??_os_start+6)& (0+255),w,b
  2752   00256C  6EDA               	movwf	fsr2h,c
  2753   00256E  50DF               	movf	indf2,w,c
  2754   002570  6EFE               	movwf	254,c	;volatile
  2755   002572                     
  2756                           ; BSR set to: 3
  2757   002572  EE26  F086         	lfsr	2,_r_queue+337
  2758   002576  EE10 F02F          	lfsr	1,47
  2759   00257A  50DE               	movf	postinc2,w,c
  2760   00257C  26E1               	addwf	fsr1l,f,c
  2761   00257E  50DD               	movf	postdec2,w,c
  2762   002580  22E2               	addwfc	fsr1h,f,c
  2763   002582  50E7               	movf	indf1,w,c
  2764   002584  6F0A               	movwf	??_os_start& (0+255),b
  2765   002586  510A               	movf	??_os_start& (0+255),w,b
  2766   002588  0D03               	mullw	3
  2767   00258A  CFF3 F30B          	movff	prodl,??_os_start+1
  2768   00258E  CFF4 F30C          	movff	prodh,??_os_start+2
  2769   002592  EE26  F086         	lfsr	2,_r_queue+337
  2770   002596  CFDE F30D          	movff	postinc2,??_os_start+3
  2771   00259A  CFDD F30E          	movff	postdec2,??_os_start+4
  2772   00259E  510B               	movf	(??_os_start+1)& (0+255),w,b
  2773   0025A0  250D               	addwf	(??_os_start+3)& (0+255),w,b
  2774   0025A2  6F0F               	movwf	(??_os_start+5)& (0+255),b
  2775   0025A4  510C               	movf	(??_os_start+2)& (0+255),w,b
  2776   0025A6  210E               	addwfc	(??_os_start+4)& (0+255),w,b
  2777   0025A8  6F10               	movwf	(??_os_start+6)& (0+255),b
  2778   0025AA  0E19               	movlw	25
  2779   0025AC  250F               	addwf	(??_os_start+5)& (0+255),w,b
  2780   0025AE  6ED9               	movwf	fsr2l,c
  2781   0025B0  0E00               	movlw	0
  2782   0025B2  2110               	addwfc	(??_os_start+6)& (0+255),w,b
  2783   0025B4  6EDA               	movwf	fsr2h,c
  2784   0025B6  50DF               	movf	indf2,w,c
  2785   0025B8  6EFF               	movwf	255,c	;volatile
  2786   0025BA                     
  2787                           ; BSR set to: 3
  2788   0025BA  EE26  F086         	lfsr	2,_r_queue+337
  2789   0025BE  EE10 F02F          	lfsr	1,47
  2790   0025C2  50DE               	movf	postinc2,w,c
  2791   0025C4  26E1               	addwf	fsr1l,f,c
  2792   0025C6  50DD               	movf	postdec2,w,c
  2793   0025C8  22E2               	addwfc	fsr1h,f,c
  2794   0025CA  50E7               	movf	indf1,w,c
  2795   0025CC  A4D8               	btfss	status,2,c
  2796   0025CE  EFEB  F012         	goto	u5271
  2797   0025D2  EFED  F012         	goto	u5270
  2798   0025D6                     u5271:
  2799   0025D6  EF66  F012         	goto	l126
  2800   0025DA                     u5270:
  2801   0025DA  EF34  F013         	goto	l5240
  2802   0025DE                     l125:
  2803                           
  2804                           ; BSR set to: 3
  2805   0025DE  0005               	push		;# 
  2806   0025E0  EE26  F086         	lfsr	2,_r_queue+337
  2807   0025E4  EE10 F002          	lfsr	1,2
  2808   0025E8  50DE               	movf	postinc2,w,c
  2809   0025EA  26E1               	addwf	fsr1l,f,c
  2810   0025EC  50DD               	movf	postdec2,w,c
  2811   0025EE  22E2               	addwfc	fsr1h,f,c
  2812   0025F0  50E7               	movf	indf1,w,c
  2813   0025F2  6EFD               	movwf	253,c	;volatile
  2814   0025F4  EE26  F086         	lfsr	2,_r_queue+337
  2815   0025F8  EE10 F002          	lfsr	1,2
  2816   0025FC  50DE               	movf	postinc2,w,c
  2817   0025FE  26E1               	addwf	fsr1l,f,c
  2818   002600  50DD               	movf	postdec2,w,c
  2819   002602  22E2               	addwfc	fsr1h,f,c
  2820   002604  CFE6 F30A          	movff	postinc1,??_os_start
  2821   002608  CFE5 F30B          	movff	postdec1,??_os_start+1
  2822   00260C  C30A  F30C         	movff	??_os_start,??_os_start+2
  2823   002610  C30B  F30D         	movff	??_os_start+1,??_os_start+3
  2824   002614  0103               	movlb	3	; () banked
  2825   002616  6B0E               	clrf	(??_os_start+4)& (0+255),b
  2826   002618  C30D  F30C         	movff	??_os_start+3,??_os_start+2
  2827   00261C  C30E  F30D         	movff	??_os_start+4,??_os_start+3
  2828   002620  6B0E               	clrf	(??_os_start+4)& (0+255),b
  2829   002622  510C               	movf	(??_os_start+2)& (0+255),w,b
  2830   002624  6EFE               	movwf	254,c	;volatile
  2831   002626  0E10               	movlw	16
  2832   002628  6F0A               	movwf	??_os_start& (0+255),b
  2833   00262A  EE26  F086         	lfsr	2,_r_queue+337
  2834   00262E  EE10 F002          	lfsr	1,2
  2835   002632  50DE               	movf	postinc2,w,c
  2836   002634  26E1               	addwf	fsr1l,f,c
  2837   002636  50DD               	movf	postdec2,w,c
  2838   002638  22E2               	addwfc	fsr1h,f,c
  2839   00263A  CFE6 F30B          	movff	postinc1,??_os_start+1
  2840   00263E  CFE5 F30C          	movff	postdec1,??_os_start+2
  2841   002642  C30B  F30D         	movff	??_os_start+1,??_os_start+3
  2842   002646  C30C  F30E         	movff	??_os_start+2,??_os_start+4
  2843   00264A  6B0F               	clrf	(??_os_start+5)& (0+255),b
  2844   00264C  290A               	incf	??_os_start& (0+255),w,b
  2845   00264E  6F10               	movwf	(??_os_start+6)& (0+255),b
  2846   002650  EF2E  F013         	goto	u5280
  2847   002654                     u5285:
  2848   002654  90D8               	bcf	status,0,c
  2849   002656  330F               	rrcf	(??_os_start+5)& (0+255),f,b
  2850   002658  330E               	rrcf	(??_os_start+4)& (0+255),f,b
  2851   00265A  330D               	rrcf	(??_os_start+3)& (0+255),f,b
  2852   00265C                     u5280:
  2853   00265C  2F10               	decfsz	(??_os_start+6)& (0+255),f,b
  2854   00265E  EF2A  F013         	goto	u5285
  2855   002662  0103               	movlb	3	; () banked
  2856   002664  510D               	movf	(??_os_start+3)& (0+255),w,b
  2857   002666  6EFF               	movwf	255,c	;volatile
  2858   002668                     l5240:
  2859                           
  2860                           ; BSR set to: 3
  2861   002668  0E14               	movlw	20
  2862   00266A  6E47               	movwf	_rr_quantum^0,c
  2863   00266C                     l5242:
  2864                           
  2865                           ;kernel.c: 84:     INTCONbits.GIE = 1;;
  2866   00266C  8EF2               	bsf	242,7,c	;volatile
  2867   00266E  0012               	return		;funcret
  2868   002670                     __end_of_os_start:
  2869                           	callstack 0
  2870                           
  2871 ;; *************** function _setup_hardware *****************
  2872 ;; Defined at:
  2873 ;;		line 10 in file "hw.c"
  2874 ;; Parameters:    Size  Location     Type
  2875 ;;		None
  2876 ;; Auto vars:     Size  Location     Type
  2877 ;;		None
  2878 ;; Return value:  Size  Location     Type
  2879 ;;                  1    wreg      void 
  2880 ;; Registers used:
  2881 ;;		wreg, status,2
  2882 ;; Tracked objects:
  2883 ;;		On entry : 0/0
  2884 ;;		On exit  : 0/0
  2885 ;;		Unchanged: 0/0
  2886 ;; Data sizes:     COMRAM   BANK0   BANK1   BANK2   BANK3   BANK4   BANK5   BANK6   BANK7   BANK8   BANK9  BANK10  BANK1
      +1  BANK12  BANK13  BANK14  BANK15
  2887 ;;      Params:         0       0       0       0       0       0       0       0       0       0       0       0       
      +0       0       0       0       0
  2888 ;;      Locals:         0       0       0       0       0       0       0       0       0       0       0       0       
      +0       0       0       0       0
  2889 ;;      Temps:          0       0       0       0       0       0       0       0       0       0       0       0       
      +0       0       0       0       0
  2890 ;;      Totals:         0       0       0       0       0       0       0       0       0       0       0       0       
      +0       0       0       0       0
  2891 ;;Total ram usage:        0 bytes
  2892 ;; Hardware stack levels used: 1
  2893 ;; Hardware stack levels required when called: 8
  2894 ;; This function calls:
  2895 ;;		Nothing
  2896 ;; This function is called by:
  2897 ;;		_os_start
  2898 ;; This function uses a non-reentrant model
  2899 ;;
  2900                           
  2901                           	psect	text2
  2902   0031BC                     __ptext2:
  2903                           	callstack 0
  2904   0031BC                     _setup_hardware:
  2905                           	callstack 21
  2906   0031BC                     
  2907                           ;hw.c: 12:     INTCONbits.TMR0IE = 1;
  2908   0031BC  8AF2               	bsf	242,5,c	;volatile
  2909                           
  2910                           ;hw.c: 13:     INTCONbits.TMR0IF = 0;
  2911   0031BE  94F2               	bcf	242,2,c	;volatile
  2912                           
  2913                           ;hw.c: 14:     T0CONbits.T08BIT = 1;
  2914   0031C0  8CD5               	bsf	213,6,c	;volatile
  2915                           
  2916                           ;hw.c: 15:     T0CONbits.T0CS = 0;
  2917   0031C2  9AD5               	bcf	213,5,c	;volatile
  2918                           
  2919                           ;hw.c: 16:     T0CONbits.PSA = 0;
  2920   0031C4  96D5               	bcf	213,3,c	;volatile
  2921   0031C6                     
  2922                           ;hw.c: 17:     T0CONbits.T0PS = 0b111;
  2923   0031C6  0E07               	movlw	7
  2924   0031C8  12D5               	iorwf	213,f,c	;volatile
  2925   0031CA                     
  2926                           ;hw.c: 18:     T0CONbits.TMR0ON = 1;
  2927   0031CA  8ED5               	bsf	213,7,c	;volatile
  2928                           
  2929                           ;hw.c: 19:     TMR0 = 0;
  2930   0031CC  6AD7               	clrf	215,c	;volatile
  2931   0031CE  0E00               	movlw	0
  2932   0031D0  6ED6               	movwf	214,c	;volatile
  2933   0031D2                     
  2934                           ;hw.c: 20:     INTCONbits.GIE = 1;
  2935   0031D2  8EF2               	bsf	242,7,c	;volatile
  2936   0031D4                     
  2937                           ;hw.c: 21:     INTCONbits.PEIE = 1;
  2938   0031D4  8CF2               	bsf	242,6,c	;volatile
  2939   0031D6  0012               	return		;funcret
  2940   0031D8                     __end_of_setup_hardware:
  2941                           	callstack 0
  2942                           
  2943 ;; *************** function _scheduler *****************
  2944 ;; Defined at:
  2945 ;;		line 9 in file "scheduler.c"
  2946 ;; Parameters:    Size  Location     Type
  2947 ;;		None
  2948 ;; Auto vars:     Size  Location     Type
  2949 ;;		None
  2950 ;; Return value:  Size  Location     Type
  2951 ;;                  1    wreg      void 
  2952 ;; Registers used:
  2953 ;;		wreg, fsr2l, fsr2h, status,2, status,0, prodl, prodh, cstack
  2954 ;; Tracked objects:
  2955 ;;		On entry : 0/0
  2956 ;;		On exit  : 0/0
  2957 ;;		Unchanged: 0/0
  2958 ;; Data sizes:     COMRAM   BANK0   BANK1   BANK2   BANK3   BANK4   BANK5   BANK6   BANK7   BANK8   BANK9  BANK10  BANK1
      +1  BANK12  BANK13  BANK14  BANK15
  2959 ;;      Params:         0       0       0       0       0       0       0       0       0       0       0       0       
      +0       0       0       0       0
  2960 ;;      Locals:         0       0       0       0       0       0       0       0       0       0       0       0       
      +0       0       0       0       0
  2961 ;;      Temps:          0       0       0       0       3       0       0       0       0       0       0       0       
      +0       0       0       0       0
  2962 ;;      Totals:         0       0       0       0       3       0       0       0       0       0       0       0       
      +0       0       0       0       0
  2963 ;;Total ram usage:        3 bytes
  2964 ;; Hardware stack levels used: 1
  2965 ;; Hardware stack levels required when called: 9
  2966 ;; This function calls:
  2967 ;;		_priority_rr_scheduler
  2968 ;; This function is called by:
  2969 ;;		_os_start
  2970 ;;		_os_yield
  2971 ;;		_os_task_change_state
  2972 ;; This function uses a non-reentrant model
  2973 ;;
  2974                           
  2975                           	psect	text3
  2976   0030C8                     __ptext3:
  2977                           	callstack 0
  2978   0030C8                     _scheduler:
  2979                           	callstack 20
  2980   0030C8                     
  2981                           ;scheduler.c: 15:     r_queue.pos_task_running = priority_rr_scheduler();
  2982   0030C8  EC38  F013         	call	_priority_rr_scheduler	;wreg free
  2983   0030CC  0103               	movlb	3	; () banked
  2984   0030CE  6F07               	movwf	??_scheduler& (0+255),b
  2985   0030D0  C307  F688         	movff	??_scheduler,_r_queue+339
  2986   0030D4                     
  2987                           ; BSR set to: 3
  2988                           ;scheduler.c: 17:     r_queue.task_running = &r_queue.TASKS[r_queue.pos_task_running];
  2989   0030D4  C688  F307         	movff	_r_queue+339,??_scheduler
  2990   0030D8  5107               	movf	??_scheduler& (0+255),w,b
  2991   0030DA  0D30               	mullw	48
  2992   0030DC  0E35               	movlw	low _r_queue
  2993   0030DE  24F3               	addwf	243,w,c
  2994   0030E0  6F08               	movwf	(??_scheduler+1)& (0+255),b
  2995   0030E2  0E05               	movlw	high _r_queue
  2996   0030E4  20F4               	addwfc	prodh,w,c
  2997   0030E6  6F09               	movwf	(??_scheduler+2)& (0+255),b
  2998   0030E8  C308  F686         	movff	??_scheduler+1,_r_queue+337
  2999   0030EC  C309  F687         	movff	??_scheduler+2,_r_queue+338
  3000   0030F0                     
  3001                           ; BSR set to: 3
  3002   0030F0  0012               	return		;funcret
  3003   0030F2                     __end_of_scheduler:
  3004                           	callstack 0
  3005                           
  3006 ;; *************** function _priority_rr_scheduler *****************
  3007 ;; Defined at:
  3008 ;;		line 51 in file "scheduler.c"
  3009 ;; Parameters:    Size  Location     Type
  3010 ;;		None
  3011 ;; Auto vars:     Size  Location     Type
  3012 ;;  idx             1    6[BANK3 ] unsigned char 
  3013 ;;  i               1    4[BANK3 ] unsigned char 
  3014 ;;  i               1    5[BANK3 ] unsigned char 
  3015 ;;  found           1    3[BANK3 ] unsigned char 
  3016 ;;  max_prio        1    2[BANK3 ] unsigned char 
  3017 ;;  current         1    1[BANK3 ] unsigned char 
  3018 ;; Return value:  Size  Location     Type
  3019 ;;                  1    wreg      unsigned char 
  3020 ;; Registers used:
  3021 ;;		wreg, fsr2l, fsr2h, status,2, status,0, prodl, prodh
  3022 ;; Tracked objects:
  3023 ;;		On entry : 0/0
  3024 ;;		On exit  : 0/0
  3025 ;;		Unchanged: 0/0
  3026 ;; Data sizes:     COMRAM   BANK0   BANK1   BANK2   BANK3   BANK4   BANK5   BANK6   BANK7   BANK8   BANK9  BANK10  BANK1
      +1  BANK12  BANK13  BANK14  BANK15
  3027 ;;      Params:         0       0       0       0       0       0       0       0       0       0       0       0       
      +0       0       0       0       0
  3028 ;;      Locals:         0       0       0       0       6       0       0       0       0       0       0       0       
      +0       0       0       0       0
  3029 ;;      Temps:          0       0       0       0       1       0       0       0       0       0       0       0       
      +0       0       0       0       0
  3030 ;;      Totals:         0       0       0       0       7       0       0       0       0       0       0       0       
      +0       0       0       0       0
  3031 ;;Total ram usage:        7 bytes
  3032 ;; Hardware stack levels used: 1
  3033 ;; Hardware stack levels required when called: 8
  3034 ;; This function calls:
  3035 ;;		Nothing
  3036 ;; This function is called by:
  3037 ;;		_scheduler
  3038 ;; This function uses a non-reentrant model
  3039 ;;
  3040                           
  3041                           	psect	text4
  3042   002670                     __ptext4:
  3043                           	callstack 0
  3044   002670                     _priority_rr_scheduler:
  3045                           	callstack 20
  3046   002670                     
  3047                           ;scheduler.c: 52:     uint8_t max_prio = 0;
  3048   002670  0103               	movlb	3	; () banked
  3049   002672  6B02               	clrf	priority_rr_scheduler@max_prio& (0+255),b
  3050                           
  3051                           ;scheduler.c: 53:     uint8_t found = 0;
  3052   002674  6B03               	clrf	priority_rr_scheduler@found& (0+255),b
  3053                           
  3054                           ;scheduler.c: 55:     for (uint8_t i = 0; i < r_queue.size; i++) {
  3055   002676  6B05               	clrf	priority_rr_scheduler@i& (0+255),b
  3056   002678  EF74  F013         	goto	l5118
  3057   00267C                     l5106:
  3058                           
  3059                           ; BSR set to: 3
  3060                           ;scheduler.c: 56:         if (r_queue.TASKS[i].task_state == READY) {
  3061   00267C  5105               	movf	priority_rr_scheduler@i& (0+255),w,b
  3062   00267E  0D30               	mullw	48
  3063   002680  0E36               	movlw	low (_r_queue+1)
  3064   002682  24F3               	addwf	243,w,c
  3065   002684  6ED9               	movwf	fsr2l,c
  3066   002686  0E05               	movlw	high (_r_queue+1)
  3067   002688  20F4               	addwfc	prodh,w,c
  3068   00268A  6EDA               	movwf	fsr2h,c
  3069   00268C  50DF               	movf	indf2,w,c
  3070   00268E  A4D8               	btfss	status,2,c
  3071   002690  EF4C  F013         	goto	u5151
  3072   002694  EF4E  F013         	goto	u5150
  3073   002698                     u5151:
  3074   002698  EF73  F013         	goto	l5116
  3075   00269C                     u5150:
  3076   00269C                     
  3077                           ; BSR set to: 3
  3078                           ;scheduler.c: 57:             if (!found || r_queue.TASKS[i].task_priority > max_prio) {
  3079   00269C  5103               	movf	priority_rr_scheduler@found& (0+255),w,b
  3080   00269E  B4D8               	btfsc	status,2,c
  3081   0026A0  EF54  F013         	goto	u5161
  3082   0026A4  EF56  F013         	goto	u5160
  3083   0026A8                     u5161:
  3084   0026A8  EF67  F013         	goto	l5112
  3085   0026AC                     u5160:
  3086   0026AC                     
  3087                           ; BSR set to: 3
  3088   0026AC  5105               	movf	priority_rr_scheduler@i& (0+255),w,b
  3089   0026AE  0D30               	mullw	48
  3090   0026B0  0E3A               	movlw	low (_r_queue+5)
  3091   0026B2  24F3               	addwf	243,w,c
  3092   0026B4  6ED9               	movwf	fsr2l,c
  3093   0026B6  0E05               	movlw	high (_r_queue+5)
  3094   0026B8  20F4               	addwfc	prodh,w,c
  3095   0026BA  6EDA               	movwf	fsr2h,c
  3096   0026BC  50DE               	movf	postinc2,w,c
  3097   0026BE  5D02               	subwf	priority_rr_scheduler@max_prio& (0+255),w,b
  3098   0026C0  B0D8               	btfsc	status,0,c
  3099   0026C2  EF65  F013         	goto	u5171
  3100   0026C6  EF67  F013         	goto	u5170
  3101   0026CA                     u5171:
  3102   0026CA  EF73  F013         	goto	l5116
  3103   0026CE                     u5170:
  3104   0026CE                     l5112:
  3105                           
  3106                           ; BSR set to: 3
  3107                           ;scheduler.c: 58:                 max_prio = r_queue.TASKS[i].task_priority;
  3108   0026CE  5105               	movf	priority_rr_scheduler@i& (0+255),w,b
  3109   0026D0  0D30               	mullw	48
  3110   0026D2  0E3A               	movlw	low (_r_queue+5)
  3111   0026D4  24F3               	addwf	243,w,c
  3112   0026D6  6ED9               	movwf	fsr2l,c
  3113   0026D8  0E05               	movlw	high (_r_queue+5)
  3114   0026DA  20F4               	addwfc	prodh,w,c
  3115   0026DC  6EDA               	movwf	fsr2h,c
  3116   0026DE  50DF               	movf	indf2,w,c
  3117   0026E0  6F02               	movwf	priority_rr_scheduler@max_prio& (0+255),b
  3118   0026E2                     
  3119                           ; BSR set to: 3
  3120                           ;scheduler.c: 59:                 found = 1;
  3121   0026E2  0E01               	movlw	1
  3122   0026E4  6F03               	movwf	priority_rr_scheduler@found& (0+255),b
  3123   0026E6                     l5116:
  3124                           
  3125                           ; BSR set to: 3
  3126                           ;scheduler.c: 62:     }
  3127   0026E6  2B05               	incf	priority_rr_scheduler@i& (0+255),f,b
  3128   0026E8                     l5118:
  3129                           
  3130                           ; BSR set to: 3
  3131   0026E8  EE26  F085         	lfsr	2,_r_queue+336
  3132   0026EC  50DE               	movf	postinc2,w,c
  3133   0026EE  5D05               	subwf	priority_rr_scheduler@i& (0+255),w,b
  3134   0026F0  A0D8               	btfss	status,0,c
  3135   0026F2  EF7D  F013         	goto	u5181
  3136   0026F6  EF7F  F013         	goto	u5180
  3137   0026FA                     u5181:
  3138   0026FA  EF3E  F013         	goto	l5106
  3139   0026FE                     u5180:
  3140   0026FE                     
  3141                           ; BSR set to: 3
  3142                           ;scheduler.c: 63:     if (!found)return 0;
  3143   0026FE  5103               	movf	priority_rr_scheduler@found& (0+255),w,b
  3144   002700  A4D8               	btfss	status,2,c
  3145   002702  EF85  F013         	goto	u5191
  3146   002706  EF87  F013         	goto	u5190
  3147   00270A                     u5191:
  3148   00270A  EF8A  F013         	goto	l504
  3149   00270E                     u5190:
  3150   00270E                     l5122:
  3151                           
  3152                           ; BSR set to: 3
  3153   00270E  0E00               	movlw	0
  3154   002710  EFD3  F013         	goto	l505
  3155   002714                     l504:
  3156                           
  3157                           ; BSR set to: 3
  3158                           ;scheduler.c: 64:     uint8_t current = r_queue.pos_task_running;
  3159   002714  C688  F301         	movff	_r_queue+339,priority_rr_scheduler@current
  3160                           
  3161                           ;scheduler.c: 66:     for (uint8_t i = 0; i < r_queue.size; i++) {
  3162   002718  6B04               	clrf	priority_rr_scheduler@i_1768& (0+255),b
  3163   00271A  EFC6  F013         	goto	l5142
  3164   00271E                     l5126:
  3165                           
  3166                           ; BSR set to: 3
  3167                           ;scheduler.c: 67:         uint8_t idx = current + i;
  3168   00271E  5101               	movf	priority_rr_scheduler@current& (0+255),w,b
  3169   002720  2504               	addwf	priority_rr_scheduler@i_1768& (0+255),w,b
  3170   002722  6F06               	movwf	priority_rr_scheduler@idx& (0+255),b
  3171   002724                     
  3172                           ; BSR set to: 3
  3173                           ;scheduler.c: 68:         if (idx >= r_queue.size) idx -= r_queue.size;
  3174   002724  EE26  F085         	lfsr	2,_r_queue+336
  3175   002728  50DE               	movf	postinc2,w,c
  3176   00272A  5D06               	subwf	priority_rr_scheduler@idx& (0+255),w,b
  3177   00272C  A0D8               	btfss	status,0,c
  3178   00272E  EF9B  F013         	goto	u5201
  3179   002732  EF9D  F013         	goto	u5200
  3180   002736                     u5201:
  3181   002736  EFA1  F013         	goto	l5132
  3182   00273A                     u5200:
  3183   00273A                     
  3184                           ; BSR set to: 3
  3185   00273A  EE26  F085         	lfsr	2,_r_queue+336
  3186   00273E  50DF               	movf	indf2,w,c
  3187   002740  5F06               	subwf	priority_rr_scheduler@idx& (0+255),f,b
  3188   002742                     l5132:
  3189                           
  3190                           ; BSR set to: 3
  3191                           ;scheduler.c: 69:         if (r_queue.TASKS[idx].task_state == READY &&
  3192   002742  5106               	movf	priority_rr_scheduler@idx& (0+255),w,b
  3193   002744  0D30               	mullw	48
  3194   002746  0E36               	movlw	low (_r_queue+1)
  3195   002748  24F3               	addwf	243,w,c
  3196   00274A  6ED9               	movwf	fsr2l,c
  3197   00274C  0E05               	movlw	high (_r_queue+1)
  3198   00274E  20F4               	addwfc	prodh,w,c
  3199   002750  6EDA               	movwf	fsr2h,c
  3200   002752  50DF               	movf	indf2,w,c
  3201   002754  A4D8               	btfss	status,2,c
  3202   002756  EFAF  F013         	goto	u5211
  3203   00275A  EFB1  F013         	goto	u5210
  3204   00275E                     u5211:
  3205   00275E  EFC5  F013         	goto	l5140
  3206   002762                     u5210:
  3207   002762                     
  3208                           ; BSR set to: 3
  3209   002762  5106               	movf	priority_rr_scheduler@idx& (0+255),w,b
  3210   002764  0D30               	mullw	48
  3211   002766  0E3A               	movlw	low (_r_queue+5)
  3212   002768  24F3               	addwf	243,w,c
  3213   00276A  6ED9               	movwf	fsr2l,c
  3214   00276C  0E05               	movlw	high (_r_queue+5)
  3215   00276E  20F4               	addwfc	prodh,w,c
  3216   002770  6EDA               	movwf	fsr2h,c
  3217   002772  5102               	movf	priority_rr_scheduler@max_prio& (0+255),w,b
  3218   002774  18DE               	xorwf	postinc2,w,c
  3219   002776  A4D8               	btfss	status,2,c
  3220   002778  EFC0  F013         	goto	u5221
  3221   00277C  EFC2  F013         	goto	u5220
  3222   002780                     u5221:
  3223   002780  EFC5  F013         	goto	l5140
  3224   002784                     u5220:
  3225   002784                     
  3226                           ; BSR set to: 3
  3227                           ;scheduler.c: 70:                 r_queue.TASKS[idx].task_priority == max_prio) {;schedu
      +                          ler.c: 71:             return idx;
  3228   002784  5106               	movf	priority_rr_scheduler@idx& (0+255),w,b
  3229   002786  EFD3  F013         	goto	l505
  3230   00278A                     l5140:
  3231                           
  3232                           ; BSR set to: 3
  3233                           ;scheduler.c: 73:     }
  3234   00278A  2B04               	incf	priority_rr_scheduler@i_1768& (0+255),f,b
  3235   00278C                     l5142:
  3236                           
  3237                           ; BSR set to: 3
  3238   00278C  EE26  F085         	lfsr	2,_r_queue+336
  3239   002790  50DE               	movf	postinc2,w,c
  3240   002792  5D04               	subwf	priority_rr_scheduler@i_1768& (0+255),w,b
  3241   002794  A0D8               	btfss	status,0,c
  3242   002796  EFCF  F013         	goto	u5231
  3243   00279A  EFD1  F013         	goto	u5230
  3244   00279E                     u5231:
  3245   00279E  EF8F  F013         	goto	l5126
  3246   0027A2                     u5230:
  3247   0027A2  EF87  F013         	goto	l5122
  3248   0027A6                     l505:
  3249                           
  3250                           ; BSR set to: 3
  3251   0027A6  0012               	return		;funcret
  3252   0027A8                     __end_of_priority_rr_scheduler:
  3253                           	callstack 0
  3254                           
  3255 ;; *************** function _os_config *****************
  3256 ;; Defined at:
  3257 ;;		line 66 in file "kernel.c"
  3258 ;; Parameters:    Size  Location     Type
  3259 ;;		None
  3260 ;; Auto vars:     Size  Location     Type
  3261 ;;		None
  3262 ;; Return value:  Size  Location     Type
  3263 ;;                  1    wreg      void 
  3264 ;; Registers used:
  3265 ;;		wreg, fsr1l, fsr1h, fsr2l, fsr2h, status,2, status,0, prodl, prodh, cstack
  3266 ;; Tracked objects:
  3267 ;;		On entry : 0/0
  3268 ;;		On exit  : 0/0
  3269 ;;		Unchanged: 0/0
  3270 ;; Data sizes:     COMRAM   BANK0   BANK1   BANK2   BANK3   BANK4   BANK5   BANK6   BANK7   BANK8   BANK9  BANK10  BANK1
      +1  BANK12  BANK13  BANK14  BANK15
  3271 ;;      Params:         0       0       0       0       0       0       0       0       0       0       0       0       
      +0       0       0       0       0
  3272 ;;      Locals:         0       0       0       0       0       0       0       0       0       0       0       0       
      +0       0       0       0       0
  3273 ;;      Temps:          0       0       0       0       0       0       0       0       0       0       0       0       
      +0       0       0       0       0
  3274 ;;      Totals:         0       0       0       0       0       0       0       0       0       0       0       0       
      +0       0       0       0       0
  3275 ;;Total ram usage:        0 bytes
  3276 ;; Hardware stack levels used: 1
  3277 ;; Hardware stack levels required when called: 11
  3278 ;; This function calls:
  3279 ;;		_config_user
  3280 ;;		_os_create_task
  3281 ;; This function is called by:
  3282 ;;		_main
  3283 ;; This function uses a non-reentrant model
  3284 ;;
  3285                           
  3286                           	psect	text5
  3287   003036                     __ptext5:
  3288                           	callstack 0
  3289   003036                     _os_config:
  3290                           	callstack 19
  3291   003036                     
  3292                           ;kernel.c: 68:     r_queue.size = 0;
  3293   003036  0E00               	movlw	0
  3294   003038  CFE8 F685          	movff	wreg,_r_queue+336
  3295                           
  3296                           ;kernel.c: 69:     r_queue.task_running = &r_queue.TASKS[0];
  3297   00303C  0E35               	movlw	low _r_queue
  3298   00303E  CFE8 F686          	movff	wreg,_r_queue+337
  3299   003042  0E05               	movlw	high _r_queue
  3300   003044  CFE8 F687          	movff	wreg,_r_queue+338
  3301                           
  3302                           ;kernel.c: 70:     r_queue.pos_task_running = 0;
  3303   003048  0E00               	movlw	0
  3304   00304A  CFE8 F688          	movff	wreg,_r_queue+339
  3305   00304E                     
  3306                           ;kernel.c: 73:     os_create_task(1, idle, 0);
  3307   00304E  0EF2               	movlw	low _idle
  3308   003050  0103               	movlb	3	; () banked
  3309   003052  6F00               	movwf	os_create_task@func& (0+255),b
  3310   003054  0E30               	movlw	high _idle
  3311   003056  6F01               	movwf	(os_create_task@func+1)& (0+255),b
  3312   003058  0E00               	movlw	0
  3313   00305A  6F02               	movwf	os_create_task@prior& (0+255),b
  3314   00305C  0E01               	movlw	1
  3315   00305E  EC79  F016         	call	_os_create_task	;# 
  3316   003062                     
  3317                           ;kernel.c: 76:     config_user();
  3318   003062  ECBE  F017         	call	_config_user	;wreg free
  3319   003066  0012               	return		;funcret
  3320   003068                     __end_of_os_config:
  3321                           	callstack 0
  3322                           
  3323 ;; *************** function _os_create_task *****************
  3324 ;; Defined at:
  3325 ;;		line 22 in file "kernel.c"
  3326 ;; Parameters:    Size  Location     Type
  3327 ;;  id              1    wreg     unsigned char 
  3328 ;;  func            2    0[BANK3 ] PTR FTN()void 
  3329 ;;		 -> tarefaOneShot(1), idle(1), tarefaPWN(1), READ_ADC(1), 
  3330 ;;		 -> LED_2(1), LED_1(1), 
  3331 ;;  prior           1    2[BANK3 ] unsigned char 
  3332 ;; Auto vars:     Size  Location     Type
  3333 ;;  id              1    4[BANK3 ] unsigned char 
  3334 ;;  new_task       48    5[BANK3 ] struct tcb
  3335 ;; Return value:  Size  Location     Type
  3336 ;;                  1    wreg      void 
  3337 ;; Registers used:
  3338 ;;		wreg, fsr1l, fsr1h, fsr2l, fsr2h, status,2, status,0, prodl, prodh
  3339 ;; Tracked objects:
  3340 ;;		On entry : 0/0
  3341 ;;		On exit  : 0/0
  3342 ;;		Unchanged: 0/0
  3343 ;; Data sizes:     COMRAM   BANK0   BANK1   BANK2   BANK3   BANK4   BANK5   BANK6   BANK7   BANK8   BANK9  BANK10  BANK1
      +1  BANK12  BANK13  BANK14  BANK15
  3344 ;;      Params:         0       0       0       0       3       0       0       0       0       0       0       0       
      +0       0       0       0       0
  3345 ;;      Locals:         0       0       0       0      49       0       0       0       0       0       0       0       
      +0       0       0       0       0
  3346 ;;      Temps:          0       0       0       0       1       0       0       0       0       0       0       0       
      +0       0       0       0       0
  3347 ;;      Totals:         0       0       0       0      53       0       0       0       0       0       0       0       
      +0       0       0       0       0
  3348 ;;Total ram usage:       53 bytes
  3349 ;; Hardware stack levels used: 1
  3350 ;; Hardware stack levels required when called: 8
  3351 ;; This function calls:
  3352 ;;		Nothing
  3353 ;; This function is called by:
  3354 ;;		_main
  3355 ;;		_os_config
  3356 ;; This function uses a non-reentrant model
  3357 ;;
  3358                           
  3359                           	psect	text6
  3360   002CF2                     __ptext6:
  3361                           	callstack 0
  3362   002CF2                     _os_create_task:
  3363                           	callstack 21
  3364                           
  3365                           ;incstack = 0
  3366                           ;os_create_task@id stored from wreg
  3367   002CF2  0103               	movlb	3	; () banked
  3368   002CF4  6F04               	movwf	os_create_task@id& (0+255),b
  3369   002CF6                     
  3370                           ;kernel.c: 22: void os_create_task(uint8_t id, f_ptr func, uint8_t prior);kernel.c: 23: 
      +                          {;kernel.c: 24:     tcb_t new_task;;kernel.c: 26:     new_task.task_id = id;
  3371   002CF6  C304  F305         	movff	os_create_task@id,os_create_task@new_task
  3372   002CFA                     
  3373                           ;kernel.c: 27:     new_task.task_delay = 0;
  3374   002CFA  0103               	movlb	3	; () banked
  3375   002CFC  6B09               	clrf	(os_create_task@new_task+4)& (0+255),b
  3376   002CFE                     
  3377                           ; BSR set to: 3
  3378                           ;kernel.c: 28:     new_task.task_priority = prior;
  3379   002CFE  C302  F30A         	movff	os_create_task@prior,os_create_task@new_task+5
  3380   002D02                     
  3381                           ; BSR set to: 3
  3382                           ;kernel.c: 29:     new_task.task_ptr = func;
  3383   002D02  C300  F307         	movff	os_create_task@func,os_create_task@new_task+2
  3384   002D06  C301  F308         	movff	os_create_task@func+1,os_create_task@new_task+3
  3385   002D0A                     
  3386                           ; BSR set to: 3
  3387                           ;kernel.c: 30:     new_task.task_state = READY;
  3388   002D0A  6B06               	clrf	(os_create_task@new_task+1)& (0+255),b
  3389   002D0C                     
  3390                           ; BSR set to: 3
  3391                           ;kernel.c: 32:     new_task.BSR_REG = 0;
  3392   002D0C  6B0D               	clrf	(os_create_task@new_task+8)& (0+255),b
  3393   002D0E                     
  3394                           ; BSR set to: 3
  3395                           ;kernel.c: 33:     new_task.FSR0H_REG = 0;
  3396   002D0E  6B11               	clrf	(os_create_task@new_task+12)& (0+255),b
  3397   002D10                     
  3398                           ; BSR set to: 3
  3399                           ;kernel.c: 34:     new_task.FSR0L_REG = 0;
  3400   002D10  6B10               	clrf	(os_create_task@new_task+11)& (0+255),b
  3401   002D12                     
  3402                           ; BSR set to: 3
  3403                           ;kernel.c: 35:     new_task.FSR1H_REG = 0;
  3404   002D12  6B13               	clrf	(os_create_task@new_task+14)& (0+255),b
  3405   002D14                     
  3406                           ; BSR set to: 3
  3407                           ;kernel.c: 36:     new_task.FSR1L_REG = 0;
  3408   002D14  6B12               	clrf	(os_create_task@new_task+13)& (0+255),b
  3409   002D16                     
  3410                           ; BSR set to: 3
  3411                           ;kernel.c: 37:     new_task.FSR2H_REG = 0;
  3412   002D16  6B15               	clrf	(os_create_task@new_task+16)& (0+255),b
  3413   002D18                     
  3414                           ; BSR set to: 3
  3415                           ;kernel.c: 38:     new_task.FSR2L_REG = 0;
  3416   002D18  6B14               	clrf	(os_create_task@new_task+15)& (0+255),b
  3417   002D1A                     
  3418                           ; BSR set to: 3
  3419                           ;kernel.c: 39:     new_task.PCLATH_REG = 0;
  3420   002D1A  6B1A               	clrf	(os_create_task@new_task+21)& (0+255),b
  3421   002D1C                     
  3422                           ; BSR set to: 3
  3423                           ;kernel.c: 40:     new_task.PCLATU_REG = 0;
  3424   002D1C  6B1B               	clrf	(os_create_task@new_task+22)& (0+255),b
  3425   002D1E                     
  3426                           ; BSR set to: 3
  3427                           ;kernel.c: 41:     new_task.PRODH_REG = 0;
  3428   002D1E  6B0F               	clrf	(os_create_task@new_task+10)& (0+255),b
  3429   002D20                     
  3430                           ; BSR set to: 3
  3431                           ;kernel.c: 42:     new_task.PRODL_REG = 0;
  3432   002D20  6B0E               	clrf	(os_create_task@new_task+9)& (0+255),b
  3433   002D22                     
  3434                           ; BSR set to: 3
  3435                           ;kernel.c: 43:     new_task.STATUS_REG = 0;
  3436   002D22  6B0C               	clrf	(os_create_task@new_task+7)& (0+255),b
  3437   002D24                     
  3438                           ; BSR set to: 3
  3439                           ;kernel.c: 44:     new_task.TABLAT_REG = 0;
  3440   002D24  6B16               	clrf	(os_create_task@new_task+17)& (0+255),b
  3441   002D26                     
  3442                           ; BSR set to: 3
  3443                           ;kernel.c: 45:     new_task.TBLPTRH_REG = 0;
  3444   002D26  6B18               	clrf	(os_create_task@new_task+19)& (0+255),b
  3445   002D28                     
  3446                           ; BSR set to: 3
  3447                           ;kernel.c: 46:     new_task.TBLPTRL_REG = 0;
  3448   002D28  6B17               	clrf	(os_create_task@new_task+18)& (0+255),b
  3449   002D2A                     
  3450                           ; BSR set to: 3
  3451                           ;kernel.c: 47:     new_task.TBLPTRU_REG = 0;
  3452   002D2A  6B19               	clrf	(os_create_task@new_task+20)& (0+255),b
  3453   002D2C                     
  3454                           ; BSR set to: 3
  3455                           ;kernel.c: 48:     new_task.W_REG = 0;
  3456   002D2C  6B0B               	clrf	(os_create_task@new_task+6)& (0+255),b
  3457   002D2E                     
  3458                           ; BSR set to: 3
  3459                           ;kernel.c: 49:     new_task.task_stack.stack_size = 0;
  3460   002D2E  6B34               	clrf	(os_create_task@new_task+47)& (0+255),b
  3461   002D30                     
  3462                           ; BSR set to: 3
  3463                           ;kernel.c: 52:     r_queue.TASKS[r_queue.size++] = new_task;
  3464   002D30  EE23  F005         	lfsr	2,os_create_task@new_task
  3465   002D34  C685  F303         	movff	_r_queue+336,??_os_create_task
  3466   002D38  5103               	movf	??_os_create_task& (0+255),w,b
  3467   002D3A  0D30               	mullw	48
  3468   002D3C  0E35               	movlw	low _r_queue
  3469   002D3E  24F3               	addwf	243,w,c
  3470   002D40  6EE1               	movwf	fsr1l,c
  3471   002D42  0E05               	movlw	high _r_queue
  3472   002D44  20F4               	addwfc	prodh,w,c
  3473   002D46  6EE2               	movwf	fsr1h,c
  3474   002D48  0E2F               	movlw	47
  3475   002D4A                     u5241:
  3476   002D4A  CFDB FFE3          	movff	plusw2,plusw1
  3477   002D4E  06E8               	decf	wreg,f,c
  3478   002D50  E2FC               	bc	u5241
  3479   002D52                     
  3480                           ; BSR set to: 3
  3481   002D52  C685  FFE8         	movff	_r_queue+336,wreg
  3482   002D56  0F01               	addlw	1
  3483   002D58  CFE8 F685          	movff	wreg,_r_queue+336
  3484   002D5C                     
  3485                           ; BSR set to: 3
  3486   002D5C  0012               	return		;funcret
  3487   002D5E                     __end_of_os_create_task:
  3488                           	callstack 0
  3489                           
  3490 ;; *************** function _config_user *****************
  3491 ;; Defined at:
  3492 ;;		line 14 in file "user.c"
  3493 ;; Parameters:    Size  Location     Type
  3494 ;;		None
  3495 ;; Auto vars:     Size  Location     Type
  3496 ;;		None
  3497 ;; Return value:  Size  Location     Type
  3498 ;;                  1    wreg      void 
  3499 ;; Registers used:
  3500 ;;		wreg, fsr2l, fsr2h, status,2, status,0, cstack
  3501 ;; Tracked objects:
  3502 ;;		On entry : 0/0
  3503 ;;		On exit  : 0/0
  3504 ;;		Unchanged: 0/0
  3505 ;; Data sizes:     COMRAM   BANK0   BANK1   BANK2   BANK3   BANK4   BANK5   BANK6   BANK7   BANK8   BANK9  BANK10  BANK1
      +1  BANK12  BANK13  BANK14  BANK15
  3506 ;;      Params:         0       0       0       0       0       0       0       0       0       0       0       0       
      +0       0       0       0       0
  3507 ;;      Locals:         0       0       0       0       0       0       0       0       0       0       0       0       
      +0       0       0       0       0
  3508 ;;      Temps:          0       0       0       0       0       0       0       0       0       0       0       0       
      +0       0       0       0       0
  3509 ;;      Totals:         0       0       0       0       0       0       0       0       0       0       0       0       
      +0       0       0       0       0
  3510 ;;Total ram usage:        0 bytes
  3511 ;; Hardware stack levels used: 1
  3512 ;; Hardware stack levels required when called: 10
  3513 ;; This function calls:
  3514 ;;		_adc_config
  3515 ;;		_mutex_init
  3516 ;;		_pipe_init
  3517 ;;		_pwm_init
  3518 ;;		_sem_init
  3519 ;; This function is called by:
  3520 ;;		_os_config
  3521 ;; This function uses a non-reentrant model
  3522 ;;
  3523                           
  3524                           	psect	text7
  3525   002F7C                     __ptext7:
  3526                           	callstack 0
  3527   002F7C                     _config_user:
  3528                           	callstack 19
  3529   002F7C                     
  3530                           ;user.c: 16:     TRISBbits.RB0 = 1;
  3531   002F7C  8093               	bsf	147,0,c	;volatile
  3532                           
  3533                           ;user.c: 17:     ANSELBbits.ANSB0 = 0;
  3534   002F7E  010F               	movlb	15	; () banked
  3535   002F80  9139               	bcf	57,0,b	;volatile
  3536                           
  3537                           ;user.c: 19:     TRISCbits.RC6 = 0;
  3538   002F82  9C94               	bcf	148,6,c	;volatile
  3539                           
  3540                           ;user.c: 20:     TRISCbits.RC7 = 0;
  3541   002F84  9E94               	bcf	148,7,c	;volatile
  3542                           
  3543                           ;user.c: 21:     TRISDbits.RD0 = 0;
  3544   002F86  9095               	bcf	149,0,c	;volatile
  3545                           
  3546                           ;user.c: 22:     ANSELDbits.ANSD0 = 0;
  3547   002F88  913B               	bcf	59,0,b	;volatile
  3548                           
  3549                           ;user.c: 23:     ANSELCbits.ANSC6 = 0;
  3550   002F8A  9D3A               	bcf	58,6,b	;volatile
  3551                           
  3552                           ;user.c: 24:     ANSELCbits.ANSC7 = 0;
  3553   002F8C  9F3A               	bcf	58,7,b	;volatile
  3554                           
  3555                           ;user.c: 26:     INTCONbits.INT0IE = 1;
  3556   002F8E  88F2               	bsf	242,4,c	;volatile
  3557                           
  3558                           ;user.c: 27:     INTCON2bits.INTEDG0 = 0;
  3559   002F90  9CF1               	bcf	241,6,c	;volatile
  3560                           
  3561                           ;user.c: 28:     INTCONbits.INT0IF = 0;
  3562   002F92  92F2               	bcf	242,1,c	;# 
  3563   002F94                     
  3564                           ;user.c: 37:     adc_config();
  3565   002F94  ECA3  F018         	call	_adc_config	;wreg free
  3566                           
  3567                           ;user.c: 38:     pwm_init();
  3568   002F98  EC05  F019         	call	_pwm_init	;wreg free
  3569   002F9C                     
  3570                           ;user.c: 39:     sem_init(&s, 0);
  3571   002F9C  0E83               	movlw	low _s
  3572   002F9E  0103               	movlb	3	; () banked
  3573   002FA0  6F00               	movwf	sem_init@sem& (0+255),b
  3574   002FA2  0E00               	movlw	0
  3575   002FA4  6F01               	movwf	sem_init@valor& (0+255),b
  3576   002FA6  ECCB  F018         	call	_sem_init	;wreg free
  3577   002FAA                     
  3578                           ;user.c: 40:     pipe_init(&p);
  3579   002FAA  0E60               	movlw	low _p
  3580   002FAC  0103               	movlb	3	; () banked
  3581   002FAE  6F02               	movwf	pipe_init@p& (0+255),b
  3582   002FB0  ECFE  F017         	call	_pipe_init	;wreg free
  3583   002FB4                     
  3584                           ;user.c: 41:     mutex_init(&m_led);
  3585   002FB4  0E78               	movlw	low _m_led
  3586   002FB6  0103               	movlb	3	; () banked
  3587   002FB8  6F00               	movwf	mutex_init@m& (0+255),b
  3588   002FBA  ECE0  F017         	call	_mutex_init	;wreg free
  3589   002FBE  0012               	return		;funcret
  3590   002FC0                     __end_of_config_user:
  3591                           	callstack 0
  3592                           
  3593 ;; *************** function _pwm_init *****************
  3594 ;; Defined at:
  3595 ;;		line 27 in file "io.c"
  3596 ;; Parameters:    Size  Location     Type
  3597 ;;		None
  3598 ;; Auto vars:     Size  Location     Type
  3599 ;;		None
  3600 ;; Return value:  Size  Location     Type
  3601 ;;                  1    wreg      void 
  3602 ;; Registers used:
  3603 ;;		wreg, status,2
  3604 ;; Tracked objects:
  3605 ;;		On entry : 0/0
  3606 ;;		On exit  : 0/0
  3607 ;;		Unchanged: 0/0
  3608 ;; Data sizes:     COMRAM   BANK0   BANK1   BANK2   BANK3   BANK4   BANK5   BANK6   BANK7   BANK8   BANK9  BANK10  BANK1
      +1  BANK12  BANK13  BANK14  BANK15
  3609 ;;      Params:         0       0       0       0       0       0       0       0       0       0       0       0       
      +0       0       0       0       0
  3610 ;;      Locals:         0       0       0       0       0       0       0       0       0       0       0       0       
      +0       0       0       0       0
  3611 ;;      Temps:          0       0       0       0       0       0       0       0       0       0       0       0       
      +0       0       0       0       0
  3612 ;;      Totals:         0       0       0       0       0       0       0       0       0       0       0       0       
      +0       0       0       0       0
  3613 ;;Total ram usage:        0 bytes
  3614 ;; Hardware stack levels used: 1
  3615 ;; Hardware stack levels required when called: 8
  3616 ;; This function calls:
  3617 ;;		Nothing
  3618 ;; This function is called by:
  3619 ;;		_config_user
  3620 ;; This function uses a non-reentrant model
  3621 ;;
  3622                           
  3623                           	psect	text8
  3624   00320A                     __ptext8:
  3625                           	callstack 0
  3626   00320A                     _pwm_init:
  3627                           	callstack 20
  3628   00320A                     
  3629                           ;io.c: 29:     PR2 = 0xFF;
  3630   00320A  68BB               	setf	187,c	;volatile
  3631   00320C                     
  3632                           ;io.c: 30:     CCP1CON = 0x0C;
  3633   00320C  0E0C               	movlw	12
  3634   00320E  6EBD               	movwf	189,c	;volatile
  3635                           
  3636                           ;io.c: 31:     T2CON = 0x04;
  3637   003210  0E04               	movlw	4
  3638   003212  6EBA               	movwf	186,c	;volatile
  3639   003214                     
  3640                           ;io.c: 32:     TRISCbits.RC2 = 0;
  3641   003214  9494               	bcf	148,2,c	;volatile
  3642   003216  0012               	return		;funcret
  3643   003218                     __end_of_pwm_init:
  3644                           	callstack 0
  3645                           
  3646 ;; *************** function _pipe_init *****************
  3647 ;; Defined at:
  3648 ;;		line 3 in file "com.c"
  3649 ;; Parameters:    Size  Location     Type
  3650 ;;  p               1    2[BANK3 ] PTR struct pipe
  3651 ;;		 -> p(24), 
  3652 ;; Auto vars:     Size  Location     Type
  3653 ;;		None
  3654 ;; Return value:  Size  Location     Type
  3655 ;;                  1    wreg      void 
  3656 ;; Registers used:
  3657 ;;		wreg, fsr2l, fsr2h, status,2, status,0, cstack
  3658 ;; Tracked objects:
  3659 ;;		On entry : 0/0
  3660 ;;		On exit  : 0/0
  3661 ;;		Unchanged: 0/0
  3662 ;; Data sizes:     COMRAM   BANK0   BANK1   BANK2   BANK3   BANK4   BANK5   BANK6   BANK7   BANK8   BANK9  BANK10  BANK1
      +1  BANK12  BANK13  BANK14  BANK15
  3663 ;;      Params:         0       0       0       0       1       0       0       0       0       0       0       0       
      +0       0       0       0       0
  3664 ;;      Locals:         0       0       0       0       0       0       0       0       0       0       0       0       
      +0       0       0       0       0
  3665 ;;      Temps:          0       0       0       0       0       0       0       0       0       0       0       0       
      +0       0       0       0       0
  3666 ;;      Totals:         0       0       0       0       1       0       0       0       0       0       0       0       
      +0       0       0       0       0
  3667 ;;Total ram usage:        1 bytes
  3668 ;; Hardware stack levels used: 1
  3669 ;; Hardware stack levels required when called: 9
  3670 ;; This function calls:
  3671 ;;		_sem_init
  3672 ;; This function is called by:
  3673 ;;		_config_user
  3674 ;; This function uses a non-reentrant model
  3675 ;;
  3676                           
  3677                           	psect	text9
  3678   002FFC                     __ptext9:
  3679                           	callstack 0
  3680   002FFC                     _pipe_init:
  3681                           	callstack 19
  3682   002FFC                     
  3683                           ;com.c: 3: void pipe_init(pipe_t *p);com.c: 4: {;com.c: 5:     p->pos_input = 0;
  3684   002FFC  0103               	movlb	3	; () banked
  3685   002FFE  5102               	movf	pipe_init@p& (0+255),w,b
  3686   003000  6ED9               	movwf	fsr2l,c
  3687   003002  6ADA               	clrf	fsr2h,c
  3688   003004  0E04               	movlw	4
  3689   003006  26D9               	addwf	fsr2l,f,c
  3690   003008  6ADF               	clrf	indf2,c
  3691                           
  3692                           ;com.c: 6:     p->pos_output = 0;
  3693   00300A  5102               	movf	pipe_init@p& (0+255),w,b
  3694   00300C  6ED9               	movwf	fsr2l,c
  3695   00300E  6ADA               	clrf	fsr2h,c
  3696   003010  0E05               	movlw	5
  3697   003012  26D9               	addwf	fsr2l,f,c
  3698   003014  6ADF               	clrf	indf2,c
  3699   003016                     
  3700                           ; BSR set to: 3
  3701                           ;com.c: 7:     sem_init(&p->s_input, 4);
  3702   003016  5102               	movf	pipe_init@p& (0+255),w,b
  3703   003018  0F06               	addlw	6
  3704   00301A  6F00               	movwf	sem_init@sem& (0+255),b
  3705   00301C  0E04               	movlw	4
  3706   00301E  6F01               	movwf	sem_init@valor& (0+255),b
  3707   003020  ECCB  F018         	call	_sem_init	;wreg free
  3708   003024                     
  3709                           ;com.c: 8:     sem_init(&p->s_output, 0);
  3710   003024  0103               	movlb	3	; () banked
  3711   003026  5102               	movf	pipe_init@p& (0+255),w,b
  3712   003028  0F0F               	addlw	15
  3713   00302A  6F00               	movwf	sem_init@sem& (0+255),b
  3714   00302C  0E00               	movlw	0
  3715   00302E  6F01               	movwf	sem_init@valor& (0+255),b
  3716   003030  ECCB  F018         	call	_sem_init	;wreg free
  3717   003034  0012               	return		;funcret
  3718   003036                     __end_of_pipe_init:
  3719                           	callstack 0
  3720                           
  3721 ;; *************** function _sem_init *****************
  3722 ;; Defined at:
  3723 ;;		line 8 in file "sync.c"
  3724 ;; Parameters:    Size  Location     Type
  3725 ;;  sem             1    0[BANK3 ] PTR struct sem
  3726 ;;		 -> p(24), s(9), 
  3727 ;;  valor           1    1[BANK3 ] char 
  3728 ;; Auto vars:     Size  Location     Type
  3729 ;;		None
  3730 ;; Return value:  Size  Location     Type
  3731 ;;                  1    wreg      void 
  3732 ;; Registers used:
  3733 ;;		wreg, fsr2l, fsr2h, status,2, status,0
  3734 ;; Tracked objects:
  3735 ;;		On entry : 0/0
  3736 ;;		On exit  : 0/0
  3737 ;;		Unchanged: 0/0
  3738 ;; Data sizes:     COMRAM   BANK0   BANK1   BANK2   BANK3   BANK4   BANK5   BANK6   BANK7   BANK8   BANK9  BANK10  BANK1
      +1  BANK12  BANK13  BANK14  BANK15
  3739 ;;      Params:         0       0       0       0       2       0       0       0       0       0       0       0       
      +0       0       0       0       0
  3740 ;;      Locals:         0       0       0       0       0       0       0       0       0       0       0       0       
      +0       0       0       0       0
  3741 ;;      Temps:          0       0       0       0       0       0       0       0       0       0       0       0       
      +0       0       0       0       0
  3742 ;;      Totals:         0       0       0       0       2       0       0       0       0       0       0       0       
      +0       0       0       0       0
  3743 ;;Total ram usage:        2 bytes
  3744 ;; Hardware stack levels used: 1
  3745 ;; Hardware stack levels required when called: 8
  3746 ;; This function calls:
  3747 ;;		Nothing
  3748 ;; This function is called by:
  3749 ;;		_pipe_init
  3750 ;;		_config_user
  3751 ;; This function uses a non-reentrant model
  3752 ;;
  3753                           
  3754                           	psect	text10
  3755   003196                     __ptext10:
  3756                           	callstack 0
  3757   003196                     _sem_init:
  3758                           	callstack 19
  3759   003196                     
  3760                           ;sync.c: 9:     sem->contador = valor;
  3761   003196  0103               	movlb	3	; () banked
  3762   003198  5100               	movf	sem_init@sem& (0+255),w,b
  3763   00319A  6ED9               	movwf	fsr2l,c
  3764   00319C  6ADA               	clrf	fsr2h,c
  3765   00319E  C301  FFDF         	movff	sem_init@valor,indf2
  3766   0031A2                     
  3767                           ; BSR set to: 3
  3768                           ;sync.c: 10:     sem->pos_input = 0;
  3769   0031A2  5100               	movf	sem_init@sem& (0+255),w,b
  3770   0031A4  6ED9               	movwf	fsr2l,c
  3771   0031A6  6ADA               	clrf	fsr2h,c
  3772   0031A8  0E07               	movlw	7
  3773   0031AA  26D9               	addwf	fsr2l,f,c
  3774   0031AC  6ADF               	clrf	indf2,c
  3775   0031AE                     
  3776                           ; BSR set to: 3
  3777                           ;sync.c: 11:     sem->pos_output = 0;
  3778   0031AE  5100               	movf	sem_init@sem& (0+255),w,b
  3779   0031B0  6ED9               	movwf	fsr2l,c
  3780   0031B2  6ADA               	clrf	fsr2h,c
  3781   0031B4  0E08               	movlw	8
  3782   0031B6  26D9               	addwf	fsr2l,f,c
  3783   0031B8  6ADF               	clrf	indf2,c
  3784   0031BA                     
  3785                           ; BSR set to: 3
  3786   0031BA  0012               	return		;funcret
  3787   0031BC                     __end_of_sem_init:
  3788                           	callstack 0
  3789                           
  3790 ;; *************** function _mutex_init *****************
  3791 ;; Defined at:
  3792 ;;		line 43 in file "sync.c"
  3793 ;; Parameters:    Size  Location     Type
  3794 ;;  m               1    0[BANK3 ] PTR struct mutex
  3795 ;;		 -> m_led(11), 
  3796 ;; Auto vars:     Size  Location     Type
  3797 ;;		None
  3798 ;; Return value:  Size  Location     Type
  3799 ;;                  1    wreg      void 
  3800 ;; Registers used:
  3801 ;;		wreg, fsr2l, fsr2h, status,2, status,0
  3802 ;; Tracked objects:
  3803 ;;		On entry : 0/0
  3804 ;;		On exit  : 0/0
  3805 ;;		Unchanged: 0/0
  3806 ;; Data sizes:     COMRAM   BANK0   BANK1   BANK2   BANK3   BANK4   BANK5   BANK6   BANK7   BANK8   BANK9  BANK10  BANK1
      +1  BANK12  BANK13  BANK14  BANK15
  3807 ;;      Params:         0       0       0       0       1       0       0       0       0       0       0       0       
      +0       0       0       0       0
  3808 ;;      Locals:         0       0       0       0       0       0       0       0       0       0       0       0       
      +0       0       0       0       0
  3809 ;;      Temps:          0       0       0       0       0       0       0       0       0       0       0       0       
      +0       0       0       0       0
  3810 ;;      Totals:         0       0       0       0       1       0       0       0       0       0       0       0       
      +0       0       0       0       0
  3811 ;;Total ram usage:        1 bytes
  3812 ;; Hardware stack levels used: 1
  3813 ;; Hardware stack levels required when called: 8
  3814 ;; This function calls:
  3815 ;;		Nothing
  3816 ;; This function is called by:
  3817 ;;		_config_user
  3818 ;; This function uses a non-reentrant model
  3819 ;;
  3820                           
  3821                           	psect	text11
  3822   002FC0                     __ptext11:
  3823                           	callstack 0
  3824   002FC0                     _mutex_init:
  3825                           	callstack 20
  3826   002FC0                     
  3827                           ;sync.c: 44:     m->locked = 0;
  3828   002FC0  0103               	movlb	3	; () banked
  3829   002FC2  5100               	movf	mutex_init@m& (0+255),w,b
  3830   002FC4  6ED9               	movwf	fsr2l,c
  3831   002FC6  6ADA               	clrf	fsr2h,c
  3832   002FC8  6ADF               	clrf	indf2,c
  3833   002FCA                     
  3834                           ; BSR set to: 3
  3835                           ;sync.c: 45:     m->owner_id = 0;
  3836   002FCA  5100               	movf	mutex_init@m& (0+255),w,b
  3837   002FCC  6ED9               	movwf	fsr2l,c
  3838   002FCE  6ADA               	clrf	fsr2h,c
  3839   002FD0  0E01               	movlw	1
  3840   002FD2  26D9               	addwf	fsr2l,f,c
  3841   002FD4  6ADF               	clrf	indf2,c
  3842   002FD6                     
  3843                           ; BSR set to: 3
  3844                           ;sync.c: 46:     m->pos_input = 0;
  3845   002FD6  5100               	movf	mutex_init@m& (0+255),w,b
  3846   002FD8  6ED9               	movwf	fsr2l,c
  3847   002FDA  6ADA               	clrf	fsr2h,c
  3848   002FDC  0E08               	movlw	8
  3849   002FDE  26D9               	addwf	fsr2l,f,c
  3850   002FE0  6ADF               	clrf	indf2,c
  3851   002FE2                     
  3852                           ; BSR set to: 3
  3853                           ;sync.c: 47:     m->pos_output = 0;
  3854   002FE2  5100               	movf	mutex_init@m& (0+255),w,b
  3855   002FE4  6ED9               	movwf	fsr2l,c
  3856   002FE6  6ADA               	clrf	fsr2h,c
  3857   002FE8  0E09               	movlw	9
  3858   002FEA  26D9               	addwf	fsr2l,f,c
  3859   002FEC  6ADF               	clrf	indf2,c
  3860   002FEE                     
  3861                           ; BSR set to: 3
  3862                           ;sync.c: 48:     m->waiting_count = 0;
  3863   002FEE  5100               	movf	mutex_init@m& (0+255),w,b
  3864   002FF0  6ED9               	movwf	fsr2l,c
  3865   002FF2  6ADA               	clrf	fsr2h,c
  3866   002FF4  0E0A               	movlw	10
  3867   002FF6  26D9               	addwf	fsr2l,f,c
  3868   002FF8  6ADF               	clrf	indf2,c
  3869   002FFA                     
  3870                           ; BSR set to: 3
  3871   002FFA  0012               	return		;funcret
  3872   002FFC                     __end_of_mutex_init:
  3873                           	callstack 0
  3874                           
  3875 ;; *************** function _adc_config *****************
  3876 ;; Defined at:
  3877 ;;		line 4 in file "io.c"
  3878 ;; Parameters:    Size  Location     Type
  3879 ;;		None
  3880 ;; Auto vars:     Size  Location     Type
  3881 ;;		None
  3882 ;; Return value:  Size  Location     Type
  3883 ;;                  1    wreg      void 
  3884 ;; Registers used:
  3885 ;;		wreg, status,2
  3886 ;; Tracked objects:
  3887 ;;		On entry : 0/0
  3888 ;;		On exit  : 0/0
  3889 ;;		Unchanged: 0/0
  3890 ;; Data sizes:     COMRAM   BANK0   BANK1   BANK2   BANK3   BANK4   BANK5   BANK6   BANK7   BANK8   BANK9  BANK10  BANK1
      +1  BANK12  BANK13  BANK14  BANK15
  3891 ;;      Params:         0       0       0       0       0       0       0       0       0       0       0       0       
      +0       0       0       0       0
  3892 ;;      Locals:         0       0       0       0       0       0       0       0       0       0       0       0       
      +0       0       0       0       0
  3893 ;;      Temps:          0       0       0       0       0       0       0       0       0       0       0       0       
      +0       0       0       0       0
  3894 ;;      Totals:         0       0       0       0       0       0       0       0       0       0       0       0       
      +0       0       0       0       0
  3895 ;;Total ram usage:        0 bytes
  3896 ;; Hardware stack levels used: 1
  3897 ;; Hardware stack levels required when called: 8
  3898 ;; This function calls:
  3899 ;;		Nothing
  3900 ;; This function is called by:
  3901 ;;		_config_user
  3902 ;; This function uses a non-reentrant model
  3903 ;;
  3904                           
  3905                           	psect	text12
  3906   003146                     __ptext12:
  3907                           	callstack 0
  3908   003146                     _adc_config:
  3909                           	callstack 20
  3910   003146                     
  3911                           ;io.c: 5:     ADCON0bits.CHS = 0b00000;
  3912   003146  0E83               	movlw	-125
  3913   003148  16C2               	andwf	194,f,c	;volatile
  3914                           
  3915                           ;io.c: 6:     ADCON1bits.PVCFG = 0b00;
  3916   00314A  0EF3               	movlw	-13
  3917   00314C  16C1               	andwf	193,f,c	;volatile
  3918                           
  3919                           ;io.c: 7:     ADCON1bits.NVCFG = 0b00;
  3920   00314E  0EFC               	movlw	-4
  3921   003150  16C1               	andwf	193,f,c	;volatile
  3922   003152                     
  3923                           ;io.c: 8:     ADCON2bits.ADFM = 1;
  3924   003152  8EC0               	bsf	192,7,c	;volatile
  3925                           
  3926                           ;io.c: 9:     ADCON2bits.ACQT = 0b110;
  3927   003154  50C0               	movf	192,w,c	;volatile
  3928   003156  0BC7               	andlw	-57
  3929   003158  0930               	iorlw	48
  3930   00315A  6EC0               	movwf	192,c	;volatile
  3931                           
  3932                           ;io.c: 10:     ADCON2bits.ADCS = 0b100;
  3933   00315C  50C0               	movf	192,w,c	;volatile
  3934   00315E  0BF8               	andlw	-8
  3935   003160  0904               	iorlw	4
  3936   003162  6EC0               	movwf	192,c	;volatile
  3937   003164                     
  3938                           ;io.c: 11:     TRISAbits.RA0 = 1;
  3939   003164  8092               	bsf	146,0,c	;volatile
  3940   003166                     
  3941                           ;io.c: 12:     ANSELAbits.ANSA0 = 1;
  3942   003166  010F               	movlb	15	; () banked
  3943   003168  8138               	bsf	56,0,b	;volatile
  3944   00316A                     
  3945                           ; BSR set to: 15
  3946                           ;io.c: 13:     ADCON0bits.ADON = 1;
  3947   00316A  80C2               	bsf	194,0,c	;volatile
  3948   00316C                     
  3949                           ; BSR set to: 15
  3950   00316C  0012               	return		;funcret
  3951   00316E                     __end_of_adc_config:
  3952                           	callstack 0
  3953                           
  3954 ;; *************** function _idle *****************
  3955 ;; Defined at:
  3956 ;;		line 104 in file "kernel.c"
  3957 ;; Parameters:    Size  Location     Type
  3958 ;;		None
  3959 ;; Auto vars:     Size  Location     Type
  3960 ;;		None
  3961 ;; Return value:  Size  Location     Type
  3962 ;;                  1    wreg      void 
  3963 ;; Registers used:
  3964 ;;		wreg, status,2, status,0
  3965 ;; Tracked objects:
  3966 ;;		On entry : 0/0
  3967 ;;		On exit  : 0/0
  3968 ;;		Unchanged: 0/0
  3969 ;; Data sizes:     COMRAM   BANK0   BANK1   BANK2   BANK3   BANK4   BANK5   BANK6   BANK7   BANK8   BANK9  BANK10  BANK1
      +1  BANK12  BANK13  BANK14  BANK15
  3970 ;;      Params:         0       0       0       0       0       0       0       0       0       0       0       0       
      +0       0       0       0       0
  3971 ;;      Locals:         0       0       0       0       0       0       0       0       0       0       0       0       
      +0       0       0       0       0
  3972 ;;      Temps:          0       1       0       0       0       0       0       0       0       0       0       0       
      +0       0       0       0       0
  3973 ;;      Totals:         0       1       0       0       0       0       0       0       0       0       0       0       
      +0       0       0       0       0
  3974 ;;Total ram usage:        1 bytes
  3975 ;; Hardware stack levels used: 1
  3976 ;; Hardware stack levels required when called: 3
  3977 ;; This function calls:
  3978 ;;		Nothing
  3979 ;; This function is called by:
  3980 ;;		_os_config
  3981 ;;		_RR_scheduler
  3982 ;; This function uses a non-reentrant model
  3983 ;;
  3984                           
  3985                           	psect	text13
  3986   0030F2                     __ptext13:
  3987                           	callstack 0
  3988   0030F2                     _idle:
  3989                           	callstack 23
  3990   0030F2                     
  3991                           ;kernel.c: 106:     TRISCbits.RC0 = 0;
  3992   0030F2  9094               	bcf	148,0,c	;volatile
  3993   0030F4                     l4916:
  3994                           
  3995                           ;kernel.c: 109:         PORTCbits.RC0 = ~PORTCbits.RC0;
  3996   0030F4  B082               	btfsc	130,0,c	;volatile
  3997   0030F6  EF7F  F018         	goto	u487_21
  3998   0030FA  EF82  F018         	goto	u487_20
  3999   0030FE                     u487_21:
  4000   0030FE  0E01               	movlw	1
  4001   003100  EF83  F018         	goto	u487_26
  4002   003104                     u487_20:
  4003   003104  0E00               	movlw	0
  4004   003106                     u487_26:
  4005   003106  0AFF               	xorlw	255
  4006   003108  0100               	movlb	0	; () banked
  4007   00310A  6F92               	movwf	??_idle& (0+255),b
  4008   00310C  5082               	movf	130,w,c	;volatile
  4009   00310E  1992               	xorwf	??_idle& (0+255),w,b
  4010   003110  0BFE               	andlw	-2
  4011   003112  1992               	xorwf	??_idle& (0+255),w,b
  4012   003114  6E82               	movwf	130,c	;volatile
  4013   003116  EF7A  F018         	goto	l4916
  4014   00311A  0012               	return		;funcret
  4015   00311C                     __end_of_idle:
  4016                           	callstack 0
  4017                           
  4018 ;; *************** function _LED_1 *****************
  4019 ;; Defined at:
  4020 ;;		line 44 in file "user.c"
  4021 ;; Parameters:    Size  Location     Type
  4022 ;;		None
  4023 ;; Auto vars:     Size  Location     Type
  4024 ;;  seq             6   60[BANK1 ] unsigned char [6]
  4025 ;;  pos             1   66[BANK1 ] unsigned char 
  4026 ;; Return value:  Size  Location     Type
  4027 ;;                  1    wreg      void 
  4028 ;; Registers used:
  4029 ;;		wreg, fsr1l, fsr1h, fsr2l, fsr2h, status,2, status,0, prodl, prodh, cstack
  4030 ;; Tracked objects:
  4031 ;;		On entry : 0/0
  4032 ;;		On exit  : 0/0
  4033 ;;		Unchanged: 0/0
  4034 ;; Data sizes:     COMRAM   BANK0   BANK1   BANK2   BANK3   BANK4   BANK5   BANK6   BANK7   BANK8   BANK9  BANK10  BANK1
      +1  BANK12  BANK13  BANK14  BANK15
  4035 ;;      Params:         0       0       0       0       0       0       0       0       0       0       0       0       
      +0       0       0       0       0
  4036 ;;      Locals:         0       0       7       0       0       0       0       0       0       0       0       0       
      +0       0       0       0       0
  4037 ;;      Temps:          0       0       1       0       0       0       0       0       0       0       0       0       
      +0       0       0       0       0
  4038 ;;      Totals:         0       0       8       0       0       0       0       0       0       0       0       0       
      +0       0       0       0       0
  4039 ;;Total ram usage:        8 bytes
  4040 ;; Hardware stack levels used: 1
  4041 ;; Hardware stack levels required when called: 6
  4042 ;; This function calls:
  4043 ;;		___awmod
  4044 ;;		_mutex_lock
  4045 ;;		_mutex_unlock
  4046 ;;		_os_delay
  4047 ;;		_pipe_write
  4048 ;;		_sem_post
  4049 ;; This function is called by:
  4050 ;;		_main
  4051 ;; This function uses a non-reentrant model
  4052 ;;
  4053                           
  4054                           	psect	text14
  4055   002BC8                     __ptext14:
  4056                           	callstack 0
  4057   002BC8                     _LED_1:
  4058                           	callstack 20
  4059   002BC8                     
  4060                           ;user.c: 45:     char seq[] = {'L', 'L', 'D', 'L', 'D', 'D'};
  4061   002BC8  EE20  F08C         	lfsr	2,LED_1@F6269
  4062   002BCC  EE11  F03C         	lfsr	1,LED_1@seq
  4063   002BD0  0E05               	movlw	5
  4064   002BD2                     u488_21:
  4065   002BD2  CFDB FFE3          	movff	plusw2,plusw1
  4066   002BD6  06E8               	decf	wreg,f,c
  4067   002BD8  E2FC               	bc	u488_21
  4068   002BDA                     
  4069                           ;user.c: 46:     uint8_t pos = 0;
  4070   002BDA  0101               	movlb	1	; () banked
  4071   002BDC  6B42               	clrf	LED_1@pos& (0+255),b
  4072   002BDE                     l4922:
  4073                           
  4074                           ;user.c: 48:         PORTCbits.RC6 = ~PORTCbits.RC6;
  4075   002BDE  BC82               	btfsc	130,6,c	;volatile
  4076   002BE0  EFF4  F015         	goto	u489_21
  4077   002BE4  EFF7  F015         	goto	u489_20
  4078   002BE8                     u489_21:
  4079   002BE8  0E01               	movlw	1
  4080   002BEA  EFF8  F015         	goto	u489_26
  4081   002BEE                     u489_20:
  4082   002BEE  0E00               	movlw	0
  4083   002BF0                     u489_26:
  4084   002BF0  0AFF               	xorlw	255
  4085   002BF2  0101               	movlb	1	; () banked
  4086   002BF4  6F3B               	movwf	??_LED_1& (0+255),b
  4087   002BF6  3B3B               	swapf	??_LED_1& (0+255),f,b
  4088   002BF8  473B               	rlncf	??_LED_1& (0+255),f,b
  4089   002BFA  473B               	rlncf	??_LED_1& (0+255),f,b
  4090   002BFC  5082               	movf	130,w,c	;volatile
  4091   002BFE  193B               	xorwf	??_LED_1& (0+255),w,b
  4092   002C00  0BBF               	andlw	-65
  4093   002C02  193B               	xorwf	??_LED_1& (0+255),w,b
  4094   002C04  6E82               	movwf	130,c	;volatile
  4095   002C06                     
  4096                           ; BSR set to: 1
  4097                           ;user.c: 49:         pipe_write(&p, seq[pos]);
  4098   002C06  0E60               	movlw	low _p
  4099   002C08  6F38               	movwf	pipe_write@p& (0+255),b
  4100   002C0A  0E3C               	movlw	low LED_1@seq
  4101   002C0C  2542               	addwf	LED_1@pos& (0+255),w,b
  4102   002C0E  6ED9               	movwf	fsr2l,c
  4103   002C10  6ADA               	clrf	fsr2h,c
  4104   002C12  0E01               	movlw	high LED_1@seq
  4105   002C14  22DA               	addwfc	fsr2h,f,c
  4106   002C16  50DF               	movf	indf2,w,c
  4107   002C18  6F39               	movwf	pipe_write@dado& (0+255),b
  4108   002C1A  EC70  F017         	call	_pipe_write	;wreg free
  4109   002C1E                     
  4110                           ;user.c: 50:         pos = (pos + 1) % 6;
  4111   002C1E  0E01               	movlw	1
  4112   002C20  0101               	movlb	1	; () banked
  4113   002C22  2542               	addwf	LED_1@pos& (0+255),w,b
  4114   002C24  6F43               	movwf	___awmod@dividend& (0+255),b
  4115   002C26  6B44               	clrf	(___awmod@dividend+1)& (0+255),b
  4116   002C28  0E00               	movlw	0
  4117   002C2A  2344               	addwfc	(___awmod@dividend+1)& (0+255),f,b
  4118   002C2C  6B46               	clrf	(___awmod@divisor+1)& (0+255),b
  4119   002C2E  0E06               	movlw	6
  4120   002C30  6F45               	movwf	___awmod@divisor& (0+255),b
  4121   002C32  EC8C  F015         	call	___awmod	;wreg free
  4122   002C36  0101               	movlb	1	; () banked
  4123   002C38  5143               	movf	?___awmod& (0+255),w,b
  4124   002C3A  6F42               	movwf	LED_1@pos& (0+255),b
  4125   002C3C                     
  4126                           ; BSR set to: 1
  4127                           ;user.c: 51:         sem_post(&s);
  4128   002C3C  0E83               	movlw	low _s
  4129   002C3E  6F49               	movwf	sem_post@sem& (0+255),b
  4130   002C40  EC32  F016         	call	_sem_post	;wreg free
  4131   002C44                     
  4132                           ;user.c: 52:         mutex_lock(&m_led);
  4133   002C44  0E78               	movlw	low _m_led
  4134   002C46  0101               	movlb	1	; () banked
  4135   002C48  6F30               	movwf	mutex_lock@m& (0+255),b
  4136   002C4A  EC01  F008         	call	_mutex_lock	;wreg free
  4137   002C4E                     
  4138                           ;user.c: 53:         os_delay(5);
  4139   002C4E  0E05               	movlw	5
  4140   002C50  EC81  F00E         	call	_os_delay
  4141   002C54                     
  4142                           ;user.c: 54:         mutex_unlock(&m_led);
  4143   002C54  0E78               	movlw	low _m_led
  4144   002C56  0101               	movlb	1	; () banked
  4145   002C58  6F30               	movwf	mutex_unlock@m& (0+255),b
  4146   002C5A  EC0B  F015         	call	_mutex_unlock	;wreg free
  4147   002C5E  EFEF  F015         	goto	l4922
  4148   002C62  0012               	return		;funcret
  4149   002C64                     __end_of_LED_1:
  4150                           	callstack 0
  4151                           
  4152 ;; *************** function _pipe_write *****************
  4153 ;; Defined at:
  4154 ;;		line 11 in file "com.c"
  4155 ;; Parameters:    Size  Location     Type
  4156 ;;  p               1   56[BANK1 ] PTR struct pipe
  4157 ;;		 -> p(24), 
  4158 ;;  dado            1   57[BANK1 ] unsigned char 
  4159 ;; Auto vars:     Size  Location     Type
  4160 ;;		None
  4161 ;; Return value:  Size  Location     Type
  4162 ;;                  1    wreg      void 
  4163 ;; Registers used:
  4164 ;;		wreg, fsr1l, fsr1h, fsr2l, fsr2h, status,2, status,0, prodl, prodh, cstack
  4165 ;; Tracked objects:
  4166 ;;		On entry : 0/0
  4167 ;;		On exit  : 0/0
  4168 ;;		Unchanged: 0/0
  4169 ;; Data sizes:     COMRAM   BANK0   BANK1   BANK2   BANK3   BANK4   BANK5   BANK6   BANK7   BANK8   BANK9  BANK10  BANK1
      +1  BANK12  BANK13  BANK14  BANK15
  4170 ;;      Params:         0       0       2       0       0       0       0       0       0       0       0       0       
      +0       0       0       0       0
  4171 ;;      Locals:         0       0       0       0       0       0       0       0       0       0       0       0       
      +0       0       0       0       0
  4172 ;;      Temps:          0       0       1       0       0       0       0       0       0       0       0       0       
      +0       0       0       0       0
  4173 ;;      Totals:         0       0       3       0       0       0       0       0       0       0       0       0       
      +0       0       0       0       0
  4174 ;;Total ram usage:        3 bytes
  4175 ;; Hardware stack levels used: 1
  4176 ;; Hardware stack levels required when called: 5
  4177 ;; This function calls:
  4178 ;;		_sem_post
  4179 ;;		_sem_wait
  4180 ;; This function is called by:
  4181 ;;		_LED_1
  4182 ;; This function uses a non-reentrant model
  4183 ;;
  4184                           
  4185                           	psect	text15
  4186   002EE0                     __ptext15:
  4187                           	callstack 0
  4188   002EE0                     _pipe_write:
  4189                           	callstack 20
  4190   002EE0                     
  4191                           ;com.c: 11: void pipe_write(pipe_t *p, char dado);com.c: 12: {;com.c: 13:     sem_wait(&
      +                          p->s_input);
  4192   002EE0  0101               	movlb	1	; () banked
  4193   002EE2  5138               	movf	pipe_write@p& (0+255),w,b
  4194   002EE4  0F06               	addlw	6
  4195   002EE6  6F49               	movwf	sem_wait@sem& (0+255),b
  4196   002EE8  EC4B  F00B         	call	_sem_wait	;wreg free
  4197   002EEC                     
  4198                           ;com.c: 14:     p->fila_dados[p->pos_input] = dado;
  4199   002EEC  0101               	movlb	1	; () banked
  4200   002EEE  5138               	movf	pipe_write@p& (0+255),w,b
  4201   002EF0  6ED9               	movwf	fsr2l,c
  4202   002EF2  6ADA               	clrf	fsr2h,c
  4203   002EF4  0E04               	movlw	4
  4204   002EF6  26D9               	addwf	fsr2l,f,c
  4205   002EF8  50DF               	movf	indf2,w,c
  4206   002EFA  6F3A               	movwf	??_pipe_write& (0+255),b
  4207   002EFC  5138               	movf	pipe_write@p& (0+255),w,b
  4208   002EFE  253A               	addwf	??_pipe_write& (0+255),w,b
  4209   002F00  6ED9               	movwf	fsr2l,c
  4210   002F02  6ADA               	clrf	fsr2h,c
  4211   002F04  C139  FFDF         	movff	pipe_write@dado,indf2
  4212   002F08                     
  4213                           ; BSR set to: 1
  4214                           ;com.c: 15:     p->pos_input = (p->pos_input + 1) % 4;
  4215   002F08  5138               	movf	pipe_write@p& (0+255),w,b
  4216   002F0A  6ED9               	movwf	fsr2l,c
  4217   002F0C  6ADA               	clrf	fsr2h,c
  4218   002F0E  0E04               	movlw	4
  4219   002F10  26D9               	addwf	fsr2l,f,c
  4220   002F12  5138               	movf	pipe_write@p& (0+255),w,b
  4221   002F14  6EE1               	movwf	fsr1l,c
  4222   002F16  6AE2               	clrf	fsr1h,c
  4223   002F18  0E04               	movlw	4
  4224   002F1A  26E1               	addwf	fsr1l,f,c
  4225   002F1C  50E7               	movf	indf1,w,c
  4226   002F1E  6F3A               	movwf	??_pipe_write& (0+255),b
  4227   002F20  293A               	incf	??_pipe_write& (0+255),w,b
  4228   002F22  0B03               	andlw	3
  4229   002F24  6EDF               	movwf	indf2,c
  4230   002F26                     
  4231                           ; BSR set to: 1
  4232                           ;com.c: 16:     sem_post(&p->s_output);
  4233   002F26  5138               	movf	pipe_write@p& (0+255),w,b
  4234   002F28  0F0F               	addlw	15
  4235   002F2A  6F49               	movwf	sem_post@sem& (0+255),b
  4236   002F2C  EC32  F016         	call	_sem_post	;wreg free
  4237   002F30  0012               	return		;funcret
  4238   002F32                     __end_of_pipe_write:
  4239                           	callstack 0
  4240                           
  4241 ;; *************** function _sem_wait *****************
  4242 ;; Defined at:
  4243 ;;		line 14 in file "sync.c"
  4244 ;; Parameters:    Size  Location     Type
  4245 ;;  sem             1   73[BANK1 ] PTR struct sem
  4246 ;;		 -> p(24), s(9), 
  4247 ;; Auto vars:     Size  Location     Type
  4248 ;;		None
  4249 ;; Return value:  Size  Location     Type
  4250 ;;                  1    wreg      void 
  4251 ;; Registers used:
  4252 ;;		wreg, fsr1l, fsr1h, fsr2l, fsr2h, status,2, status,0, prodl, prodh, cstack
  4253 ;; Tracked objects:
  4254 ;;		On entry : 0/0
  4255 ;;		On exit  : 0/0
  4256 ;;		Unchanged: 0/0
  4257 ;; Data sizes:     COMRAM   BANK0   BANK1   BANK2   BANK3   BANK4   BANK5   BANK6   BANK7   BANK8   BANK9  BANK10  BANK1
      +1  BANK12  BANK13  BANK14  BANK15
  4258 ;;      Params:         0       0       1       0       0       0       0       0       0       0       0       0       
      +0       0       0       0       0
  4259 ;;      Locals:         0       0       0       0       0       0       0       0       0       0       0       0       
      +0       0       0       0       0
  4260 ;;      Temps:          0       0       7       0       0       0       0       0       0       0       0       0       
      +0       0       0       0       0
  4261 ;;      Totals:         0       0       8       0       0       0       0       0       0       0       0       0       
      +0       0       0       0       0
  4262 ;;Total ram usage:        8 bytes
  4263 ;; Hardware stack levels used: 1
  4264 ;; Hardware stack levels required when called: 3
  4265 ;; This function calls:
  4266 ;;		___awmod
  4267 ;;		i1_scheduler
  4268 ;; This function is called by:
  4269 ;;		_pipe_write
  4270 ;;		_pipe_read
  4271 ;;		_LED_2
  4272 ;; This function uses a non-reentrant model
  4273 ;;
  4274                           
  4275                           	psect	text16
  4276   001696                     __ptext16:
  4277                           	callstack 0
  4278   001696                     _sem_wait:
  4279                           	callstack 21
  4280   001696                     
  4281                           ;sync.c: 15:     INTCONbits.GIE = 0;;
  4282   001696  9EF2               	bcf	242,7,c	;volatile
  4283   001698                     
  4284                           ;sync.c: 17:     sem->contador--;
  4285   001698  0101               	movlb	1	; () banked
  4286   00169A  5149               	movf	sem_wait@sem& (0+255),w,b
  4287   00169C  6ED9               	movwf	fsr2l,c
  4288   00169E  6ADA               	clrf	fsr2h,c
  4289   0016A0  06DF               	decf	indf2,f,c
  4290                           
  4291                           ;sync.c: 18:     if (sem->contador < 0) {
  4292   0016A2  5149               	movf	sem_wait@sem& (0+255),w,b
  4293   0016A4  6ED9               	movwf	fsr2l,c
  4294   0016A6  6ADA               	clrf	fsr2h,c
  4295   0016A8  0E00               	movlw	0
  4296   0016AA  BEDB               	btfsc	plusw2,7,c
  4297   0016AC  EF5C  F00B         	goto	i1u449_20
  4298   0016B0  EF5A  F00B         	goto	i1u449_21
  4299   0016B4                     i1u449_21:
  4300   0016B4  EF7F  F00E         	goto	i1l4694
  4301   0016B8                     i1u449_20:
  4302   0016B8                     
  4303                           ; BSR set to: 1
  4304                           ;sync.c: 19:         sem->fila[sem->pos_input] = r_queue.pos_task_running;
  4305   0016B8  EE26  F088         	lfsr	2,_r_queue+339
  4306   0016BC  5149               	movf	sem_wait@sem& (0+255),w,b
  4307   0016BE  6EE1               	movwf	fsr1l,c
  4308   0016C0  6AE2               	clrf	fsr1h,c
  4309   0016C2  0E07               	movlw	7
  4310   0016C4  26E1               	addwf	fsr1l,f,c
  4311   0016C6  50E7               	movf	indf1,w,c
  4312   0016C8  6F4A               	movwf	??_sem_wait& (0+255),b
  4313   0016CA  5149               	movf	sem_wait@sem& (0+255),w,b
  4314   0016CC  254A               	addwf	??_sem_wait& (0+255),w,b
  4315   0016CE  6EE1               	movwf	fsr1l,c
  4316   0016D0  6AE2               	clrf	fsr1h,c
  4317   0016D2  0E01               	movlw	1
  4318   0016D4  26E1               	addwf	fsr1l,f,c
  4319   0016D6  CFDF FFE7          	movff	indf2,indf1
  4320   0016DA                     
  4321                           ; BSR set to: 1
  4322                           ;sync.c: 20:         sem->pos_input = (sem->pos_input + 1) % 6;
  4323   0016DA  5149               	movf	sem_wait@sem& (0+255),w,b
  4324   0016DC  6ED9               	movwf	fsr2l,c
  4325   0016DE  6ADA               	clrf	fsr2h,c
  4326   0016E0  0E07               	movlw	7
  4327   0016E2  26D9               	addwf	fsr2l,f,c
  4328   0016E4  5149               	movf	sem_wait@sem& (0+255),w,b
  4329   0016E6  6EE1               	movwf	fsr1l,c
  4330   0016E8  6AE2               	clrf	fsr1h,c
  4331   0016EA  0E07               	movlw	7
  4332   0016EC  26E1               	addwf	fsr1l,f,c
  4333   0016EE  50E7               	movf	indf1,w,c
  4334   0016F0  6F4A               	movwf	??_sem_wait& (0+255),b
  4335   0016F2  0E01               	movlw	1
  4336   0016F4  254A               	addwf	??_sem_wait& (0+255),w,b
  4337   0016F6  6F43               	movwf	___awmod@dividend& (0+255),b
  4338   0016F8  6B44               	clrf	(___awmod@dividend+1)& (0+255),b
  4339   0016FA  0E00               	movlw	0
  4340   0016FC  2344               	addwfc	(___awmod@dividend+1)& (0+255),f,b
  4341   0016FE  6B46               	clrf	(___awmod@divisor+1)& (0+255),b
  4342   001700  0E06               	movlw	6
  4343   001702  6F45               	movwf	___awmod@divisor& (0+255),b
  4344   001704  EC8C  F015         	call	___awmod	;wreg free
  4345   001708  0101               	movlb	1	; () banked
  4346   00170A  5143               	movf	?___awmod& (0+255),w,b
  4347   00170C  6EDF               	movwf	indf2,c
  4348   00170E                     
  4349                           ; BSR set to: 1
  4350   00170E  EE26  F086         	lfsr	2,_r_queue+337
  4351   001712  EE10 F001          	lfsr	1,1
  4352   001716  50DE               	movf	postinc2,w,c
  4353   001718  26E1               	addwf	fsr1l,f,c
  4354   00171A  50DD               	movf	postdec2,w,c
  4355   00171C  22E2               	addwfc	fsr1h,f,c
  4356   00171E  0E02               	movlw	2
  4357   001720  18E6               	xorwf	postinc1,w,c
  4358   001722  A4D8               	btfss	status,2,c
  4359   001724  EF96  F00B         	goto	i1u450_21
  4360   001728  EF98  F00B         	goto	i1u450_20
  4361   00172C                     i1u450_21:
  4362   00172C  EFD6  F00C         	goto	i1l4672
  4363   001730                     i1u450_20:
  4364   001730                     
  4365                           ; BSR set to: 1
  4366   001730  EE26  F086         	lfsr	2,_r_queue+337
  4367   001734  EE10 F001          	lfsr	1,1
  4368   001738  50DE               	movf	postinc2,w,c
  4369   00173A  26E1               	addwf	fsr1l,f,c
  4370   00173C  50DD               	movf	postdec2,w,c
  4371   00173E  22E2               	addwfc	fsr1h,f,c
  4372   001740  0E03               	movlw	3
  4373   001742  6EE7               	movwf	indf1,c
  4374   001744  EE26  F086         	lfsr	2,_r_queue+337
  4375   001748  EE10 F008          	lfsr	1,8
  4376   00174C  50DE               	movf	postinc2,w,c
  4377   00174E  26E1               	addwf	fsr1l,f,c
  4378   001750  50DD               	movf	postdec2,w,c
  4379   001752  22E2               	addwfc	fsr1h,f,c
  4380   001754  CFE0 FFE7          	movff	bsr,indf1	;volatile
  4381   001758  EE26  F086         	lfsr	2,_r_queue+337
  4382   00175C  EE10 F00C          	lfsr	1,12
  4383   001760  50DE               	movf	postinc2,w,c
  4384   001762  26E1               	addwf	fsr1l,f,c
  4385   001764  50DD               	movf	postdec2,w,c
  4386   001766  22E2               	addwfc	fsr1h,f,c
  4387   001768  CFEA FFE7          	movff	fsr0h,indf1	;volatile
  4388   00176C  EE26  F086         	lfsr	2,_r_queue+337
  4389   001770  EE10 F00B          	lfsr	1,11
  4390   001774  50DE               	movf	postinc2,w,c
  4391   001776  26E1               	addwf	fsr1l,f,c
  4392   001778  50DD               	movf	postdec2,w,c
  4393   00177A  22E2               	addwfc	fsr1h,f,c
  4394   00177C  CFE9 FFE7          	movff	fsr0l,indf1	;volatile
  4395   001780  EE26  F086         	lfsr	2,_r_queue+337
  4396   001784  EE10 F00E          	lfsr	1,14
  4397   001788  50DE               	movf	postinc2,w,c
  4398   00178A  26E1               	addwf	fsr1l,f,c
  4399   00178C  50DD               	movf	postdec2,w,c
  4400   00178E  22E2               	addwfc	fsr1h,f,c
  4401   001790  CFE2 FFE7          	movff	fsr1h,indf1	;volatile
  4402   001794  EE26  F086         	lfsr	2,_r_queue+337
  4403   001798  EE10 F00D          	lfsr	1,13
  4404   00179C  50DE               	movf	postinc2,w,c
  4405   00179E  26E1               	addwf	fsr1l,f,c
  4406   0017A0  50DD               	movf	postdec2,w,c
  4407   0017A2  22E2               	addwfc	fsr1h,f,c
  4408   0017A4  CFE1 FFE7          	movff	fsr1l,indf1	;volatile
  4409   0017A8  EE26  F086         	lfsr	2,_r_queue+337
  4410   0017AC  EE10 F010          	lfsr	1,16
  4411   0017B0  50DE               	movf	postinc2,w,c
  4412   0017B2  26E1               	addwf	fsr1l,f,c
  4413   0017B4  50DD               	movf	postdec2,w,c
  4414   0017B6  22E2               	addwfc	fsr1h,f,c
  4415   0017B8  CFDA FFE7          	movff	fsr2h,indf1	;volatile
  4416   0017BC  EE26  F086         	lfsr	2,_r_queue+337
  4417   0017C0  EE10 F00F          	lfsr	1,15
  4418   0017C4  50DE               	movf	postinc2,w,c
  4419   0017C6  26E1               	addwf	fsr1l,f,c
  4420   0017C8  50DD               	movf	postdec2,w,c
  4421   0017CA  22E2               	addwfc	fsr1h,f,c
  4422   0017CC  CFD9 FFE7          	movff	fsr2l,indf1	;volatile
  4423   0017D0  EE26  F086         	lfsr	2,_r_queue+337
  4424   0017D4  EE10 F015          	lfsr	1,21
  4425   0017D8  50DE               	movf	postinc2,w,c
  4426   0017DA  26E1               	addwf	fsr1l,f,c
  4427   0017DC  50DD               	movf	postdec2,w,c
  4428   0017DE  22E2               	addwfc	fsr1h,f,c
  4429   0017E0  CFFA FFE7          	movff	pclath,indf1	;volatile
  4430   0017E4  EE26  F086         	lfsr	2,_r_queue+337
  4431   0017E8  EE10 F016          	lfsr	1,22
  4432   0017EC  50DE               	movf	postinc2,w,c
  4433   0017EE  26E1               	addwf	fsr1l,f,c
  4434   0017F0  50DD               	movf	postdec2,w,c
  4435   0017F2  22E2               	addwfc	fsr1h,f,c
  4436   0017F4  CFFB FFE7          	movff	pclatu,indf1	;volatile
  4437   0017F8  EE26  F086         	lfsr	2,_r_queue+337
  4438   0017FC  EE10 F00A          	lfsr	1,10
  4439   001800  50DE               	movf	postinc2,w,c
  4440   001802  26E1               	addwf	fsr1l,f,c
  4441   001804  50DD               	movf	postdec2,w,c
  4442   001806  22E2               	addwfc	fsr1h,f,c
  4443   001808  CFF4 FFE7          	movff	prodh,indf1	;volatile
  4444   00180C  EE26  F086         	lfsr	2,_r_queue+337
  4445   001810  EE10 F009          	lfsr	1,9
  4446   001814  50DE               	movf	postinc2,w,c
  4447   001816  26E1               	addwf	fsr1l,f,c
  4448   001818  50DD               	movf	postdec2,w,c
  4449   00181A  22E2               	addwfc	fsr1h,f,c
  4450   00181C  CFF3 FFE7          	movff	prodl,indf1	;volatile
  4451   001820  EE26  F086         	lfsr	2,_r_queue+337
  4452   001824  EE10 F011          	lfsr	1,17
  4453   001828  50DE               	movf	postinc2,w,c
  4454   00182A  26E1               	addwf	fsr1l,f,c
  4455   00182C  50DD               	movf	postdec2,w,c
  4456   00182E  22E2               	addwfc	fsr1h,f,c
  4457   001830  CFF5 FFE7          	movff	tablat,indf1	;volatile
  4458   001834  EE26  F086         	lfsr	2,_r_queue+337
  4459   001838  EE10 F013          	lfsr	1,19
  4460   00183C  50DE               	movf	postinc2,w,c
  4461   00183E  26E1               	addwf	fsr1l,f,c
  4462   001840  50DD               	movf	postdec2,w,c
  4463   001842  22E2               	addwfc	fsr1h,f,c
  4464   001844  CFF7 FFE7          	movff	tblptrh,indf1	;volatile
  4465   001848  EE26  F086         	lfsr	2,_r_queue+337
  4466   00184C  EE10 F012          	lfsr	1,18
  4467   001850  50DE               	movf	postinc2,w,c
  4468   001852  26E1               	addwf	fsr1l,f,c
  4469   001854  50DD               	movf	postdec2,w,c
  4470   001856  22E2               	addwfc	fsr1h,f,c
  4471   001858  CFF6 FFE7          	movff	tblptrl,indf1	;volatile
  4472   00185C  EE26  F086         	lfsr	2,_r_queue+337
  4473   001860  EE10 F014          	lfsr	1,20
  4474   001864  50DE               	movf	postinc2,w,c
  4475   001866  26E1               	addwf	fsr1l,f,c
  4476   001868  50DD               	movf	postdec2,w,c
  4477   00186A  22E2               	addwfc	fsr1h,f,c
  4478   00186C  CFF8 FFE7          	movff	tblptru,indf1	;volatile
  4479   001870  EE26  F086         	lfsr	2,_r_queue+337
  4480   001874  EE10 F006          	lfsr	1,6
  4481   001878  50DE               	movf	postinc2,w,c
  4482   00187A  26E1               	addwf	fsr1l,f,c
  4483   00187C  50DD               	movf	postdec2,w,c
  4484   00187E  22E2               	addwfc	fsr1h,f,c
  4485   001880  CFE8 FFE7          	movff	wreg,indf1	;volatile
  4486   001884  EE26  F086         	lfsr	2,_r_queue+337
  4487   001888  EE10 F007          	lfsr	1,7
  4488   00188C  50DE               	movf	postinc2,w,c
  4489   00188E  26E1               	addwf	fsr1l,f,c
  4490   001890  50DD               	movf	postdec2,w,c
  4491   001892  22E2               	addwfc	fsr1h,f,c
  4492   001894  CFD8 FFE7          	movff	status,indf1	;volatile
  4493   001898  EE26  F086         	lfsr	2,_r_queue+337
  4494   00189C  EE10 F02F          	lfsr	1,47
  4495   0018A0  50DE               	movf	postinc2,w,c
  4496   0018A2  26E1               	addwf	fsr1l,f,c
  4497   0018A4  50DD               	movf	postdec2,w,c
  4498   0018A6  22E2               	addwfc	fsr1h,f,c
  4499   0018A8  6AE7               	clrf	indf1,c
  4500   0018AA  EFCE  F00C         	goto	i1l4670
  4501   0018AE                     i1l4666:
  4502   0018AE  EE26  F086         	lfsr	2,_r_queue+337
  4503   0018B2  EE10 F02F          	lfsr	1,47
  4504   0018B6  50DE               	movf	postinc2,w,c
  4505   0018B8  26E1               	addwf	fsr1l,f,c
  4506   0018BA  50DD               	movf	postdec2,w,c
  4507   0018BC  22E2               	addwfc	fsr1h,f,c
  4508   0018BE  50E7               	movf	indf1,w,c
  4509   0018C0  0101               	movlb	1	; () banked
  4510   0018C2  6F4A               	movwf	??_sem_wait& (0+255),b
  4511   0018C4  514A               	movf	??_sem_wait& (0+255),w,b
  4512   0018C6  0D03               	mullw	3
  4513   0018C8  CFF3 F14B          	movff	prodl,??_sem_wait+1
  4514   0018CC  CFF4 F14C          	movff	prodh,??_sem_wait+2
  4515   0018D0  EE26  F086         	lfsr	2,_r_queue+337
  4516   0018D4  CFDE F14D          	movff	postinc2,??_sem_wait+3
  4517   0018D8  CFDD F14E          	movff	postdec2,??_sem_wait+4
  4518   0018DC  514B               	movf	(??_sem_wait+1)& (0+255),w,b
  4519   0018DE  254D               	addwf	(??_sem_wait+3)& (0+255),w,b
  4520   0018E0  6F4F               	movwf	(??_sem_wait+5)& (0+255),b
  4521   0018E2  514C               	movf	(??_sem_wait+2)& (0+255),w,b
  4522   0018E4  214E               	addwfc	(??_sem_wait+4)& (0+255),w,b
  4523   0018E6  6F50               	movwf	(??_sem_wait+6)& (0+255),b
  4524   0018E8  0E17               	movlw	23
  4525   0018EA  254F               	addwf	(??_sem_wait+5)& (0+255),w,b
  4526   0018EC  6ED9               	movwf	fsr2l,c
  4527   0018EE  0E00               	movlw	0
  4528   0018F0  2150               	addwfc	(??_sem_wait+6)& (0+255),w,b
  4529   0018F2  6EDA               	movwf	fsr2h,c
  4530   0018F4  CFFD FFDF          	movff	tosl,indf2	;volatile
  4531   0018F8  EE26  F086         	lfsr	2,_r_queue+337
  4532   0018FC  EE10 F02F          	lfsr	1,47
  4533   001900  50DE               	movf	postinc2,w,c
  4534   001902  26E1               	addwf	fsr1l,f,c
  4535   001904  50DD               	movf	postdec2,w,c
  4536   001906  22E2               	addwfc	fsr1h,f,c
  4537   001908  50E7               	movf	indf1,w,c
  4538   00190A  6F4A               	movwf	??_sem_wait& (0+255),b
  4539   00190C  514A               	movf	??_sem_wait& (0+255),w,b
  4540   00190E  0D03               	mullw	3
  4541   001910  CFF3 F14B          	movff	prodl,??_sem_wait+1
  4542   001914  CFF4 F14C          	movff	prodh,??_sem_wait+2
  4543   001918  EE26  F086         	lfsr	2,_r_queue+337
  4544   00191C  CFDE F14D          	movff	postinc2,??_sem_wait+3
  4545   001920  CFDD F14E          	movff	postdec2,??_sem_wait+4
  4546   001924  514B               	movf	(??_sem_wait+1)& (0+255),w,b
  4547   001926  254D               	addwf	(??_sem_wait+3)& (0+255),w,b
  4548   001928  6F4F               	movwf	(??_sem_wait+5)& (0+255),b
  4549   00192A  514C               	movf	(??_sem_wait+2)& (0+255),w,b
  4550   00192C  214E               	addwfc	(??_sem_wait+4)& (0+255),w,b
  4551   00192E  6F50               	movwf	(??_sem_wait+6)& (0+255),b
  4552   001930  0E18               	movlw	24
  4553   001932  254F               	addwf	(??_sem_wait+5)& (0+255),w,b
  4554   001934  6ED9               	movwf	fsr2l,c
  4555   001936  0E00               	movlw	0
  4556   001938  2150               	addwfc	(??_sem_wait+6)& (0+255),w,b
  4557   00193A  6EDA               	movwf	fsr2h,c
  4558   00193C  CFFE FFDF          	movff	tosh,indf2	;volatile
  4559   001940  EE26  F086         	lfsr	2,_r_queue+337
  4560   001944  EE10 F02F          	lfsr	1,47
  4561   001948  50DE               	movf	postinc2,w,c
  4562   00194A  26E1               	addwf	fsr1l,f,c
  4563   00194C  50DD               	movf	postdec2,w,c
  4564   00194E  22E2               	addwfc	fsr1h,f,c
  4565   001950  50E7               	movf	indf1,w,c
  4566   001952  6F4A               	movwf	??_sem_wait& (0+255),b
  4567   001954  514A               	movf	??_sem_wait& (0+255),w,b
  4568   001956  0D03               	mullw	3
  4569   001958  CFF3 F14B          	movff	prodl,??_sem_wait+1
  4570   00195C  CFF4 F14C          	movff	prodh,??_sem_wait+2
  4571   001960  EE26  F086         	lfsr	2,_r_queue+337
  4572   001964  CFDE F14D          	movff	postinc2,??_sem_wait+3
  4573   001968  CFDD F14E          	movff	postdec2,??_sem_wait+4
  4574   00196C  514B               	movf	(??_sem_wait+1)& (0+255),w,b
  4575   00196E  254D               	addwf	(??_sem_wait+3)& (0+255),w,b
  4576   001970  6F4F               	movwf	(??_sem_wait+5)& (0+255),b
  4577   001972  514C               	movf	(??_sem_wait+2)& (0+255),w,b
  4578   001974  214E               	addwfc	(??_sem_wait+4)& (0+255),w,b
  4579   001976  6F50               	movwf	(??_sem_wait+6)& (0+255),b
  4580   001978  0E19               	movlw	25
  4581   00197A  254F               	addwf	(??_sem_wait+5)& (0+255),w,b
  4582   00197C  6ED9               	movwf	fsr2l,c
  4583   00197E  0E00               	movlw	0
  4584   001980  2150               	addwfc	(??_sem_wait+6)& (0+255),w,b
  4585   001982  6EDA               	movwf	fsr2h,c
  4586   001984  CFFF FFDF          	movff	tosu,indf2	;volatile
  4587   001988                     
  4588                           ; BSR set to: 1
  4589   001988  EE26  F086         	lfsr	2,_r_queue+337
  4590   00198C  EE10 F02F          	lfsr	1,47
  4591   001990  50DE               	movf	postinc2,w,c
  4592   001992  26E1               	addwf	fsr1l,f,c
  4593   001994  50DD               	movf	postdec2,w,c
  4594   001996  22E2               	addwfc	fsr1h,f,c
  4595   001998  2AE7               	incf	indf1,f,c
  4596   00199A  0006               	pop		;# 
  4597   00199C                     i1l4670:
  4598   00199C  50FC               	movf	252,w,c	;volatile
  4599   00199E  A4D8               	btfss	status,2,c
  4600   0019A0  EFD4  F00C         	goto	i1u451_21
  4601   0019A4  EFD6  F00C         	goto	i1u451_20
  4602   0019A8                     i1u451_21:
  4603   0019A8  EF57  F00C         	goto	i1l4666
  4604   0019AC                     i1u451_20:
  4605   0019AC                     i1l4672:
  4606                           
  4607                           ;sync.c: 23:         scheduler();
  4608   0019AC  EC8E  F018         	call	i1_scheduler	;wreg free
  4609   0019B0  EE26  F086         	lfsr	2,_r_queue+337
  4610   0019B4  EE10 F001          	lfsr	1,1
  4611   0019B8  50DE               	movf	postinc2,w,c
  4612   0019BA  26E1               	addwf	fsr1l,f,c
  4613   0019BC  50DD               	movf	postdec2,w,c
  4614   0019BE  22E2               	addwfc	fsr1h,f,c
  4615   0019C0  50E7               	movf	indf1,w,c
  4616   0019C2  A4D8               	btfss	status,2,c
  4617   0019C4  EFE6  F00C         	goto	i1u452_21
  4618   0019C8  EFE8  F00C         	goto	i1u452_20
  4619   0019CC                     i1u452_21:
  4620   0019CC  EF7F  F00E         	goto	i1l4694
  4621   0019D0                     i1u452_20:
  4622   0019D0  EE26  F086         	lfsr	2,_r_queue+337
  4623   0019D4  EE10 F001          	lfsr	1,1
  4624   0019D8  50DE               	movf	postinc2,w,c
  4625   0019DA  26E1               	addwf	fsr1l,f,c
  4626   0019DC  50DD               	movf	postdec2,w,c
  4627   0019DE  22E2               	addwfc	fsr1h,f,c
  4628   0019E0  0E02               	movlw	2
  4629   0019E2  6EE7               	movwf	indf1,c
  4630   0019E4  EE26  F086         	lfsr	2,_r_queue+337
  4631   0019E8  EE10 F008          	lfsr	1,8
  4632   0019EC  50DE               	movf	postinc2,w,c
  4633   0019EE  26E1               	addwf	fsr1l,f,c
  4634   0019F0  50DD               	movf	postdec2,w,c
  4635   0019F2  22E2               	addwfc	fsr1h,f,c
  4636   0019F4  50E7               	movf	indf1,w,c
  4637   0019F6  6EE0               	movwf	224,c	;volatile
  4638   0019F8  EE26  F086         	lfsr	2,_r_queue+337
  4639   0019FC  EE10 F00C          	lfsr	1,12
  4640   001A00  50DE               	movf	postinc2,w,c
  4641   001A02  26E1               	addwf	fsr1l,f,c
  4642   001A04  50DD               	movf	postdec2,w,c
  4643   001A06  22E2               	addwfc	fsr1h,f,c
  4644   001A08  50E7               	movf	indf1,w,c
  4645   001A0A  6EEA               	movwf	234,c	;volatile
  4646   001A0C  EE26  F086         	lfsr	2,_r_queue+337
  4647   001A10  EE10 F00B          	lfsr	1,11
  4648   001A14  50DE               	movf	postinc2,w,c
  4649   001A16  26E1               	addwf	fsr1l,f,c
  4650   001A18  50DD               	movf	postdec2,w,c
  4651   001A1A  22E2               	addwfc	fsr1h,f,c
  4652   001A1C  50E7               	movf	indf1,w,c
  4653   001A1E  6EE9               	movwf	233,c	;volatile
  4654   001A20  EE26  F086         	lfsr	2,_r_queue+337
  4655   001A24  EE10 F00E          	lfsr	1,14
  4656   001A28  50DE               	movf	postinc2,w,c
  4657   001A2A  26E1               	addwf	fsr1l,f,c
  4658   001A2C  50DD               	movf	postdec2,w,c
  4659   001A2E  22E2               	addwfc	fsr1h,f,c
  4660   001A30  50E7               	movf	indf1,w,c
  4661   001A32  6EE2               	movwf	226,c	;volatile
  4662   001A34  EE26  F086         	lfsr	2,_r_queue+337
  4663   001A38  EE10 F00D          	lfsr	1,13
  4664   001A3C  50DE               	movf	postinc2,w,c
  4665   001A3E  26E1               	addwf	fsr1l,f,c
  4666   001A40  50DD               	movf	postdec2,w,c
  4667   001A42  22E2               	addwfc	fsr1h,f,c
  4668   001A44  50E7               	movf	indf1,w,c
  4669   001A46  6EE1               	movwf	225,c	;volatile
  4670   001A48  EE26  F086         	lfsr	2,_r_queue+337
  4671   001A4C  EE10 F010          	lfsr	1,16
  4672   001A50  50DE               	movf	postinc2,w,c
  4673   001A52  26E1               	addwf	fsr1l,f,c
  4674   001A54  50DD               	movf	postdec2,w,c
  4675   001A56  22E2               	addwfc	fsr1h,f,c
  4676   001A58  50E7               	movf	indf1,w,c
  4677   001A5A  6EDA               	movwf	218,c	;volatile
  4678   001A5C  EE26  F086         	lfsr	2,_r_queue+337
  4679   001A60  EE10 F00F          	lfsr	1,15
  4680   001A64  50DE               	movf	postinc2,w,c
  4681   001A66  26E1               	addwf	fsr1l,f,c
  4682   001A68  50DD               	movf	postdec2,w,c
  4683   001A6A  22E2               	addwfc	fsr1h,f,c
  4684   001A6C  50E7               	movf	indf1,w,c
  4685   001A6E  6ED9               	movwf	217,c	;volatile
  4686   001A70  EE26  F086         	lfsr	2,_r_queue+337
  4687   001A74  EE10 F015          	lfsr	1,21
  4688   001A78  50DE               	movf	postinc2,w,c
  4689   001A7A  26E1               	addwf	fsr1l,f,c
  4690   001A7C  50DD               	movf	postdec2,w,c
  4691   001A7E  22E2               	addwfc	fsr1h,f,c
  4692   001A80  50E7               	movf	indf1,w,c
  4693   001A82  6EFA               	movwf	250,c	;volatile
  4694   001A84  EE26  F086         	lfsr	2,_r_queue+337
  4695   001A88  EE10 F016          	lfsr	1,22
  4696   001A8C  50DE               	movf	postinc2,w,c
  4697   001A8E  26E1               	addwf	fsr1l,f,c
  4698   001A90  50DD               	movf	postdec2,w,c
  4699   001A92  22E2               	addwfc	fsr1h,f,c
  4700   001A94  50E7               	movf	indf1,w,c
  4701   001A96  6EFB               	movwf	251,c	;volatile
  4702   001A98  EE26  F086         	lfsr	2,_r_queue+337
  4703   001A9C  EE10 F00A          	lfsr	1,10
  4704   001AA0  50DE               	movf	postinc2,w,c
  4705   001AA2  26E1               	addwf	fsr1l,f,c
  4706   001AA4  50DD               	movf	postdec2,w,c
  4707   001AA6  22E2               	addwfc	fsr1h,f,c
  4708   001AA8  50E7               	movf	indf1,w,c
  4709   001AAA  6EF4               	movwf	244,c	;volatile
  4710   001AAC  EE26  F086         	lfsr	2,_r_queue+337
  4711   001AB0  EE10 F009          	lfsr	1,9
  4712   001AB4  50DE               	movf	postinc2,w,c
  4713   001AB6  26E1               	addwf	fsr1l,f,c
  4714   001AB8  50DD               	movf	postdec2,w,c
  4715   001ABA  22E2               	addwfc	fsr1h,f,c
  4716   001ABC  50E7               	movf	indf1,w,c
  4717   001ABE  6EF3               	movwf	243,c	;volatile
  4718   001AC0  EE26  F086         	lfsr	2,_r_queue+337
  4719   001AC4  EE10 F011          	lfsr	1,17
  4720   001AC8  50DE               	movf	postinc2,w,c
  4721   001ACA  26E1               	addwf	fsr1l,f,c
  4722   001ACC  50DD               	movf	postdec2,w,c
  4723   001ACE  22E2               	addwfc	fsr1h,f,c
  4724   001AD0  50E7               	movf	indf1,w,c
  4725   001AD2  6EF5               	movwf	245,c	;volatile
  4726   001AD4  EE26  F086         	lfsr	2,_r_queue+337
  4727   001AD8  EE10 F013          	lfsr	1,19
  4728   001ADC  50DE               	movf	postinc2,w,c
  4729   001ADE  26E1               	addwf	fsr1l,f,c
  4730   001AE0  50DD               	movf	postdec2,w,c
  4731   001AE2  22E2               	addwfc	fsr1h,f,c
  4732   001AE4  50E7               	movf	indf1,w,c
  4733   001AE6  6EF7               	movwf	247,c	;volatile
  4734   001AE8  EE26  F086         	lfsr	2,_r_queue+337
  4735   001AEC  EE10 F012          	lfsr	1,18
  4736   001AF0  50DE               	movf	postinc2,w,c
  4737   001AF2  26E1               	addwf	fsr1l,f,c
  4738   001AF4  50DD               	movf	postdec2,w,c
  4739   001AF6  22E2               	addwfc	fsr1h,f,c
  4740   001AF8  50E7               	movf	indf1,w,c
  4741   001AFA  6EF6               	movwf	246,c	;volatile
  4742   001AFC  EE26  F086         	lfsr	2,_r_queue+337
  4743   001B00  EE10 F014          	lfsr	1,20
  4744   001B04  50DE               	movf	postinc2,w,c
  4745   001B06  26E1               	addwf	fsr1l,f,c
  4746   001B08  50DD               	movf	postdec2,w,c
  4747   001B0A  22E2               	addwfc	fsr1h,f,c
  4748   001B0C  50E7               	movf	indf1,w,c
  4749   001B0E  6EF8               	movwf	248,c	;volatile
  4750   001B10  EE26  F086         	lfsr	2,_r_queue+337
  4751   001B14  EE10 F007          	lfsr	1,7
  4752   001B18  50DE               	movf	postinc2,w,c
  4753   001B1A  26E1               	addwf	fsr1l,f,c
  4754   001B1C  50DD               	movf	postdec2,w,c
  4755   001B1E  22E2               	addwfc	fsr1h,f,c
  4756   001B20  50E7               	movf	indf1,w,c
  4757   001B22  6ED8               	movwf	216,c	;volatile
  4758   001B24  EE26  F086         	lfsr	2,_r_queue+337
  4759   001B28  EE10 F006          	lfsr	1,6
  4760   001B2C  50DE               	movf	postinc2,w,c
  4761   001B2E  26E1               	addwf	fsr1l,f,c
  4762   001B30  50DD               	movf	postdec2,w,c
  4763   001B32  22E2               	addwfc	fsr1h,f,c
  4764   001B34  50E7               	movf	indf1,w,c
  4765   001B36  0101               	movlb	1	; () banked
  4766   001B38  6F4A               	movwf	??_sem_wait& (0+255),b
  4767   001B3A  514A               	movf	??_sem_wait& (0+255),w,b
  4768   001B3C                     
  4769                           ; BSR set to: 1
  4770   001B3C  6AFC               	clrf	252,c	;volatile
  4771   001B3E  EE26  F086         	lfsr	2,_r_queue+337
  4772   001B42  EE10 F02F          	lfsr	1,47
  4773   001B46  50DE               	movf	postinc2,w,c
  4774   001B48  26E1               	addwf	fsr1l,f,c
  4775   001B4A  50DD               	movf	postdec2,w,c
  4776   001B4C  22E2               	addwfc	fsr1h,f,c
  4777   001B4E  50E7               	movf	indf1,w,c
  4778   001B50  B4D8               	btfsc	status,2,c
  4779   001B52  EFAD  F00D         	goto	i1u453_21
  4780   001B56  EFAF  F00D         	goto	i1u453_20
  4781   001B5A                     i1u453_21:
  4782   001B5A  EF38  F00E         	goto	i1l219
  4783   001B5E                     i1u453_20:
  4784   001B5E                     i1l220:
  4785                           
  4786                           ; BSR set to: 1
  4787   001B5E  0005               	push		;# 
  4788   001B60  EE26  F086         	lfsr	2,_r_queue+337
  4789   001B64  EE10 F02F          	lfsr	1,47
  4790   001B68  50DE               	movf	postinc2,w,c
  4791   001B6A  26E1               	addwf	fsr1l,f,c
  4792   001B6C  50DD               	movf	postdec2,w,c
  4793   001B6E  22E2               	addwfc	fsr1h,f,c
  4794   001B70  06E7               	decf	indf1,f,c
  4795   001B72  EE26  F086         	lfsr	2,_r_queue+337
  4796   001B76  EE10 F02F          	lfsr	1,47
  4797   001B7A  50DE               	movf	postinc2,w,c
  4798   001B7C  26E1               	addwf	fsr1l,f,c
  4799   001B7E  50DD               	movf	postdec2,w,c
  4800   001B80  22E2               	addwfc	fsr1h,f,c
  4801   001B82  50E7               	movf	indf1,w,c
  4802   001B84  0101               	movlb	1	; () banked
  4803   001B86  6F4A               	movwf	??_sem_wait& (0+255),b
  4804   001B88  514A               	movf	??_sem_wait& (0+255),w,b
  4805   001B8A  0D03               	mullw	3
  4806   001B8C  CFF3 F14B          	movff	prodl,??_sem_wait+1
  4807   001B90  CFF4 F14C          	movff	prodh,??_sem_wait+2
  4808   001B94  EE26  F086         	lfsr	2,_r_queue+337
  4809   001B98  CFDE F14D          	movff	postinc2,??_sem_wait+3
  4810   001B9C  CFDD F14E          	movff	postdec2,??_sem_wait+4
  4811   001BA0  514B               	movf	(??_sem_wait+1)& (0+255),w,b
  4812   001BA2  254D               	addwf	(??_sem_wait+3)& (0+255),w,b
  4813   001BA4  6F4F               	movwf	(??_sem_wait+5)& (0+255),b
  4814   001BA6  514C               	movf	(??_sem_wait+2)& (0+255),w,b
  4815   001BA8  214E               	addwfc	(??_sem_wait+4)& (0+255),w,b
  4816   001BAA  6F50               	movwf	(??_sem_wait+6)& (0+255),b
  4817   001BAC  0E17               	movlw	23
  4818   001BAE  254F               	addwf	(??_sem_wait+5)& (0+255),w,b
  4819   001BB0  6ED9               	movwf	fsr2l,c
  4820   001BB2  0E00               	movlw	0
  4821   001BB4  2150               	addwfc	(??_sem_wait+6)& (0+255),w,b
  4822   001BB6  6EDA               	movwf	fsr2h,c
  4823   001BB8  50DF               	movf	indf2,w,c
  4824   001BBA  6EFD               	movwf	253,c	;volatile
  4825   001BBC                     
  4826                           ; BSR set to: 1
  4827   001BBC  EE26  F086         	lfsr	2,_r_queue+337
  4828   001BC0  EE10 F02F          	lfsr	1,47
  4829   001BC4  50DE               	movf	postinc2,w,c
  4830   001BC6  26E1               	addwf	fsr1l,f,c
  4831   001BC8  50DD               	movf	postdec2,w,c
  4832   001BCA  22E2               	addwfc	fsr1h,f,c
  4833   001BCC  50E7               	movf	indf1,w,c
  4834   001BCE  6F4A               	movwf	??_sem_wait& (0+255),b
  4835   001BD0  514A               	movf	??_sem_wait& (0+255),w,b
  4836   001BD2  0D03               	mullw	3
  4837   001BD4  CFF3 F14B          	movff	prodl,??_sem_wait+1
  4838   001BD8  CFF4 F14C          	movff	prodh,??_sem_wait+2
  4839   001BDC  EE26  F086         	lfsr	2,_r_queue+337
  4840   001BE0  CFDE F14D          	movff	postinc2,??_sem_wait+3
  4841   001BE4  CFDD F14E          	movff	postdec2,??_sem_wait+4
  4842   001BE8  514B               	movf	(??_sem_wait+1)& (0+255),w,b
  4843   001BEA  254D               	addwf	(??_sem_wait+3)& (0+255),w,b
  4844   001BEC  6F4F               	movwf	(??_sem_wait+5)& (0+255),b
  4845   001BEE  514C               	movf	(??_sem_wait+2)& (0+255),w,b
  4846   001BF0  214E               	addwfc	(??_sem_wait+4)& (0+255),w,b
  4847   001BF2  6F50               	movwf	(??_sem_wait+6)& (0+255),b
  4848   001BF4  0E18               	movlw	24
  4849   001BF6  254F               	addwf	(??_sem_wait+5)& (0+255),w,b
  4850   001BF8  6ED9               	movwf	fsr2l,c
  4851   001BFA  0E00               	movlw	0
  4852   001BFC  2150               	addwfc	(??_sem_wait+6)& (0+255),w,b
  4853   001BFE  6EDA               	movwf	fsr2h,c
  4854   001C00  50DF               	movf	indf2,w,c
  4855   001C02  6EFE               	movwf	254,c	;volatile
  4856   001C04                     
  4857                           ; BSR set to: 1
  4858   001C04  EE26  F086         	lfsr	2,_r_queue+337
  4859   001C08  EE10 F02F          	lfsr	1,47
  4860   001C0C  50DE               	movf	postinc2,w,c
  4861   001C0E  26E1               	addwf	fsr1l,f,c
  4862   001C10  50DD               	movf	postdec2,w,c
  4863   001C12  22E2               	addwfc	fsr1h,f,c
  4864   001C14  50E7               	movf	indf1,w,c
  4865   001C16  6F4A               	movwf	??_sem_wait& (0+255),b
  4866   001C18  514A               	movf	??_sem_wait& (0+255),w,b
  4867   001C1A  0D03               	mullw	3
  4868   001C1C  CFF3 F14B          	movff	prodl,??_sem_wait+1
  4869   001C20  CFF4 F14C          	movff	prodh,??_sem_wait+2
  4870   001C24  EE26  F086         	lfsr	2,_r_queue+337
  4871   001C28  CFDE F14D          	movff	postinc2,??_sem_wait+3
  4872   001C2C  CFDD F14E          	movff	postdec2,??_sem_wait+4
  4873   001C30  514B               	movf	(??_sem_wait+1)& (0+255),w,b
  4874   001C32  254D               	addwf	(??_sem_wait+3)& (0+255),w,b
  4875   001C34  6F4F               	movwf	(??_sem_wait+5)& (0+255),b
  4876   001C36  514C               	movf	(??_sem_wait+2)& (0+255),w,b
  4877   001C38  214E               	addwfc	(??_sem_wait+4)& (0+255),w,b
  4878   001C3A  6F50               	movwf	(??_sem_wait+6)& (0+255),b
  4879   001C3C  0E19               	movlw	25
  4880   001C3E  254F               	addwf	(??_sem_wait+5)& (0+255),w,b
  4881   001C40  6ED9               	movwf	fsr2l,c
  4882   001C42  0E00               	movlw	0
  4883   001C44  2150               	addwfc	(??_sem_wait+6)& (0+255),w,b
  4884   001C46  6EDA               	movwf	fsr2h,c
  4885   001C48  50DF               	movf	indf2,w,c
  4886   001C4A  6EFF               	movwf	255,c	;volatile
  4887   001C4C                     
  4888                           ; BSR set to: 1
  4889   001C4C  EE26  F086         	lfsr	2,_r_queue+337
  4890   001C50  EE10 F02F          	lfsr	1,47
  4891   001C54  50DE               	movf	postinc2,w,c
  4892   001C56  26E1               	addwf	fsr1l,f,c
  4893   001C58  50DD               	movf	postdec2,w,c
  4894   001C5A  22E2               	addwfc	fsr1h,f,c
  4895   001C5C  50E7               	movf	indf1,w,c
  4896   001C5E  A4D8               	btfss	status,2,c
  4897   001C60  EF34  F00E         	goto	i1u454_21
  4898   001C64  EF36  F00E         	goto	i1u454_20
  4899   001C68                     i1u454_21:
  4900   001C68  EFAF  F00D         	goto	i1l220
  4901   001C6C                     i1u454_20:
  4902   001C6C  EF7D  F00E         	goto	i1l4692
  4903   001C70                     i1l219:
  4904                           
  4905                           ; BSR set to: 1
  4906   001C70  0005               	push		;# 
  4907   001C72  EE26  F086         	lfsr	2,_r_queue+337
  4908   001C76  EE10 F002          	lfsr	1,2
  4909   001C7A  50DE               	movf	postinc2,w,c
  4910   001C7C  26E1               	addwf	fsr1l,f,c
  4911   001C7E  50DD               	movf	postdec2,w,c
  4912   001C80  22E2               	addwfc	fsr1h,f,c
  4913   001C82  50E7               	movf	indf1,w,c
  4914   001C84  6EFD               	movwf	253,c	;volatile
  4915   001C86  EE26  F086         	lfsr	2,_r_queue+337
  4916   001C8A  EE10 F002          	lfsr	1,2
  4917   001C8E  50DE               	movf	postinc2,w,c
  4918   001C90  26E1               	addwf	fsr1l,f,c
  4919   001C92  50DD               	movf	postdec2,w,c
  4920   001C94  22E2               	addwfc	fsr1h,f,c
  4921   001C96  CFE6 F14A          	movff	postinc1,??_sem_wait
  4922   001C9A  CFE5 F14B          	movff	postdec1,??_sem_wait+1
  4923   001C9E  C14A  F14C         	movff	??_sem_wait,??_sem_wait+2
  4924   001CA2  C14B  F14D         	movff	??_sem_wait+1,??_sem_wait+3
  4925   001CA6  0101               	movlb	1	; () banked
  4926   001CA8  6B4E               	clrf	(??_sem_wait+4)& (0+255),b
  4927   001CAA  C14D  F14C         	movff	??_sem_wait+3,??_sem_wait+2
  4928   001CAE  C14E  F14D         	movff	??_sem_wait+4,??_sem_wait+3
  4929   001CB2  6B4E               	clrf	(??_sem_wait+4)& (0+255),b
  4930   001CB4  514C               	movf	(??_sem_wait+2)& (0+255),w,b
  4931   001CB6  6EFE               	movwf	254,c	;volatile
  4932   001CB8  0E10               	movlw	16
  4933   001CBA  6F4A               	movwf	??_sem_wait& (0+255),b
  4934   001CBC  EE26  F086         	lfsr	2,_r_queue+337
  4935   001CC0  EE10 F002          	lfsr	1,2
  4936   001CC4  50DE               	movf	postinc2,w,c
  4937   001CC6  26E1               	addwf	fsr1l,f,c
  4938   001CC8  50DD               	movf	postdec2,w,c
  4939   001CCA  22E2               	addwfc	fsr1h,f,c
  4940   001CCC  CFE6 F14B          	movff	postinc1,??_sem_wait+1
  4941   001CD0  CFE5 F14C          	movff	postdec1,??_sem_wait+2
  4942   001CD4  C14B  F14D         	movff	??_sem_wait+1,??_sem_wait+3
  4943   001CD8  C14C  F14E         	movff	??_sem_wait+2,??_sem_wait+4
  4944   001CDC  6B4F               	clrf	(??_sem_wait+5)& (0+255),b
  4945   001CDE  294A               	incf	??_sem_wait& (0+255),w,b
  4946   001CE0  6F50               	movwf	(??_sem_wait+6)& (0+255),b
  4947   001CE2  EF77  F00E         	goto	i1u455_20
  4948   001CE6                     i1u455_25:
  4949   001CE6  90D8               	bcf	status,0,c
  4950   001CE8  334F               	rrcf	(??_sem_wait+5)& (0+255),f,b
  4951   001CEA  334E               	rrcf	(??_sem_wait+4)& (0+255),f,b
  4952   001CEC  334D               	rrcf	(??_sem_wait+3)& (0+255),f,b
  4953   001CEE                     i1u455_20:
  4954   001CEE  2F50               	decfsz	(??_sem_wait+6)& (0+255),f,b
  4955   001CF0  EF73  F00E         	goto	i1u455_25
  4956   001CF4  0101               	movlb	1	; () banked
  4957   001CF6  514D               	movf	(??_sem_wait+3)& (0+255),w,b
  4958   001CF8  6EFF               	movwf	255,c	;volatile
  4959   001CFA                     i1l4692:
  4960                           
  4961                           ; BSR set to: 1
  4962   001CFA  0E14               	movlw	20
  4963   001CFC  6E47               	movwf	_rr_quantum^0,c
  4964   001CFE                     i1l4694:
  4965                           
  4966                           ;sync.c: 27:     INTCONbits.GIE = 1;;
  4967   001CFE  8EF2               	bsf	242,7,c	;volatile
  4968   001D00  0012               	return		;funcret
  4969   001D02                     __end_of_sem_wait:
  4970                           	callstack 0
  4971                           
  4972 ;; *************** function _sem_post *****************
  4973 ;; Defined at:
  4974 ;;		line 30 in file "sync.c"
  4975 ;; Parameters:    Size  Location     Type
  4976 ;;  sem             1   73[BANK1 ] PTR struct sem
  4977 ;;		 -> p(24), s(9), 
  4978 ;; Auto vars:     Size  Location     Type
  4979 ;;		None
  4980 ;; Return value:  Size  Location     Type
  4981 ;;                  1    wreg      void 
  4982 ;; Registers used:
  4983 ;;		wreg, fsr1l, fsr1h, fsr2l, fsr2h, status,2, status,0, prodl, prodh, cstack
  4984 ;; Tracked objects:
  4985 ;;		On entry : 0/0
  4986 ;;		On exit  : 0/0
  4987 ;;		Unchanged: 0/0
  4988 ;; Data sizes:     COMRAM   BANK0   BANK1   BANK2   BANK3   BANK4   BANK5   BANK6   BANK7   BANK8   BANK9  BANK10  BANK1
      +1  BANK12  BANK13  BANK14  BANK15
  4989 ;;      Params:         0       0       1       0       0       0       0       0       0       0       0       0       
      +0       0       0       0       0
  4990 ;;      Locals:         0       0       0       0       0       0       0       0       0       0       0       0       
      +0       0       0       0       0
  4991 ;;      Temps:          0       0       2       0       0       0       0       0       0       0       0       0       
      +0       0       0       0       0
  4992 ;;      Totals:         0       0       3       0       0       0       0       0       0       0       0       0       
      +0       0       0       0       0
  4993 ;;Total ram usage:        3 bytes
  4994 ;; Hardware stack levels used: 1
  4995 ;; Hardware stack levels required when called: 4
  4996 ;; This function calls:
  4997 ;;		___awmod
  4998 ;; This function is called by:
  4999 ;;		_pipe_write
  5000 ;;		_pipe_read
  5001 ;;		_LED_1
  5002 ;; This function uses a non-reentrant model
  5003 ;;
  5004                           
  5005                           	psect	text17
  5006   002C64                     __ptext17:
  5007                           	callstack 0
  5008   002C64                     _sem_post:
  5009                           	callstack 20
  5010   002C64                     
  5011                           ;sync.c: 31:     INTCONbits.GIE = 0;;
  5012   002C64  9EF2               	bcf	242,7,c	;volatile
  5013   002C66                     
  5014                           ;sync.c: 33:     sem->contador++;
  5015   002C66  0101               	movlb	1	; () banked
  5016   002C68  5149               	movf	sem_post@sem& (0+255),w,b
  5017   002C6A  6ED9               	movwf	fsr2l,c
  5018   002C6C  6ADA               	clrf	fsr2h,c
  5019   002C6E  2ADF               	incf	indf2,f,c
  5020                           
  5021                           ;sync.c: 34:     if (sem->contador <= 0) {
  5022   002C70  5149               	movf	sem_post@sem& (0+255),w,b
  5023   002C72  6ED9               	movwf	fsr2l,c
  5024   002C74  6ADA               	clrf	fsr2h,c
  5025   002C76  50DF               	movf	indf2,w,c
  5026   002C78  0A80               	xorlw	128
  5027   002C7A  0F7F               	addlw	-129
  5028   002C7C  B0D8               	btfsc	status,0,c
  5029   002C7E  EF43  F016         	goto	i1u385_21
  5030   002C82  EF45  F016         	goto	i1u385_20
  5031   002C86                     i1u385_21:
  5032   002C86  EF77  F016         	goto	i1l4172
  5033   002C8A                     i1u385_20:
  5034   002C8A                     
  5035                           ; BSR set to: 1
  5036                           ;sync.c: 36:         r_queue.TASKS[sem->fila[sem->pos_output]].task_state = READY;
  5037   002C8A  5149               	movf	sem_post@sem& (0+255),w,b
  5038   002C8C  6ED9               	movwf	fsr2l,c
  5039   002C8E  6ADA               	clrf	fsr2h,c
  5040   002C90  0E08               	movlw	8
  5041   002C92  26D9               	addwf	fsr2l,f,c
  5042   002C94  50DF               	movf	indf2,w,c
  5043   002C96  6F4A               	movwf	??_sem_post& (0+255),b
  5044   002C98  5149               	movf	sem_post@sem& (0+255),w,b
  5045   002C9A  254A               	addwf	??_sem_post& (0+255),w,b
  5046   002C9C  6ED9               	movwf	fsr2l,c
  5047   002C9E  6ADA               	clrf	fsr2h,c
  5048   002CA0  0E01               	movlw	1
  5049   002CA2  26D9               	addwf	fsr2l,f,c
  5050   002CA4  50DF               	movf	indf2,w,c
  5051   002CA6  6F4B               	movwf	(??_sem_post+1)& (0+255),b
  5052   002CA8  514B               	movf	(??_sem_post+1)& (0+255),w,b
  5053   002CAA  0D30               	mullw	48
  5054   002CAC  0E36               	movlw	low (_r_queue+1)
  5055   002CAE  24F3               	addwf	243,w,c
  5056   002CB0  6ED9               	movwf	fsr2l,c
  5057   002CB2  0E05               	movlw	high (_r_queue+1)
  5058   002CB4  20F4               	addwfc	prodh,w,c
  5059   002CB6  6EDA               	movwf	fsr2h,c
  5060   002CB8  6ADF               	clrf	indf2,c
  5061   002CBA                     
  5062                           ; BSR set to: 1
  5063                           ;sync.c: 37:         sem->pos_output = (sem->pos_output + 1) % 6;
  5064   002CBA  5149               	movf	sem_post@sem& (0+255),w,b
  5065   002CBC  6ED9               	movwf	fsr2l,c
  5066   002CBE  6ADA               	clrf	fsr2h,c
  5067   002CC0  0E08               	movlw	8
  5068   002CC2  26D9               	addwf	fsr2l,f,c
  5069   002CC4  5149               	movf	sem_post@sem& (0+255),w,b
  5070   002CC6  6EE1               	movwf	fsr1l,c
  5071   002CC8  6AE2               	clrf	fsr1h,c
  5072   002CCA  0E08               	movlw	8
  5073   002CCC  26E1               	addwf	fsr1l,f,c
  5074   002CCE  50E7               	movf	indf1,w,c
  5075   002CD0  6F4A               	movwf	??_sem_post& (0+255),b
  5076   002CD2  0E01               	movlw	1
  5077   002CD4  254A               	addwf	??_sem_post& (0+255),w,b
  5078   002CD6  6F43               	movwf	___awmod@dividend& (0+255),b
  5079   002CD8  6B44               	clrf	(___awmod@dividend+1)& (0+255),b
  5080   002CDA  0E00               	movlw	0
  5081   002CDC  2344               	addwfc	(___awmod@dividend+1)& (0+255),f,b
  5082   002CDE  6B46               	clrf	(___awmod@divisor+1)& (0+255),b
  5083   002CE0  0E06               	movlw	6
  5084   002CE2  6F45               	movwf	___awmod@divisor& (0+255),b
  5085   002CE4  EC8C  F015         	call	___awmod	;wreg free
  5086   002CE8  0101               	movlb	1	; () banked
  5087   002CEA  5143               	movf	?___awmod& (0+255),w,b
  5088   002CEC  6EDF               	movwf	indf2,c
  5089   002CEE                     i1l4172:
  5090                           
  5091                           ; BSR set to: 1
  5092                           ;sync.c: 40:     INTCONbits.GIE = 1;;
  5093   002CEE  8EF2               	bsf	242,7,c	;volatile
  5094   002CF0                     
  5095                           ; BSR set to: 1
  5096   002CF0  0012               	return		;funcret
  5097   002CF2                     __end_of_sem_post:
  5098                           	callstack 0
  5099                           
  5100 ;; *************** function _os_delay *****************
  5101 ;; Defined at:
  5102 ;;		line 10 in file "kernel.c"
  5103 ;; Parameters:    Size  Location     Type
  5104 ;;  time            1    wreg     unsigned char 
  5105 ;; Auto vars:     Size  Location     Type
  5106 ;;  time            1  127[BANK2 ] unsigned char 
  5107 ;; Return value:  Size  Location     Type
  5108 ;;                  1    wreg      void 
  5109 ;; Registers used:
  5110 ;;		wreg, fsr1l, fsr1h, fsr2l, fsr2h, status,2, status,0, prodl, prodh, cstack
  5111 ;; Tracked objects:
  5112 ;;		On entry : 0/0
  5113 ;;		On exit  : 0/0
  5114 ;;		Unchanged: 0/0
  5115 ;; Data sizes:     COMRAM   BANK0   BANK1   BANK2   BANK3   BANK4   BANK5   BANK6   BANK7   BANK8   BANK9  BANK10  BANK1
      +1  BANK12  BANK13  BANK14  BANK15
  5116 ;;      Params:         0       0       0       0       0       0       0       0       0       0       0       0       
      +0       0       0       0       0
  5117 ;;      Locals:         0       0       0       1       0       0       0       0       0       0       0       0       
      +0       0       0       0       0
  5118 ;;      Temps:          0       0       0       7       0       0       0       0       0       0       0       0       
      +0       0       0       0       0
  5119 ;;      Totals:         0       0       0       8       0       0       0       0       0       0       0       0       
      +0       0       0       0       0
  5120 ;;Total ram usage:        8 bytes
  5121 ;; Hardware stack levels used: 1
  5122 ;; Hardware stack levels required when called: 5
  5123 ;; This function calls:
  5124 ;;		i1_scheduler
  5125 ;; This function is called by:
  5126 ;;		_LED_1
  5127 ;;		_READ_ADC
  5128 ;;		_tarefaPWN
  5129 ;;		_LED_1_prio
  5130 ;;		_LED_2_prio
  5131 ;;		_LED_3_prio
  5132 ;;		_tarefaOneShot
  5133 ;; This function uses a non-reentrant model
  5134 ;;
  5135                           
  5136                           	psect	text18
  5137   001D02                     __ptext18:
  5138                           	callstack 0
  5139   001D02                     _os_delay:
  5140                           	callstack 20
  5141                           
  5142                           ; BSR set to: 1
  5143                           ;incstack = 0
  5144                           ;os_delay@time stored from wreg
  5145   001D02  0102               	movlb	2	; () banked
  5146   001D04  6F7F               	movwf	os_delay@time& (0+255),b
  5147   001D06                     
  5148                           ;kernel.c: 10: void os_delay(uint8_t time);kernel.c: 11: {;kernel.c: 12:     INTCONbits.
      +                          GIE = 0;;
  5149   001D06  9EF2               	bcf	242,7,c	;volatile
  5150   001D08  EE26  F086         	lfsr	2,_r_queue+337
  5151   001D0C  EE10 F001          	lfsr	1,1
  5152   001D10  50DE               	movf	postinc2,w,c
  5153   001D12  26E1               	addwf	fsr1l,f,c
  5154   001D14  50DD               	movf	postdec2,w,c
  5155   001D16  22E2               	addwfc	fsr1h,f,c
  5156   001D18  0E02               	movlw	2
  5157   001D1A  18E6               	xorwf	postinc1,w,c
  5158   001D1C  A4D8               	btfss	status,2,c
  5159   001D1E  EF93  F00E         	goto	i1u460_21
  5160   001D22  EF95  F00E         	goto	i1u460_20
  5161   001D26                     i1u460_21:
  5162   001D26  EFD3  F00F         	goto	i1l4744
  5163   001D2A                     i1u460_20:
  5164   001D2A  EE26  F086         	lfsr	2,_r_queue+337
  5165   001D2E  EE10 F001          	lfsr	1,1
  5166   001D32  50DE               	movf	postinc2,w,c
  5167   001D34  26E1               	addwf	fsr1l,f,c
  5168   001D36  50DD               	movf	postdec2,w,c
  5169   001D38  22E2               	addwfc	fsr1h,f,c
  5170   001D3A  0E01               	movlw	1
  5171   001D3C  6EE7               	movwf	indf1,c
  5172   001D3E  EE26  F086         	lfsr	2,_r_queue+337
  5173   001D42  EE10 F008          	lfsr	1,8
  5174   001D46  50DE               	movf	postinc2,w,c
  5175   001D48  26E1               	addwf	fsr1l,f,c
  5176   001D4A  50DD               	movf	postdec2,w,c
  5177   001D4C  22E2               	addwfc	fsr1h,f,c
  5178   001D4E  CFE0 FFE7          	movff	bsr,indf1	;volatile
  5179   001D52  EE26  F086         	lfsr	2,_r_queue+337
  5180   001D56  EE10 F00C          	lfsr	1,12
  5181   001D5A  50DE               	movf	postinc2,w,c
  5182   001D5C  26E1               	addwf	fsr1l,f,c
  5183   001D5E  50DD               	movf	postdec2,w,c
  5184   001D60  22E2               	addwfc	fsr1h,f,c
  5185   001D62  CFEA FFE7          	movff	fsr0h,indf1	;volatile
  5186   001D66  EE26  F086         	lfsr	2,_r_queue+337
  5187   001D6A  EE10 F00B          	lfsr	1,11
  5188   001D6E  50DE               	movf	postinc2,w,c
  5189   001D70  26E1               	addwf	fsr1l,f,c
  5190   001D72  50DD               	movf	postdec2,w,c
  5191   001D74  22E2               	addwfc	fsr1h,f,c
  5192   001D76  CFE9 FFE7          	movff	fsr0l,indf1	;volatile
  5193   001D7A  EE26  F086         	lfsr	2,_r_queue+337
  5194   001D7E  EE10 F00E          	lfsr	1,14
  5195   001D82  50DE               	movf	postinc2,w,c
  5196   001D84  26E1               	addwf	fsr1l,f,c
  5197   001D86  50DD               	movf	postdec2,w,c
  5198   001D88  22E2               	addwfc	fsr1h,f,c
  5199   001D8A  CFE2 FFE7          	movff	fsr1h,indf1	;volatile
  5200   001D8E  EE26  F086         	lfsr	2,_r_queue+337
  5201   001D92  EE10 F00D          	lfsr	1,13
  5202   001D96  50DE               	movf	postinc2,w,c
  5203   001D98  26E1               	addwf	fsr1l,f,c
  5204   001D9A  50DD               	movf	postdec2,w,c
  5205   001D9C  22E2               	addwfc	fsr1h,f,c
  5206   001D9E  CFE1 FFE7          	movff	fsr1l,indf1	;volatile
  5207   001DA2  EE26  F086         	lfsr	2,_r_queue+337
  5208   001DA6  EE10 F010          	lfsr	1,16
  5209   001DAA  50DE               	movf	postinc2,w,c
  5210   001DAC  26E1               	addwf	fsr1l,f,c
  5211   001DAE  50DD               	movf	postdec2,w,c
  5212   001DB0  22E2               	addwfc	fsr1h,f,c
  5213   001DB2  CFDA FFE7          	movff	fsr2h,indf1	;volatile
  5214   001DB6  EE26  F086         	lfsr	2,_r_queue+337
  5215   001DBA  EE10 F00F          	lfsr	1,15
  5216   001DBE  50DE               	movf	postinc2,w,c
  5217   001DC0  26E1               	addwf	fsr1l,f,c
  5218   001DC2  50DD               	movf	postdec2,w,c
  5219   001DC4  22E2               	addwfc	fsr1h,f,c
  5220   001DC6  CFD9 FFE7          	movff	fsr2l,indf1	;volatile
  5221   001DCA  EE26  F086         	lfsr	2,_r_queue+337
  5222   001DCE  EE10 F015          	lfsr	1,21
  5223   001DD2  50DE               	movf	postinc2,w,c
  5224   001DD4  26E1               	addwf	fsr1l,f,c
  5225   001DD6  50DD               	movf	postdec2,w,c
  5226   001DD8  22E2               	addwfc	fsr1h,f,c
  5227   001DDA  CFFA FFE7          	movff	pclath,indf1	;volatile
  5228   001DDE  EE26  F086         	lfsr	2,_r_queue+337
  5229   001DE2  EE10 F016          	lfsr	1,22
  5230   001DE6  50DE               	movf	postinc2,w,c
  5231   001DE8  26E1               	addwf	fsr1l,f,c
  5232   001DEA  50DD               	movf	postdec2,w,c
  5233   001DEC  22E2               	addwfc	fsr1h,f,c
  5234   001DEE  CFFB FFE7          	movff	pclatu,indf1	;volatile
  5235   001DF2  EE26  F086         	lfsr	2,_r_queue+337
  5236   001DF6  EE10 F00A          	lfsr	1,10
  5237   001DFA  50DE               	movf	postinc2,w,c
  5238   001DFC  26E1               	addwf	fsr1l,f,c
  5239   001DFE  50DD               	movf	postdec2,w,c
  5240   001E00  22E2               	addwfc	fsr1h,f,c
  5241   001E02  CFF4 FFE7          	movff	prodh,indf1	;volatile
  5242   001E06  EE26  F086         	lfsr	2,_r_queue+337
  5243   001E0A  EE10 F009          	lfsr	1,9
  5244   001E0E  50DE               	movf	postinc2,w,c
  5245   001E10  26E1               	addwf	fsr1l,f,c
  5246   001E12  50DD               	movf	postdec2,w,c
  5247   001E14  22E2               	addwfc	fsr1h,f,c
  5248   001E16  CFF3 FFE7          	movff	prodl,indf1	;volatile
  5249   001E1A  EE26  F086         	lfsr	2,_r_queue+337
  5250   001E1E  EE10 F011          	lfsr	1,17
  5251   001E22  50DE               	movf	postinc2,w,c
  5252   001E24  26E1               	addwf	fsr1l,f,c
  5253   001E26  50DD               	movf	postdec2,w,c
  5254   001E28  22E2               	addwfc	fsr1h,f,c
  5255   001E2A  CFF5 FFE7          	movff	tablat,indf1	;volatile
  5256   001E2E  EE26  F086         	lfsr	2,_r_queue+337
  5257   001E32  EE10 F013          	lfsr	1,19
  5258   001E36  50DE               	movf	postinc2,w,c
  5259   001E38  26E1               	addwf	fsr1l,f,c
  5260   001E3A  50DD               	movf	postdec2,w,c
  5261   001E3C  22E2               	addwfc	fsr1h,f,c
  5262   001E3E  CFF7 FFE7          	movff	tblptrh,indf1	;volatile
  5263   001E42  EE26  F086         	lfsr	2,_r_queue+337
  5264   001E46  EE10 F012          	lfsr	1,18
  5265   001E4A  50DE               	movf	postinc2,w,c
  5266   001E4C  26E1               	addwf	fsr1l,f,c
  5267   001E4E  50DD               	movf	postdec2,w,c
  5268   001E50  22E2               	addwfc	fsr1h,f,c
  5269   001E52  CFF6 FFE7          	movff	tblptrl,indf1	;volatile
  5270   001E56  EE26  F086         	lfsr	2,_r_queue+337
  5271   001E5A  EE10 F014          	lfsr	1,20
  5272   001E5E  50DE               	movf	postinc2,w,c
  5273   001E60  26E1               	addwf	fsr1l,f,c
  5274   001E62  50DD               	movf	postdec2,w,c
  5275   001E64  22E2               	addwfc	fsr1h,f,c
  5276   001E66  CFF8 FFE7          	movff	tblptru,indf1	;volatile
  5277   001E6A  EE26  F086         	lfsr	2,_r_queue+337
  5278   001E6E  EE10 F006          	lfsr	1,6
  5279   001E72  50DE               	movf	postinc2,w,c
  5280   001E74  26E1               	addwf	fsr1l,f,c
  5281   001E76  50DD               	movf	postdec2,w,c
  5282   001E78  22E2               	addwfc	fsr1h,f,c
  5283   001E7A  CFE8 FFE7          	movff	wreg,indf1	;volatile
  5284   001E7E  EE26  F086         	lfsr	2,_r_queue+337
  5285   001E82  EE10 F007          	lfsr	1,7
  5286   001E86  50DE               	movf	postinc2,w,c
  5287   001E88  26E1               	addwf	fsr1l,f,c
  5288   001E8A  50DD               	movf	postdec2,w,c
  5289   001E8C  22E2               	addwfc	fsr1h,f,c
  5290   001E8E  CFD8 FFE7          	movff	status,indf1	;volatile
  5291   001E92  EE26  F086         	lfsr	2,_r_queue+337
  5292   001E96  EE10 F02F          	lfsr	1,47
  5293   001E9A  50DE               	movf	postinc2,w,c
  5294   001E9C  26E1               	addwf	fsr1l,f,c
  5295   001E9E  50DD               	movf	postdec2,w,c
  5296   001EA0  22E2               	addwfc	fsr1h,f,c
  5297   001EA2  6AE7               	clrf	indf1,c
  5298   001EA4  EFCB  F00F         	goto	i1l4742
  5299   001EA8                     i1l4738:
  5300   001EA8  EE26  F086         	lfsr	2,_r_queue+337
  5301   001EAC  EE10 F02F          	lfsr	1,47
  5302   001EB0  50DE               	movf	postinc2,w,c
  5303   001EB2  26E1               	addwf	fsr1l,f,c
  5304   001EB4  50DD               	movf	postdec2,w,c
  5305   001EB6  22E2               	addwfc	fsr1h,f,c
  5306   001EB8  50E7               	movf	indf1,w,c
  5307   001EBA  0102               	movlb	2	; () banked
  5308   001EBC  6F78               	movwf	??_os_delay& (0+255),b
  5309   001EBE  5178               	movf	??_os_delay& (0+255),w,b
  5310   001EC0  0D03               	mullw	3
  5311   001EC2  CFF3 F279          	movff	prodl,??_os_delay+1
  5312   001EC6  CFF4 F27A          	movff	prodh,??_os_delay+2
  5313   001ECA  EE26  F086         	lfsr	2,_r_queue+337
  5314   001ECE  CFDE F27B          	movff	postinc2,??_os_delay+3
  5315   001ED2  CFDD F27C          	movff	postdec2,??_os_delay+4
  5316   001ED6  5179               	movf	(??_os_delay+1)& (0+255),w,b
  5317   001ED8  257B               	addwf	(??_os_delay+3)& (0+255),w,b
  5318   001EDA  6F7D               	movwf	(??_os_delay+5)& (0+255),b
  5319   001EDC  517A               	movf	(??_os_delay+2)& (0+255),w,b
  5320   001EDE  217C               	addwfc	(??_os_delay+4)& (0+255),w,b
  5321   001EE0  6F7E               	movwf	(??_os_delay+6)& (0+255),b
  5322   001EE2  0E17               	movlw	23
  5323   001EE4  257D               	addwf	(??_os_delay+5)& (0+255),w,b
  5324   001EE6  6ED9               	movwf	fsr2l,c
  5325   001EE8  0E00               	movlw	0
  5326   001EEA  217E               	addwfc	(??_os_delay+6)& (0+255),w,b
  5327   001EEC  6EDA               	movwf	fsr2h,c
  5328   001EEE  CFFD FFDF          	movff	tosl,indf2	;volatile
  5329   001EF2  EE26  F086         	lfsr	2,_r_queue+337
  5330   001EF6  EE10 F02F          	lfsr	1,47
  5331   001EFA  50DE               	movf	postinc2,w,c
  5332   001EFC  26E1               	addwf	fsr1l,f,c
  5333   001EFE  50DD               	movf	postdec2,w,c
  5334   001F00  22E2               	addwfc	fsr1h,f,c
  5335   001F02  50E7               	movf	indf1,w,c
  5336   001F04  6F78               	movwf	??_os_delay& (0+255),b
  5337   001F06  5178               	movf	??_os_delay& (0+255),w,b
  5338   001F08  0D03               	mullw	3
  5339   001F0A  CFF3 F279          	movff	prodl,??_os_delay+1
  5340   001F0E  CFF4 F27A          	movff	prodh,??_os_delay+2
  5341   001F12  EE26  F086         	lfsr	2,_r_queue+337
  5342   001F16  CFDE F27B          	movff	postinc2,??_os_delay+3
  5343   001F1A  CFDD F27C          	movff	postdec2,??_os_delay+4
  5344   001F1E  5179               	movf	(??_os_delay+1)& (0+255),w,b
  5345   001F20  257B               	addwf	(??_os_delay+3)& (0+255),w,b
  5346   001F22  6F7D               	movwf	(??_os_delay+5)& (0+255),b
  5347   001F24  517A               	movf	(??_os_delay+2)& (0+255),w,b
  5348   001F26  217C               	addwfc	(??_os_delay+4)& (0+255),w,b
  5349   001F28  6F7E               	movwf	(??_os_delay+6)& (0+255),b
  5350   001F2A  0E18               	movlw	24
  5351   001F2C  257D               	addwf	(??_os_delay+5)& (0+255),w,b
  5352   001F2E  6ED9               	movwf	fsr2l,c
  5353   001F30  0E00               	movlw	0
  5354   001F32  217E               	addwfc	(??_os_delay+6)& (0+255),w,b
  5355   001F34  6EDA               	movwf	fsr2h,c
  5356   001F36  CFFE FFDF          	movff	tosh,indf2	;volatile
  5357   001F3A  EE26  F086         	lfsr	2,_r_queue+337
  5358   001F3E  EE10 F02F          	lfsr	1,47
  5359   001F42  50DE               	movf	postinc2,w,c
  5360   001F44  26E1               	addwf	fsr1l,f,c
  5361   001F46  50DD               	movf	postdec2,w,c
  5362   001F48  22E2               	addwfc	fsr1h,f,c
  5363   001F4A  50E7               	movf	indf1,w,c
  5364   001F4C  6F78               	movwf	??_os_delay& (0+255),b
  5365   001F4E  5178               	movf	??_os_delay& (0+255),w,b
  5366   001F50  0D03               	mullw	3
  5367   001F52  CFF3 F279          	movff	prodl,??_os_delay+1
  5368   001F56  CFF4 F27A          	movff	prodh,??_os_delay+2
  5369   001F5A  EE26  F086         	lfsr	2,_r_queue+337
  5370   001F5E  CFDE F27B          	movff	postinc2,??_os_delay+3
  5371   001F62  CFDD F27C          	movff	postdec2,??_os_delay+4
  5372   001F66  5179               	movf	(??_os_delay+1)& (0+255),w,b
  5373   001F68  257B               	addwf	(??_os_delay+3)& (0+255),w,b
  5374   001F6A  6F7D               	movwf	(??_os_delay+5)& (0+255),b
  5375   001F6C  517A               	movf	(??_os_delay+2)& (0+255),w,b
  5376   001F6E  217C               	addwfc	(??_os_delay+4)& (0+255),w,b
  5377   001F70  6F7E               	movwf	(??_os_delay+6)& (0+255),b
  5378   001F72  0E19               	movlw	25
  5379   001F74  257D               	addwf	(??_os_delay+5)& (0+255),w,b
  5380   001F76  6ED9               	movwf	fsr2l,c
  5381   001F78  0E00               	movlw	0
  5382   001F7A  217E               	addwfc	(??_os_delay+6)& (0+255),w,b
  5383   001F7C  6EDA               	movwf	fsr2h,c
  5384   001F7E  CFFF FFDF          	movff	tosu,indf2	;volatile
  5385   001F82                     
  5386                           ; BSR set to: 2
  5387   001F82  EE26  F086         	lfsr	2,_r_queue+337
  5388   001F86  EE10 F02F          	lfsr	1,47
  5389   001F8A  50DE               	movf	postinc2,w,c
  5390   001F8C  26E1               	addwf	fsr1l,f,c
  5391   001F8E  50DD               	movf	postdec2,w,c
  5392   001F90  22E2               	addwfc	fsr1h,f,c
  5393   001F92  2AE7               	incf	indf1,f,c
  5394   001F94  0006               	pop		;# 
  5395   001F96                     i1l4742:
  5396   001F96  50FC               	movf	252,w,c	;volatile
  5397   001F98  A4D8               	btfss	status,2,c
  5398   001F9A  EFD1  F00F         	goto	i1u461_21
  5399   001F9E  EFD3  F00F         	goto	i1u461_20
  5400   001FA2                     i1u461_21:
  5401   001FA2  EF54  F00F         	goto	i1l4738
  5402   001FA6                     i1u461_20:
  5403   001FA6                     i1l4744:
  5404                           
  5405                           ;kernel.c: 15:     r_queue.TASKS[r_queue.pos_task_running].task_delay = time;
  5406   001FA6  C688  F278         	movff	_r_queue+339,??_os_delay
  5407   001FAA  0102               	movlb	2	; () banked
  5408   001FAC  5178               	movf	??_os_delay& (0+255),w,b
  5409   001FAE  0D30               	mullw	48
  5410   001FB0  0E39               	movlw	low (_r_queue+4)
  5411   001FB2  24F3               	addwf	243,w,c
  5412   001FB4  6ED9               	movwf	fsr2l,c
  5413   001FB6  0E05               	movlw	high (_r_queue+4)
  5414   001FB8  20F4               	addwfc	prodh,w,c
  5415   001FBA  6EDA               	movwf	fsr2h,c
  5416   001FBC  C27F  FFDF         	movff	os_delay@time,indf2
  5417   001FC0                     
  5418                           ; BSR set to: 2
  5419                           ;kernel.c: 16:     scheduler();
  5420   001FC0  EC8E  F018         	call	i1_scheduler	;wreg free
  5421   001FC4  EE26  F086         	lfsr	2,_r_queue+337
  5422   001FC8  EE10 F001          	lfsr	1,1
  5423   001FCC  50DE               	movf	postinc2,w,c
  5424   001FCE  26E1               	addwf	fsr1l,f,c
  5425   001FD0  50DD               	movf	postdec2,w,c
  5426   001FD2  22E2               	addwfc	fsr1h,f,c
  5427   001FD4  50E7               	movf	indf1,w,c
  5428   001FD6  A4D8               	btfss	status,2,c
  5429   001FD8  EFF0  F00F         	goto	i1u462_21
  5430   001FDC  EFF2  F00F         	goto	i1u462_20
  5431   001FE0                     i1u462_21:
  5432   001FE0  EF89  F011         	goto	i1l4768
  5433   001FE4                     i1u462_20:
  5434   001FE4  EE26  F086         	lfsr	2,_r_queue+337
  5435   001FE8  EE10 F001          	lfsr	1,1
  5436   001FEC  50DE               	movf	postinc2,w,c
  5437   001FEE  26E1               	addwf	fsr1l,f,c
  5438   001FF0  50DD               	movf	postdec2,w,c
  5439   001FF2  22E2               	addwfc	fsr1h,f,c
  5440   001FF4  0E02               	movlw	2
  5441   001FF6  6EE7               	movwf	indf1,c
  5442   001FF8  EE26  F086         	lfsr	2,_r_queue+337
  5443   001FFC  EE10 F008          	lfsr	1,8
  5444   002000  50DE               	movf	postinc2,w,c
  5445   002002  26E1               	addwf	fsr1l,f,c
  5446   002004  50DD               	movf	postdec2,w,c
  5447   002006  22E2               	addwfc	fsr1h,f,c
  5448   002008  50E7               	movf	indf1,w,c
  5449   00200A  6EE0               	movwf	224,c	;volatile
  5450   00200C  EE26  F086         	lfsr	2,_r_queue+337
  5451   002010  EE10 F00C          	lfsr	1,12
  5452   002014  50DE               	movf	postinc2,w,c
  5453   002016  26E1               	addwf	fsr1l,f,c
  5454   002018  50DD               	movf	postdec2,w,c
  5455   00201A  22E2               	addwfc	fsr1h,f,c
  5456   00201C  50E7               	movf	indf1,w,c
  5457   00201E  6EEA               	movwf	234,c	;volatile
  5458   002020  EE26  F086         	lfsr	2,_r_queue+337
  5459   002024  EE10 F00B          	lfsr	1,11
  5460   002028  50DE               	movf	postinc2,w,c
  5461   00202A  26E1               	addwf	fsr1l,f,c
  5462   00202C  50DD               	movf	postdec2,w,c
  5463   00202E  22E2               	addwfc	fsr1h,f,c
  5464   002030  50E7               	movf	indf1,w,c
  5465   002032  6EE9               	movwf	233,c	;volatile
  5466   002034  EE26  F086         	lfsr	2,_r_queue+337
  5467   002038  EE10 F00E          	lfsr	1,14
  5468   00203C  50DE               	movf	postinc2,w,c
  5469   00203E  26E1               	addwf	fsr1l,f,c
  5470   002040  50DD               	movf	postdec2,w,c
  5471   002042  22E2               	addwfc	fsr1h,f,c
  5472   002044  50E7               	movf	indf1,w,c
  5473   002046  6EE2               	movwf	226,c	;volatile
  5474   002048  EE26  F086         	lfsr	2,_r_queue+337
  5475   00204C  EE10 F00D          	lfsr	1,13
  5476   002050  50DE               	movf	postinc2,w,c
  5477   002052  26E1               	addwf	fsr1l,f,c
  5478   002054  50DD               	movf	postdec2,w,c
  5479   002056  22E2               	addwfc	fsr1h,f,c
  5480   002058  50E7               	movf	indf1,w,c
  5481   00205A  6EE1               	movwf	225,c	;volatile
  5482   00205C  EE26  F086         	lfsr	2,_r_queue+337
  5483   002060  EE10 F010          	lfsr	1,16
  5484   002064  50DE               	movf	postinc2,w,c
  5485   002066  26E1               	addwf	fsr1l,f,c
  5486   002068  50DD               	movf	postdec2,w,c
  5487   00206A  22E2               	addwfc	fsr1h,f,c
  5488   00206C  50E7               	movf	indf1,w,c
  5489   00206E  6EDA               	movwf	218,c	;volatile
  5490   002070  EE26  F086         	lfsr	2,_r_queue+337
  5491   002074  EE10 F00F          	lfsr	1,15
  5492   002078  50DE               	movf	postinc2,w,c
  5493   00207A  26E1               	addwf	fsr1l,f,c
  5494   00207C  50DD               	movf	postdec2,w,c
  5495   00207E  22E2               	addwfc	fsr1h,f,c
  5496   002080  50E7               	movf	indf1,w,c
  5497   002082  6ED9               	movwf	217,c	;volatile
  5498   002084  EE26  F086         	lfsr	2,_r_queue+337
  5499   002088  EE10 F015          	lfsr	1,21
  5500   00208C  50DE               	movf	postinc2,w,c
  5501   00208E  26E1               	addwf	fsr1l,f,c
  5502   002090  50DD               	movf	postdec2,w,c
  5503   002092  22E2               	addwfc	fsr1h,f,c
  5504   002094  50E7               	movf	indf1,w,c
  5505   002096  6EFA               	movwf	250,c	;volatile
  5506   002098  EE26  F086         	lfsr	2,_r_queue+337
  5507   00209C  EE10 F016          	lfsr	1,22
  5508   0020A0  50DE               	movf	postinc2,w,c
  5509   0020A2  26E1               	addwf	fsr1l,f,c
  5510   0020A4  50DD               	movf	postdec2,w,c
  5511   0020A6  22E2               	addwfc	fsr1h,f,c
  5512   0020A8  50E7               	movf	indf1,w,c
  5513   0020AA  6EFB               	movwf	251,c	;volatile
  5514   0020AC  EE26  F086         	lfsr	2,_r_queue+337
  5515   0020B0  EE10 F00A          	lfsr	1,10
  5516   0020B4  50DE               	movf	postinc2,w,c
  5517   0020B6  26E1               	addwf	fsr1l,f,c
  5518   0020B8  50DD               	movf	postdec2,w,c
  5519   0020BA  22E2               	addwfc	fsr1h,f,c
  5520   0020BC  50E7               	movf	indf1,w,c
  5521   0020BE  6EF4               	movwf	244,c	;volatile
  5522   0020C0  EE26  F086         	lfsr	2,_r_queue+337
  5523   0020C4  EE10 F009          	lfsr	1,9
  5524   0020C8  50DE               	movf	postinc2,w,c
  5525   0020CA  26E1               	addwf	fsr1l,f,c
  5526   0020CC  50DD               	movf	postdec2,w,c
  5527   0020CE  22E2               	addwfc	fsr1h,f,c
  5528   0020D0  50E7               	movf	indf1,w,c
  5529   0020D2  6EF3               	movwf	243,c	;volatile
  5530   0020D4  EE26  F086         	lfsr	2,_r_queue+337
  5531   0020D8  EE10 F011          	lfsr	1,17
  5532   0020DC  50DE               	movf	postinc2,w,c
  5533   0020DE  26E1               	addwf	fsr1l,f,c
  5534   0020E0  50DD               	movf	postdec2,w,c
  5535   0020E2  22E2               	addwfc	fsr1h,f,c
  5536   0020E4  50E7               	movf	indf1,w,c
  5537   0020E6  6EF5               	movwf	245,c	;volatile
  5538   0020E8  EE26  F086         	lfsr	2,_r_queue+337
  5539   0020EC  EE10 F013          	lfsr	1,19
  5540   0020F0  50DE               	movf	postinc2,w,c
  5541   0020F2  26E1               	addwf	fsr1l,f,c
  5542   0020F4  50DD               	movf	postdec2,w,c
  5543   0020F6  22E2               	addwfc	fsr1h,f,c
  5544   0020F8  50E7               	movf	indf1,w,c
  5545   0020FA  6EF7               	movwf	247,c	;volatile
  5546   0020FC  EE26  F086         	lfsr	2,_r_queue+337
  5547   002100  EE10 F012          	lfsr	1,18
  5548   002104  50DE               	movf	postinc2,w,c
  5549   002106  26E1               	addwf	fsr1l,f,c
  5550   002108  50DD               	movf	postdec2,w,c
  5551   00210A  22E2               	addwfc	fsr1h,f,c
  5552   00210C  50E7               	movf	indf1,w,c
  5553   00210E  6EF6               	movwf	246,c	;volatile
  5554   002110  EE26  F086         	lfsr	2,_r_queue+337
  5555   002114  EE10 F014          	lfsr	1,20
  5556   002118  50DE               	movf	postinc2,w,c
  5557   00211A  26E1               	addwf	fsr1l,f,c
  5558   00211C  50DD               	movf	postdec2,w,c
  5559   00211E  22E2               	addwfc	fsr1h,f,c
  5560   002120  50E7               	movf	indf1,w,c
  5561   002122  6EF8               	movwf	248,c	;volatile
  5562   002124  EE26  F086         	lfsr	2,_r_queue+337
  5563   002128  EE10 F007          	lfsr	1,7
  5564   00212C  50DE               	movf	postinc2,w,c
  5565   00212E  26E1               	addwf	fsr1l,f,c
  5566   002130  50DD               	movf	postdec2,w,c
  5567   002132  22E2               	addwfc	fsr1h,f,c
  5568   002134  50E7               	movf	indf1,w,c
  5569   002136  6ED8               	movwf	216,c	;volatile
  5570   002138  EE26  F086         	lfsr	2,_r_queue+337
  5571   00213C  EE10 F006          	lfsr	1,6
  5572   002140  50DE               	movf	postinc2,w,c
  5573   002142  26E1               	addwf	fsr1l,f,c
  5574   002144  50DD               	movf	postdec2,w,c
  5575   002146  22E2               	addwfc	fsr1h,f,c
  5576   002148  50E7               	movf	indf1,w,c
  5577   00214A  0102               	movlb	2	; () banked
  5578   00214C  6F78               	movwf	??_os_delay& (0+255),b
  5579   00214E  5178               	movf	??_os_delay& (0+255),w,b
  5580   002150                     
  5581                           ; BSR set to: 2
  5582   002150  6AFC               	clrf	252,c	;volatile
  5583   002152  EE26  F086         	lfsr	2,_r_queue+337
  5584   002156  EE10 F02F          	lfsr	1,47
  5585   00215A  50DE               	movf	postinc2,w,c
  5586   00215C  26E1               	addwf	fsr1l,f,c
  5587   00215E  50DD               	movf	postdec2,w,c
  5588   002160  22E2               	addwfc	fsr1h,f,c
  5589   002162  50E7               	movf	indf1,w,c
  5590   002164  B4D8               	btfsc	status,2,c
  5591   002166  EFB7  F010         	goto	i1u463_21
  5592   00216A  EFB9  F010         	goto	i1u463_20
  5593   00216E                     i1u463_21:
  5594   00216E  EF42  F011         	goto	i1l93
  5595   002172                     i1u463_20:
  5596   002172                     i1l94:
  5597                           
  5598                           ; BSR set to: 2
  5599   002172  0005               	push		;# 
  5600   002174  EE26  F086         	lfsr	2,_r_queue+337
  5601   002178  EE10 F02F          	lfsr	1,47
  5602   00217C  50DE               	movf	postinc2,w,c
  5603   00217E  26E1               	addwf	fsr1l,f,c
  5604   002180  50DD               	movf	postdec2,w,c
  5605   002182  22E2               	addwfc	fsr1h,f,c
  5606   002184  06E7               	decf	indf1,f,c
  5607   002186  EE26  F086         	lfsr	2,_r_queue+337
  5608   00218A  EE10 F02F          	lfsr	1,47
  5609   00218E  50DE               	movf	postinc2,w,c
  5610   002190  26E1               	addwf	fsr1l,f,c
  5611   002192  50DD               	movf	postdec2,w,c
  5612   002194  22E2               	addwfc	fsr1h,f,c
  5613   002196  50E7               	movf	indf1,w,c
  5614   002198  0102               	movlb	2	; () banked
  5615   00219A  6F78               	movwf	??_os_delay& (0+255),b
  5616   00219C  5178               	movf	??_os_delay& (0+255),w,b
  5617   00219E  0D03               	mullw	3
  5618   0021A0  CFF3 F279          	movff	prodl,??_os_delay+1
  5619   0021A4  CFF4 F27A          	movff	prodh,??_os_delay+2
  5620   0021A8  EE26  F086         	lfsr	2,_r_queue+337
  5621   0021AC  CFDE F27B          	movff	postinc2,??_os_delay+3
  5622   0021B0  CFDD F27C          	movff	postdec2,??_os_delay+4
  5623   0021B4  5179               	movf	(??_os_delay+1)& (0+255),w,b
  5624   0021B6  257B               	addwf	(??_os_delay+3)& (0+255),w,b
  5625   0021B8  6F7D               	movwf	(??_os_delay+5)& (0+255),b
  5626   0021BA  517A               	movf	(??_os_delay+2)& (0+255),w,b
  5627   0021BC  217C               	addwfc	(??_os_delay+4)& (0+255),w,b
  5628   0021BE  6F7E               	movwf	(??_os_delay+6)& (0+255),b
  5629   0021C0  0E17               	movlw	23
  5630   0021C2  257D               	addwf	(??_os_delay+5)& (0+255),w,b
  5631   0021C4  6ED9               	movwf	fsr2l,c
  5632   0021C6  0E00               	movlw	0
  5633   0021C8  217E               	addwfc	(??_os_delay+6)& (0+255),w,b
  5634   0021CA  6EDA               	movwf	fsr2h,c
  5635   0021CC  50DF               	movf	indf2,w,c
  5636   0021CE  6EFD               	movwf	253,c	;volatile
  5637   0021D0                     
  5638                           ; BSR set to: 2
  5639   0021D0  EE26  F086         	lfsr	2,_r_queue+337
  5640   0021D4  EE10 F02F          	lfsr	1,47
  5641   0021D8  50DE               	movf	postinc2,w,c
  5642   0021DA  26E1               	addwf	fsr1l,f,c
  5643   0021DC  50DD               	movf	postdec2,w,c
  5644   0021DE  22E2               	addwfc	fsr1h,f,c
  5645   0021E0  50E7               	movf	indf1,w,c
  5646   0021E2  6F78               	movwf	??_os_delay& (0+255),b
  5647   0021E4  5178               	movf	??_os_delay& (0+255),w,b
  5648   0021E6  0D03               	mullw	3
  5649   0021E8  CFF3 F279          	movff	prodl,??_os_delay+1
  5650   0021EC  CFF4 F27A          	movff	prodh,??_os_delay+2
  5651   0021F0  EE26  F086         	lfsr	2,_r_queue+337
  5652   0021F4  CFDE F27B          	movff	postinc2,??_os_delay+3
  5653   0021F8  CFDD F27C          	movff	postdec2,??_os_delay+4
  5654   0021FC  5179               	movf	(??_os_delay+1)& (0+255),w,b
  5655   0021FE  257B               	addwf	(??_os_delay+3)& (0+255),w,b
  5656   002200  6F7D               	movwf	(??_os_delay+5)& (0+255),b
  5657   002202  517A               	movf	(??_os_delay+2)& (0+255),w,b
  5658   002204  217C               	addwfc	(??_os_delay+4)& (0+255),w,b
  5659   002206  6F7E               	movwf	(??_os_delay+6)& (0+255),b
  5660   002208  0E18               	movlw	24
  5661   00220A  257D               	addwf	(??_os_delay+5)& (0+255),w,b
  5662   00220C  6ED9               	movwf	fsr2l,c
  5663   00220E  0E00               	movlw	0
  5664   002210  217E               	addwfc	(??_os_delay+6)& (0+255),w,b
  5665   002212  6EDA               	movwf	fsr2h,c
  5666   002214  50DF               	movf	indf2,w,c
  5667   002216  6EFE               	movwf	254,c	;volatile
  5668   002218                     
  5669                           ; BSR set to: 2
  5670   002218  EE26  F086         	lfsr	2,_r_queue+337
  5671   00221C  EE10 F02F          	lfsr	1,47
  5672   002220  50DE               	movf	postinc2,w,c
  5673   002222  26E1               	addwf	fsr1l,f,c
  5674   002224  50DD               	movf	postdec2,w,c
  5675   002226  22E2               	addwfc	fsr1h,f,c
  5676   002228  50E7               	movf	indf1,w,c
  5677   00222A  6F78               	movwf	??_os_delay& (0+255),b
  5678   00222C  5178               	movf	??_os_delay& (0+255),w,b
  5679   00222E  0D03               	mullw	3
  5680   002230  CFF3 F279          	movff	prodl,??_os_delay+1
  5681   002234  CFF4 F27A          	movff	prodh,??_os_delay+2
  5682   002238  EE26  F086         	lfsr	2,_r_queue+337
  5683   00223C  CFDE F27B          	movff	postinc2,??_os_delay+3
  5684   002240  CFDD F27C          	movff	postdec2,??_os_delay+4
  5685   002244  5179               	movf	(??_os_delay+1)& (0+255),w,b
  5686   002246  257B               	addwf	(??_os_delay+3)& (0+255),w,b
  5687   002248  6F7D               	movwf	(??_os_delay+5)& (0+255),b
  5688   00224A  517A               	movf	(??_os_delay+2)& (0+255),w,b
  5689   00224C  217C               	addwfc	(??_os_delay+4)& (0+255),w,b
  5690   00224E  6F7E               	movwf	(??_os_delay+6)& (0+255),b
  5691   002250  0E19               	movlw	25
  5692   002252  257D               	addwf	(??_os_delay+5)& (0+255),w,b
  5693   002254  6ED9               	movwf	fsr2l,c
  5694   002256  0E00               	movlw	0
  5695   002258  217E               	addwfc	(??_os_delay+6)& (0+255),w,b
  5696   00225A  6EDA               	movwf	fsr2h,c
  5697   00225C  50DF               	movf	indf2,w,c
  5698   00225E  6EFF               	movwf	255,c	;volatile
  5699   002260                     
  5700                           ; BSR set to: 2
  5701   002260  EE26  F086         	lfsr	2,_r_queue+337
  5702   002264  EE10 F02F          	lfsr	1,47
  5703   002268  50DE               	movf	postinc2,w,c
  5704   00226A  26E1               	addwf	fsr1l,f,c
  5705   00226C  50DD               	movf	postdec2,w,c
  5706   00226E  22E2               	addwfc	fsr1h,f,c
  5707   002270  50E7               	movf	indf1,w,c
  5708   002272  A4D8               	btfss	status,2,c
  5709   002274  EF3E  F011         	goto	i1u464_21
  5710   002278  EF40  F011         	goto	i1u464_20
  5711   00227C                     i1u464_21:
  5712   00227C  EFB9  F010         	goto	i1l94
  5713   002280                     i1u464_20:
  5714   002280  EF87  F011         	goto	i1l4766
  5715   002284                     i1l93:
  5716                           
  5717                           ; BSR set to: 2
  5718   002284  0005               	push		;# 
  5719   002286  EE26  F086         	lfsr	2,_r_queue+337
  5720   00228A  EE10 F002          	lfsr	1,2
  5721   00228E  50DE               	movf	postinc2,w,c
  5722   002290  26E1               	addwf	fsr1l,f,c
  5723   002292  50DD               	movf	postdec2,w,c
  5724   002294  22E2               	addwfc	fsr1h,f,c
  5725   002296  50E7               	movf	indf1,w,c
  5726   002298  6EFD               	movwf	253,c	;volatile
  5727   00229A  EE26  F086         	lfsr	2,_r_queue+337
  5728   00229E  EE10 F002          	lfsr	1,2
  5729   0022A2  50DE               	movf	postinc2,w,c
  5730   0022A4  26E1               	addwf	fsr1l,f,c
  5731   0022A6  50DD               	movf	postdec2,w,c
  5732   0022A8  22E2               	addwfc	fsr1h,f,c
  5733   0022AA  CFE6 F278          	movff	postinc1,??_os_delay
  5734   0022AE  CFE5 F279          	movff	postdec1,??_os_delay+1
  5735   0022B2  C278  F27A         	movff	??_os_delay,??_os_delay+2
  5736   0022B6  C279  F27B         	movff	??_os_delay+1,??_os_delay+3
  5737   0022BA  0102               	movlb	2	; () banked
  5738   0022BC  6B7C               	clrf	(??_os_delay+4)& (0+255),b
  5739   0022BE  C27B  F27A         	movff	??_os_delay+3,??_os_delay+2
  5740   0022C2  C27C  F27B         	movff	??_os_delay+4,??_os_delay+3
  5741   0022C6  6B7C               	clrf	(??_os_delay+4)& (0+255),b
  5742   0022C8  517A               	movf	(??_os_delay+2)& (0+255),w,b
  5743   0022CA  6EFE               	movwf	254,c	;volatile
  5744   0022CC  0E10               	movlw	16
  5745   0022CE  6F78               	movwf	??_os_delay& (0+255),b
  5746   0022D0  EE26  F086         	lfsr	2,_r_queue+337
  5747   0022D4  EE10 F002          	lfsr	1,2
  5748   0022D8  50DE               	movf	postinc2,w,c
  5749   0022DA  26E1               	addwf	fsr1l,f,c
  5750   0022DC  50DD               	movf	postdec2,w,c
  5751   0022DE  22E2               	addwfc	fsr1h,f,c
  5752   0022E0  CFE6 F279          	movff	postinc1,??_os_delay+1
  5753   0022E4  CFE5 F27A          	movff	postdec1,??_os_delay+2
  5754   0022E8  C279  F27B         	movff	??_os_delay+1,??_os_delay+3
  5755   0022EC  C27A  F27C         	movff	??_os_delay+2,??_os_delay+4
  5756   0022F0  6B7D               	clrf	(??_os_delay+5)& (0+255),b
  5757   0022F2  2978               	incf	??_os_delay& (0+255),w,b
  5758   0022F4  6F7E               	movwf	(??_os_delay+6)& (0+255),b
  5759   0022F6  EF81  F011         	goto	i1u465_20
  5760   0022FA                     i1u465_25:
  5761   0022FA  90D8               	bcf	status,0,c
  5762   0022FC  337D               	rrcf	(??_os_delay+5)& (0+255),f,b
  5763   0022FE  337C               	rrcf	(??_os_delay+4)& (0+255),f,b
  5764   002300  337B               	rrcf	(??_os_delay+3)& (0+255),f,b
  5765   002302                     i1u465_20:
  5766   002302  2F7E               	decfsz	(??_os_delay+6)& (0+255),f,b
  5767   002304  EF7D  F011         	goto	i1u465_25
  5768   002308  0102               	movlb	2	; () banked
  5769   00230A  517B               	movf	(??_os_delay+3)& (0+255),w,b
  5770   00230C  6EFF               	movwf	255,c	;volatile
  5771   00230E                     i1l4766:
  5772                           
  5773                           ; BSR set to: 2
  5774   00230E  0E14               	movlw	20
  5775   002310  6E47               	movwf	_rr_quantum^0,c
  5776   002312                     i1l4768:
  5777                           
  5778                           ;kernel.c: 19:     INTCONbits.GIE = 1;;
  5779   002312  8EF2               	bsf	242,7,c	;volatile
  5780   002314  0012               	return		;funcret
  5781   002316                     __end_of_os_delay:
  5782                           	callstack 0
  5783                           
  5784 ;; *************** function _mutex_unlock *****************
  5785 ;; Defined at:
  5786 ;;		line 69 in file "sync.c"
  5787 ;; Parameters:    Size  Location     Type
  5788 ;;  m               1   48[BANK1 ] PTR struct mutex
  5789 ;;		 -> m_led(11), 
  5790 ;; Auto vars:     Size  Location     Type
  5791 ;;  task_idx        1   51[BANK1 ] unsigned char 
  5792 ;; Return value:  Size  Location     Type
  5793 ;;                  1    wreg      void 
  5794 ;; Registers used:
  5795 ;;		wreg, fsr1l, fsr1h, fsr2l, fsr2h, status,2, status,0, prodl, prodh, cstack
  5796 ;; Tracked objects:
  5797 ;;		On entry : 0/0
  5798 ;;		On exit  : 0/0
  5799 ;;		Unchanged: 0/0
  5800 ;; Data sizes:     COMRAM   BANK0   BANK1   BANK2   BANK3   BANK4   BANK5   BANK6   BANK7   BANK8   BANK9  BANK10  BANK1
      +1  BANK12  BANK13  BANK14  BANK15
  5801 ;;      Params:         0       0       1       0       0       0       0       0       0       0       0       0       
      +0       0       0       0       0
  5802 ;;      Locals:         0       0       1       0       0       0       0       0       0       0       0       0       
      +0       0       0       0       0
  5803 ;;      Temps:          0       0       2       0       0       0       0       0       0       0       0       0       
      +0       0       0       0       0
  5804 ;;      Totals:         0       0       4       0       0       0       0       0       0       0       0       0       
      +0       0       0       0       0
  5805 ;;Total ram usage:        4 bytes
  5806 ;; Hardware stack levels used: 1
  5807 ;; Hardware stack levels required when called: 4
  5808 ;; This function calls:
  5809 ;;		___awmod
  5810 ;; This function is called by:
  5811 ;;		_LED_1
  5812 ;; This function uses a non-reentrant model
  5813 ;;
  5814                           
  5815                           	psect	text19
  5816   002A16                     __ptext19:
  5817                           	callstack 0
  5818   002A16                     _mutex_unlock:
  5819                           	callstack 21
  5820   002A16                     
  5821                           ;sync.c: 70:     INTCONbits.GIE = 0;;
  5822   002A16  9EF2               	bcf	242,7,c	;volatile
  5823   002A18                     
  5824                           ;sync.c: 71:     if(m->locked && m->owner_id == r_queue.task_running->task_id)
  5825   002A18  0101               	movlb	1	; () banked
  5826   002A1A  5130               	movf	mutex_unlock@m& (0+255),w,b
  5827   002A1C  6ED9               	movwf	fsr2l,c
  5828   002A1E  6ADA               	clrf	fsr2h,c
  5829   002A20  50DF               	movf	indf2,w,c
  5830   002A22  B4D8               	btfsc	status,2,c
  5831   002A24  EF16  F015         	goto	i1u399_21
  5832   002A28  EF18  F015         	goto	i1u399_20
  5833   002A2C                     i1u399_21:
  5834   002A2C  EF8A  F015         	goto	i1l4292
  5835   002A30                     i1u399_20:
  5836   002A30                     
  5837                           ; BSR set to: 1
  5838   002A30  C686  FFD9         	movff	_r_queue+337,fsr2l
  5839   002A34  C687  FFDA         	movff	_r_queue+338,fsr2h
  5840   002A38  5130               	movf	mutex_unlock@m& (0+255),w,b
  5841   002A3A  6EE1               	movwf	fsr1l,c
  5842   002A3C  6AE2               	clrf	fsr1h,c
  5843   002A3E  0E01               	movlw	1
  5844   002A40  26E1               	addwf	fsr1l,f,c
  5845   002A42  50DE               	movf	postinc2,w,c
  5846   002A44  18E6               	xorwf	postinc1,w,c
  5847   002A46  A4D8               	btfss	status,2,c
  5848   002A48  EF28  F015         	goto	i1u400_21
  5849   002A4C  EF2A  F015         	goto	i1u400_20
  5850   002A50                     i1u400_21:
  5851   002A50  EF8A  F015         	goto	i1l4292
  5852   002A54                     i1u400_20:
  5853   002A54                     
  5854                           ; BSR set to: 1
  5855                           ;sync.c: 72:     {;sync.c: 73:         if(m->waiting_count>0){
  5856   002A54  5130               	movf	mutex_unlock@m& (0+255),w,b
  5857   002A56  6ED9               	movwf	fsr2l,c
  5858   002A58  6ADA               	clrf	fsr2h,c
  5859   002A5A  0E0A               	movlw	10
  5860   002A5C  26D9               	addwf	fsr2l,f,c
  5861   002A5E  50DF               	movf	indf2,w,c
  5862   002A60  B4D8               	btfsc	status,2,c
  5863   002A62  EF35  F015         	goto	i1u401_21
  5864   002A66  EF37  F015         	goto	i1u401_20
  5865   002A6A                     i1u401_21:
  5866   002A6A  EF80  F015         	goto	i1l4288
  5867   002A6E                     i1u401_20:
  5868   002A6E                     
  5869                           ; BSR set to: 1
  5870                           ;sync.c: 74:             uint8_t task_idx =m->fila[m->pos_output];
  5871   002A6E  5130               	movf	mutex_unlock@m& (0+255),w,b
  5872   002A70  6ED9               	movwf	fsr2l,c
  5873   002A72  6ADA               	clrf	fsr2h,c
  5874   002A74  0E09               	movlw	9
  5875   002A76  26D9               	addwf	fsr2l,f,c
  5876   002A78  50DF               	movf	indf2,w,c
  5877   002A7A  6F31               	movwf	??_mutex_unlock& (0+255),b
  5878   002A7C  5130               	movf	mutex_unlock@m& (0+255),w,b
  5879   002A7E  2531               	addwf	??_mutex_unlock& (0+255),w,b
  5880   002A80  6ED9               	movwf	fsr2l,c
  5881   002A82  6ADA               	clrf	fsr2h,c
  5882   002A84  0E02               	movlw	2
  5883   002A86  26D9               	addwf	fsr2l,f,c
  5884   002A88  50DF               	movf	indf2,w,c
  5885   002A8A  6F33               	movwf	mutex_unlock@task_idx& (0+255),b
  5886   002A8C                     
  5887                           ; BSR set to: 1
  5888                           ;sync.c: 75:             r_queue.TASKS[task_idx].task_state = READY;
  5889   002A8C  5133               	movf	mutex_unlock@task_idx& (0+255),w,b
  5890   002A8E  0D30               	mullw	48
  5891   002A90  0E36               	movlw	low (_r_queue+1)
  5892   002A92  24F3               	addwf	243,w,c
  5893   002A94  6ED9               	movwf	fsr2l,c
  5894   002A96  0E05               	movlw	high (_r_queue+1)
  5895   002A98  20F4               	addwfc	prodh,w,c
  5896   002A9A  6EDA               	movwf	fsr2h,c
  5897   002A9C  6ADF               	clrf	indf2,c
  5898   002A9E                     
  5899                           ; BSR set to: 1
  5900                           ;sync.c: 76:             m->pos_output = (m->pos_output+1)%6;
  5901   002A9E  5130               	movf	mutex_unlock@m& (0+255),w,b
  5902   002AA0  6ED9               	movwf	fsr2l,c
  5903   002AA2  6ADA               	clrf	fsr2h,c
  5904   002AA4  0E09               	movlw	9
  5905   002AA6  26D9               	addwf	fsr2l,f,c
  5906   002AA8  5130               	movf	mutex_unlock@m& (0+255),w,b
  5907   002AAA  6EE1               	movwf	fsr1l,c
  5908   002AAC  6AE2               	clrf	fsr1h,c
  5909   002AAE  0E09               	movlw	9
  5910   002AB0  26E1               	addwf	fsr1l,f,c
  5911   002AB2  50E7               	movf	indf1,w,c
  5912   002AB4  6F31               	movwf	??_mutex_unlock& (0+255),b
  5913   002AB6  0E01               	movlw	1
  5914   002AB8  2531               	addwf	??_mutex_unlock& (0+255),w,b
  5915   002ABA  6F43               	movwf	___awmod@dividend& (0+255),b
  5916   002ABC  6B44               	clrf	(___awmod@dividend+1)& (0+255),b
  5917   002ABE  0E00               	movlw	0
  5918   002AC0  2344               	addwfc	(___awmod@dividend+1)& (0+255),f,b
  5919   002AC2  6B46               	clrf	(___awmod@divisor+1)& (0+255),b
  5920   002AC4  0E06               	movlw	6
  5921   002AC6  6F45               	movwf	___awmod@divisor& (0+255),b
  5922   002AC8  EC8C  F015         	call	___awmod	;wreg free
  5923   002ACC  0101               	movlb	1	; () banked
  5924   002ACE  5143               	movf	?___awmod& (0+255),w,b
  5925   002AD0  6EDF               	movwf	indf2,c
  5926   002AD2                     
  5927                           ; BSR set to: 1
  5928                           ;sync.c: 77:             m->waiting_count--;
  5929   002AD2  5130               	movf	mutex_unlock@m& (0+255),w,b
  5930   002AD4  6ED9               	movwf	fsr2l,c
  5931   002AD6  6ADA               	clrf	fsr2h,c
  5932   002AD8  0E0A               	movlw	10
  5933   002ADA  26D9               	addwf	fsr2l,f,c
  5934   002ADC  06DF               	decf	indf2,f,c
  5935   002ADE                     
  5936                           ; BSR set to: 1
  5937                           ;sync.c: 78:             m->owner_id = r_queue.TASKS[task_idx].task_id;
  5938   002ADE  5133               	movf	mutex_unlock@task_idx& (0+255),w,b
  5939   002AE0  0D30               	mullw	48
  5940   002AE2  0E35               	movlw	low _r_queue
  5941   002AE4  24F3               	addwf	243,w,c
  5942   002AE6  6ED9               	movwf	fsr2l,c
  5943   002AE8  0E05               	movlw	high _r_queue
  5944   002AEA  20F4               	addwfc	prodh,w,c
  5945   002AEC  6EDA               	movwf	fsr2h,c
  5946   002AEE  5130               	movf	mutex_unlock@m& (0+255),w,b
  5947   002AF0  6EE1               	movwf	fsr1l,c
  5948   002AF2  6AE2               	clrf	fsr1h,c
  5949   002AF4  0E01               	movlw	1
  5950   002AF6  26E1               	addwf	fsr1l,f,c
  5951   002AF8  CFDF FFE7          	movff	indf2,indf1
  5952                           
  5953                           ;sync.c: 79:         }
  5954   002AFC  EF8A  F015         	goto	i1l4292
  5955   002B00                     i1l4288:
  5956                           
  5957                           ; BSR set to: 1
  5958                           ;sync.c: 81:             m->locked=0;
  5959   002B00  5130               	movf	mutex_unlock@m& (0+255),w,b
  5960   002B02  6ED9               	movwf	fsr2l,c
  5961   002B04  6ADA               	clrf	fsr2h,c
  5962   002B06  6ADF               	clrf	indf2,c
  5963   002B08                     
  5964                           ; BSR set to: 1
  5965                           ;sync.c: 82:             m->waiting_count=0;
  5966   002B08  5130               	movf	mutex_unlock@m& (0+255),w,b
  5967   002B0A  6ED9               	movwf	fsr2l,c
  5968   002B0C  6ADA               	clrf	fsr2h,c
  5969   002B0E  0E0A               	movlw	10
  5970   002B10  26D9               	addwf	fsr2l,f,c
  5971   002B12  6ADF               	clrf	indf2,c
  5972   002B14                     i1l4292:
  5973                           
  5974                           ; BSR set to: 1
  5975                           ;sync.c: 85:     INTCONbits.GIE = 1;;
  5976   002B14  8EF2               	bsf	242,7,c	;volatile
  5977   002B16                     
  5978                           ; BSR set to: 1
  5979   002B16  0012               	return		;funcret
  5980   002B18                     __end_of_mutex_unlock:
  5981                           	callstack 0
  5982                           
  5983 ;; *************** function _mutex_lock *****************
  5984 ;; Defined at:
  5985 ;;		line 51 in file "sync.c"
  5986 ;; Parameters:    Size  Location     Type
  5987 ;;  m               1   48[BANK1 ] PTR struct mutex
  5988 ;;		 -> m_led(11), 
  5989 ;; Auto vars:     Size  Location     Type
  5990 ;;		None
  5991 ;; Return value:  Size  Location     Type
  5992 ;;                  1    wreg      void 
  5993 ;; Registers used:
  5994 ;;		wreg, fsr1l, fsr1h, fsr2l, fsr2h, status,2, status,0, prodl, prodh, cstack
  5995 ;; Tracked objects:
  5996 ;;		On entry : 0/0
  5997 ;;		On exit  : 0/0
  5998 ;;		Unchanged: 0/0
  5999 ;; Data sizes:     COMRAM   BANK0   BANK1   BANK2   BANK3   BANK4   BANK5   BANK6   BANK7   BANK8   BANK9  BANK10  BANK1
      +1  BANK12  BANK13  BANK14  BANK15
  6000 ;;      Params:         0       0       1       0       0       0       0       0       0       0       0       0       
      +0       0       0       0       0
  6001 ;;      Locals:         0       0       0       0       0       0       0       0       0       0       0       0       
      +0       0       0       0       0
  6002 ;;      Temps:          0       0       7       0       0       0       0       0       0       0       0       0       
      +0       0       0       0       0
  6003 ;;      Totals:         0       0       8       0       0       0       0       0       0       0       0       0       
      +0       0       0       0       0
  6004 ;;Total ram usage:        8 bytes
  6005 ;; Hardware stack levels used: 1
  6006 ;; Hardware stack levels required when called: 5
  6007 ;; This function calls:
  6008 ;;		___awmod
  6009 ;;		i1_scheduler
  6010 ;; This function is called by:
  6011 ;;		_LED_1
  6012 ;; This function uses a non-reentrant model
  6013 ;;
  6014                           
  6015                           	psect	text20
  6016   001002                     __ptext20:
  6017                           	callstack 0
  6018   001002                     _mutex_lock:
  6019                           	callstack 20
  6020   001002                     
  6021                           ;sync.c: 52:     INTCONbits.GIE = 0;;
  6022   001002  9EF2               	bcf	242,7,c	;volatile
  6023   001004                     
  6024                           ;sync.c: 54:     if (m->locked) {
  6025   001004  0101               	movlb	1	; () banked
  6026   001006  5130               	movf	mutex_lock@m& (0+255),w,b
  6027   001008  6ED9               	movwf	fsr2l,c
  6028   00100A  6ADA               	clrf	fsr2h,c
  6029   00100C  50DF               	movf	indf2,w,c
  6030   00100E  B4D8               	btfsc	status,2,c
  6031   001010  EF0C  F008         	goto	i1u466_21
  6032   001014  EF0E  F008         	goto	i1u466_20
  6033   001018                     i1u466_21:
  6034   001018  EF39  F00B         	goto	i1l4812
  6035   00101C                     i1u466_20:
  6036   00101C                     
  6037                           ; BSR set to: 1
  6038                           ;sync.c: 55:         m->fila[m->pos_input] = r_queue.pos_task_running;
  6039   00101C  EE26  F088         	lfsr	2,_r_queue+339
  6040   001020  5130               	movf	mutex_lock@m& (0+255),w,b
  6041   001022  6EE1               	movwf	fsr1l,c
  6042   001024  6AE2               	clrf	fsr1h,c
  6043   001026  0E08               	movlw	8
  6044   001028  26E1               	addwf	fsr1l,f,c
  6045   00102A  50E7               	movf	indf1,w,c
  6046   00102C  6F31               	movwf	??_mutex_lock& (0+255),b
  6047   00102E  5130               	movf	mutex_lock@m& (0+255),w,b
  6048   001030  2531               	addwf	??_mutex_lock& (0+255),w,b
  6049   001032  6EE1               	movwf	fsr1l,c
  6050   001034  6AE2               	clrf	fsr1h,c
  6051   001036  0E02               	movlw	2
  6052   001038  26E1               	addwf	fsr1l,f,c
  6053   00103A  CFDF FFE7          	movff	indf2,indf1
  6054   00103E                     
  6055                           ; BSR set to: 1
  6056                           ;sync.c: 56:         m->pos_input = (m->pos_input + 1) % 6;
  6057   00103E  5130               	movf	mutex_lock@m& (0+255),w,b
  6058   001040  6ED9               	movwf	fsr2l,c
  6059   001042  6ADA               	clrf	fsr2h,c
  6060   001044  0E08               	movlw	8
  6061   001046  26D9               	addwf	fsr2l,f,c
  6062   001048  5130               	movf	mutex_lock@m& (0+255),w,b
  6063   00104A  6EE1               	movwf	fsr1l,c
  6064   00104C  6AE2               	clrf	fsr1h,c
  6065   00104E  0E08               	movlw	8
  6066   001050  26E1               	addwf	fsr1l,f,c
  6067   001052  50E7               	movf	indf1,w,c
  6068   001054  6F31               	movwf	??_mutex_lock& (0+255),b
  6069   001056  0E01               	movlw	1
  6070   001058  2531               	addwf	??_mutex_lock& (0+255),w,b
  6071   00105A  6F43               	movwf	___awmod@dividend& (0+255),b
  6072   00105C  6B44               	clrf	(___awmod@dividend+1)& (0+255),b
  6073   00105E  0E00               	movlw	0
  6074   001060  2344               	addwfc	(___awmod@dividend+1)& (0+255),f,b
  6075   001062  6B46               	clrf	(___awmod@divisor+1)& (0+255),b
  6076   001064  0E06               	movlw	6
  6077   001066  6F45               	movwf	___awmod@divisor& (0+255),b
  6078   001068  EC8C  F015         	call	___awmod	;wreg free
  6079   00106C  0101               	movlb	1	; () banked
  6080   00106E  5143               	movf	?___awmod& (0+255),w,b
  6081   001070  6EDF               	movwf	indf2,c
  6082   001072                     
  6083                           ; BSR set to: 1
  6084                           ;sync.c: 57:         m->waiting_count++;
  6085   001072  5130               	movf	mutex_lock@m& (0+255),w,b
  6086   001074  6ED9               	movwf	fsr2l,c
  6087   001076  6ADA               	clrf	fsr2h,c
  6088   001078  0E0A               	movlw	10
  6089   00107A  26D9               	addwf	fsr2l,f,c
  6090   00107C  2ADF               	incf	indf2,f,c
  6091   00107E                     
  6092                           ; BSR set to: 1
  6093   00107E  EE26  F086         	lfsr	2,_r_queue+337
  6094   001082  EE10 F001          	lfsr	1,1
  6095   001086  50DE               	movf	postinc2,w,c
  6096   001088  26E1               	addwf	fsr1l,f,c
  6097   00108A  50DD               	movf	postdec2,w,c
  6098   00108C  22E2               	addwfc	fsr1h,f,c
  6099   00108E  0E02               	movlw	2
  6100   001090  18E6               	xorwf	postinc1,w,c
  6101   001092  A4D8               	btfss	status,2,c
  6102   001094  EF4E  F008         	goto	i1u467_21
  6103   001098  EF50  F008         	goto	i1u467_20
  6104   00109C                     i1u467_21:
  6105   00109C  EF8E  F009         	goto	i1l4790
  6106   0010A0                     i1u467_20:
  6107   0010A0                     
  6108                           ; BSR set to: 1
  6109   0010A0  EE26  F086         	lfsr	2,_r_queue+337
  6110   0010A4  EE10 F001          	lfsr	1,1
  6111   0010A8  50DE               	movf	postinc2,w,c
  6112   0010AA  26E1               	addwf	fsr1l,f,c
  6113   0010AC  50DD               	movf	postdec2,w,c
  6114   0010AE  22E2               	addwfc	fsr1h,f,c
  6115   0010B0  0E01               	movlw	1
  6116   0010B2  6EE7               	movwf	indf1,c
  6117   0010B4  EE26  F086         	lfsr	2,_r_queue+337
  6118   0010B8  EE10 F008          	lfsr	1,8
  6119   0010BC  50DE               	movf	postinc2,w,c
  6120   0010BE  26E1               	addwf	fsr1l,f,c
  6121   0010C0  50DD               	movf	postdec2,w,c
  6122   0010C2  22E2               	addwfc	fsr1h,f,c
  6123   0010C4  CFE0 FFE7          	movff	bsr,indf1	;volatile
  6124   0010C8  EE26  F086         	lfsr	2,_r_queue+337
  6125   0010CC  EE10 F00C          	lfsr	1,12
  6126   0010D0  50DE               	movf	postinc2,w,c
  6127   0010D2  26E1               	addwf	fsr1l,f,c
  6128   0010D4  50DD               	movf	postdec2,w,c
  6129   0010D6  22E2               	addwfc	fsr1h,f,c
  6130   0010D8  CFEA FFE7          	movff	fsr0h,indf1	;volatile
  6131   0010DC  EE26  F086         	lfsr	2,_r_queue+337
  6132   0010E0  EE10 F00B          	lfsr	1,11
  6133   0010E4  50DE               	movf	postinc2,w,c
  6134   0010E6  26E1               	addwf	fsr1l,f,c
  6135   0010E8  50DD               	movf	postdec2,w,c
  6136   0010EA  22E2               	addwfc	fsr1h,f,c
  6137   0010EC  CFE9 FFE7          	movff	fsr0l,indf1	;volatile
  6138   0010F0  EE26  F086         	lfsr	2,_r_queue+337
  6139   0010F4  EE10 F00E          	lfsr	1,14
  6140   0010F8  50DE               	movf	postinc2,w,c
  6141   0010FA  26E1               	addwf	fsr1l,f,c
  6142   0010FC  50DD               	movf	postdec2,w,c
  6143   0010FE  22E2               	addwfc	fsr1h,f,c
  6144   001100  CFE2 FFE7          	movff	fsr1h,indf1	;volatile
  6145   001104  EE26  F086         	lfsr	2,_r_queue+337
  6146   001108  EE10 F00D          	lfsr	1,13
  6147   00110C  50DE               	movf	postinc2,w,c
  6148   00110E  26E1               	addwf	fsr1l,f,c
  6149   001110  50DD               	movf	postdec2,w,c
  6150   001112  22E2               	addwfc	fsr1h,f,c
  6151   001114  CFE1 FFE7          	movff	fsr1l,indf1	;volatile
  6152   001118  EE26  F086         	lfsr	2,_r_queue+337
  6153   00111C  EE10 F010          	lfsr	1,16
  6154   001120  50DE               	movf	postinc2,w,c
  6155   001122  26E1               	addwf	fsr1l,f,c
  6156   001124  50DD               	movf	postdec2,w,c
  6157   001126  22E2               	addwfc	fsr1h,f,c
  6158   001128  CFDA FFE7          	movff	fsr2h,indf1	;volatile
  6159   00112C  EE26  F086         	lfsr	2,_r_queue+337
  6160   001130  EE10 F00F          	lfsr	1,15
  6161   001134  50DE               	movf	postinc2,w,c
  6162   001136  26E1               	addwf	fsr1l,f,c
  6163   001138  50DD               	movf	postdec2,w,c
  6164   00113A  22E2               	addwfc	fsr1h,f,c
  6165   00113C  CFD9 FFE7          	movff	fsr2l,indf1	;volatile
  6166   001140  EE26  F086         	lfsr	2,_r_queue+337
  6167   001144  EE10 F015          	lfsr	1,21
  6168   001148  50DE               	movf	postinc2,w,c
  6169   00114A  26E1               	addwf	fsr1l,f,c
  6170   00114C  50DD               	movf	postdec2,w,c
  6171   00114E  22E2               	addwfc	fsr1h,f,c
  6172   001150  CFFA FFE7          	movff	pclath,indf1	;volatile
  6173   001154  EE26  F086         	lfsr	2,_r_queue+337
  6174   001158  EE10 F016          	lfsr	1,22
  6175   00115C  50DE               	movf	postinc2,w,c
  6176   00115E  26E1               	addwf	fsr1l,f,c
  6177   001160  50DD               	movf	postdec2,w,c
  6178   001162  22E2               	addwfc	fsr1h,f,c
  6179   001164  CFFB FFE7          	movff	pclatu,indf1	;volatile
  6180   001168  EE26  F086         	lfsr	2,_r_queue+337
  6181   00116C  EE10 F00A          	lfsr	1,10
  6182   001170  50DE               	movf	postinc2,w,c
  6183   001172  26E1               	addwf	fsr1l,f,c
  6184   001174  50DD               	movf	postdec2,w,c
  6185   001176  22E2               	addwfc	fsr1h,f,c
  6186   001178  CFF4 FFE7          	movff	prodh,indf1	;volatile
  6187   00117C  EE26  F086         	lfsr	2,_r_queue+337
  6188   001180  EE10 F009          	lfsr	1,9
  6189   001184  50DE               	movf	postinc2,w,c
  6190   001186  26E1               	addwf	fsr1l,f,c
  6191   001188  50DD               	movf	postdec2,w,c
  6192   00118A  22E2               	addwfc	fsr1h,f,c
  6193   00118C  CFF3 FFE7          	movff	prodl,indf1	;volatile
  6194   001190  EE26  F086         	lfsr	2,_r_queue+337
  6195   001194  EE10 F011          	lfsr	1,17
  6196   001198  50DE               	movf	postinc2,w,c
  6197   00119A  26E1               	addwf	fsr1l,f,c
  6198   00119C  50DD               	movf	postdec2,w,c
  6199   00119E  22E2               	addwfc	fsr1h,f,c
  6200   0011A0  CFF5 FFE7          	movff	tablat,indf1	;volatile
  6201   0011A4  EE26  F086         	lfsr	2,_r_queue+337
  6202   0011A8  EE10 F013          	lfsr	1,19
  6203   0011AC  50DE               	movf	postinc2,w,c
  6204   0011AE  26E1               	addwf	fsr1l,f,c
  6205   0011B0  50DD               	movf	postdec2,w,c
  6206   0011B2  22E2               	addwfc	fsr1h,f,c
  6207   0011B4  CFF7 FFE7          	movff	tblptrh,indf1	;volatile
  6208   0011B8  EE26  F086         	lfsr	2,_r_queue+337
  6209   0011BC  EE10 F012          	lfsr	1,18
  6210   0011C0  50DE               	movf	postinc2,w,c
  6211   0011C2  26E1               	addwf	fsr1l,f,c
  6212   0011C4  50DD               	movf	postdec2,w,c
  6213   0011C6  22E2               	addwfc	fsr1h,f,c
  6214   0011C8  CFF6 FFE7          	movff	tblptrl,indf1	;volatile
  6215   0011CC  EE26  F086         	lfsr	2,_r_queue+337
  6216   0011D0  EE10 F014          	lfsr	1,20
  6217   0011D4  50DE               	movf	postinc2,w,c
  6218   0011D6  26E1               	addwf	fsr1l,f,c
  6219   0011D8  50DD               	movf	postdec2,w,c
  6220   0011DA  22E2               	addwfc	fsr1h,f,c
  6221   0011DC  CFF8 FFE7          	movff	tblptru,indf1	;volatile
  6222   0011E0  EE26  F086         	lfsr	2,_r_queue+337
  6223   0011E4  EE10 F006          	lfsr	1,6
  6224   0011E8  50DE               	movf	postinc2,w,c
  6225   0011EA  26E1               	addwf	fsr1l,f,c
  6226   0011EC  50DD               	movf	postdec2,w,c
  6227   0011EE  22E2               	addwfc	fsr1h,f,c
  6228   0011F0  CFE8 FFE7          	movff	wreg,indf1	;volatile
  6229   0011F4  EE26  F086         	lfsr	2,_r_queue+337
  6230   0011F8  EE10 F007          	lfsr	1,7
  6231   0011FC  50DE               	movf	postinc2,w,c
  6232   0011FE  26E1               	addwf	fsr1l,f,c
  6233   001200  50DD               	movf	postdec2,w,c
  6234   001202  22E2               	addwfc	fsr1h,f,c
  6235   001204  CFD8 FFE7          	movff	status,indf1	;volatile
  6236   001208  EE26  F086         	lfsr	2,_r_queue+337
  6237   00120C  EE10 F02F          	lfsr	1,47
  6238   001210  50DE               	movf	postinc2,w,c
  6239   001212  26E1               	addwf	fsr1l,f,c
  6240   001214  50DD               	movf	postdec2,w,c
  6241   001216  22E2               	addwfc	fsr1h,f,c
  6242   001218  6AE7               	clrf	indf1,c
  6243   00121A  EF86  F009         	goto	i1l4788
  6244   00121E                     i1l4784:
  6245   00121E  EE26  F086         	lfsr	2,_r_queue+337
  6246   001222  EE10 F02F          	lfsr	1,47
  6247   001226  50DE               	movf	postinc2,w,c
  6248   001228  26E1               	addwf	fsr1l,f,c
  6249   00122A  50DD               	movf	postdec2,w,c
  6250   00122C  22E2               	addwfc	fsr1h,f,c
  6251   00122E  50E7               	movf	indf1,w,c
  6252   001230  0101               	movlb	1	; () banked
  6253   001232  6F31               	movwf	??_mutex_lock& (0+255),b
  6254   001234  5131               	movf	??_mutex_lock& (0+255),w,b
  6255   001236  0D03               	mullw	3
  6256   001238  CFF3 F132          	movff	prodl,??_mutex_lock+1
  6257   00123C  CFF4 F133          	movff	prodh,??_mutex_lock+2
  6258   001240  EE26  F086         	lfsr	2,_r_queue+337
  6259   001244  CFDE F134          	movff	postinc2,??_mutex_lock+3
  6260   001248  CFDD F135          	movff	postdec2,??_mutex_lock+4
  6261   00124C  5132               	movf	(??_mutex_lock+1)& (0+255),w,b
  6262   00124E  2534               	addwf	(??_mutex_lock+3)& (0+255),w,b
  6263   001250  6F36               	movwf	(??_mutex_lock+5)& (0+255),b
  6264   001252  5133               	movf	(??_mutex_lock+2)& (0+255),w,b
  6265   001254  2135               	addwfc	(??_mutex_lock+4)& (0+255),w,b
  6266   001256  6F37               	movwf	(??_mutex_lock+6)& (0+255),b
  6267   001258  0E17               	movlw	23
  6268   00125A  2536               	addwf	(??_mutex_lock+5)& (0+255),w,b
  6269   00125C  6ED9               	movwf	fsr2l,c
  6270   00125E  0E00               	movlw	0
  6271   001260  2137               	addwfc	(??_mutex_lock+6)& (0+255),w,b
  6272   001262  6EDA               	movwf	fsr2h,c
  6273   001264  CFFD FFDF          	movff	tosl,indf2	;volatile
  6274   001268  EE26  F086         	lfsr	2,_r_queue+337
  6275   00126C  EE10 F02F          	lfsr	1,47
  6276   001270  50DE               	movf	postinc2,w,c
  6277   001272  26E1               	addwf	fsr1l,f,c
  6278   001274  50DD               	movf	postdec2,w,c
  6279   001276  22E2               	addwfc	fsr1h,f,c
  6280   001278  50E7               	movf	indf1,w,c
  6281   00127A  6F31               	movwf	??_mutex_lock& (0+255),b
  6282   00127C  5131               	movf	??_mutex_lock& (0+255),w,b
  6283   00127E  0D03               	mullw	3
  6284   001280  CFF3 F132          	movff	prodl,??_mutex_lock+1
  6285   001284  CFF4 F133          	movff	prodh,??_mutex_lock+2
  6286   001288  EE26  F086         	lfsr	2,_r_queue+337
  6287   00128C  CFDE F134          	movff	postinc2,??_mutex_lock+3
  6288   001290  CFDD F135          	movff	postdec2,??_mutex_lock+4
  6289   001294  5132               	movf	(??_mutex_lock+1)& (0+255),w,b
  6290   001296  2534               	addwf	(??_mutex_lock+3)& (0+255),w,b
  6291   001298  6F36               	movwf	(??_mutex_lock+5)& (0+255),b
  6292   00129A  5133               	movf	(??_mutex_lock+2)& (0+255),w,b
  6293   00129C  2135               	addwfc	(??_mutex_lock+4)& (0+255),w,b
  6294   00129E  6F37               	movwf	(??_mutex_lock+6)& (0+255),b
  6295   0012A0  0E18               	movlw	24
  6296   0012A2  2536               	addwf	(??_mutex_lock+5)& (0+255),w,b
  6297   0012A4  6ED9               	movwf	fsr2l,c
  6298   0012A6  0E00               	movlw	0
  6299   0012A8  2137               	addwfc	(??_mutex_lock+6)& (0+255),w,b
  6300   0012AA  6EDA               	movwf	fsr2h,c
  6301   0012AC  CFFE FFDF          	movff	tosh,indf2	;volatile
  6302   0012B0  EE26  F086         	lfsr	2,_r_queue+337
  6303   0012B4  EE10 F02F          	lfsr	1,47
  6304   0012B8  50DE               	movf	postinc2,w,c
  6305   0012BA  26E1               	addwf	fsr1l,f,c
  6306   0012BC  50DD               	movf	postdec2,w,c
  6307   0012BE  22E2               	addwfc	fsr1h,f,c
  6308   0012C0  50E7               	movf	indf1,w,c
  6309   0012C2  6F31               	movwf	??_mutex_lock& (0+255),b
  6310   0012C4  5131               	movf	??_mutex_lock& (0+255),w,b
  6311   0012C6  0D03               	mullw	3
  6312   0012C8  CFF3 F132          	movff	prodl,??_mutex_lock+1
  6313   0012CC  CFF4 F133          	movff	prodh,??_mutex_lock+2
  6314   0012D0  EE26  F086         	lfsr	2,_r_queue+337
  6315   0012D4  CFDE F134          	movff	postinc2,??_mutex_lock+3
  6316   0012D8  CFDD F135          	movff	postdec2,??_mutex_lock+4
  6317   0012DC  5132               	movf	(??_mutex_lock+1)& (0+255),w,b
  6318   0012DE  2534               	addwf	(??_mutex_lock+3)& (0+255),w,b
  6319   0012E0  6F36               	movwf	(??_mutex_lock+5)& (0+255),b
  6320   0012E2  5133               	movf	(??_mutex_lock+2)& (0+255),w,b
  6321   0012E4  2135               	addwfc	(??_mutex_lock+4)& (0+255),w,b
  6322   0012E6  6F37               	movwf	(??_mutex_lock+6)& (0+255),b
  6323   0012E8  0E19               	movlw	25
  6324   0012EA  2536               	addwf	(??_mutex_lock+5)& (0+255),w,b
  6325   0012EC  6ED9               	movwf	fsr2l,c
  6326   0012EE  0E00               	movlw	0
  6327   0012F0  2137               	addwfc	(??_mutex_lock+6)& (0+255),w,b
  6328   0012F2  6EDA               	movwf	fsr2h,c
  6329   0012F4  CFFF FFDF          	movff	tosu,indf2	;volatile
  6330   0012F8                     
  6331                           ; BSR set to: 1
  6332   0012F8  EE26  F086         	lfsr	2,_r_queue+337
  6333   0012FC  EE10 F02F          	lfsr	1,47
  6334   001300  50DE               	movf	postinc2,w,c
  6335   001302  26E1               	addwf	fsr1l,f,c
  6336   001304  50DD               	movf	postdec2,w,c
  6337   001306  22E2               	addwfc	fsr1h,f,c
  6338   001308  2AE7               	incf	indf1,f,c
  6339   00130A  0006               	pop		;# 
  6340   00130C                     i1l4788:
  6341   00130C  50FC               	movf	252,w,c	;volatile
  6342   00130E  A4D8               	btfss	status,2,c
  6343   001310  EF8C  F009         	goto	i1u468_21
  6344   001314  EF8E  F009         	goto	i1u468_20
  6345   001318                     i1u468_21:
  6346   001318  EF0F  F009         	goto	i1l4784
  6347   00131C                     i1u468_20:
  6348   00131C                     i1l4790:
  6349                           
  6350                           ;sync.c: 60:         scheduler();
  6351   00131C  EC8E  F018         	call	i1_scheduler	;wreg free
  6352   001320  EE26  F086         	lfsr	2,_r_queue+337
  6353   001324  EE10 F001          	lfsr	1,1
  6354   001328  50DE               	movf	postinc2,w,c
  6355   00132A  26E1               	addwf	fsr1l,f,c
  6356   00132C  50DD               	movf	postdec2,w,c
  6357   00132E  22E2               	addwfc	fsr1h,f,c
  6358   001330  50E7               	movf	indf1,w,c
  6359   001332  A4D8               	btfss	status,2,c
  6360   001334  EF9E  F009         	goto	i1u469_21
  6361   001338  EFA0  F009         	goto	i1u469_20
  6362   00133C                     i1u469_21:
  6363   00133C  EF49  F00B         	goto	i1l4816
  6364   001340                     i1u469_20:
  6365   001340  EE26  F086         	lfsr	2,_r_queue+337
  6366   001344  EE10 F001          	lfsr	1,1
  6367   001348  50DE               	movf	postinc2,w,c
  6368   00134A  26E1               	addwf	fsr1l,f,c
  6369   00134C  50DD               	movf	postdec2,w,c
  6370   00134E  22E2               	addwfc	fsr1h,f,c
  6371   001350  0E02               	movlw	2
  6372   001352  6EE7               	movwf	indf1,c
  6373   001354  EE26  F086         	lfsr	2,_r_queue+337
  6374   001358  EE10 F008          	lfsr	1,8
  6375   00135C  50DE               	movf	postinc2,w,c
  6376   00135E  26E1               	addwf	fsr1l,f,c
  6377   001360  50DD               	movf	postdec2,w,c
  6378   001362  22E2               	addwfc	fsr1h,f,c
  6379   001364  50E7               	movf	indf1,w,c
  6380   001366  6EE0               	movwf	224,c	;volatile
  6381   001368  EE26  F086         	lfsr	2,_r_queue+337
  6382   00136C  EE10 F00C          	lfsr	1,12
  6383   001370  50DE               	movf	postinc2,w,c
  6384   001372  26E1               	addwf	fsr1l,f,c
  6385   001374  50DD               	movf	postdec2,w,c
  6386   001376  22E2               	addwfc	fsr1h,f,c
  6387   001378  50E7               	movf	indf1,w,c
  6388   00137A  6EEA               	movwf	234,c	;volatile
  6389   00137C  EE26  F086         	lfsr	2,_r_queue+337
  6390   001380  EE10 F00B          	lfsr	1,11
  6391   001384  50DE               	movf	postinc2,w,c
  6392   001386  26E1               	addwf	fsr1l,f,c
  6393   001388  50DD               	movf	postdec2,w,c
  6394   00138A  22E2               	addwfc	fsr1h,f,c
  6395   00138C  50E7               	movf	indf1,w,c
  6396   00138E  6EE9               	movwf	233,c	;volatile
  6397   001390  EE26  F086         	lfsr	2,_r_queue+337
  6398   001394  EE10 F00E          	lfsr	1,14
  6399   001398  50DE               	movf	postinc2,w,c
  6400   00139A  26E1               	addwf	fsr1l,f,c
  6401   00139C  50DD               	movf	postdec2,w,c
  6402   00139E  22E2               	addwfc	fsr1h,f,c
  6403   0013A0  50E7               	movf	indf1,w,c
  6404   0013A2  6EE2               	movwf	226,c	;volatile
  6405   0013A4  EE26  F086         	lfsr	2,_r_queue+337
  6406   0013A8  EE10 F00D          	lfsr	1,13
  6407   0013AC  50DE               	movf	postinc2,w,c
  6408   0013AE  26E1               	addwf	fsr1l,f,c
  6409   0013B0  50DD               	movf	postdec2,w,c
  6410   0013B2  22E2               	addwfc	fsr1h,f,c
  6411   0013B4  50E7               	movf	indf1,w,c
  6412   0013B6  6EE1               	movwf	225,c	;volatile
  6413   0013B8  EE26  F086         	lfsr	2,_r_queue+337
  6414   0013BC  EE10 F010          	lfsr	1,16
  6415   0013C0  50DE               	movf	postinc2,w,c
  6416   0013C2  26E1               	addwf	fsr1l,f,c
  6417   0013C4  50DD               	movf	postdec2,w,c
  6418   0013C6  22E2               	addwfc	fsr1h,f,c
  6419   0013C8  50E7               	movf	indf1,w,c
  6420   0013CA  6EDA               	movwf	218,c	;volatile
  6421   0013CC  EE26  F086         	lfsr	2,_r_queue+337
  6422   0013D0  EE10 F00F          	lfsr	1,15
  6423   0013D4  50DE               	movf	postinc2,w,c
  6424   0013D6  26E1               	addwf	fsr1l,f,c
  6425   0013D8  50DD               	movf	postdec2,w,c
  6426   0013DA  22E2               	addwfc	fsr1h,f,c
  6427   0013DC  50E7               	movf	indf1,w,c
  6428   0013DE  6ED9               	movwf	217,c	;volatile
  6429   0013E0  EE26  F086         	lfsr	2,_r_queue+337
  6430   0013E4  EE10 F015          	lfsr	1,21
  6431   0013E8  50DE               	movf	postinc2,w,c
  6432   0013EA  26E1               	addwf	fsr1l,f,c
  6433   0013EC  50DD               	movf	postdec2,w,c
  6434   0013EE  22E2               	addwfc	fsr1h,f,c
  6435   0013F0  50E7               	movf	indf1,w,c
  6436   0013F2  6EFA               	movwf	250,c	;volatile
  6437   0013F4  EE26  F086         	lfsr	2,_r_queue+337
  6438   0013F8  EE10 F016          	lfsr	1,22
  6439   0013FC  50DE               	movf	postinc2,w,c
  6440   0013FE  26E1               	addwf	fsr1l,f,c
  6441   001400  50DD               	movf	postdec2,w,c
  6442   001402  22E2               	addwfc	fsr1h,f,c
  6443   001404  50E7               	movf	indf1,w,c
  6444   001406  6EFB               	movwf	251,c	;volatile
  6445   001408  EE26  F086         	lfsr	2,_r_queue+337
  6446   00140C  EE10 F00A          	lfsr	1,10
  6447   001410  50DE               	movf	postinc2,w,c
  6448   001412  26E1               	addwf	fsr1l,f,c
  6449   001414  50DD               	movf	postdec2,w,c
  6450   001416  22E2               	addwfc	fsr1h,f,c
  6451   001418  50E7               	movf	indf1,w,c
  6452   00141A  6EF4               	movwf	244,c	;volatile
  6453   00141C  EE26  F086         	lfsr	2,_r_queue+337
  6454   001420  EE10 F009          	lfsr	1,9
  6455   001424  50DE               	movf	postinc2,w,c
  6456   001426  26E1               	addwf	fsr1l,f,c
  6457   001428  50DD               	movf	postdec2,w,c
  6458   00142A  22E2               	addwfc	fsr1h,f,c
  6459   00142C  50E7               	movf	indf1,w,c
  6460   00142E  6EF3               	movwf	243,c	;volatile
  6461   001430  EE26  F086         	lfsr	2,_r_queue+337
  6462   001434  EE10 F011          	lfsr	1,17
  6463   001438  50DE               	movf	postinc2,w,c
  6464   00143A  26E1               	addwf	fsr1l,f,c
  6465   00143C  50DD               	movf	postdec2,w,c
  6466   00143E  22E2               	addwfc	fsr1h,f,c
  6467   001440  50E7               	movf	indf1,w,c
  6468   001442  6EF5               	movwf	245,c	;volatile
  6469   001444  EE26  F086         	lfsr	2,_r_queue+337
  6470   001448  EE10 F013          	lfsr	1,19
  6471   00144C  50DE               	movf	postinc2,w,c
  6472   00144E  26E1               	addwf	fsr1l,f,c
  6473   001450  50DD               	movf	postdec2,w,c
  6474   001452  22E2               	addwfc	fsr1h,f,c
  6475   001454  50E7               	movf	indf1,w,c
  6476   001456  6EF7               	movwf	247,c	;volatile
  6477   001458  EE26  F086         	lfsr	2,_r_queue+337
  6478   00145C  EE10 F012          	lfsr	1,18
  6479   001460  50DE               	movf	postinc2,w,c
  6480   001462  26E1               	addwf	fsr1l,f,c
  6481   001464  50DD               	movf	postdec2,w,c
  6482   001466  22E2               	addwfc	fsr1h,f,c
  6483   001468  50E7               	movf	indf1,w,c
  6484   00146A  6EF6               	movwf	246,c	;volatile
  6485   00146C  EE26  F086         	lfsr	2,_r_queue+337
  6486   001470  EE10 F014          	lfsr	1,20
  6487   001474  50DE               	movf	postinc2,w,c
  6488   001476  26E1               	addwf	fsr1l,f,c
  6489   001478  50DD               	movf	postdec2,w,c
  6490   00147A  22E2               	addwfc	fsr1h,f,c
  6491   00147C  50E7               	movf	indf1,w,c
  6492   00147E  6EF8               	movwf	248,c	;volatile
  6493   001480  EE26  F086         	lfsr	2,_r_queue+337
  6494   001484  EE10 F007          	lfsr	1,7
  6495   001488  50DE               	movf	postinc2,w,c
  6496   00148A  26E1               	addwf	fsr1l,f,c
  6497   00148C  50DD               	movf	postdec2,w,c
  6498   00148E  22E2               	addwfc	fsr1h,f,c
  6499   001490  50E7               	movf	indf1,w,c
  6500   001492  6ED8               	movwf	216,c	;volatile
  6501   001494  EE26  F086         	lfsr	2,_r_queue+337
  6502   001498  EE10 F006          	lfsr	1,6
  6503   00149C  50DE               	movf	postinc2,w,c
  6504   00149E  26E1               	addwf	fsr1l,f,c
  6505   0014A0  50DD               	movf	postdec2,w,c
  6506   0014A2  22E2               	addwfc	fsr1h,f,c
  6507   0014A4  50E7               	movf	indf1,w,c
  6508   0014A6  0101               	movlb	1	; () banked
  6509   0014A8  6F31               	movwf	??_mutex_lock& (0+255),b
  6510   0014AA  5131               	movf	??_mutex_lock& (0+255),w,b
  6511   0014AC                     
  6512                           ; BSR set to: 1
  6513   0014AC  6AFC               	clrf	252,c	;volatile
  6514   0014AE  EE26  F086         	lfsr	2,_r_queue+337
  6515   0014B2  EE10 F02F          	lfsr	1,47
  6516   0014B6  50DE               	movf	postinc2,w,c
  6517   0014B8  26E1               	addwf	fsr1l,f,c
  6518   0014BA  50DD               	movf	postdec2,w,c
  6519   0014BC  22E2               	addwfc	fsr1h,f,c
  6520   0014BE  50E7               	movf	indf1,w,c
  6521   0014C0  B4D8               	btfsc	status,2,c
  6522   0014C2  EF65  F00A         	goto	i1u470_21
  6523   0014C6  EF67  F00A         	goto	i1u470_20
  6524   0014CA                     i1u470_21:
  6525   0014CA  EFF0  F00A         	goto	i1l243
  6526   0014CE                     i1u470_20:
  6527   0014CE                     i1l244:
  6528                           
  6529                           ; BSR set to: 1
  6530   0014CE  0005               	push		;# 
  6531   0014D0  EE26  F086         	lfsr	2,_r_queue+337
  6532   0014D4  EE10 F02F          	lfsr	1,47
  6533   0014D8  50DE               	movf	postinc2,w,c
  6534   0014DA  26E1               	addwf	fsr1l,f,c
  6535   0014DC  50DD               	movf	postdec2,w,c
  6536   0014DE  22E2               	addwfc	fsr1h,f,c
  6537   0014E0  06E7               	decf	indf1,f,c
  6538   0014E2  EE26  F086         	lfsr	2,_r_queue+337
  6539   0014E6  EE10 F02F          	lfsr	1,47
  6540   0014EA  50DE               	movf	postinc2,w,c
  6541   0014EC  26E1               	addwf	fsr1l,f,c
  6542   0014EE  50DD               	movf	postdec2,w,c
  6543   0014F0  22E2               	addwfc	fsr1h,f,c
  6544   0014F2  50E7               	movf	indf1,w,c
  6545   0014F4  0101               	movlb	1	; () banked
  6546   0014F6  6F31               	movwf	??_mutex_lock& (0+255),b
  6547   0014F8  5131               	movf	??_mutex_lock& (0+255),w,b
  6548   0014FA  0D03               	mullw	3
  6549   0014FC  CFF3 F132          	movff	prodl,??_mutex_lock+1
  6550   001500  CFF4 F133          	movff	prodh,??_mutex_lock+2
  6551   001504  EE26  F086         	lfsr	2,_r_queue+337
  6552   001508  CFDE F134          	movff	postinc2,??_mutex_lock+3
  6553   00150C  CFDD F135          	movff	postdec2,??_mutex_lock+4
  6554   001510  5132               	movf	(??_mutex_lock+1)& (0+255),w,b
  6555   001512  2534               	addwf	(??_mutex_lock+3)& (0+255),w,b
  6556   001514  6F36               	movwf	(??_mutex_lock+5)& (0+255),b
  6557   001516  5133               	movf	(??_mutex_lock+2)& (0+255),w,b
  6558   001518  2135               	addwfc	(??_mutex_lock+4)& (0+255),w,b
  6559   00151A  6F37               	movwf	(??_mutex_lock+6)& (0+255),b
  6560   00151C  0E17               	movlw	23
  6561   00151E  2536               	addwf	(??_mutex_lock+5)& (0+255),w,b
  6562   001520  6ED9               	movwf	fsr2l,c
  6563   001522  0E00               	movlw	0
  6564   001524  2137               	addwfc	(??_mutex_lock+6)& (0+255),w,b
  6565   001526  6EDA               	movwf	fsr2h,c
  6566   001528  50DF               	movf	indf2,w,c
  6567   00152A  6EFD               	movwf	253,c	;volatile
  6568   00152C                     
  6569                           ; BSR set to: 1
  6570   00152C  EE26  F086         	lfsr	2,_r_queue+337
  6571   001530  EE10 F02F          	lfsr	1,47
  6572   001534  50DE               	movf	postinc2,w,c
  6573   001536  26E1               	addwf	fsr1l,f,c
  6574   001538  50DD               	movf	postdec2,w,c
  6575   00153A  22E2               	addwfc	fsr1h,f,c
  6576   00153C  50E7               	movf	indf1,w,c
  6577   00153E  6F31               	movwf	??_mutex_lock& (0+255),b
  6578   001540  5131               	movf	??_mutex_lock& (0+255),w,b
  6579   001542  0D03               	mullw	3
  6580   001544  CFF3 F132          	movff	prodl,??_mutex_lock+1
  6581   001548  CFF4 F133          	movff	prodh,??_mutex_lock+2
  6582   00154C  EE26  F086         	lfsr	2,_r_queue+337
  6583   001550  CFDE F134          	movff	postinc2,??_mutex_lock+3
  6584   001554  CFDD F135          	movff	postdec2,??_mutex_lock+4
  6585   001558  5132               	movf	(??_mutex_lock+1)& (0+255),w,b
  6586   00155A  2534               	addwf	(??_mutex_lock+3)& (0+255),w,b
  6587   00155C  6F36               	movwf	(??_mutex_lock+5)& (0+255),b
  6588   00155E  5133               	movf	(??_mutex_lock+2)& (0+255),w,b
  6589   001560  2135               	addwfc	(??_mutex_lock+4)& (0+255),w,b
  6590   001562  6F37               	movwf	(??_mutex_lock+6)& (0+255),b
  6591   001564  0E18               	movlw	24
  6592   001566  2536               	addwf	(??_mutex_lock+5)& (0+255),w,b
  6593   001568  6ED9               	movwf	fsr2l,c
  6594   00156A  0E00               	movlw	0
  6595   00156C  2137               	addwfc	(??_mutex_lock+6)& (0+255),w,b
  6596   00156E  6EDA               	movwf	fsr2h,c
  6597   001570  50DF               	movf	indf2,w,c
  6598   001572  6EFE               	movwf	254,c	;volatile
  6599   001574                     
  6600                           ; BSR set to: 1
  6601   001574  EE26  F086         	lfsr	2,_r_queue+337
  6602   001578  EE10 F02F          	lfsr	1,47
  6603   00157C  50DE               	movf	postinc2,w,c
  6604   00157E  26E1               	addwf	fsr1l,f,c
  6605   001580  50DD               	movf	postdec2,w,c
  6606   001582  22E2               	addwfc	fsr1h,f,c
  6607   001584  50E7               	movf	indf1,w,c
  6608   001586  6F31               	movwf	??_mutex_lock& (0+255),b
  6609   001588  5131               	movf	??_mutex_lock& (0+255),w,b
  6610   00158A  0D03               	mullw	3
  6611   00158C  CFF3 F132          	movff	prodl,??_mutex_lock+1
  6612   001590  CFF4 F133          	movff	prodh,??_mutex_lock+2
  6613   001594  EE26  F086         	lfsr	2,_r_queue+337
  6614   001598  CFDE F134          	movff	postinc2,??_mutex_lock+3
  6615   00159C  CFDD F135          	movff	postdec2,??_mutex_lock+4
  6616   0015A0  5132               	movf	(??_mutex_lock+1)& (0+255),w,b
  6617   0015A2  2534               	addwf	(??_mutex_lock+3)& (0+255),w,b
  6618   0015A4  6F36               	movwf	(??_mutex_lock+5)& (0+255),b
  6619   0015A6  5133               	movf	(??_mutex_lock+2)& (0+255),w,b
  6620   0015A8  2135               	addwfc	(??_mutex_lock+4)& (0+255),w,b
  6621   0015AA  6F37               	movwf	(??_mutex_lock+6)& (0+255),b
  6622   0015AC  0E19               	movlw	25
  6623   0015AE  2536               	addwf	(??_mutex_lock+5)& (0+255),w,b
  6624   0015B0  6ED9               	movwf	fsr2l,c
  6625   0015B2  0E00               	movlw	0
  6626   0015B4  2137               	addwfc	(??_mutex_lock+6)& (0+255),w,b
  6627   0015B6  6EDA               	movwf	fsr2h,c
  6628   0015B8  50DF               	movf	indf2,w,c
  6629   0015BA  6EFF               	movwf	255,c	;volatile
  6630   0015BC                     
  6631                           ; BSR set to: 1
  6632   0015BC  EE26  F086         	lfsr	2,_r_queue+337
  6633   0015C0  EE10 F02F          	lfsr	1,47
  6634   0015C4  50DE               	movf	postinc2,w,c
  6635   0015C6  26E1               	addwf	fsr1l,f,c
  6636   0015C8  50DD               	movf	postdec2,w,c
  6637   0015CA  22E2               	addwfc	fsr1h,f,c
  6638   0015CC  50E7               	movf	indf1,w,c
  6639   0015CE  A4D8               	btfss	status,2,c
  6640   0015D0  EFEC  F00A         	goto	i1u471_21
  6641   0015D4  EFEE  F00A         	goto	i1u471_20
  6642   0015D8                     i1u471_21:
  6643   0015D8  EF67  F00A         	goto	i1l244
  6644   0015DC                     i1u471_20:
  6645   0015DC  EF35  F00B         	goto	i1l4810
  6646   0015E0                     i1l243:
  6647                           
  6648                           ; BSR set to: 1
  6649   0015E0  0005               	push		;# 
  6650   0015E2  EE26  F086         	lfsr	2,_r_queue+337
  6651   0015E6  EE10 F002          	lfsr	1,2
  6652   0015EA  50DE               	movf	postinc2,w,c
  6653   0015EC  26E1               	addwf	fsr1l,f,c
  6654   0015EE  50DD               	movf	postdec2,w,c
  6655   0015F0  22E2               	addwfc	fsr1h,f,c
  6656   0015F2  50E7               	movf	indf1,w,c
  6657   0015F4  6EFD               	movwf	253,c	;volatile
  6658   0015F6  EE26  F086         	lfsr	2,_r_queue+337
  6659   0015FA  EE10 F002          	lfsr	1,2
  6660   0015FE  50DE               	movf	postinc2,w,c
  6661   001600  26E1               	addwf	fsr1l,f,c
  6662   001602  50DD               	movf	postdec2,w,c
  6663   001604  22E2               	addwfc	fsr1h,f,c
  6664   001606  CFE6 F131          	movff	postinc1,??_mutex_lock
  6665   00160A  CFE5 F132          	movff	postdec1,??_mutex_lock+1
  6666   00160E  C131  F133         	movff	??_mutex_lock,??_mutex_lock+2
  6667   001612  C132  F134         	movff	??_mutex_lock+1,??_mutex_lock+3
  6668   001616  0101               	movlb	1	; () banked
  6669   001618  6B35               	clrf	(??_mutex_lock+4)& (0+255),b
  6670   00161A  C134  F133         	movff	??_mutex_lock+3,??_mutex_lock+2
  6671   00161E  C135  F134         	movff	??_mutex_lock+4,??_mutex_lock+3
  6672   001622  6B35               	clrf	(??_mutex_lock+4)& (0+255),b
  6673   001624  5133               	movf	(??_mutex_lock+2)& (0+255),w,b
  6674   001626  6EFE               	movwf	254,c	;volatile
  6675   001628  0E10               	movlw	16
  6676   00162A  6F31               	movwf	??_mutex_lock& (0+255),b
  6677   00162C  EE26  F086         	lfsr	2,_r_queue+337
  6678   001630  EE10 F002          	lfsr	1,2
  6679   001634  50DE               	movf	postinc2,w,c
  6680   001636  26E1               	addwf	fsr1l,f,c
  6681   001638  50DD               	movf	postdec2,w,c
  6682   00163A  22E2               	addwfc	fsr1h,f,c
  6683   00163C  CFE6 F132          	movff	postinc1,??_mutex_lock+1
  6684   001640  CFE5 F133          	movff	postdec1,??_mutex_lock+2
  6685   001644  C132  F134         	movff	??_mutex_lock+1,??_mutex_lock+3
  6686   001648  C133  F135         	movff	??_mutex_lock+2,??_mutex_lock+4
  6687   00164C  6B36               	clrf	(??_mutex_lock+5)& (0+255),b
  6688   00164E  2931               	incf	??_mutex_lock& (0+255),w,b
  6689   001650  6F37               	movwf	(??_mutex_lock+6)& (0+255),b
  6690   001652  EF2F  F00B         	goto	i1u472_20
  6691   001656                     i1u472_25:
  6692   001656  90D8               	bcf	status,0,c
  6693   001658  3336               	rrcf	(??_mutex_lock+5)& (0+255),f,b
  6694   00165A  3335               	rrcf	(??_mutex_lock+4)& (0+255),f,b
  6695   00165C  3334               	rrcf	(??_mutex_lock+3)& (0+255),f,b
  6696   00165E                     i1u472_20:
  6697   00165E  2F37               	decfsz	(??_mutex_lock+6)& (0+255),f,b
  6698   001660  EF2B  F00B         	goto	i1u472_25
  6699   001664  0101               	movlb	1	; () banked
  6700   001666  5134               	movf	(??_mutex_lock+3)& (0+255),w,b
  6701   001668  6EFF               	movwf	255,c	;volatile
  6702   00166A                     i1l4810:
  6703                           
  6704                           ; BSR set to: 1
  6705   00166A  0E14               	movlw	20
  6706   00166C  6E47               	movwf	_rr_quantum^0,c
  6707   00166E  EF49  F00B         	goto	i1l4816
  6708   001672                     i1l4812:
  6709                           
  6710                           ; BSR set to: 1
  6711                           ;sync.c: 63:         m->locked = 1;
  6712   001672  5130               	movf	mutex_lock@m& (0+255),w,b
  6713   001674  6ED9               	movwf	fsr2l,c
  6714   001676  6ADA               	clrf	fsr2h,c
  6715   001678  0E01               	movlw	1
  6716   00167A  6EDF               	movwf	indf2,c
  6717   00167C                     
  6718                           ; BSR set to: 1
  6719                           ;sync.c: 64:         m->owner_id = r_queue.task_running->task_id;
  6720   00167C  C686  FFD9         	movff	_r_queue+337,fsr2l
  6721   001680  C687  FFDA         	movff	_r_queue+338,fsr2h
  6722   001684  5130               	movf	mutex_lock@m& (0+255),w,b
  6723   001686  6EE1               	movwf	fsr1l,c
  6724   001688  6AE2               	clrf	fsr1h,c
  6725   00168A  0E01               	movlw	1
  6726   00168C  26E1               	addwf	fsr1l,f,c
  6727   00168E  CFDF FFE7          	movff	indf2,indf1
  6728   001692                     i1l4816:
  6729                           
  6730                           ;sync.c: 66:     INTCONbits.GIE = 1;;
  6731   001692  8EF2               	bsf	242,7,c	;volatile
  6732   001694  0012               	return		;funcret
  6733   001696                     __end_of_mutex_lock:
  6734                           	callstack 0
  6735                           
  6736 ;; *************** function i1_scheduler *****************
  6737 ;; Defined at:
  6738 ;;		line 9 in file "scheduler.c"
  6739 ;; Parameters:    Size  Location     Type
  6740 ;;		None
  6741 ;; Auto vars:     Size  Location     Type
  6742 ;;		None
  6743 ;; Return value:  Size  Location     Type
  6744 ;;                  1    wreg      void 
  6745 ;; Registers used:
  6746 ;;		wreg, fsr2l, fsr2h, status,2, status,0, prodl, prodh, cstack
  6747 ;; Tracked objects:
  6748 ;;		On entry : 0/0
  6749 ;;		On exit  : 0/0
  6750 ;;		Unchanged: 0/0
  6751 ;; Data sizes:     COMRAM   BANK0   BANK1   BANK2   BANK3   BANK4   BANK5   BANK6   BANK7   BANK8   BANK9  BANK10  BANK1
      +1  BANK12  BANK13  BANK14  BANK15
  6752 ;;      Params:         0       0       0       0       0       0       0       0       0       0       0       0       
      +0       0       0       0       0
  6753 ;;      Locals:         0       0       0       0       0       0       0       0       0       0       0       0       
      +0       0       0       0       0
  6754 ;;      Temps:          0       0       0       3       0       0       0       0       0       0       0       0       
      +0       0       0       0       0
  6755 ;;      Totals:         0       0       0       3       0       0       0       0       0       0       0       0       
      +0       0       0       0       0
  6756 ;;Total ram usage:        3 bytes
  6757 ;; Hardware stack levels used: 1
  6758 ;; Hardware stack levels required when called: 4
  6759 ;; This function calls:
  6760 ;;		i1_priority_rr_scheduler
  6761 ;; This function is called by:
  6762 ;;		_os_delay
  6763 ;;		_sem_wait
  6764 ;;		_mutex_lock
  6765 ;; This function uses a non-reentrant model
  6766 ;;
  6767                           
  6768                           	psect	text21
  6769   00311C                     __ptext21:
  6770                           	callstack 0
  6771   00311C                     i1_scheduler:
  6772                           	callstack 19
  6773   00311C                     
  6774                           ;scheduler.c: 15:     r_queue.pos_task_running = priority_rr_scheduler();
  6775   00311C  ECD4  F013         	call	i1_priority_rr_scheduler	;wreg free
  6776   003120  0102               	movlb	2	; () banked
  6777   003122  6F75               	movwf	??i1_scheduler& (0+255),b
  6778   003124  C275  F688         	movff	??i1_scheduler,_r_queue+339
  6779   003128                     
  6780                           ; BSR set to: 2
  6781                           ;scheduler.c: 17:     r_queue.task_running = &r_queue.TASKS[r_queue.pos_task_running];
  6782   003128  C688  F275         	movff	_r_queue+339,??i1_scheduler
  6783   00312C  5175               	movf	??i1_scheduler& (0+255),w,b
  6784   00312E  0D30               	mullw	48
  6785   003130  0E35               	movlw	low _r_queue
  6786   003132  24F3               	addwf	243,w,c
  6787   003134  6F76               	movwf	(??i1_scheduler+1)& (0+255),b
  6788   003136  0E05               	movlw	high _r_queue
  6789   003138  20F4               	addwfc	prodh,w,c
  6790   00313A  6F77               	movwf	(??i1_scheduler+2)& (0+255),b
  6791   00313C  C276  F686         	movff	??i1_scheduler+1,_r_queue+337
  6792   003140  C277  F687         	movff	??i1_scheduler+2,_r_queue+338
  6793   003144                     
  6794                           ; BSR set to: 2
  6795   003144  0012               	return		;funcret
  6796   003146                     __end_ofi1_scheduler:
  6797                           	callstack 0
  6798                           
  6799 ;; *************** function i1_priority_rr_scheduler *****************
  6800 ;; Defined at:
  6801 ;;		line 51 in file "scheduler.c"
  6802 ;; Parameters:    Size  Location     Type
  6803 ;;		None
  6804 ;; Auto vars:     Size  Location     Type
  6805 ;;  idx             1  116[BANK2 ] unsigned char 
  6806 ;;  i               1  115[BANK2 ] unsigned char 
  6807 ;;  i               1  114[BANK2 ] unsigned char 
  6808 ;;  found           1  113[BANK2 ] unsigned char 
  6809 ;;  max_prio        1  112[BANK2 ] unsigned char 
  6810 ;;  current         1  111[BANK2 ] unsigned char 
  6811 ;; Return value:  Size  Location     Type
  6812 ;;                  1    wreg      unsigned char 
  6813 ;; Registers used:
  6814 ;;		wreg, fsr2l, fsr2h, status,2, status,0, prodl, prodh
  6815 ;; Tracked objects:
  6816 ;;		On entry : 0/0
  6817 ;;		On exit  : 0/0
  6818 ;;		Unchanged: 0/0
  6819 ;; Data sizes:     COMRAM   BANK0   BANK1   BANK2   BANK3   BANK4   BANK5   BANK6   BANK7   BANK8   BANK9  BANK10  BANK1
      +1  BANK12  BANK13  BANK14  BANK15
  6820 ;;      Params:         0       0       0       0       0       0       0       0       0       0       0       0       
      +0       0       0       0       0
  6821 ;;      Locals:         0       0       0       6       0       0       0       0       0       0       0       0       
      +0       0       0       0       0
  6822 ;;      Temps:          0       0       0       1       0       0       0       0       0       0       0       0       
      +0       0       0       0       0
  6823 ;;      Totals:         0       0       0       7       0       0       0       0       0       0       0       0       
      +0       0       0       0       0
  6824 ;;Total ram usage:        7 bytes
  6825 ;; Hardware stack levels used: 1
  6826 ;; Hardware stack levels required when called: 3
  6827 ;; This function calls:
  6828 ;;		Nothing
  6829 ;; This function is called by:
  6830 ;;		i1_scheduler
  6831 ;; This function uses a non-reentrant model
  6832 ;;
  6833                           
  6834                           	psect	text22
  6835   0027A8                     __ptext22:
  6836                           	callstack 0
  6837   0027A8                     i1_priority_rr_scheduler:
  6838                           	callstack 19
  6839   0027A8                     
  6840                           ;scheduler.c: 52:     uint8_t max_prio = 0;
  6841   0027A8  0102               	movlb	2	; () banked
  6842   0027AA  6B70               	clrf	i1priority_rr_scheduler@max_prio& (0+255),b
  6843                           
  6844                           ;scheduler.c: 53:     uint8_t found = 0;
  6845   0027AC  6B71               	clrf	i1priority_rr_scheduler@found& (0+255),b
  6846                           
  6847                           ;scheduler.c: 55:     for (uint8_t i = 0; i < r_queue.size; i++) {
  6848   0027AE  6B73               	clrf	i1priority_rr_scheduler@i& (0+255),b
  6849   0027B0  EF10  F014         	goto	i1l4560
  6850   0027B4                     i1l4548:
  6851                           
  6852                           ; BSR set to: 2
  6853                           ;scheduler.c: 56:         if (r_queue.TASKS[i].task_state == READY) {
  6854   0027B4  5173               	movf	i1priority_rr_scheduler@i& (0+255),w,b
  6855   0027B6  0D30               	mullw	48
  6856   0027B8  0E36               	movlw	low (_r_queue+1)
  6857   0027BA  24F3               	addwf	243,w,c
  6858   0027BC  6ED9               	movwf	fsr2l,c
  6859   0027BE  0E05               	movlw	high (_r_queue+1)
  6860   0027C0  20F4               	addwfc	prodh,w,c
  6861   0027C2  6EDA               	movwf	fsr2h,c
  6862   0027C4  50DF               	movf	indf2,w,c
  6863   0027C6  A4D8               	btfss	status,2,c
  6864   0027C8  EFE8  F013         	goto	i1u439_21
  6865   0027CC  EFEA  F013         	goto	i1u439_20
  6866   0027D0                     i1u439_21:
  6867   0027D0  EF0F  F014         	goto	i1l4558
  6868   0027D4                     i1u439_20:
  6869   0027D4                     
  6870                           ; BSR set to: 2
  6871                           ;scheduler.c: 57:             if (!found || r_queue.TASKS[i].task_priority > max_prio) {
  6872   0027D4  5171               	movf	i1priority_rr_scheduler@found& (0+255),w,b
  6873   0027D6  B4D8               	btfsc	status,2,c
  6874   0027D8  EFF0  F013         	goto	i1u440_21
  6875   0027DC  EFF2  F013         	goto	i1u440_20
  6876   0027E0                     i1u440_21:
  6877   0027E0  EF03  F014         	goto	i1l4554
  6878   0027E4                     i1u440_20:
  6879   0027E4                     
  6880                           ; BSR set to: 2
  6881   0027E4  5173               	movf	i1priority_rr_scheduler@i& (0+255),w,b
  6882   0027E6  0D30               	mullw	48
  6883   0027E8  0E3A               	movlw	low (_r_queue+5)
  6884   0027EA  24F3               	addwf	243,w,c
  6885   0027EC  6ED9               	movwf	fsr2l,c
  6886   0027EE  0E05               	movlw	high (_r_queue+5)
  6887   0027F0  20F4               	addwfc	prodh,w,c
  6888   0027F2  6EDA               	movwf	fsr2h,c
  6889   0027F4  50DE               	movf	postinc2,w,c
  6890   0027F6  5D70               	subwf	i1priority_rr_scheduler@max_prio& (0+255),w,b
  6891   0027F8  B0D8               	btfsc	status,0,c
  6892   0027FA  EF01  F014         	goto	i1u441_21
  6893   0027FE  EF03  F014         	goto	i1u441_20
  6894   002802                     i1u441_21:
  6895   002802  EF0F  F014         	goto	i1l4558
  6896   002806                     i1u441_20:
  6897   002806                     i1l4554:
  6898                           
  6899                           ; BSR set to: 2
  6900                           ;scheduler.c: 58:                 max_prio = r_queue.TASKS[i].task_priority;
  6901   002806  5173               	movf	i1priority_rr_scheduler@i& (0+255),w,b
  6902   002808  0D30               	mullw	48
  6903   00280A  0E3A               	movlw	low (_r_queue+5)
  6904   00280C  24F3               	addwf	243,w,c
  6905   00280E  6ED9               	movwf	fsr2l,c
  6906   002810  0E05               	movlw	high (_r_queue+5)
  6907   002812  20F4               	addwfc	prodh,w,c
  6908   002814  6EDA               	movwf	fsr2h,c
  6909   002816  50DF               	movf	indf2,w,c
  6910   002818  6F70               	movwf	i1priority_rr_scheduler@max_prio& (0+255),b
  6911   00281A                     
  6912                           ; BSR set to: 2
  6913                           ;scheduler.c: 59:                 found = 1;
  6914   00281A  0E01               	movlw	1
  6915   00281C  6F71               	movwf	i1priority_rr_scheduler@found& (0+255),b
  6916   00281E                     i1l4558:
  6917                           
  6918                           ; BSR set to: 2
  6919                           ;scheduler.c: 62:     }
  6920   00281E  2B73               	incf	i1priority_rr_scheduler@i& (0+255),f,b
  6921   002820                     i1l4560:
  6922                           
  6923                           ; BSR set to: 2
  6924   002820  EE26  F085         	lfsr	2,_r_queue+336
  6925   002824  50DE               	movf	postinc2,w,c
  6926   002826  5D73               	subwf	i1priority_rr_scheduler@i& (0+255),w,b
  6927   002828  A0D8               	btfss	status,0,c
  6928   00282A  EF19  F014         	goto	i1u442_21
  6929   00282E  EF1B  F014         	goto	i1u442_20
  6930   002832                     i1u442_21:
  6931   002832  EFDA  F013         	goto	i1l4548
  6932   002836                     i1u442_20:
  6933   002836                     
  6934                           ; BSR set to: 2
  6935                           ;scheduler.c: 63:     if (!found)return 0;
  6936   002836  5171               	movf	i1priority_rr_scheduler@found& (0+255),w,b
  6937   002838  A4D8               	btfss	status,2,c
  6938   00283A  EF21  F014         	goto	i1u443_21
  6939   00283E  EF23  F014         	goto	i1u443_20
  6940   002842                     i1u443_21:
  6941   002842  EF26  F014         	goto	i1l504
  6942   002846                     i1u443_20:
  6943   002846                     i1l4564:
  6944                           
  6945                           ; BSR set to: 2
  6946   002846  0E00               	movlw	0
  6947   002848  EF6F  F014         	goto	i1l505
  6948   00284C                     i1l504:
  6949                           
  6950                           ; BSR set to: 2
  6951                           ;scheduler.c: 64:     uint8_t current = r_queue.pos_task_running;
  6952   00284C  C688  F26F         	movff	_r_queue+339,i1priority_rr_scheduler@current
  6953                           
  6954                           ;scheduler.c: 66:     for (uint8_t i = 0; i < r_queue.size; i++) {
  6955   002850  6B72               	clrf	i1priority_rr_scheduler@i_1768& (0+255),b
  6956   002852  EF62  F014         	goto	i1l4584
  6957   002856                     i1l4568:
  6958                           
  6959                           ; BSR set to: 2
  6960                           ;scheduler.c: 67:         uint8_t idx = current + i;
  6961   002856  516F               	movf	i1priority_rr_scheduler@current& (0+255),w,b
  6962   002858  2572               	addwf	i1priority_rr_scheduler@i_1768& (0+255),w,b
  6963   00285A  6F74               	movwf	i1priority_rr_scheduler@idx& (0+255),b
  6964   00285C                     
  6965                           ; BSR set to: 2
  6966                           ;scheduler.c: 68:         if (idx >= r_queue.size) idx -= r_queue.size;
  6967   00285C  EE26  F085         	lfsr	2,_r_queue+336
  6968   002860  50DE               	movf	postinc2,w,c
  6969   002862  5D74               	subwf	i1priority_rr_scheduler@idx& (0+255),w,b
  6970   002864  A0D8               	btfss	status,0,c
  6971   002866  EF37  F014         	goto	i1u444_21
  6972   00286A  EF39  F014         	goto	i1u444_20
  6973   00286E                     i1u444_21:
  6974   00286E  EF3D  F014         	goto	i1l4574
  6975   002872                     i1u444_20:
  6976   002872                     
  6977                           ; BSR set to: 2
  6978   002872  EE26  F085         	lfsr	2,_r_queue+336
  6979   002876  50DF               	movf	indf2,w,c
  6980   002878  5F74               	subwf	i1priority_rr_scheduler@idx& (0+255),f,b
  6981   00287A                     i1l4574:
  6982                           
  6983                           ; BSR set to: 2
  6984                           ;scheduler.c: 69:         if (r_queue.TASKS[idx].task_state == READY &&
  6985   00287A  5174               	movf	i1priority_rr_scheduler@idx& (0+255),w,b
  6986   00287C  0D30               	mullw	48
  6987   00287E  0E36               	movlw	low (_r_queue+1)
  6988   002880  24F3               	addwf	243,w,c
  6989   002882  6ED9               	movwf	fsr2l,c
  6990   002884  0E05               	movlw	high (_r_queue+1)
  6991   002886  20F4               	addwfc	prodh,w,c
  6992   002888  6EDA               	movwf	fsr2h,c
  6993   00288A  50DF               	movf	indf2,w,c
  6994   00288C  A4D8               	btfss	status,2,c
  6995   00288E  EF4B  F014         	goto	i1u445_21
  6996   002892  EF4D  F014         	goto	i1u445_20
  6997   002896                     i1u445_21:
  6998   002896  EF61  F014         	goto	i1l4582
  6999   00289A                     i1u445_20:
  7000   00289A                     
  7001                           ; BSR set to: 2
  7002   00289A  5174               	movf	i1priority_rr_scheduler@idx& (0+255),w,b
  7003   00289C  0D30               	mullw	48
  7004   00289E  0E3A               	movlw	low (_r_queue+5)
  7005   0028A0  24F3               	addwf	243,w,c
  7006   0028A2  6ED9               	movwf	fsr2l,c
  7007   0028A4  0E05               	movlw	high (_r_queue+5)
  7008   0028A6  20F4               	addwfc	prodh,w,c
  7009   0028A8  6EDA               	movwf	fsr2h,c
  7010   0028AA  5170               	movf	i1priority_rr_scheduler@max_prio& (0+255),w,b
  7011   0028AC  18DE               	xorwf	postinc2,w,c
  7012   0028AE  A4D8               	btfss	status,2,c
  7013   0028B0  EF5C  F014         	goto	i1u446_21
  7014   0028B4  EF5E  F014         	goto	i1u446_20
  7015   0028B8                     i1u446_21:
  7016   0028B8  EF61  F014         	goto	i1l4582
  7017   0028BC                     i1u446_20:
  7018   0028BC                     
  7019                           ; BSR set to: 2
  7020                           ;scheduler.c: 70:                 r_queue.TASKS[idx].task_priority == max_prio) {;schedu
      +                          ler.c: 71:             return idx;
  7021   0028BC  5174               	movf	i1priority_rr_scheduler@idx& (0+255),w,b
  7022   0028BE  EF6F  F014         	goto	i1l505
  7023   0028C2                     i1l4582:
  7024                           
  7025                           ; BSR set to: 2
  7026                           ;scheduler.c: 73:     }
  7027   0028C2  2B72               	incf	i1priority_rr_scheduler@i_1768& (0+255),f,b
  7028   0028C4                     i1l4584:
  7029                           
  7030                           ; BSR set to: 2
  7031   0028C4  EE26  F085         	lfsr	2,_r_queue+336
  7032   0028C8  50DE               	movf	postinc2,w,c
  7033   0028CA  5D72               	subwf	i1priority_rr_scheduler@i_1768& (0+255),w,b
  7034   0028CC  A0D8               	btfss	status,0,c
  7035   0028CE  EF6B  F014         	goto	i1u447_21
  7036   0028D2  EF6D  F014         	goto	i1u447_20
  7037   0028D6                     i1u447_21:
  7038   0028D6  EF2B  F014         	goto	i1l4568
  7039   0028DA                     i1u447_20:
  7040   0028DA  EF23  F014         	goto	i1l4564
  7041   0028DE                     i1l505:
  7042                           
  7043                           ; BSR set to: 2
  7044   0028DE  0012               	return		;funcret
  7045   0028E0                     __end_ofi1_priority_rr_scheduler:
  7046                           	callstack 0
  7047                           
  7048 ;; *************** function ___awmod *****************
  7049 ;; Defined at:
  7050 ;;		line 7 in file "C:\Program Files\Microchip\xc8\v3.10\pic\sources\c99\common\awmod.c"
  7051 ;; Parameters:    Size  Location     Type
  7052 ;;  dividend        2   67[BANK1 ] int 
  7053 ;;  divisor         2   69[BANK1 ] int 
  7054 ;; Auto vars:     Size  Location     Type
  7055 ;;  sign            1   72[BANK1 ] unsigned char 
  7056 ;;  counter         1   71[BANK1 ] unsigned char 
  7057 ;; Return value:  Size  Location     Type
  7058 ;;                  2   67[BANK1 ] int 
  7059 ;; Registers used:
  7060 ;;		wreg, status,2, status,0
  7061 ;; Tracked objects:
  7062 ;;		On entry : 0/0
  7063 ;;		On exit  : 0/0
  7064 ;;		Unchanged: 0/0
  7065 ;; Data sizes:     COMRAM   BANK0   BANK1   BANK2   BANK3   BANK4   BANK5   BANK6   BANK7   BANK8   BANK9  BANK10  BANK1
      +1  BANK12  BANK13  BANK14  BANK15
  7066 ;;      Params:         0       0       4       0       0       0       0       0       0       0       0       0       
      +0       0       0       0       0
  7067 ;;      Locals:         0       0       2       0       0       0       0       0       0       0       0       0       
      +0       0       0       0       0
  7068 ;;      Temps:          0       0       0       0       0       0       0       0       0       0       0       0       
      +0       0       0       0       0
  7069 ;;      Totals:         0       0       6       0       0       0       0       0       0       0       0       0       
      +0       0       0       0       0
  7070 ;;Total ram usage:        6 bytes
  7071 ;; Hardware stack levels used: 1
  7072 ;; Hardware stack levels required when called: 3
  7073 ;; This function calls:
  7074 ;;		Nothing
  7075 ;; This function is called by:
  7076 ;;		_sem_wait
  7077 ;;		_sem_post
  7078 ;;		_mutex_lock
  7079 ;;		_mutex_unlock
  7080 ;;		_LED_1
  7081 ;; This function uses a non-reentrant model
  7082 ;;
  7083                           
  7084                           	psect	text23
  7085   002B18                     __ptext23:
  7086                           	callstack 0
  7087   002B18                     ___awmod:
  7088                           	callstack 20
  7089   002B18  0101               	movlb	1	; () banked
  7090   002B1A  6B48               	clrf	___awmod@sign& (0+255),b
  7091   002B1C                     
  7092                           ; BSR set to: 1
  7093   002B1C  BF44               	btfsc	(___awmod@dividend+1)& (0+255),7,b
  7094   002B1E  EF95  F015         	goto	i1u363_20
  7095   002B22  EF93  F015         	goto	i1u363_21
  7096   002B26                     i1u363_21:
  7097   002B26  EF9B  F015         	goto	i1l4050
  7098   002B2A                     i1u363_20:
  7099   002B2A                     
  7100                           ; BSR set to: 1
  7101   002B2A  6D43               	negf	___awmod@dividend& (0+255),b
  7102   002B2C  1F44               	comf	(___awmod@dividend+1)& (0+255),f,b
  7103   002B2E  B0D8               	btfsc	status,0,c
  7104   002B30  2B44               	incf	(___awmod@dividend+1)& (0+255),f,b
  7105   002B32                     
  7106                           ; BSR set to: 1
  7107   002B32  0E01               	movlw	1
  7108   002B34  6F48               	movwf	___awmod@sign& (0+255),b
  7109   002B36                     i1l4050:
  7110                           
  7111                           ; BSR set to: 1
  7112   002B36  BF46               	btfsc	(___awmod@divisor+1)& (0+255),7,b
  7113   002B38  EFA2  F015         	goto	i1u364_20
  7114   002B3C  EFA0  F015         	goto	i1u364_21
  7115   002B40                     i1u364_21:
  7116   002B40  EFA6  F015         	goto	i1l4054
  7117   002B44                     i1u364_20:
  7118   002B44                     
  7119                           ; BSR set to: 1
  7120   002B44  6D45               	negf	___awmod@divisor& (0+255),b
  7121   002B46  1F46               	comf	(___awmod@divisor+1)& (0+255),f,b
  7122   002B48  B0D8               	btfsc	status,0,c
  7123   002B4A  2B46               	incf	(___awmod@divisor+1)& (0+255),f,b
  7124   002B4C                     i1l4054:
  7125                           
  7126                           ; BSR set to: 1
  7127   002B4C  5145               	movf	___awmod@divisor& (0+255),w,b
  7128   002B4E  1146               	iorwf	(___awmod@divisor+1)& (0+255),w,b
  7129   002B50  B4D8               	btfsc	status,2,c
  7130   002B52  EFAD  F015         	goto	i1u365_21
  7131   002B56  EFAF  F015         	goto	i1u365_20
  7132   002B5A                     i1u365_21:
  7133   002B5A  EFD3  F015         	goto	i1l4070
  7134   002B5E                     i1u365_20:
  7135   002B5E                     
  7136                           ; BSR set to: 1
  7137   002B5E  0E01               	movlw	1
  7138   002B60  6F47               	movwf	___awmod@counter& (0+255),b
  7139   002B62  EFB7  F015         	goto	i1l4060
  7140   002B66                     i1l4058:
  7141                           
  7142                           ; BSR set to: 1
  7143   002B66  90D8               	bcf	status,0,c
  7144   002B68  3745               	rlcf	___awmod@divisor& (0+255),f,b
  7145   002B6A  3746               	rlcf	(___awmod@divisor+1)& (0+255),f,b
  7146   002B6C  2B47               	incf	___awmod@counter& (0+255),f,b
  7147   002B6E                     i1l4060:
  7148                           
  7149                           ; BSR set to: 1
  7150   002B6E  AF46               	btfss	(___awmod@divisor+1)& (0+255),7,b
  7151   002B70  EFBC  F015         	goto	i1u366_21
  7152   002B74  EFBE  F015         	goto	i1u366_20
  7153   002B78                     i1u366_21:
  7154   002B78  EFB3  F015         	goto	i1l4058
  7155   002B7C                     i1u366_20:
  7156   002B7C                     i1l4062:
  7157                           
  7158                           ; BSR set to: 1
  7159   002B7C  5145               	movf	___awmod@divisor& (0+255),w,b
  7160   002B7E  5D43               	subwf	___awmod@dividend& (0+255),w,b
  7161   002B80  5146               	movf	(___awmod@divisor+1)& (0+255),w,b
  7162   002B82  5944               	subwfb	(___awmod@dividend+1)& (0+255),w,b
  7163   002B84  A0D8               	btfss	status,0,c
  7164   002B86  EFC7  F015         	goto	i1u367_21
  7165   002B8A  EFC9  F015         	goto	i1u367_20
  7166   002B8E                     i1u367_21:
  7167   002B8E  EFCD  F015         	goto	i1l4066
  7168   002B92                     i1u367_20:
  7169   002B92                     
  7170                           ; BSR set to: 1
  7171   002B92  5145               	movf	___awmod@divisor& (0+255),w,b
  7172   002B94  5F43               	subwf	___awmod@dividend& (0+255),f,b
  7173   002B96  5146               	movf	(___awmod@divisor+1)& (0+255),w,b
  7174   002B98  5B44               	subwfb	(___awmod@dividend+1)& (0+255),f,b
  7175   002B9A                     i1l4066:
  7176                           
  7177                           ; BSR set to: 1
  7178   002B9A  90D8               	bcf	status,0,c
  7179   002B9C  3346               	rrcf	(___awmod@divisor+1)& (0+255),f,b
  7180   002B9E  3345               	rrcf	___awmod@divisor& (0+255),f,b
  7181   002BA0                     
  7182                           ; BSR set to: 1
  7183   002BA0  2F47               	decfsz	___awmod@counter& (0+255),f,b
  7184   002BA2  EFBE  F015         	goto	i1l4062
  7185   002BA6                     i1l4070:
  7186                           
  7187                           ; BSR set to: 1
  7188   002BA6  5148               	movf	___awmod@sign& (0+255),w,b
  7189   002BA8  B4D8               	btfsc	status,2,c
  7190   002BAA  EFD9  F015         	goto	i1u368_21
  7191   002BAE  EFDB  F015         	goto	i1u368_20
  7192   002BB2                     i1u368_21:
  7193   002BB2  EFDF  F015         	goto	i1l4074
  7194   002BB6                     i1u368_20:
  7195   002BB6                     
  7196                           ; BSR set to: 1
  7197   002BB6  6D43               	negf	___awmod@dividend& (0+255),b
  7198   002BB8  1F44               	comf	(___awmod@dividend+1)& (0+255),f,b
  7199   002BBA  B0D8               	btfsc	status,0,c
  7200   002BBC  2B44               	incf	(___awmod@dividend+1)& (0+255),f,b
  7201   002BBE                     i1l4074:
  7202                           
  7203                           ; BSR set to: 1
  7204   002BBE  C143  F143         	movff	___awmod@dividend,?___awmod
  7205   002BC2  C144  F144         	movff	___awmod@dividend+1,?___awmod+1
  7206   002BC6                     
  7207                           ; BSR set to: 1
  7208   002BC6  0012               	return		;funcret
  7209   002BC8                     __end_of___awmod:
  7210                           	callstack 0
  7211                           
  7212 ;; *************** function _LED_2 *****************
  7213 ;; Defined at:
  7214 ;;		line 58 in file "user.c"
  7215 ;; Parameters:    Size  Location     Type
  7216 ;;		None
  7217 ;; Auto vars:     Size  Location     Type
  7218 ;;		None
  7219 ;; Return value:  Size  Location     Type
  7220 ;;                  1    wreg      void 
  7221 ;; Registers used:
  7222 ;;		wreg, fsr1l, fsr1h, fsr2l, fsr2h, status,2, status,0, prodl, prodh, cstack
  7223 ;; Tracked objects:
  7224 ;;		On entry : 0/0
  7225 ;;		On exit  : 0/0
  7226 ;;		Unchanged: 0/0
  7227 ;; Data sizes:     COMRAM   BANK0   BANK1   BANK2   BANK3   BANK4   BANK5   BANK6   BANK7   BANK8   BANK9  BANK10  BANK1
      +1  BANK12  BANK13  BANK14  BANK15
  7228 ;;      Params:         0       0       0       0       0       0       0       0       0       0       0       0       
      +0       0       0       0       0
  7229 ;;      Locals:         0       0       0       0       0       0       0       0       0       0       0       0       
      +0       0       0       0       0
  7230 ;;      Temps:          0       0       0       0       0       0       0       0       0       0       0       0       
      +0       0       0       0       0
  7231 ;;      Totals:         0       0       0       0       0       0       0       0       0       0       0       0       
      +0       0       0       0       0
  7232 ;;Total ram usage:        0 bytes
  7233 ;; Hardware stack levels used: 1
  7234 ;; Hardware stack levels required when called: 7
  7235 ;; This function calls:
  7236 ;;		_pipe_read
  7237 ;;		_sem_wait
  7238 ;; This function is called by:
  7239 ;;		_main
  7240 ;; This function uses a non-reentrant model
  7241 ;;
  7242                           
  7243                           	psect	text24
  7244   002F32                     __ptext24:
  7245                           	callstack 0
  7246   002F32                     _LED_2:
  7247                           	callstack 19
  7248   002F32                     l383:
  7249   002F32                     
  7250                           ;user.c: 60:         sem_wait(&s);
  7251   002F32  0E83               	movlw	low _s
  7252   002F34  0101               	movlb	1	; () banked
  7253   002F36  6F49               	movwf	sem_wait@sem& (0+255),b
  7254   002F38  EC4B  F00B         	call	_sem_wait	;wreg free
  7255                           
  7256                           ;user.c: 61:         pipe_read(&p, &dado);
  7257   002F3C  0E60               	movlw	low _p
  7258   002F3E  0101               	movlb	1	; () banked
  7259   002F40  6F51               	movwf	pipe_read@p& (0+255),b
  7260   002F42  0E46               	movlw	low _dado
  7261   002F44  6F52               	movwf	pipe_read@dado& (0+255),b
  7262   002F46  EC44  F017         	call	_pipe_read	;wreg free
  7263   002F4A                     
  7264                           ;user.c: 62:         if (dado == 'L')
  7265   002F4A  0E4C               	movlw	76
  7266   002F4C  1846               	xorwf	_dado^0,w,c
  7267   002F4E  A4D8               	btfss	status,2,c
  7268   002F50  EFAC  F017         	goto	u490_21
  7269   002F54  EFAE  F017         	goto	u490_20
  7270   002F58                     u490_21:
  7271   002F58  EFB1  F017         	goto	l4942
  7272   002F5C                     u490_20:
  7273   002F5C                     
  7274                           ;user.c: 63:             PORTDbits.RD0 = 1;
  7275   002F5C  8083               	bsf	131,0,c	;volatile
  7276   002F5E  EF99  F017         	goto	l383
  7277   002F62                     l4942:
  7278   002F62  0E44               	movlw	68
  7279   002F64  1846               	xorwf	_dado^0,w,c
  7280   002F66  A4D8               	btfss	status,2,c
  7281   002F68  EFB8  F017         	goto	u491_21
  7282   002F6C  EFBA  F017         	goto	u491_20
  7283   002F70                     u491_21:
  7284   002F70  EF99  F017         	goto	l383
  7285   002F74                     u491_20:
  7286   002F74                     
  7287                           ;user.c: 65:             PORTDbits.RD0 = 0;
  7288   002F74  9083               	bcf	131,0,c	;volatile
  7289   002F76  EF99  F017         	goto	l383
  7290   002F7A  0012               	return		;funcret
  7291   002F7C                     __end_of_LED_2:
  7292                           	callstack 0
  7293                           
  7294 ;; *************** function _pipe_read *****************
  7295 ;; Defined at:
  7296 ;;		line 19 in file "com.c"
  7297 ;; Parameters:    Size  Location     Type
  7298 ;;  p               1   81[BANK1 ] PTR struct pipe
  7299 ;;		 -> p(24), 
  7300 ;;  dado            1   82[BANK1 ] PTR unsigned char 
  7301 ;;		 -> dado(1), 
  7302 ;; Auto vars:     Size  Location     Type
  7303 ;;		None
  7304 ;; Return value:  Size  Location     Type
  7305 ;;                  1    wreg      void 
  7306 ;; Registers used:
  7307 ;;		wreg, fsr1l, fsr1h, fsr2l, fsr2h, status,2, status,0, prodl, prodh, cstack
  7308 ;; Tracked objects:
  7309 ;;		On entry : 0/0
  7310 ;;		On exit  : 0/0
  7311 ;;		Unchanged: 0/0
  7312 ;; Data sizes:     COMRAM   BANK0   BANK1   BANK2   BANK3   BANK4   BANK5   BANK6   BANK7   BANK8   BANK9  BANK10  BANK1
      +1  BANK12  BANK13  BANK14  BANK15
  7313 ;;      Params:         0       0       2       0       0       0       0       0       0       0       0       0       
      +0       0       0       0       0
  7314 ;;      Locals:         0       0       0       0       0       0       0       0       0       0       0       0       
      +0       0       0       0       0
  7315 ;;      Temps:          0       0       1       0       0       0       0       0       0       0       0       0       
      +0       0       0       0       0
  7316 ;;      Totals:         0       0       3       0       0       0       0       0       0       0       0       0       
      +0       0       0       0       0
  7317 ;;Total ram usage:        3 bytes
  7318 ;; Hardware stack levels used: 1
  7319 ;; Hardware stack levels required when called: 6
  7320 ;; This function calls:
  7321 ;;		_sem_post
  7322 ;;		_sem_wait
  7323 ;; This function is called by:
  7324 ;;		_LED_2
  7325 ;; This function uses a non-reentrant model
  7326 ;;
  7327                           
  7328                           	psect	text25
  7329   002E88                     __ptext25:
  7330                           	callstack 0
  7331   002E88                     _pipe_read:
  7332                           	callstack 19
  7333   002E88                     
  7334                           ;com.c: 19: void pipe_read(pipe_t *p, char *dado);com.c: 20: {;com.c: 21:     sem_wait(&
      +                          p->s_output);
  7335   002E88  0101               	movlb	1	; () banked
  7336   002E8A  5151               	movf	pipe_read@p& (0+255),w,b
  7337   002E8C  0F0F               	addlw	15
  7338   002E8E  6F49               	movwf	sem_wait@sem& (0+255),b
  7339   002E90  EC4B  F00B         	call	_sem_wait	;wreg free
  7340   002E94                     
  7341                           ;com.c: 22:     *dado = p->fila_dados[p->pos_output];
  7342   002E94  0101               	movlb	1	; () banked
  7343   002E96  5151               	movf	pipe_read@p& (0+255),w,b
  7344   002E98  6ED9               	movwf	fsr2l,c
  7345   002E9A  6ADA               	clrf	fsr2h,c
  7346   002E9C  0E05               	movlw	5
  7347   002E9E  26D9               	addwf	fsr2l,f,c
  7348   002EA0  50DF               	movf	indf2,w,c
  7349   002EA2  6F53               	movwf	??_pipe_read& (0+255),b
  7350   002EA4  5151               	movf	pipe_read@p& (0+255),w,b
  7351   002EA6  2553               	addwf	??_pipe_read& (0+255),w,b
  7352   002EA8  6ED9               	movwf	fsr2l,c
  7353   002EAA  6ADA               	clrf	fsr2h,c
  7354   002EAC  5152               	movf	pipe_read@dado& (0+255),w,b
  7355   002EAE  6EE1               	movwf	fsr1l,c
  7356   002EB0  6AE2               	clrf	fsr1h,c
  7357   002EB2  CFDF FFE7          	movff	indf2,indf1
  7358   002EB6                     
  7359                           ; BSR set to: 1
  7360                           ;com.c: 23:     p->pos_output = (p->pos_output + 1) % 4;
  7361   002EB6  5151               	movf	pipe_read@p& (0+255),w,b
  7362   002EB8  6ED9               	movwf	fsr2l,c
  7363   002EBA  6ADA               	clrf	fsr2h,c
  7364   002EBC  0E05               	movlw	5
  7365   002EBE  26D9               	addwf	fsr2l,f,c
  7366   002EC0  5151               	movf	pipe_read@p& (0+255),w,b
  7367   002EC2  6EE1               	movwf	fsr1l,c
  7368   002EC4  6AE2               	clrf	fsr1h,c
  7369   002EC6  0E05               	movlw	5
  7370   002EC8  26E1               	addwf	fsr1l,f,c
  7371   002ECA  50E7               	movf	indf1,w,c
  7372   002ECC  6F53               	movwf	??_pipe_read& (0+255),b
  7373   002ECE  2953               	incf	??_pipe_read& (0+255),w,b
  7374   002ED0  0B03               	andlw	3
  7375   002ED2  6EDF               	movwf	indf2,c
  7376                           
  7377                           ;com.c: 24:     sem_post(&p->s_input);
  7378   002ED4  5151               	movf	pipe_read@p& (0+255),w,b
  7379   002ED6  0F06               	addlw	6
  7380   002ED8  6F49               	movwf	sem_post@sem& (0+255),b
  7381   002EDA  EC32  F016         	call	_sem_post	;wreg free
  7382   002EDE  0012               	return		;funcret
  7383   002EE0                     __end_of_pipe_read:
  7384                           	callstack 0
  7385                           
  7386 ;; *************** function _READ_ADC *****************
  7387 ;; Defined at:
  7388 ;;		line 69 in file "user.c"
  7389 ;; Parameters:    Size  Location     Type
  7390 ;;		None
  7391 ;; Auto vars:     Size  Location     Type
  7392 ;;		None
  7393 ;; Return value:  Size  Location     Type
  7394 ;;                  1    wreg      void 
  7395 ;; Registers used:
  7396 ;;		wreg, fsr1l, fsr1h, fsr2l, fsr2h, status,2, status,0, prodl, prodh, cstack
  7397 ;; Tracked objects:
  7398 ;;		On entry : 0/0
  7399 ;;		On exit  : 0/0
  7400 ;;		Unchanged: 0/0
  7401 ;; Data sizes:     COMRAM   BANK0   BANK1   BANK2   BANK3   BANK4   BANK5   BANK6   BANK7   BANK8   BANK9  BANK10  BANK1
      +1  BANK12  BANK13  BANK14  BANK15
  7402 ;;      Params:         0       0       0       0       0       0       0       0       0       0       0       0       
      +0       0       0       0       0
  7403 ;;      Locals:         0       0       0       0       0       0       0       0       0       0       0       0       
      +0       0       0       0       0
  7404 ;;      Temps:          0       0       0       0       0       0       0       0       0       0       0       0       
      +0       0       0       0       0
  7405 ;;      Totals:         0       0       0       0       0       0       0       0       0       0       0       0       
      +0       0       0       0       0
  7406 ;;Total ram usage:        0 bytes
  7407 ;; Hardware stack levels used: 1
  7408 ;; Hardware stack levels required when called: 6
  7409 ;; This function calls:
  7410 ;;		_adc_read
  7411 ;;		_os_delay
  7412 ;; This function is called by:
  7413 ;;		_main
  7414 ;; This function uses a non-reentrant model
  7415 ;;
  7416                           
  7417                           	psect	text26
  7418   003068                     __ptext26:
  7419                           	callstack 0
  7420   003068                     _READ_ADC:
  7421                           	callstack 20
  7422   003068                     l392:
  7423   003068                     
  7424                           ;user.c: 71:         if (adc_read() >= 123) {
  7425   003068  ECEC  F018         	call	_adc_read	;wreg free
  7426   00306C  0102               	movlb	2	; () banked
  7427   00306E  515D               	movf	(?_adc_read+1)& (0+255),w,b
  7428   003070  E109               	bnz	u492_20
  7429   003072  0E7B               	movlw	123
  7430   003074  5D5C               	subwf	?_adc_read& (0+255),w,b
  7431   003076  A0D8               	btfss	status,0,c
  7432   003078  EF40  F018         	goto	u492_21
  7433   00307C  EF42  F018         	goto	u492_20
  7434   003080                     u492_21:
  7435   003080  EF45  F018         	goto	l393
  7436   003084                     u492_20:
  7437   003084                     
  7438                           ; BSR set to: 2
  7439                           ;user.c: 72:             PORTCbits.RC7 = 1;
  7440   003084  8E82               	bsf	130,7,c	;volatile
  7441                           
  7442                           ;user.c: 73:         } else {
  7443   003086  EF46  F018         	goto	l4950
  7444   00308A                     l393:
  7445                           
  7446                           ; BSR set to: 2
  7447                           ;user.c: 74:             PORTCbits.RC7 = 0;
  7448   00308A  9E82               	bcf	130,7,c	;volatile
  7449   00308C                     l4950:
  7450                           
  7451                           ; BSR set to: 2
  7452                           ;user.c: 76:         os_delay(10);
  7453   00308C  0E0A               	movlw	10
  7454   00308E  EC81  F00E         	call	_os_delay
  7455   003092  EF34  F018         	goto	l392
  7456   003096  0012               	return		;funcret
  7457   003098                     __end_of_READ_ADC:
  7458                           	callstack 0
  7459                           
  7460 ;; *************** function _adc_read *****************
  7461 ;; Defined at:
  7462 ;;		line 17 in file "io.c"
  7463 ;; Parameters:    Size  Location     Type
  7464 ;;		None
  7465 ;; Auto vars:     Size  Location     Type
  7466 ;;		None
  7467 ;; Return value:  Size  Location     Type
  7468 ;;                  2   92[BANK2 ] unsigned short 
  7469 ;; Registers used:
  7470 ;;		None
  7471 ;; Tracked objects:
  7472 ;;		On entry : 0/0
  7473 ;;		On exit  : 0/0
  7474 ;;		Unchanged: 0/0
  7475 ;; Data sizes:     COMRAM   BANK0   BANK1   BANK2   BANK3   BANK4   BANK5   BANK6   BANK7   BANK8   BANK9  BANK10  BANK1
      +1  BANK12  BANK13  BANK14  BANK15
  7476 ;;      Params:         0       0       0       2       0       0       0       0       0       0       0       0       
      +0       0       0       0       0
  7477 ;;      Locals:         0       0       0       0       0       0       0       0       0       0       0       0       
      +0       0       0       0       0
  7478 ;;      Temps:          0       0       0       0       0       0       0       0       0       0       0       0       
      +0       0       0       0       0
  7479 ;;      Totals:         0       0       0       2       0       0       0       0       0       0       0       0       
      +0       0       0       0       0
  7480 ;;Total ram usage:        2 bytes
  7481 ;; Hardware stack levels used: 1
  7482 ;; Hardware stack levels required when called: 3
  7483 ;; This function calls:
  7484 ;;		Nothing
  7485 ;; This function is called by:
  7486 ;;		_READ_ADC
  7487 ;; This function uses a non-reentrant model
  7488 ;;
  7489                           
  7490                           	psect	text27
  7491   0031D8                     __ptext27:
  7492                           	callstack 0
  7493   0031D8                     _adc_read:
  7494                           	callstack 22
  7495   0031D8                     
  7496                           ;io.c: 19:     ADCON0bits.GO = 1;
  7497   0031D8  82C2               	bsf	194,1,c	;volatile
  7498   0031DA                     i1l300:
  7499   0031DA  B2C2               	btfsc	194,1,c	;volatile
  7500   0031DC  EFF2  F018         	goto	i1u473_21
  7501   0031E0  EFF4  F018         	goto	i1u473_20
  7502   0031E4                     i1u473_21:
  7503   0031E4  EFED  F018         	goto	i1l300
  7504   0031E8                     i1u473_20:
  7505   0031E8                     
  7506                           ;io.c: 24:     return ADRES;
  7507   0031E8  CFC3 F25C          	movff	4035,?_adc_read	;volatile
  7508   0031EC  CFC4 F25D          	movff	4036,?_adc_read+1	;volatile
  7509   0031F0  0012               	return		;funcret
  7510   0031F2                     __end_of_adc_read:
  7511                           	callstack 0
  7512                           
  7513 ;; *************** function _tarefaPWN *****************
  7514 ;; Defined at:
  7515 ;;		line 80 in file "user.c"
  7516 ;; Parameters:    Size  Location     Type
  7517 ;;		None
  7518 ;; Auto vars:     Size  Location     Type
  7519 ;;		None
  7520 ;; Return value:  Size  Location     Type
  7521 ;;                  1    wreg      void 
  7522 ;; Registers used:
  7523 ;;		wreg, fsr1l, fsr1h, fsr2l, fsr2h, status,2, status,0, prodl, prodh, cstack
  7524 ;; Tracked objects:
  7525 ;;		On entry : 0/0
  7526 ;;		On exit  : 0/0
  7527 ;;		Unchanged: 0/0
  7528 ;; Data sizes:     COMRAM   BANK0   BANK1   BANK2   BANK3   BANK4   BANK5   BANK6   BANK7   BANK8   BANK9  BANK10  BANK1
      +1  BANK12  BANK13  BANK14  BANK15
  7529 ;;      Params:         0       0       0       0       0       0       0       0       0       0       0       0       
      +0       0       0       0       0
  7530 ;;      Locals:         0       0       0       0       0       0       0       0       0       0       0       0       
      +0       0       0       0       0
  7531 ;;      Temps:          0       0       0       0       0       0       0       0       0       0       0       0       
      +0       0       0       0       0
  7532 ;;      Totals:         0       0       0       0       0       0       0       0       0       0       0       0       
      +0       0       0       0       0
  7533 ;;Total ram usage:        0 bytes
  7534 ;; Hardware stack levels used: 1
  7535 ;; Hardware stack levels required when called: 6
  7536 ;; This function calls:
  7537 ;;		_os_delay
  7538 ;;		_pwm_set_duty
  7539 ;; This function is called by:
  7540 ;;		_main
  7541 ;; This function uses a non-reentrant model
  7542 ;;
  7543                           
  7544                           	psect	text28
  7545   0031F2                     __ptext28:
  7546                           	callstack 0
  7547   0031F2                     _tarefaPWN:
  7548                           	callstack 20
  7549   0031F2                     l400:
  7550   0031F2                     
  7551                           ;user.c: 82:         pwm_set_duty(128);
  7552   0031F2  0102               	movlb	2	; () banked
  7553   0031F4  6B6F               	clrf	(pwm_set_duty@duty+1)& (0+255),b
  7554   0031F6  0E80               	movlw	128
  7555   0031F8  6F6E               	movwf	pwm_set_duty@duty& (0+255),b
  7556   0031FA  EC4C  F018         	call	_pwm_set_duty	;wreg free
  7557   0031FE                     
  7558                           ;user.c: 83:         os_delay(5);
  7559   0031FE  0E05               	movlw	5
  7560   003200  EC81  F00E         	call	_os_delay
  7561   003204  EFF9  F018         	goto	l400
  7562   003208  0012               	return		;funcret
  7563   00320A                     __end_of_tarefaPWN:
  7564                           	callstack 0
  7565                           
  7566 ;; *************** function _pwm_set_duty *****************
  7567 ;; Defined at:
  7568 ;;		line 35 in file "io.c"
  7569 ;; Parameters:    Size  Location     Type
  7570 ;;  duty            2  110[BANK2 ] unsigned short 
  7571 ;; Auto vars:     Size  Location     Type
  7572 ;;		None
  7573 ;; Return value:  Size  Location     Type
  7574 ;;                  1    wreg      void 
  7575 ;; Registers used:
  7576 ;;		wreg, status,2, status,0
  7577 ;; Tracked objects:
  7578 ;;		On entry : 0/0
  7579 ;;		On exit  : 0/0
  7580 ;;		Unchanged: 0/0
  7581 ;; Data sizes:     COMRAM   BANK0   BANK1   BANK2   BANK3   BANK4   BANK5   BANK6   BANK7   BANK8   BANK9  BANK10  BANK1
      +1  BANK12  BANK13  BANK14  BANK15
  7582 ;;      Params:         0       0       0       2       0       0       0       0       0       0       0       0       
      +0       0       0       0       0
  7583 ;;      Locals:         0       0       0       0       0       0       0       0       0       0       0       0       
      +0       0       0       0       0
  7584 ;;      Temps:          0       0       0       2       0       0       0       0       0       0       0       0       
      +0       0       0       0       0
  7585 ;;      Totals:         0       0       0       4       0       0       0       0       0       0       0       0       
      +0       0       0       0       0
  7586 ;;Total ram usage:        4 bytes
  7587 ;; Hardware stack levels used: 1
  7588 ;; Hardware stack levels required when called: 3
  7589 ;; This function calls:
  7590 ;;		Nothing
  7591 ;; This function is called by:
  7592 ;;		_tarefaPWN
  7593 ;; This function uses a non-reentrant model
  7594 ;;
  7595                           
  7596                           	psect	text29
  7597   003098                     __ptext29:
  7598                           	callstack 0
  7599   003098                     _pwm_set_duty:
  7600                           	callstack 22
  7601   003098                     
  7602                           ;io.c: 37:     CCPR1L = (duty >> 2) & 0xFF;
  7603   003098  C26E  F270         	movff	pwm_set_duty@duty,??_pwm_set_duty
  7604   00309C  C26F  F271         	movff	pwm_set_duty@duty+1,??_pwm_set_duty+1
  7605   0030A0  0102               	movlb	2	; () banked
  7606   0030A2  90D8               	bcf	status,0,c
  7607   0030A4  3371               	rrcf	(??_pwm_set_duty+1)& (0+255),f,b
  7608   0030A6  3370               	rrcf	??_pwm_set_duty& (0+255),f,b
  7609   0030A8  90D8               	bcf	status,0,c
  7610   0030AA  3371               	rrcf	(??_pwm_set_duty+1)& (0+255),f,b
  7611   0030AC  3370               	rrcf	??_pwm_set_duty& (0+255),f,b
  7612   0030AE  5170               	movf	??_pwm_set_duty& (0+255),w,b
  7613   0030B0  6EBE               	movwf	190,c	;volatile
  7614                           
  7615                           ;io.c: 38:     CCP1CONbits.DC1B = duty & 0x03;
  7616   0030B2  C26E  F270         	movff	pwm_set_duty@duty,??_pwm_set_duty
  7617   0030B6  0E03               	movlw	3
  7618   0030B8  1770               	andwf	??_pwm_set_duty& (0+255),f,b
  7619   0030BA  3B70               	swapf	??_pwm_set_duty& (0+255),f,b
  7620   0030BC  50BD               	movf	189,w,c	;volatile
  7621   0030BE  1970               	xorwf	??_pwm_set_duty& (0+255),w,b
  7622   0030C0  0BCF               	andlw	-49
  7623   0030C2  1970               	xorwf	??_pwm_set_duty& (0+255),w,b
  7624   0030C4  6EBD               	movwf	189,c	;volatile
  7625   0030C6                     
  7626                           ; BSR set to: 2
  7627   0030C6  0012               	return		;funcret
  7628   0030C8                     __end_of_pwm_set_duty:
  7629                           	callstack 0
  7630                           
  7631 ;; *************** function _ISR *****************
  7632 ;; Defined at:
  7633 ;;		line 25 in file "hw.c"
  7634 ;; Parameters:    Size  Location     Type
  7635 ;;		None
  7636 ;; Auto vars:     Size  Location     Type
  7637 ;;  i               2   66[COMRAM] int 
  7638 ;; Return value:  Size  Location     Type
  7639 ;;                  1    wreg      void 
  7640 ;; Registers used:
  7641 ;;		wreg, fsr1l, fsr1h, fsr2l, fsr2h, status,2, status,0, prodl, prodh, cstack
  7642 ;; Tracked objects:
  7643 ;;		On entry : 0/0
  7644 ;;		On exit  : 0/0
  7645 ;;		Unchanged: 0/0
  7646 ;; Data sizes:     COMRAM   BANK0   BANK1   BANK2   BANK3   BANK4   BANK5   BANK6   BANK7   BANK8   BANK9  BANK10  BANK1
      +1  BANK12  BANK13  BANK14  BANK15
  7647 ;;      Params:         0       0       0       0       0       0       0       0       0       0       0       0       
      +0       0       0       0       0
  7648 ;;      Locals:         2       0       0       0       0       0       0       0       0       0       0       0       
      +0       0       0       0       0
  7649 ;;      Temps:         13       0       0       0       0       0       0       0       0       0       0       0       
      +0       0       0       0       0
  7650 ;;      Totals:        15       0       0       0       0       0       0       0       0       0       0       0       
      +0       0       0       0       0
  7651 ;;Total ram usage:       15 bytes
  7652 ;; Hardware stack levels used: 1
  7653 ;; Hardware stack levels required when called: 2
  7654 ;; This function calls:
  7655 ;;		i2_os_create_task
  7656 ;;		i2_scheduler
  7657 ;; This function is called by:
  7658 ;;		Interrupt level 2
  7659 ;; This function uses a non-reentrant model
  7660 ;;
  7661                           
  7662                           	psect	intcode
  7663   000008                     __pintcode:
  7664                           	callstack 0
  7665   000008                     _ISR:
  7666                           	callstack 19
  7667                           
  7668                           ; BSR set to: 2
  7669                           ;incstack = 0
  7670   000008  8201               	bsf	int$flags,1,c	;set compiler interrupt flag (level 2)
  7671   00000A  CFE1 F03E          	movff	fsr1l,??_ISR+7
  7672   00000E  CFE2 F03F          	movff	fsr1h,??_ISR+8
  7673   000012  CFD9 F040          	movff	fsr2l,??_ISR+9
  7674   000016  CFDA F041          	movff	fsr2h,??_ISR+10
  7675   00001A  CFF3 F042          	movff	prodl,??_ISR+11
  7676   00001E  CFF4 F043          	movff	prodh,??_ISR+12
  7677   000022                     
  7678                           ;hw.c: 26:     if (INTCONbits.TMR0IF) {
  7679   000022  A4F2               	btfss	242,2,c	;volatile
  7680   000024  EF16  F000         	goto	i2u542_41
  7681   000028  EF18  F000         	goto	i2u542_40
  7682   00002C                     i2u542_41:
  7683   00002C  EF7F  F003         	goto	i2l5380
  7684   000030                     i2u542_40:
  7685   000030                     
  7686                           ;hw.c: 27:         INTCONbits.TMR0IF = 0;
  7687   000030  94F2               	bcf	242,2,c	;volatile
  7688   000032                     
  7689                           ;hw.c: 30:         for (int i = 0; i < r_queue.size; i++) {
  7690   000032  6A45               	clrf	(ISR@i+1)^0,c
  7691   000034  0E00               	movlw	0
  7692   000036  6E44               	movwf	ISR@i^0,c
  7693   000038  EF6E  F000         	goto	i2l5340
  7694   00003C                     i2l5332:
  7695                           
  7696                           ;hw.c: 31:             if (r_queue.TASKS[i].task_delay > 0) {
  7697   00003C  0E30               	movlw	48
  7698   00003E  0244               	mulwf	ISR@i^0,c
  7699   000040  CFF3 F037          	movff	prodl,??_ISR
  7700   000044  CFF4 F038          	movff	prodh,??_ISR+1
  7701   000048  0245               	mulwf	(ISR@i+1)^0,c
  7702   00004A  50F3               	movf	prodl,w,c
  7703   00004C  2638               	addwf	(??_ISR+1)^0,f,c
  7704   00004E  0E39               	movlw	low (_r_queue+4)
  7705   000050  2437               	addwf	??_ISR^0,w,c
  7706   000052  6ED9               	movwf	fsr2l,c
  7707   000054  0E05               	movlw	high (_r_queue+4)
  7708   000056  2038               	addwfc	(??_ISR+1)^0,w,c
  7709   000058  6EDA               	movwf	fsr2h,c
  7710   00005A  50DF               	movf	indf2,w,c
  7711   00005C  B4D8               	btfsc	status,2,c
  7712   00005E  EF33  F000         	goto	i2u543_41
  7713   000062  EF35  F000         	goto	i2u543_40
  7714   000066                     i2u543_41:
  7715   000066  EF6C  F000         	goto	i2l5338
  7716   00006A                     i2u543_40:
  7717   00006A                     
  7718                           ;hw.c: 32:                 r_queue.TASKS[i].task_delay--;
  7719   00006A  0E30               	movlw	48
  7720   00006C  0244               	mulwf	ISR@i^0,c
  7721   00006E  CFF3 F037          	movff	prodl,??_ISR
  7722   000072  CFF4 F038          	movff	prodh,??_ISR+1
  7723   000076  0245               	mulwf	(ISR@i+1)^0,c
  7724   000078  50F3               	movf	prodl,w,c
  7725   00007A  2638               	addwf	(??_ISR+1)^0,f,c
  7726   00007C  0E39               	movlw	low (_r_queue+4)
  7727   00007E  2437               	addwf	??_ISR^0,w,c
  7728   000080  6ED9               	movwf	fsr2l,c
  7729   000082  0E05               	movlw	high (_r_queue+4)
  7730   000084  2038               	addwfc	(??_ISR+1)^0,w,c
  7731   000086  6EDA               	movwf	fsr2h,c
  7732   000088  06DF               	decf	indf2,f,c
  7733                           
  7734                           ;hw.c: 33:                 if (r_queue.TASKS[i].task_delay == 0) {
  7735   00008A  0E30               	movlw	48
  7736   00008C  0244               	mulwf	ISR@i^0,c
  7737   00008E  CFF3 F037          	movff	prodl,??_ISR
  7738   000092  CFF4 F038          	movff	prodh,??_ISR+1
  7739   000096  0245               	mulwf	(ISR@i+1)^0,c
  7740   000098  50F3               	movf	prodl,w,c
  7741   00009A  2638               	addwf	(??_ISR+1)^0,f,c
  7742   00009C  0E39               	movlw	low (_r_queue+4)
  7743   00009E  2437               	addwf	??_ISR^0,w,c
  7744   0000A0  6ED9               	movwf	fsr2l,c
  7745   0000A2  0E05               	movlw	high (_r_queue+4)
  7746   0000A4  2038               	addwfc	(??_ISR+1)^0,w,c
  7747   0000A6  6EDA               	movwf	fsr2h,c
  7748   0000A8  50DF               	movf	indf2,w,c
  7749   0000AA  A4D8               	btfss	status,2,c
  7750   0000AC  EF5A  F000         	goto	i2u544_41
  7751   0000B0  EF5C  F000         	goto	i2u544_40
  7752   0000B4                     i2u544_41:
  7753   0000B4  EF6C  F000         	goto	i2l5338
  7754   0000B8                     i2u544_40:
  7755   0000B8                     
  7756                           ;hw.c: 34:                     r_queue.TASKS[i].task_state = READY;
  7757   0000B8  0E30               	movlw	48
  7758   0000BA  0244               	mulwf	ISR@i^0,c
  7759   0000BC  CFF3 F037          	movff	prodl,??_ISR
  7760   0000C0  CFF4 F038          	movff	prodh,??_ISR+1
  7761   0000C4  0245               	mulwf	(ISR@i+1)^0,c
  7762   0000C6  50F3               	movf	prodl,w,c
  7763   0000C8  2638               	addwf	(??_ISR+1)^0,f,c
  7764   0000CA  0E36               	movlw	low (_r_queue+1)
  7765   0000CC  2437               	addwf	??_ISR^0,w,c
  7766   0000CE  6ED9               	movwf	fsr2l,c
  7767   0000D0  0E05               	movlw	high (_r_queue+1)
  7768   0000D2  2038               	addwfc	(??_ISR+1)^0,w,c
  7769   0000D4  6EDA               	movwf	fsr2h,c
  7770   0000D6  6ADF               	clrf	indf2,c
  7771   0000D8                     i2l5338:
  7772                           
  7773                           ;hw.c: 37:         }
  7774   0000D8  4A44               	infsnz	ISR@i^0,f,c
  7775   0000DA  2A45               	incf	(ISR@i+1)^0,f,c
  7776   0000DC                     i2l5340:
  7777   0000DC  EE26  F085         	lfsr	2,_r_queue+336
  7778   0000E0  50DF               	movf	indf2,w,c
  7779   0000E2  6E37               	movwf	??_ISR^0,c
  7780   0000E4  6A38               	clrf	(??_ISR+1)^0,c
  7781   0000E6  5037               	movf	??_ISR^0,w,c
  7782   0000E8  5C44               	subwf	ISR@i^0,w,c
  7783   0000EA  5045               	movf	(ISR@i+1)^0,w,c
  7784   0000EC  0A80               	xorlw	128
  7785   0000EE  6E39               	movwf	(??_ISR+2)^0,c
  7786   0000F0  5038               	movf	(??_ISR+1)^0,w,c
  7787   0000F2  0A80               	xorlw	128
  7788   0000F4  5839               	subwfb	(??_ISR+2)^0,w,c
  7789   0000F6  A0D8               	btfss	status,0,c
  7790   0000F8  EF80  F000         	goto	i2u545_41
  7791   0000FC  EF82  F000         	goto	i2u545_40
  7792   000100                     i2u545_41:
  7793   000100  EF1E  F000         	goto	i2l5332
  7794   000104                     i2u545_40:
  7795   000104                     
  7796                           ;hw.c: 41:         rr_quantum--;
  7797   000104  0647               	decf	_rr_quantum^0,f,c
  7798   000106                     
  7799                           ;hw.c: 42:         if (rr_quantum == 0) {
  7800   000106  5047               	movf	_rr_quantum^0,w,c
  7801   000108  A4D8               	btfss	status,2,c
  7802   00010A  EF89  F000         	goto	i2u546_41
  7803   00010E  EF8B  F000         	goto	i2u546_40
  7804   000112                     i2u546_41:
  7805   000112  EF7F  F003         	goto	i2l5380
  7806   000116                     i2u546_40:
  7807   000116                     
  7808                           ;hw.c: 43:             rr_quantum = 20;
  7809   000116  0E14               	movlw	20
  7810   000118  6E47               	movwf	_rr_quantum^0,c
  7811   00011A  EE26  F086         	lfsr	2,_r_queue+337
  7812   00011E  EE10 F001          	lfsr	1,1
  7813   000122  50DE               	movf	postinc2,w,c
  7814   000124  26E1               	addwf	fsr1l,f,c
  7815   000126  50DD               	movf	postdec2,w,c
  7816   000128  22E2               	addwfc	fsr1h,f,c
  7817   00012A  0E02               	movlw	2
  7818   00012C  18E6               	xorwf	postinc1,w,c
  7819   00012E  A4D8               	btfss	status,2,c
  7820   000130  EF9C  F000         	goto	i2u547_41
  7821   000134  EF9E  F000         	goto	i2u547_40
  7822   000138                     i2u547_41:
  7823   000138  EFDA  F001         	goto	i2l5358
  7824   00013C                     i2u547_40:
  7825   00013C  EE26  F086         	lfsr	2,_r_queue+337
  7826   000140  EE10 F001          	lfsr	1,1
  7827   000144  50DE               	movf	postinc2,w,c
  7828   000146  26E1               	addwf	fsr1l,f,c
  7829   000148  50DD               	movf	postdec2,w,c
  7830   00014A  22E2               	addwfc	fsr1h,f,c
  7831   00014C  6AE7               	clrf	indf1,c
  7832   00014E  EE26  F086         	lfsr	2,_r_queue+337
  7833   000152  EE10 F008          	lfsr	1,8
  7834   000156  50DE               	movf	postinc2,w,c
  7835   000158  26E1               	addwf	fsr1l,f,c
  7836   00015A  50DD               	movf	postdec2,w,c
  7837   00015C  22E2               	addwfc	fsr1h,f,c
  7838   00015E  CFE0 FFE7          	movff	bsr,indf1	;volatile
  7839   000162  EE26  F086         	lfsr	2,_r_queue+337
  7840   000166  EE10 F00C          	lfsr	1,12
  7841   00016A  50DE               	movf	postinc2,w,c
  7842   00016C  26E1               	addwf	fsr1l,f,c
  7843   00016E  50DD               	movf	postdec2,w,c
  7844   000170  22E2               	addwfc	fsr1h,f,c
  7845   000172  CFEA FFE7          	movff	fsr0h,indf1	;volatile
  7846   000176  EE26  F086         	lfsr	2,_r_queue+337
  7847   00017A  EE10 F00B          	lfsr	1,11
  7848   00017E  50DE               	movf	postinc2,w,c
  7849   000180  26E1               	addwf	fsr1l,f,c
  7850   000182  50DD               	movf	postdec2,w,c
  7851   000184  22E2               	addwfc	fsr1h,f,c
  7852   000186  CFE9 FFE7          	movff	fsr0l,indf1	;volatile
  7853   00018A  EE26  F086         	lfsr	2,_r_queue+337
  7854   00018E  EE10 F00E          	lfsr	1,14
  7855   000192  50DE               	movf	postinc2,w,c
  7856   000194  26E1               	addwf	fsr1l,f,c
  7857   000196  50DD               	movf	postdec2,w,c
  7858   000198  22E2               	addwfc	fsr1h,f,c
  7859   00019A  CFE2 FFE7          	movff	fsr1h,indf1	;volatile
  7860   00019E  EE26  F086         	lfsr	2,_r_queue+337
  7861   0001A2  EE10 F00D          	lfsr	1,13
  7862   0001A6  50DE               	movf	postinc2,w,c
  7863   0001A8  26E1               	addwf	fsr1l,f,c
  7864   0001AA  50DD               	movf	postdec2,w,c
  7865   0001AC  22E2               	addwfc	fsr1h,f,c
  7866   0001AE  CFE1 FFE7          	movff	fsr1l,indf1	;volatile
  7867   0001B2  EE26  F086         	lfsr	2,_r_queue+337
  7868   0001B6  EE10 F010          	lfsr	1,16
  7869   0001BA  50DE               	movf	postinc2,w,c
  7870   0001BC  26E1               	addwf	fsr1l,f,c
  7871   0001BE  50DD               	movf	postdec2,w,c
  7872   0001C0  22E2               	addwfc	fsr1h,f,c
  7873   0001C2  CFDA FFE7          	movff	fsr2h,indf1	;volatile
  7874   0001C6  EE26  F086         	lfsr	2,_r_queue+337
  7875   0001CA  EE10 F00F          	lfsr	1,15
  7876   0001CE  50DE               	movf	postinc2,w,c
  7877   0001D0  26E1               	addwf	fsr1l,f,c
  7878   0001D2  50DD               	movf	postdec2,w,c
  7879   0001D4  22E2               	addwfc	fsr1h,f,c
  7880   0001D6  CFD9 FFE7          	movff	fsr2l,indf1	;volatile
  7881   0001DA  EE26  F086         	lfsr	2,_r_queue+337
  7882   0001DE  EE10 F015          	lfsr	1,21
  7883   0001E2  50DE               	movf	postinc2,w,c
  7884   0001E4  26E1               	addwf	fsr1l,f,c
  7885   0001E6  50DD               	movf	postdec2,w,c
  7886   0001E8  22E2               	addwfc	fsr1h,f,c
  7887   0001EA  CFFA FFE7          	movff	pclath,indf1	;volatile
  7888   0001EE  EE26  F086         	lfsr	2,_r_queue+337
  7889   0001F2  EE10 F016          	lfsr	1,22
  7890   0001F6  50DE               	movf	postinc2,w,c
  7891   0001F8  26E1               	addwf	fsr1l,f,c
  7892   0001FA  50DD               	movf	postdec2,w,c
  7893   0001FC  22E2               	addwfc	fsr1h,f,c
  7894   0001FE  CFFB FFE7          	movff	pclatu,indf1	;volatile
  7895   000202  EE26  F086         	lfsr	2,_r_queue+337
  7896   000206  EE10 F00A          	lfsr	1,10
  7897   00020A  50DE               	movf	postinc2,w,c
  7898   00020C  26E1               	addwf	fsr1l,f,c
  7899   00020E  50DD               	movf	postdec2,w,c
  7900   000210  22E2               	addwfc	fsr1h,f,c
  7901   000212  CFF4 FFE7          	movff	prodh,indf1	;volatile
  7902   000216  EE26  F086         	lfsr	2,_r_queue+337
  7903   00021A  EE10 F009          	lfsr	1,9
  7904   00021E  50DE               	movf	postinc2,w,c
  7905   000220  26E1               	addwf	fsr1l,f,c
  7906   000222  50DD               	movf	postdec2,w,c
  7907   000224  22E2               	addwfc	fsr1h,f,c
  7908   000226  CFF3 FFE7          	movff	prodl,indf1	;volatile
  7909   00022A  EE26  F086         	lfsr	2,_r_queue+337
  7910   00022E  EE10 F011          	lfsr	1,17
  7911   000232  50DE               	movf	postinc2,w,c
  7912   000234  26E1               	addwf	fsr1l,f,c
  7913   000236  50DD               	movf	postdec2,w,c
  7914   000238  22E2               	addwfc	fsr1h,f,c
  7915   00023A  CFF5 FFE7          	movff	tablat,indf1	;volatile
  7916   00023E  EE26  F086         	lfsr	2,_r_queue+337
  7917   000242  EE10 F013          	lfsr	1,19
  7918   000246  50DE               	movf	postinc2,w,c
  7919   000248  26E1               	addwf	fsr1l,f,c
  7920   00024A  50DD               	movf	postdec2,w,c
  7921   00024C  22E2               	addwfc	fsr1h,f,c
  7922   00024E  CFF7 FFE7          	movff	tblptrh,indf1	;volatile
  7923   000252  EE26  F086         	lfsr	2,_r_queue+337
  7924   000256  EE10 F012          	lfsr	1,18
  7925   00025A  50DE               	movf	postinc2,w,c
  7926   00025C  26E1               	addwf	fsr1l,f,c
  7927   00025E  50DD               	movf	postdec2,w,c
  7928   000260  22E2               	addwfc	fsr1h,f,c
  7929   000262  CFF6 FFE7          	movff	tblptrl,indf1	;volatile
  7930   000266  EE26  F086         	lfsr	2,_r_queue+337
  7931   00026A  EE10 F014          	lfsr	1,20
  7932   00026E  50DE               	movf	postinc2,w,c
  7933   000270  26E1               	addwf	fsr1l,f,c
  7934   000272  50DD               	movf	postdec2,w,c
  7935   000274  22E2               	addwfc	fsr1h,f,c
  7936   000276  CFF8 FFE7          	movff	tblptru,indf1	;volatile
  7937   00027A  EE26  F086         	lfsr	2,_r_queue+337
  7938   00027E  EE10 F006          	lfsr	1,6
  7939   000282  50DE               	movf	postinc2,w,c
  7940   000284  26E1               	addwf	fsr1l,f,c
  7941   000286  50DD               	movf	postdec2,w,c
  7942   000288  22E2               	addwfc	fsr1h,f,c
  7943   00028A  CFE8 FFE7          	movff	wreg,indf1	;volatile
  7944   00028E  EE26  F086         	lfsr	2,_r_queue+337
  7945   000292  EE10 F007          	lfsr	1,7
  7946   000296  50DE               	movf	postinc2,w,c
  7947   000298  26E1               	addwf	fsr1l,f,c
  7948   00029A  50DD               	movf	postdec2,w,c
  7949   00029C  22E2               	addwfc	fsr1h,f,c
  7950   00029E  CFD8 FFE7          	movff	status,indf1	;volatile
  7951   0002A2  EE26  F086         	lfsr	2,_r_queue+337
  7952   0002A6  EE10 F02F          	lfsr	1,47
  7953   0002AA  50DE               	movf	postinc2,w,c
  7954   0002AC  26E1               	addwf	fsr1l,f,c
  7955   0002AE  50DD               	movf	postdec2,w,c
  7956   0002B0  22E2               	addwfc	fsr1h,f,c
  7957   0002B2  6AE7               	clrf	indf1,c
  7958   0002B4  EFD2  F001         	goto	i2l5356
  7959   0002B8                     i2l5352:
  7960   0002B8  EE26  F086         	lfsr	2,_r_queue+337
  7961   0002BC  EE10 F02F          	lfsr	1,47
  7962   0002C0  50DE               	movf	postinc2,w,c
  7963   0002C2  26E1               	addwf	fsr1l,f,c
  7964   0002C4  50DD               	movf	postdec2,w,c
  7965   0002C6  22E2               	addwfc	fsr1h,f,c
  7966   0002C8  50E7               	movf	indf1,w,c
  7967   0002CA  6E37               	movwf	??_ISR^0,c
  7968   0002CC  5037               	movf	??_ISR^0,w,c
  7969   0002CE  0D03               	mullw	3
  7970   0002D0  CFF3 F038          	movff	prodl,??_ISR+1
  7971   0002D4  CFF4 F039          	movff	prodh,??_ISR+2
  7972   0002D8  EE26  F086         	lfsr	2,_r_queue+337
  7973   0002DC  CFDE F03A          	movff	postinc2,??_ISR+3
  7974   0002E0  CFDD F03B          	movff	postdec2,??_ISR+4
  7975   0002E4  5038               	movf	(??_ISR+1)^0,w,c
  7976   0002E6  243A               	addwf	(??_ISR+3)^0,w,c
  7977   0002E8  6E3C               	movwf	(??_ISR+5)^0,c
  7978   0002EA  5039               	movf	(??_ISR+2)^0,w,c
  7979   0002EC  203B               	addwfc	(??_ISR+4)^0,w,c
  7980   0002EE  6E3D               	movwf	(??_ISR+6)^0,c
  7981   0002F0  0E17               	movlw	23
  7982   0002F2  243C               	addwf	(??_ISR+5)^0,w,c
  7983   0002F4  6ED9               	movwf	fsr2l,c
  7984   0002F6  0E00               	movlw	0
  7985   0002F8  203D               	addwfc	(??_ISR+6)^0,w,c
  7986   0002FA  6EDA               	movwf	fsr2h,c
  7987   0002FC  CFFD FFDF          	movff	tosl,indf2	;volatile
  7988   000300  EE26  F086         	lfsr	2,_r_queue+337
  7989   000304  EE10 F02F          	lfsr	1,47
  7990   000308  50DE               	movf	postinc2,w,c
  7991   00030A  26E1               	addwf	fsr1l,f,c
  7992   00030C  50DD               	movf	postdec2,w,c
  7993   00030E  22E2               	addwfc	fsr1h,f,c
  7994   000310  50E7               	movf	indf1,w,c
  7995   000312  6E37               	movwf	??_ISR^0,c
  7996   000314  5037               	movf	??_ISR^0,w,c
  7997   000316  0D03               	mullw	3
  7998   000318  CFF3 F038          	movff	prodl,??_ISR+1
  7999   00031C  CFF4 F039          	movff	prodh,??_ISR+2
  8000   000320  EE26  F086         	lfsr	2,_r_queue+337
  8001   000324  CFDE F03A          	movff	postinc2,??_ISR+3
  8002   000328  CFDD F03B          	movff	postdec2,??_ISR+4
  8003   00032C  5038               	movf	(??_ISR+1)^0,w,c
  8004   00032E  243A               	addwf	(??_ISR+3)^0,w,c
  8005   000330  6E3C               	movwf	(??_ISR+5)^0,c
  8006   000332  5039               	movf	(??_ISR+2)^0,w,c
  8007   000334  203B               	addwfc	(??_ISR+4)^0,w,c
  8008   000336  6E3D               	movwf	(??_ISR+6)^0,c
  8009   000338  0E18               	movlw	24
  8010   00033A  243C               	addwf	(??_ISR+5)^0,w,c
  8011   00033C  6ED9               	movwf	fsr2l,c
  8012   00033E  0E00               	movlw	0
  8013   000340  203D               	addwfc	(??_ISR+6)^0,w,c
  8014   000342  6EDA               	movwf	fsr2h,c
  8015   000344  CFFE FFDF          	movff	tosh,indf2	;volatile
  8016   000348  EE26  F086         	lfsr	2,_r_queue+337
  8017   00034C  EE10 F02F          	lfsr	1,47
  8018   000350  50DE               	movf	postinc2,w,c
  8019   000352  26E1               	addwf	fsr1l,f,c
  8020   000354  50DD               	movf	postdec2,w,c
  8021   000356  22E2               	addwfc	fsr1h,f,c
  8022   000358  50E7               	movf	indf1,w,c
  8023   00035A  6E37               	movwf	??_ISR^0,c
  8024   00035C  5037               	movf	??_ISR^0,w,c
  8025   00035E  0D03               	mullw	3
  8026   000360  CFF3 F038          	movff	prodl,??_ISR+1
  8027   000364  CFF4 F039          	movff	prodh,??_ISR+2
  8028   000368  EE26  F086         	lfsr	2,_r_queue+337
  8029   00036C  CFDE F03A          	movff	postinc2,??_ISR+3
  8030   000370  CFDD F03B          	movff	postdec2,??_ISR+4
  8031   000374  5038               	movf	(??_ISR+1)^0,w,c
  8032   000376  243A               	addwf	(??_ISR+3)^0,w,c
  8033   000378  6E3C               	movwf	(??_ISR+5)^0,c
  8034   00037A  5039               	movf	(??_ISR+2)^0,w,c
  8035   00037C  203B               	addwfc	(??_ISR+4)^0,w,c
  8036   00037E  6E3D               	movwf	(??_ISR+6)^0,c
  8037   000380  0E19               	movlw	25
  8038   000382  243C               	addwf	(??_ISR+5)^0,w,c
  8039   000384  6ED9               	movwf	fsr2l,c
  8040   000386  0E00               	movlw	0
  8041   000388  203D               	addwfc	(??_ISR+6)^0,w,c
  8042   00038A  6EDA               	movwf	fsr2h,c
  8043   00038C  CFFF FFDF          	movff	tosu,indf2	;volatile
  8044   000390  EE26  F086         	lfsr	2,_r_queue+337
  8045   000394  EE10 F02F          	lfsr	1,47
  8046   000398  50DE               	movf	postinc2,w,c
  8047   00039A  26E1               	addwf	fsr1l,f,c
  8048   00039C  50DD               	movf	postdec2,w,c
  8049   00039E  22E2               	addwfc	fsr1h,f,c
  8050   0003A0  2AE7               	incf	indf1,f,c
  8051   0003A2  0006               	pop		;# 
  8052   0003A4                     i2l5356:
  8053   0003A4  50FC               	movf	252,w,c	;volatile
  8054   0003A6  A4D8               	btfss	status,2,c
  8055   0003A8  EFD8  F001         	goto	i2u548_41
  8056   0003AC  EFDA  F001         	goto	i2u548_40
  8057   0003B0                     i2u548_41:
  8058   0003B0  EF5C  F001         	goto	i2l5352
  8059   0003B4                     i2u548_40:
  8060   0003B4                     i2l5358:
  8061                           
  8062                           ;hw.c: 45:             scheduler();
  8063   0003B4  ECB7  F018         	call	i2_scheduler	;wreg free
  8064   0003B8  EE26  F086         	lfsr	2,_r_queue+337
  8065   0003BC  EE10 F001          	lfsr	1,1
  8066   0003C0  50DE               	movf	postinc2,w,c
  8067   0003C2  26E1               	addwf	fsr1l,f,c
  8068   0003C4  50DD               	movf	postdec2,w,c
  8069   0003C6  22E2               	addwfc	fsr1h,f,c
  8070   0003C8  50E7               	movf	indf1,w,c
  8071   0003CA  A4D8               	btfss	status,2,c
  8072   0003CC  EFEA  F001         	goto	i2u549_41
  8073   0003D0  EFEC  F001         	goto	i2u549_40
  8074   0003D4                     i2u549_41:
  8075   0003D4  EF7F  F003         	goto	i2l5380
  8076   0003D8                     i2u549_40:
  8077   0003D8  EE26  F086         	lfsr	2,_r_queue+337
  8078   0003DC  EE10 F001          	lfsr	1,1
  8079   0003E0  50DE               	movf	postinc2,w,c
  8080   0003E2  26E1               	addwf	fsr1l,f,c
  8081   0003E4  50DD               	movf	postdec2,w,c
  8082   0003E6  22E2               	addwfc	fsr1h,f,c
  8083   0003E8  0E02               	movlw	2
  8084   0003EA  6EE7               	movwf	indf1,c
  8085   0003EC  EE26  F086         	lfsr	2,_r_queue+337
  8086   0003F0  EE10 F008          	lfsr	1,8
  8087   0003F4  50DE               	movf	postinc2,w,c
  8088   0003F6  26E1               	addwf	fsr1l,f,c
  8089   0003F8  50DD               	movf	postdec2,w,c
  8090   0003FA  22E2               	addwfc	fsr1h,f,c
  8091   0003FC  50E7               	movf	indf1,w,c
  8092   0003FE  6EE0               	movwf	224,c	;volatile
  8093   000400  EE26  F086         	lfsr	2,_r_queue+337
  8094   000404  EE10 F00C          	lfsr	1,12
  8095   000408  50DE               	movf	postinc2,w,c
  8096   00040A  26E1               	addwf	fsr1l,f,c
  8097   00040C  50DD               	movf	postdec2,w,c
  8098   00040E  22E2               	addwfc	fsr1h,f,c
  8099   000410  50E7               	movf	indf1,w,c
  8100   000412  6EEA               	movwf	234,c	;volatile
  8101   000414  EE26  F086         	lfsr	2,_r_queue+337
  8102   000418  EE10 F00B          	lfsr	1,11
  8103   00041C  50DE               	movf	postinc2,w,c
  8104   00041E  26E1               	addwf	fsr1l,f,c
  8105   000420  50DD               	movf	postdec2,w,c
  8106   000422  22E2               	addwfc	fsr1h,f,c
  8107   000424  50E7               	movf	indf1,w,c
  8108   000426  6EE9               	movwf	233,c	;volatile
  8109   000428  EE26  F086         	lfsr	2,_r_queue+337
  8110   00042C  EE10 F00E          	lfsr	1,14
  8111   000430  50DE               	movf	postinc2,w,c
  8112   000432  26E1               	addwf	fsr1l,f,c
  8113   000434  50DD               	movf	postdec2,w,c
  8114   000436  22E2               	addwfc	fsr1h,f,c
  8115   000438  50E7               	movf	indf1,w,c
  8116   00043A  6EE2               	movwf	226,c	;volatile
  8117   00043C  EE26  F086         	lfsr	2,_r_queue+337
  8118   000440  EE10 F00D          	lfsr	1,13
  8119   000444  50DE               	movf	postinc2,w,c
  8120   000446  26E1               	addwf	fsr1l,f,c
  8121   000448  50DD               	movf	postdec2,w,c
  8122   00044A  22E2               	addwfc	fsr1h,f,c
  8123   00044C  50E7               	movf	indf1,w,c
  8124   00044E  6EE1               	movwf	225,c	;volatile
  8125   000450  EE26  F086         	lfsr	2,_r_queue+337
  8126   000454  EE10 F010          	lfsr	1,16
  8127   000458  50DE               	movf	postinc2,w,c
  8128   00045A  26E1               	addwf	fsr1l,f,c
  8129   00045C  50DD               	movf	postdec2,w,c
  8130   00045E  22E2               	addwfc	fsr1h,f,c
  8131   000460  50E7               	movf	indf1,w,c
  8132   000462  6EDA               	movwf	218,c	;volatile
  8133   000464  EE26  F086         	lfsr	2,_r_queue+337
  8134   000468  EE10 F00F          	lfsr	1,15
  8135   00046C  50DE               	movf	postinc2,w,c
  8136   00046E  26E1               	addwf	fsr1l,f,c
  8137   000470  50DD               	movf	postdec2,w,c
  8138   000472  22E2               	addwfc	fsr1h,f,c
  8139   000474  50E7               	movf	indf1,w,c
  8140   000476  6ED9               	movwf	217,c	;volatile
  8141   000478  EE26  F086         	lfsr	2,_r_queue+337
  8142   00047C  EE10 F015          	lfsr	1,21
  8143   000480  50DE               	movf	postinc2,w,c
  8144   000482  26E1               	addwf	fsr1l,f,c
  8145   000484  50DD               	movf	postdec2,w,c
  8146   000486  22E2               	addwfc	fsr1h,f,c
  8147   000488  50E7               	movf	indf1,w,c
  8148   00048A  6EFA               	movwf	250,c	;volatile
  8149   00048C  EE26  F086         	lfsr	2,_r_queue+337
  8150   000490  EE10 F016          	lfsr	1,22
  8151   000494  50DE               	movf	postinc2,w,c
  8152   000496  26E1               	addwf	fsr1l,f,c
  8153   000498  50DD               	movf	postdec2,w,c
  8154   00049A  22E2               	addwfc	fsr1h,f,c
  8155   00049C  50E7               	movf	indf1,w,c
  8156   00049E  6EFB               	movwf	251,c	;volatile
  8157   0004A0  EE26  F086         	lfsr	2,_r_queue+337
  8158   0004A4  EE10 F00A          	lfsr	1,10
  8159   0004A8  50DE               	movf	postinc2,w,c
  8160   0004AA  26E1               	addwf	fsr1l,f,c
  8161   0004AC  50DD               	movf	postdec2,w,c
  8162   0004AE  22E2               	addwfc	fsr1h,f,c
  8163   0004B0  50E7               	movf	indf1,w,c
  8164   0004B2  6EF4               	movwf	244,c	;volatile
  8165   0004B4  EE26  F086         	lfsr	2,_r_queue+337
  8166   0004B8  EE10 F009          	lfsr	1,9
  8167   0004BC  50DE               	movf	postinc2,w,c
  8168   0004BE  26E1               	addwf	fsr1l,f,c
  8169   0004C0  50DD               	movf	postdec2,w,c
  8170   0004C2  22E2               	addwfc	fsr1h,f,c
  8171   0004C4  50E7               	movf	indf1,w,c
  8172   0004C6  6EF3               	movwf	243,c	;volatile
  8173   0004C8  EE26  F086         	lfsr	2,_r_queue+337
  8174   0004CC  EE10 F011          	lfsr	1,17
  8175   0004D0  50DE               	movf	postinc2,w,c
  8176   0004D2  26E1               	addwf	fsr1l,f,c
  8177   0004D4  50DD               	movf	postdec2,w,c
  8178   0004D6  22E2               	addwfc	fsr1h,f,c
  8179   0004D8  50E7               	movf	indf1,w,c
  8180   0004DA  6EF5               	movwf	245,c	;volatile
  8181   0004DC  EE26  F086         	lfsr	2,_r_queue+337
  8182   0004E0  EE10 F013          	lfsr	1,19
  8183   0004E4  50DE               	movf	postinc2,w,c
  8184   0004E6  26E1               	addwf	fsr1l,f,c
  8185   0004E8  50DD               	movf	postdec2,w,c
  8186   0004EA  22E2               	addwfc	fsr1h,f,c
  8187   0004EC  50E7               	movf	indf1,w,c
  8188   0004EE  6EF7               	movwf	247,c	;volatile
  8189   0004F0  EE26  F086         	lfsr	2,_r_queue+337
  8190   0004F4  EE10 F012          	lfsr	1,18
  8191   0004F8  50DE               	movf	postinc2,w,c
  8192   0004FA  26E1               	addwf	fsr1l,f,c
  8193   0004FC  50DD               	movf	postdec2,w,c
  8194   0004FE  22E2               	addwfc	fsr1h,f,c
  8195   000500  50E7               	movf	indf1,w,c
  8196   000502  6EF6               	movwf	246,c	;volatile
  8197   000504  EE26  F086         	lfsr	2,_r_queue+337
  8198   000508  EE10 F014          	lfsr	1,20
  8199   00050C  50DE               	movf	postinc2,w,c
  8200   00050E  26E1               	addwf	fsr1l,f,c
  8201   000510  50DD               	movf	postdec2,w,c
  8202   000512  22E2               	addwfc	fsr1h,f,c
  8203   000514  50E7               	movf	indf1,w,c
  8204   000516  6EF8               	movwf	248,c	;volatile
  8205   000518  EE26  F086         	lfsr	2,_r_queue+337
  8206   00051C  EE10 F007          	lfsr	1,7
  8207   000520  50DE               	movf	postinc2,w,c
  8208   000522  26E1               	addwf	fsr1l,f,c
  8209   000524  50DD               	movf	postdec2,w,c
  8210   000526  22E2               	addwfc	fsr1h,f,c
  8211   000528  50E7               	movf	indf1,w,c
  8212   00052A  6ED8               	movwf	216,c	;volatile
  8213   00052C  EE26  F086         	lfsr	2,_r_queue+337
  8214   000530  EE10 F006          	lfsr	1,6
  8215   000534  50DE               	movf	postinc2,w,c
  8216   000536  26E1               	addwf	fsr1l,f,c
  8217   000538  50DD               	movf	postdec2,w,c
  8218   00053A  22E2               	addwfc	fsr1h,f,c
  8219   00053C  50E7               	movf	indf1,w,c
  8220   00053E  6E37               	movwf	??_ISR^0,c
  8221   000540  5037               	movf	??_ISR^0,w,c
  8222   000542  6AFC               	clrf	252,c	;volatile
  8223   000544  EE26  F086         	lfsr	2,_r_queue+337
  8224   000548  EE10 F02F          	lfsr	1,47
  8225   00054C  50DE               	movf	postinc2,w,c
  8226   00054E  26E1               	addwf	fsr1l,f,c
  8227   000550  50DD               	movf	postdec2,w,c
  8228   000552  22E2               	addwfc	fsr1h,f,c
  8229   000554  50E7               	movf	indf1,w,c
  8230   000556  B4D8               	btfsc	status,2,c
  8231   000558  EFB0  F002         	goto	i2u550_41
  8232   00055C  EFB2  F002         	goto	i2u550_40
  8233   000560                     i2u550_41:
  8234   000560  EF3A  F003         	goto	i2l591
  8235   000564                     i2u550_40:
  8236   000564                     i2l592:
  8237   000564  0005               	push		;# 
  8238   000566  EE26  F086         	lfsr	2,_r_queue+337
  8239   00056A  EE10 F02F          	lfsr	1,47
  8240   00056E  50DE               	movf	postinc2,w,c
  8241   000570  26E1               	addwf	fsr1l,f,c
  8242   000572  50DD               	movf	postdec2,w,c
  8243   000574  22E2               	addwfc	fsr1h,f,c
  8244   000576  06E7               	decf	indf1,f,c
  8245   000578  EE26  F086         	lfsr	2,_r_queue+337
  8246   00057C  EE10 F02F          	lfsr	1,47
  8247   000580  50DE               	movf	postinc2,w,c
  8248   000582  26E1               	addwf	fsr1l,f,c
  8249   000584  50DD               	movf	postdec2,w,c
  8250   000586  22E2               	addwfc	fsr1h,f,c
  8251   000588  50E7               	movf	indf1,w,c
  8252   00058A  6E37               	movwf	??_ISR^0,c
  8253   00058C  5037               	movf	??_ISR^0,w,c
  8254   00058E  0D03               	mullw	3
  8255   000590  CFF3 F038          	movff	prodl,??_ISR+1
  8256   000594  CFF4 F039          	movff	prodh,??_ISR+2
  8257   000598  EE26  F086         	lfsr	2,_r_queue+337
  8258   00059C  CFDE F03A          	movff	postinc2,??_ISR+3
  8259   0005A0  CFDD F03B          	movff	postdec2,??_ISR+4
  8260   0005A4  5038               	movf	(??_ISR+1)^0,w,c
  8261   0005A6  243A               	addwf	(??_ISR+3)^0,w,c
  8262   0005A8  6E3C               	movwf	(??_ISR+5)^0,c
  8263   0005AA  5039               	movf	(??_ISR+2)^0,w,c
  8264   0005AC  203B               	addwfc	(??_ISR+4)^0,w,c
  8265   0005AE  6E3D               	movwf	(??_ISR+6)^0,c
  8266   0005B0  0E17               	movlw	23
  8267   0005B2  243C               	addwf	(??_ISR+5)^0,w,c
  8268   0005B4  6ED9               	movwf	fsr2l,c
  8269   0005B6  0E00               	movlw	0
  8270   0005B8  203D               	addwfc	(??_ISR+6)^0,w,c
  8271   0005BA  6EDA               	movwf	fsr2h,c
  8272   0005BC  50DF               	movf	indf2,w,c
  8273   0005BE  6EFD               	movwf	253,c	;volatile
  8274   0005C0  EE26  F086         	lfsr	2,_r_queue+337
  8275   0005C4  EE10 F02F          	lfsr	1,47
  8276   0005C8  50DE               	movf	postinc2,w,c
  8277   0005CA  26E1               	addwf	fsr1l,f,c
  8278   0005CC  50DD               	movf	postdec2,w,c
  8279   0005CE  22E2               	addwfc	fsr1h,f,c
  8280   0005D0  50E7               	movf	indf1,w,c
  8281   0005D2  6E37               	movwf	??_ISR^0,c
  8282   0005D4  5037               	movf	??_ISR^0,w,c
  8283   0005D6  0D03               	mullw	3
  8284   0005D8  CFF3 F038          	movff	prodl,??_ISR+1
  8285   0005DC  CFF4 F039          	movff	prodh,??_ISR+2
  8286   0005E0  EE26  F086         	lfsr	2,_r_queue+337
  8287   0005E4  CFDE F03A          	movff	postinc2,??_ISR+3
  8288   0005E8  CFDD F03B          	movff	postdec2,??_ISR+4
  8289   0005EC  5038               	movf	(??_ISR+1)^0,w,c
  8290   0005EE  243A               	addwf	(??_ISR+3)^0,w,c
  8291   0005F0  6E3C               	movwf	(??_ISR+5)^0,c
  8292   0005F2  5039               	movf	(??_ISR+2)^0,w,c
  8293   0005F4  203B               	addwfc	(??_ISR+4)^0,w,c
  8294   0005F6  6E3D               	movwf	(??_ISR+6)^0,c
  8295   0005F8  0E18               	movlw	24
  8296   0005FA  243C               	addwf	(??_ISR+5)^0,w,c
  8297   0005FC  6ED9               	movwf	fsr2l,c
  8298   0005FE  0E00               	movlw	0
  8299   000600  203D               	addwfc	(??_ISR+6)^0,w,c
  8300   000602  6EDA               	movwf	fsr2h,c
  8301   000604  50DF               	movf	indf2,w,c
  8302   000606  6EFE               	movwf	254,c	;volatile
  8303   000608  EE26  F086         	lfsr	2,_r_queue+337
  8304   00060C  EE10 F02F          	lfsr	1,47
  8305   000610  50DE               	movf	postinc2,w,c
  8306   000612  26E1               	addwf	fsr1l,f,c
  8307   000614  50DD               	movf	postdec2,w,c
  8308   000616  22E2               	addwfc	fsr1h,f,c
  8309   000618  50E7               	movf	indf1,w,c
  8310   00061A  6E37               	movwf	??_ISR^0,c
  8311   00061C  5037               	movf	??_ISR^0,w,c
  8312   00061E  0D03               	mullw	3
  8313   000620  CFF3 F038          	movff	prodl,??_ISR+1
  8314   000624  CFF4 F039          	movff	prodh,??_ISR+2
  8315   000628  EE26  F086         	lfsr	2,_r_queue+337
  8316   00062C  CFDE F03A          	movff	postinc2,??_ISR+3
  8317   000630  CFDD F03B          	movff	postdec2,??_ISR+4
  8318   000634  5038               	movf	(??_ISR+1)^0,w,c
  8319   000636  243A               	addwf	(??_ISR+3)^0,w,c
  8320   000638  6E3C               	movwf	(??_ISR+5)^0,c
  8321   00063A  5039               	movf	(??_ISR+2)^0,w,c
  8322   00063C  203B               	addwfc	(??_ISR+4)^0,w,c
  8323   00063E  6E3D               	movwf	(??_ISR+6)^0,c
  8324   000640  0E19               	movlw	25
  8325   000642  243C               	addwf	(??_ISR+5)^0,w,c
  8326   000644  6ED9               	movwf	fsr2l,c
  8327   000646  0E00               	movlw	0
  8328   000648  203D               	addwfc	(??_ISR+6)^0,w,c
  8329   00064A  6EDA               	movwf	fsr2h,c
  8330   00064C  50DF               	movf	indf2,w,c
  8331   00064E  6EFF               	movwf	255,c	;volatile
  8332   000650  EE26  F086         	lfsr	2,_r_queue+337
  8333   000654  EE10 F02F          	lfsr	1,47
  8334   000658  50DE               	movf	postinc2,w,c
  8335   00065A  26E1               	addwf	fsr1l,f,c
  8336   00065C  50DD               	movf	postdec2,w,c
  8337   00065E  22E2               	addwfc	fsr1h,f,c
  8338   000660  50E7               	movf	indf1,w,c
  8339   000662  A4D8               	btfss	status,2,c
  8340   000664  EF36  F003         	goto	i2u551_41
  8341   000668  EF38  F003         	goto	i2u551_40
  8342   00066C                     i2u551_41:
  8343   00066C  EFB2  F002         	goto	i2l592
  8344   000670                     i2u551_40:
  8345   000670  EF7D  F003         	goto	i2l5378
  8346   000674                     i2l591:
  8347   000674  0005               	push		;# 
  8348   000676  EE26  F086         	lfsr	2,_r_queue+337
  8349   00067A  EE10 F002          	lfsr	1,2
  8350   00067E  50DE               	movf	postinc2,w,c
  8351   000680  26E1               	addwf	fsr1l,f,c
  8352   000682  50DD               	movf	postdec2,w,c
  8353   000684  22E2               	addwfc	fsr1h,f,c
  8354   000686  50E7               	movf	indf1,w,c
  8355   000688  6EFD               	movwf	253,c	;volatile
  8356   00068A  EE26  F086         	lfsr	2,_r_queue+337
  8357   00068E  EE10 F002          	lfsr	1,2
  8358   000692  50DE               	movf	postinc2,w,c
  8359   000694  26E1               	addwf	fsr1l,f,c
  8360   000696  50DD               	movf	postdec2,w,c
  8361   000698  22E2               	addwfc	fsr1h,f,c
  8362   00069A  CFE6 F037          	movff	postinc1,??_ISR
  8363   00069E  CFE5 F038          	movff	postdec1,??_ISR+1
  8364   0006A2  C037  F039         	movff	??_ISR,??_ISR+2
  8365   0006A6  C038  F03A         	movff	??_ISR+1,??_ISR+3
  8366   0006AA  6A3B               	clrf	(??_ISR+4)^0,c
  8367   0006AC  C03A  F039         	movff	??_ISR+3,??_ISR+2
  8368   0006B0  C03B  F03A         	movff	??_ISR+4,??_ISR+3
  8369   0006B4  6A3B               	clrf	(??_ISR+4)^0,c
  8370   0006B6  5039               	movf	(??_ISR+2)^0,w,c
  8371   0006B8  6EFE               	movwf	254,c	;volatile
  8372   0006BA  0E10               	movlw	16
  8373   0006BC  6E37               	movwf	??_ISR^0,c
  8374   0006BE  EE26  F086         	lfsr	2,_r_queue+337
  8375   0006C2  EE10 F002          	lfsr	1,2
  8376   0006C6  50DE               	movf	postinc2,w,c
  8377   0006C8  26E1               	addwf	fsr1l,f,c
  8378   0006CA  50DD               	movf	postdec2,w,c
  8379   0006CC  22E2               	addwfc	fsr1h,f,c
  8380   0006CE  CFE6 F038          	movff	postinc1,??_ISR+1
  8381   0006D2  CFE5 F039          	movff	postdec1,??_ISR+2
  8382   0006D6  C038  F03A         	movff	??_ISR+1,??_ISR+3
  8383   0006DA  C039  F03B         	movff	??_ISR+2,??_ISR+4
  8384   0006DE  6A3C               	clrf	(??_ISR+5)^0,c
  8385   0006E0  2837               	incf	??_ISR^0,w,c
  8386   0006E2  6E3D               	movwf	(??_ISR+6)^0,c
  8387   0006E4  EF78  F003         	goto	i2u552_40
  8388   0006E8                     i2u552_45:
  8389   0006E8  90D8               	bcf	status,0,c
  8390   0006EA  323C               	rrcf	(??_ISR+5)^0,f,c
  8391   0006EC  323B               	rrcf	(??_ISR+4)^0,f,c
  8392   0006EE  323A               	rrcf	(??_ISR+3)^0,f,c
  8393   0006F0                     i2u552_40:
  8394   0006F0  2E3D               	decfsz	(??_ISR+6)^0,f,c
  8395   0006F2  EF74  F003         	goto	i2u552_45
  8396   0006F6  503A               	movf	(??_ISR+3)^0,w,c
  8397   0006F8  6EFF               	movwf	255,c	;volatile
  8398   0006FA                     i2l5378:
  8399   0006FA  0E14               	movlw	20
  8400   0006FC  6E47               	movwf	_rr_quantum^0,c
  8401   0006FE                     i2l5380:
  8402                           
  8403                           ;hw.c: 50:     if (INTCONbits.INT0IF == 1) {
  8404   0006FE  A2F2               	btfss	242,1,c	;volatile
  8405   000700  EF84  F003         	goto	i2u553_41
  8406   000704  EF86  F003         	goto	i2u553_40
  8407   000708                     i2u553_41:
  8408   000708  EF82  F006         	goto	i2l610
  8409   00070C                     i2u553_40:
  8410   00070C                     
  8411                           ;hw.c: 51:         INTCONbits.INT0IF = 0;
  8412   00070C  92F2               	bcf	242,1,c	;volatile
  8413   00070E                     
  8414                           ;hw.c: 54:         os_create_task(6, tarefaOneShot, 6);
  8415   00070E  0E00               	movlw	0
  8416   000710  6E02               	movwf	i2os_create_task@func^0,c
  8417   000712  0E00               	movlw	0
  8418   000714  6E03               	movwf	(i2os_create_task@func+1)^0,c
  8419   000716  0E06               	movlw	6
  8420   000718  6E04               	movwf	i2os_create_task@prior^0,c
  8421   00071A  0E06               	movlw	6
  8422   00071C  ECAF  F016         	call	i2_os_create_task
  8423   000720  EE26  F086         	lfsr	2,_r_queue+337
  8424   000724  EE10 F001          	lfsr	1,1
  8425   000728  50DE               	movf	postinc2,w,c
  8426   00072A  26E1               	addwf	fsr1l,f,c
  8427   00072C  50DD               	movf	postdec2,w,c
  8428   00072E  22E2               	addwfc	fsr1h,f,c
  8429   000730  0E02               	movlw	2
  8430   000732  18E6               	xorwf	postinc1,w,c
  8431   000734  A4D8               	btfss	status,2,c
  8432   000736  EF9F  F003         	goto	i2u554_41
  8433   00073A  EFA1  F003         	goto	i2u554_40
  8434   00073E                     i2u554_41:
  8435   00073E  EFDD  F004         	goto	i2l5396
  8436   000742                     i2u554_40:
  8437   000742  EE26  F086         	lfsr	2,_r_queue+337
  8438   000746  EE10 F001          	lfsr	1,1
  8439   00074A  50DE               	movf	postinc2,w,c
  8440   00074C  26E1               	addwf	fsr1l,f,c
  8441   00074E  50DD               	movf	postdec2,w,c
  8442   000750  22E2               	addwfc	fsr1h,f,c
  8443   000752  6AE7               	clrf	indf1,c
  8444   000754  EE26  F086         	lfsr	2,_r_queue+337
  8445   000758  EE10 F008          	lfsr	1,8
  8446   00075C  50DE               	movf	postinc2,w,c
  8447   00075E  26E1               	addwf	fsr1l,f,c
  8448   000760  50DD               	movf	postdec2,w,c
  8449   000762  22E2               	addwfc	fsr1h,f,c
  8450   000764  CFE0 FFE7          	movff	bsr,indf1	;volatile
  8451   000768  EE26  F086         	lfsr	2,_r_queue+337
  8452   00076C  EE10 F00C          	lfsr	1,12
  8453   000770  50DE               	movf	postinc2,w,c
  8454   000772  26E1               	addwf	fsr1l,f,c
  8455   000774  50DD               	movf	postdec2,w,c
  8456   000776  22E2               	addwfc	fsr1h,f,c
  8457   000778  CFEA FFE7          	movff	fsr0h,indf1	;volatile
  8458   00077C  EE26  F086         	lfsr	2,_r_queue+337
  8459   000780  EE10 F00B          	lfsr	1,11
  8460   000784  50DE               	movf	postinc2,w,c
  8461   000786  26E1               	addwf	fsr1l,f,c
  8462   000788  50DD               	movf	postdec2,w,c
  8463   00078A  22E2               	addwfc	fsr1h,f,c
  8464   00078C  CFE9 FFE7          	movff	fsr0l,indf1	;volatile
  8465   000790  EE26  F086         	lfsr	2,_r_queue+337
  8466   000794  EE10 F00E          	lfsr	1,14
  8467   000798  50DE               	movf	postinc2,w,c
  8468   00079A  26E1               	addwf	fsr1l,f,c
  8469   00079C  50DD               	movf	postdec2,w,c
  8470   00079E  22E2               	addwfc	fsr1h,f,c
  8471   0007A0  CFE2 FFE7          	movff	fsr1h,indf1	;volatile
  8472   0007A4  EE26  F086         	lfsr	2,_r_queue+337
  8473   0007A8  EE10 F00D          	lfsr	1,13
  8474   0007AC  50DE               	movf	postinc2,w,c
  8475   0007AE  26E1               	addwf	fsr1l,f,c
  8476   0007B0  50DD               	movf	postdec2,w,c
  8477   0007B2  22E2               	addwfc	fsr1h,f,c
  8478   0007B4  CFE1 FFE7          	movff	fsr1l,indf1	;volatile
  8479   0007B8  EE26  F086         	lfsr	2,_r_queue+337
  8480   0007BC  EE10 F010          	lfsr	1,16
  8481   0007C0  50DE               	movf	postinc2,w,c
  8482   0007C2  26E1               	addwf	fsr1l,f,c
  8483   0007C4  50DD               	movf	postdec2,w,c
  8484   0007C6  22E2               	addwfc	fsr1h,f,c
  8485   0007C8  CFDA FFE7          	movff	fsr2h,indf1	;volatile
  8486   0007CC  EE26  F086         	lfsr	2,_r_queue+337
  8487   0007D0  EE10 F00F          	lfsr	1,15
  8488   0007D4  50DE               	movf	postinc2,w,c
  8489   0007D6  26E1               	addwf	fsr1l,f,c
  8490   0007D8  50DD               	movf	postdec2,w,c
  8491   0007DA  22E2               	addwfc	fsr1h,f,c
  8492   0007DC  CFD9 FFE7          	movff	fsr2l,indf1	;volatile
  8493   0007E0  EE26  F086         	lfsr	2,_r_queue+337
  8494   0007E4  EE10 F015          	lfsr	1,21
  8495   0007E8  50DE               	movf	postinc2,w,c
  8496   0007EA  26E1               	addwf	fsr1l,f,c
  8497   0007EC  50DD               	movf	postdec2,w,c
  8498   0007EE  22E2               	addwfc	fsr1h,f,c
  8499   0007F0  CFFA FFE7          	movff	pclath,indf1	;volatile
  8500   0007F4  EE26  F086         	lfsr	2,_r_queue+337
  8501   0007F8  EE10 F016          	lfsr	1,22
  8502   0007FC  50DE               	movf	postinc2,w,c
  8503   0007FE  26E1               	addwf	fsr1l,f,c
  8504   000800  50DD               	movf	postdec2,w,c
  8505   000802  22E2               	addwfc	fsr1h,f,c
  8506   000804  CFFB FFE7          	movff	pclatu,indf1	;volatile
  8507   000808  EE26  F086         	lfsr	2,_r_queue+337
  8508   00080C  EE10 F00A          	lfsr	1,10
  8509   000810  50DE               	movf	postinc2,w,c
  8510   000812  26E1               	addwf	fsr1l,f,c
  8511   000814  50DD               	movf	postdec2,w,c
  8512   000816  22E2               	addwfc	fsr1h,f,c
  8513   000818  CFF4 FFE7          	movff	prodh,indf1	;volatile
  8514   00081C  EE26  F086         	lfsr	2,_r_queue+337
  8515   000820  EE10 F009          	lfsr	1,9
  8516   000824  50DE               	movf	postinc2,w,c
  8517   000826  26E1               	addwf	fsr1l,f,c
  8518   000828  50DD               	movf	postdec2,w,c
  8519   00082A  22E2               	addwfc	fsr1h,f,c
  8520   00082C  CFF3 FFE7          	movff	prodl,indf1	;volatile
  8521   000830  EE26  F086         	lfsr	2,_r_queue+337
  8522   000834  EE10 F011          	lfsr	1,17
  8523   000838  50DE               	movf	postinc2,w,c
  8524   00083A  26E1               	addwf	fsr1l,f,c
  8525   00083C  50DD               	movf	postdec2,w,c
  8526   00083E  22E2               	addwfc	fsr1h,f,c
  8527   000840  CFF5 FFE7          	movff	tablat,indf1	;volatile
  8528   000844  EE26  F086         	lfsr	2,_r_queue+337
  8529   000848  EE10 F013          	lfsr	1,19
  8530   00084C  50DE               	movf	postinc2,w,c
  8531   00084E  26E1               	addwf	fsr1l,f,c
  8532   000850  50DD               	movf	postdec2,w,c
  8533   000852  22E2               	addwfc	fsr1h,f,c
  8534   000854  CFF7 FFE7          	movff	tblptrh,indf1	;volatile
  8535   000858  EE26  F086         	lfsr	2,_r_queue+337
  8536   00085C  EE10 F012          	lfsr	1,18
  8537   000860  50DE               	movf	postinc2,w,c
  8538   000862  26E1               	addwf	fsr1l,f,c
  8539   000864  50DD               	movf	postdec2,w,c
  8540   000866  22E2               	addwfc	fsr1h,f,c
  8541   000868  CFF6 FFE7          	movff	tblptrl,indf1	;volatile
  8542   00086C  EE26  F086         	lfsr	2,_r_queue+337
  8543   000870  EE10 F014          	lfsr	1,20
  8544   000874  50DE               	movf	postinc2,w,c
  8545   000876  26E1               	addwf	fsr1l,f,c
  8546   000878  50DD               	movf	postdec2,w,c
  8547   00087A  22E2               	addwfc	fsr1h,f,c
  8548   00087C  CFF8 FFE7          	movff	tblptru,indf1	;volatile
  8549   000880  EE26  F086         	lfsr	2,_r_queue+337
  8550   000884  EE10 F006          	lfsr	1,6
  8551   000888  50DE               	movf	postinc2,w,c
  8552   00088A  26E1               	addwf	fsr1l,f,c
  8553   00088C  50DD               	movf	postdec2,w,c
  8554   00088E  22E2               	addwfc	fsr1h,f,c
  8555   000890  CFE8 FFE7          	movff	wreg,indf1	;volatile
  8556   000894  EE26  F086         	lfsr	2,_r_queue+337
  8557   000898  EE10 F007          	lfsr	1,7
  8558   00089C  50DE               	movf	postinc2,w,c
  8559   00089E  26E1               	addwf	fsr1l,f,c
  8560   0008A0  50DD               	movf	postdec2,w,c
  8561   0008A2  22E2               	addwfc	fsr1h,f,c
  8562   0008A4  CFD8 FFE7          	movff	status,indf1	;volatile
  8563   0008A8  EE26  F086         	lfsr	2,_r_queue+337
  8564   0008AC  EE10 F02F          	lfsr	1,47
  8565   0008B0  50DE               	movf	postinc2,w,c
  8566   0008B2  26E1               	addwf	fsr1l,f,c
  8567   0008B4  50DD               	movf	postdec2,w,c
  8568   0008B6  22E2               	addwfc	fsr1h,f,c
  8569   0008B8  6AE7               	clrf	indf1,c
  8570   0008BA  EFD5  F004         	goto	i2l5394
  8571   0008BE                     i2l5390:
  8572   0008BE  EE26  F086         	lfsr	2,_r_queue+337
  8573   0008C2  EE10 F02F          	lfsr	1,47
  8574   0008C6  50DE               	movf	postinc2,w,c
  8575   0008C8  26E1               	addwf	fsr1l,f,c
  8576   0008CA  50DD               	movf	postdec2,w,c
  8577   0008CC  22E2               	addwfc	fsr1h,f,c
  8578   0008CE  50E7               	movf	indf1,w,c
  8579   0008D0  6E37               	movwf	??_ISR^0,c
  8580   0008D2  5037               	movf	??_ISR^0,w,c
  8581   0008D4  0D03               	mullw	3
  8582   0008D6  CFF3 F038          	movff	prodl,??_ISR+1
  8583   0008DA  CFF4 F039          	movff	prodh,??_ISR+2
  8584   0008DE  EE26  F086         	lfsr	2,_r_queue+337
  8585   0008E2  CFDE F03A          	movff	postinc2,??_ISR+3
  8586   0008E6  CFDD F03B          	movff	postdec2,??_ISR+4
  8587   0008EA  5038               	movf	(??_ISR+1)^0,w,c
  8588   0008EC  243A               	addwf	(??_ISR+3)^0,w,c
  8589   0008EE  6E3C               	movwf	(??_ISR+5)^0,c
  8590   0008F0  5039               	movf	(??_ISR+2)^0,w,c
  8591   0008F2  203B               	addwfc	(??_ISR+4)^0,w,c
  8592   0008F4  6E3D               	movwf	(??_ISR+6)^0,c
  8593   0008F6  0E17               	movlw	23
  8594   0008F8  243C               	addwf	(??_ISR+5)^0,w,c
  8595   0008FA  6ED9               	movwf	fsr2l,c
  8596   0008FC  0E00               	movlw	0
  8597   0008FE  203D               	addwfc	(??_ISR+6)^0,w,c
  8598   000900  6EDA               	movwf	fsr2h,c
  8599   000902  CFFD FFDF          	movff	tosl,indf2	;volatile
  8600   000906  EE26  F086         	lfsr	2,_r_queue+337
  8601   00090A  EE10 F02F          	lfsr	1,47
  8602   00090E  50DE               	movf	postinc2,w,c
  8603   000910  26E1               	addwf	fsr1l,f,c
  8604   000912  50DD               	movf	postdec2,w,c
  8605   000914  22E2               	addwfc	fsr1h,f,c
  8606   000916  50E7               	movf	indf1,w,c
  8607   000918  6E37               	movwf	??_ISR^0,c
  8608   00091A  5037               	movf	??_ISR^0,w,c
  8609   00091C  0D03               	mullw	3
  8610   00091E  CFF3 F038          	movff	prodl,??_ISR+1
  8611   000922  CFF4 F039          	movff	prodh,??_ISR+2
  8612   000926  EE26  F086         	lfsr	2,_r_queue+337
  8613   00092A  CFDE F03A          	movff	postinc2,??_ISR+3
  8614   00092E  CFDD F03B          	movff	postdec2,??_ISR+4
  8615   000932  5038               	movf	(??_ISR+1)^0,w,c
  8616   000934  243A               	addwf	(??_ISR+3)^0,w,c
  8617   000936  6E3C               	movwf	(??_ISR+5)^0,c
  8618   000938  5039               	movf	(??_ISR+2)^0,w,c
  8619   00093A  203B               	addwfc	(??_ISR+4)^0,w,c
  8620   00093C  6E3D               	movwf	(??_ISR+6)^0,c
  8621   00093E  0E18               	movlw	24
  8622   000940  243C               	addwf	(??_ISR+5)^0,w,c
  8623   000942  6ED9               	movwf	fsr2l,c
  8624   000944  0E00               	movlw	0
  8625   000946  203D               	addwfc	(??_ISR+6)^0,w,c
  8626   000948  6EDA               	movwf	fsr2h,c
  8627   00094A  CFFE FFDF          	movff	tosh,indf2	;volatile
  8628   00094E  EE26  F086         	lfsr	2,_r_queue+337
  8629   000952  EE10 F02F          	lfsr	1,47
  8630   000956  50DE               	movf	postinc2,w,c
  8631   000958  26E1               	addwf	fsr1l,f,c
  8632   00095A  50DD               	movf	postdec2,w,c
  8633   00095C  22E2               	addwfc	fsr1h,f,c
  8634   00095E  50E7               	movf	indf1,w,c
  8635   000960  6E37               	movwf	??_ISR^0,c
  8636   000962  5037               	movf	??_ISR^0,w,c
  8637   000964  0D03               	mullw	3
  8638   000966  CFF3 F038          	movff	prodl,??_ISR+1
  8639   00096A  CFF4 F039          	movff	prodh,??_ISR+2
  8640   00096E  EE26  F086         	lfsr	2,_r_queue+337
  8641   000972  CFDE F03A          	movff	postinc2,??_ISR+3
  8642   000976  CFDD F03B          	movff	postdec2,??_ISR+4
  8643   00097A  5038               	movf	(??_ISR+1)^0,w,c
  8644   00097C  243A               	addwf	(??_ISR+3)^0,w,c
  8645   00097E  6E3C               	movwf	(??_ISR+5)^0,c
  8646   000980  5039               	movf	(??_ISR+2)^0,w,c
  8647   000982  203B               	addwfc	(??_ISR+4)^0,w,c
  8648   000984  6E3D               	movwf	(??_ISR+6)^0,c
  8649   000986  0E19               	movlw	25
  8650   000988  243C               	addwf	(??_ISR+5)^0,w,c
  8651   00098A  6ED9               	movwf	fsr2l,c
  8652   00098C  0E00               	movlw	0
  8653   00098E  203D               	addwfc	(??_ISR+6)^0,w,c
  8654   000990  6EDA               	movwf	fsr2h,c
  8655   000992  CFFF FFDF          	movff	tosu,indf2	;volatile
  8656   000996  EE26  F086         	lfsr	2,_r_queue+337
  8657   00099A  EE10 F02F          	lfsr	1,47
  8658   00099E  50DE               	movf	postinc2,w,c
  8659   0009A0  26E1               	addwf	fsr1l,f,c
  8660   0009A2  50DD               	movf	postdec2,w,c
  8661   0009A4  22E2               	addwfc	fsr1h,f,c
  8662   0009A6  2AE7               	incf	indf1,f,c
  8663   0009A8  0006               	pop		;# 
  8664   0009AA                     i2l5394:
  8665   0009AA  50FC               	movf	252,w,c	;volatile
  8666   0009AC  A4D8               	btfss	status,2,c
  8667   0009AE  EFDB  F004         	goto	i2u555_41
  8668   0009B2  EFDD  F004         	goto	i2u555_40
  8669   0009B6                     i2u555_41:
  8670   0009B6  EF5F  F004         	goto	i2l5390
  8671   0009BA                     i2u555_40:
  8672   0009BA                     i2l5396:
  8673                           
  8674                           ;hw.c: 56:         scheduler();
  8675   0009BA  ECB7  F018         	call	i2_scheduler	;wreg free
  8676   0009BE  EE26  F086         	lfsr	2,_r_queue+337
  8677   0009C2  EE10 F001          	lfsr	1,1
  8678   0009C6  50DE               	movf	postinc2,w,c
  8679   0009C8  26E1               	addwf	fsr1l,f,c
  8680   0009CA  50DD               	movf	postdec2,w,c
  8681   0009CC  22E2               	addwfc	fsr1h,f,c
  8682   0009CE  50E7               	movf	indf1,w,c
  8683   0009D0  A4D8               	btfss	status,2,c
  8684   0009D2  EFED  F004         	goto	i2u556_41
  8685   0009D6  EFEF  F004         	goto	i2u556_40
  8686   0009DA                     i2u556_41:
  8687   0009DA  EF82  F006         	goto	i2l610
  8688   0009DE                     i2u556_40:
  8689   0009DE  EE26  F086         	lfsr	2,_r_queue+337
  8690   0009E2  EE10 F001          	lfsr	1,1
  8691   0009E6  50DE               	movf	postinc2,w,c
  8692   0009E8  26E1               	addwf	fsr1l,f,c
  8693   0009EA  50DD               	movf	postdec2,w,c
  8694   0009EC  22E2               	addwfc	fsr1h,f,c
  8695   0009EE  0E02               	movlw	2
  8696   0009F0  6EE7               	movwf	indf1,c
  8697   0009F2  EE26  F086         	lfsr	2,_r_queue+337
  8698   0009F6  EE10 F008          	lfsr	1,8
  8699   0009FA  50DE               	movf	postinc2,w,c
  8700   0009FC  26E1               	addwf	fsr1l,f,c
  8701   0009FE  50DD               	movf	postdec2,w,c
  8702   000A00  22E2               	addwfc	fsr1h,f,c
  8703   000A02  50E7               	movf	indf1,w,c
  8704   000A04  6EE0               	movwf	224,c	;volatile
  8705   000A06  EE26  F086         	lfsr	2,_r_queue+337
  8706   000A0A  EE10 F00C          	lfsr	1,12
  8707   000A0E  50DE               	movf	postinc2,w,c
  8708   000A10  26E1               	addwf	fsr1l,f,c
  8709   000A12  50DD               	movf	postdec2,w,c
  8710   000A14  22E2               	addwfc	fsr1h,f,c
  8711   000A16  50E7               	movf	indf1,w,c
  8712   000A18  6EEA               	movwf	234,c	;volatile
  8713   000A1A  EE26  F086         	lfsr	2,_r_queue+337
  8714   000A1E  EE10 F00B          	lfsr	1,11
  8715   000A22  50DE               	movf	postinc2,w,c
  8716   000A24  26E1               	addwf	fsr1l,f,c
  8717   000A26  50DD               	movf	postdec2,w,c
  8718   000A28  22E2               	addwfc	fsr1h,f,c
  8719   000A2A  50E7               	movf	indf1,w,c
  8720   000A2C  6EE9               	movwf	233,c	;volatile
  8721   000A2E  EE26  F086         	lfsr	2,_r_queue+337
  8722   000A32  EE10 F00E          	lfsr	1,14
  8723   000A36  50DE               	movf	postinc2,w,c
  8724   000A38  26E1               	addwf	fsr1l,f,c
  8725   000A3A  50DD               	movf	postdec2,w,c
  8726   000A3C  22E2               	addwfc	fsr1h,f,c
  8727   000A3E  50E7               	movf	indf1,w,c
  8728   000A40  6EE2               	movwf	226,c	;volatile
  8729   000A42  EE26  F086         	lfsr	2,_r_queue+337
  8730   000A46  EE10 F00D          	lfsr	1,13
  8731   000A4A  50DE               	movf	postinc2,w,c
  8732   000A4C  26E1               	addwf	fsr1l,f,c
  8733   000A4E  50DD               	movf	postdec2,w,c
  8734   000A50  22E2               	addwfc	fsr1h,f,c
  8735   000A52  50E7               	movf	indf1,w,c
  8736   000A54  6EE1               	movwf	225,c	;volatile
  8737   000A56  EE26  F086         	lfsr	2,_r_queue+337
  8738   000A5A  EE10 F010          	lfsr	1,16
  8739   000A5E  50DE               	movf	postinc2,w,c
  8740   000A60  26E1               	addwf	fsr1l,f,c
  8741   000A62  50DD               	movf	postdec2,w,c
  8742   000A64  22E2               	addwfc	fsr1h,f,c
  8743   000A66  50E7               	movf	indf1,w,c
  8744   000A68  6EDA               	movwf	218,c	;volatile
  8745   000A6A  EE26  F086         	lfsr	2,_r_queue+337
  8746   000A6E  EE10 F00F          	lfsr	1,15
  8747   000A72  50DE               	movf	postinc2,w,c
  8748   000A74  26E1               	addwf	fsr1l,f,c
  8749   000A76  50DD               	movf	postdec2,w,c
  8750   000A78  22E2               	addwfc	fsr1h,f,c
  8751   000A7A  50E7               	movf	indf1,w,c
  8752   000A7C  6ED9               	movwf	217,c	;volatile
  8753   000A7E  EE26  F086         	lfsr	2,_r_queue+337
  8754   000A82  EE10 F015          	lfsr	1,21
  8755   000A86  50DE               	movf	postinc2,w,c
  8756   000A88  26E1               	addwf	fsr1l,f,c
  8757   000A8A  50DD               	movf	postdec2,w,c
  8758   000A8C  22E2               	addwfc	fsr1h,f,c
  8759   000A8E  50E7               	movf	indf1,w,c
  8760   000A90  6EFA               	movwf	250,c	;volatile
  8761   000A92  EE26  F086         	lfsr	2,_r_queue+337
  8762   000A96  EE10 F016          	lfsr	1,22
  8763   000A9A  50DE               	movf	postinc2,w,c
  8764   000A9C  26E1               	addwf	fsr1l,f,c
  8765   000A9E  50DD               	movf	postdec2,w,c
  8766   000AA0  22E2               	addwfc	fsr1h,f,c
  8767   000AA2  50E7               	movf	indf1,w,c
  8768   000AA4  6EFB               	movwf	251,c	;volatile
  8769   000AA6  EE26  F086         	lfsr	2,_r_queue+337
  8770   000AAA  EE10 F00A          	lfsr	1,10
  8771   000AAE  50DE               	movf	postinc2,w,c
  8772   000AB0  26E1               	addwf	fsr1l,f,c
  8773   000AB2  50DD               	movf	postdec2,w,c
  8774   000AB4  22E2               	addwfc	fsr1h,f,c
  8775   000AB6  50E7               	movf	indf1,w,c
  8776   000AB8  6EF4               	movwf	244,c	;volatile
  8777   000ABA  EE26  F086         	lfsr	2,_r_queue+337
  8778   000ABE  EE10 F009          	lfsr	1,9
  8779   000AC2  50DE               	movf	postinc2,w,c
  8780   000AC4  26E1               	addwf	fsr1l,f,c
  8781   000AC6  50DD               	movf	postdec2,w,c
  8782   000AC8  22E2               	addwfc	fsr1h,f,c
  8783   000ACA  50E7               	movf	indf1,w,c
  8784   000ACC  6EF3               	movwf	243,c	;volatile
  8785   000ACE  EE26  F086         	lfsr	2,_r_queue+337
  8786   000AD2  EE10 F011          	lfsr	1,17
  8787   000AD6  50DE               	movf	postinc2,w,c
  8788   000AD8  26E1               	addwf	fsr1l,f,c
  8789   000ADA  50DD               	movf	postdec2,w,c
  8790   000ADC  22E2               	addwfc	fsr1h,f,c
  8791   000ADE  50E7               	movf	indf1,w,c
  8792   000AE0  6EF5               	movwf	245,c	;volatile
  8793   000AE2  EE26  F086         	lfsr	2,_r_queue+337
  8794   000AE6  EE10 F013          	lfsr	1,19
  8795   000AEA  50DE               	movf	postinc2,w,c
  8796   000AEC  26E1               	addwf	fsr1l,f,c
  8797   000AEE  50DD               	movf	postdec2,w,c
  8798   000AF0  22E2               	addwfc	fsr1h,f,c
  8799   000AF2  50E7               	movf	indf1,w,c
  8800   000AF4  6EF7               	movwf	247,c	;volatile
  8801   000AF6  EE26  F086         	lfsr	2,_r_queue+337
  8802   000AFA  EE10 F012          	lfsr	1,18
  8803   000AFE  50DE               	movf	postinc2,w,c
  8804   000B00  26E1               	addwf	fsr1l,f,c
  8805   000B02  50DD               	movf	postdec2,w,c
  8806   000B04  22E2               	addwfc	fsr1h,f,c
  8807   000B06  50E7               	movf	indf1,w,c
  8808   000B08  6EF6               	movwf	246,c	;volatile
  8809   000B0A  EE26  F086         	lfsr	2,_r_queue+337
  8810   000B0E  EE10 F014          	lfsr	1,20
  8811   000B12  50DE               	movf	postinc2,w,c
  8812   000B14  26E1               	addwf	fsr1l,f,c
  8813   000B16  50DD               	movf	postdec2,w,c
  8814   000B18  22E2               	addwfc	fsr1h,f,c
  8815   000B1A  50E7               	movf	indf1,w,c
  8816   000B1C  6EF8               	movwf	248,c	;volatile
  8817   000B1E  EE26  F086         	lfsr	2,_r_queue+337
  8818   000B22  EE10 F007          	lfsr	1,7
  8819   000B26  50DE               	movf	postinc2,w,c
  8820   000B28  26E1               	addwf	fsr1l,f,c
  8821   000B2A  50DD               	movf	postdec2,w,c
  8822   000B2C  22E2               	addwfc	fsr1h,f,c
  8823   000B2E  50E7               	movf	indf1,w,c
  8824   000B30  6ED8               	movwf	216,c	;volatile
  8825   000B32  EE26  F086         	lfsr	2,_r_queue+337
  8826   000B36  EE10 F006          	lfsr	1,6
  8827   000B3A  50DE               	movf	postinc2,w,c
  8828   000B3C  26E1               	addwf	fsr1l,f,c
  8829   000B3E  50DD               	movf	postdec2,w,c
  8830   000B40  22E2               	addwfc	fsr1h,f,c
  8831   000B42  50E7               	movf	indf1,w,c
  8832   000B44  6E37               	movwf	??_ISR^0,c
  8833   000B46  5037               	movf	??_ISR^0,w,c
  8834   000B48  6AFC               	clrf	252,c	;volatile
  8835   000B4A  EE26  F086         	lfsr	2,_r_queue+337
  8836   000B4E  EE10 F02F          	lfsr	1,47
  8837   000B52  50DE               	movf	postinc2,w,c
  8838   000B54  26E1               	addwf	fsr1l,f,c
  8839   000B56  50DD               	movf	postdec2,w,c
  8840   000B58  22E2               	addwfc	fsr1h,f,c
  8841   000B5A  50E7               	movf	indf1,w,c
  8842   000B5C  B4D8               	btfsc	status,2,c
  8843   000B5E  EFB3  F005         	goto	i2u557_41
  8844   000B62  EFB5  F005         	goto	i2u557_40
  8845   000B66                     i2u557_41:
  8846   000B66  EF3D  F006         	goto	i2l605
  8847   000B6A                     i2u557_40:
  8848   000B6A                     i2l606:
  8849   000B6A  0005               	push		;# 
  8850   000B6C  EE26  F086         	lfsr	2,_r_queue+337
  8851   000B70  EE10 F02F          	lfsr	1,47
  8852   000B74  50DE               	movf	postinc2,w,c
  8853   000B76  26E1               	addwf	fsr1l,f,c
  8854   000B78  50DD               	movf	postdec2,w,c
  8855   000B7A  22E2               	addwfc	fsr1h,f,c
  8856   000B7C  06E7               	decf	indf1,f,c
  8857   000B7E  EE26  F086         	lfsr	2,_r_queue+337
  8858   000B82  EE10 F02F          	lfsr	1,47
  8859   000B86  50DE               	movf	postinc2,w,c
  8860   000B88  26E1               	addwf	fsr1l,f,c
  8861   000B8A  50DD               	movf	postdec2,w,c
  8862   000B8C  22E2               	addwfc	fsr1h,f,c
  8863   000B8E  50E7               	movf	indf1,w,c
  8864   000B90  6E37               	movwf	??_ISR^0,c
  8865   000B92  5037               	movf	??_ISR^0,w,c
  8866   000B94  0D03               	mullw	3
  8867   000B96  CFF3 F038          	movff	prodl,??_ISR+1
  8868   000B9A  CFF4 F039          	movff	prodh,??_ISR+2
  8869   000B9E  EE26  F086         	lfsr	2,_r_queue+337
  8870   000BA2  CFDE F03A          	movff	postinc2,??_ISR+3
  8871   000BA6  CFDD F03B          	movff	postdec2,??_ISR+4
  8872   000BAA  5038               	movf	(??_ISR+1)^0,w,c
  8873   000BAC  243A               	addwf	(??_ISR+3)^0,w,c
  8874   000BAE  6E3C               	movwf	(??_ISR+5)^0,c
  8875   000BB0  5039               	movf	(??_ISR+2)^0,w,c
  8876   000BB2  203B               	addwfc	(??_ISR+4)^0,w,c
  8877   000BB4  6E3D               	movwf	(??_ISR+6)^0,c
  8878   000BB6  0E17               	movlw	23
  8879   000BB8  243C               	addwf	(??_ISR+5)^0,w,c
  8880   000BBA  6ED9               	movwf	fsr2l,c
  8881   000BBC  0E00               	movlw	0
  8882   000BBE  203D               	addwfc	(??_ISR+6)^0,w,c
  8883   000BC0  6EDA               	movwf	fsr2h,c
  8884   000BC2  50DF               	movf	indf2,w,c
  8885   000BC4  6EFD               	movwf	253,c	;volatile
  8886   000BC6  EE26  F086         	lfsr	2,_r_queue+337
  8887   000BCA  EE10 F02F          	lfsr	1,47
  8888   000BCE  50DE               	movf	postinc2,w,c
  8889   000BD0  26E1               	addwf	fsr1l,f,c
  8890   000BD2  50DD               	movf	postdec2,w,c
  8891   000BD4  22E2               	addwfc	fsr1h,f,c
  8892   000BD6  50E7               	movf	indf1,w,c
  8893   000BD8  6E37               	movwf	??_ISR^0,c
  8894   000BDA  5037               	movf	??_ISR^0,w,c
  8895   000BDC  0D03               	mullw	3
  8896   000BDE  CFF3 F038          	movff	prodl,??_ISR+1
  8897   000BE2  CFF4 F039          	movff	prodh,??_ISR+2
  8898   000BE6  EE26  F086         	lfsr	2,_r_queue+337
  8899   000BEA  CFDE F03A          	movff	postinc2,??_ISR+3
  8900   000BEE  CFDD F03B          	movff	postdec2,??_ISR+4
  8901   000BF2  5038               	movf	(??_ISR+1)^0,w,c
  8902   000BF4  243A               	addwf	(??_ISR+3)^0,w,c
  8903   000BF6  6E3C               	movwf	(??_ISR+5)^0,c
  8904   000BF8  5039               	movf	(??_ISR+2)^0,w,c
  8905   000BFA  203B               	addwfc	(??_ISR+4)^0,w,c
  8906   000BFC  6E3D               	movwf	(??_ISR+6)^0,c
  8907   000BFE  0E18               	movlw	24
  8908   000C00  243C               	addwf	(??_ISR+5)^0,w,c
  8909   000C02  6ED9               	movwf	fsr2l,c
  8910   000C04  0E00               	movlw	0
  8911   000C06  203D               	addwfc	(??_ISR+6)^0,w,c
  8912   000C08  6EDA               	movwf	fsr2h,c
  8913   000C0A  50DF               	movf	indf2,w,c
  8914   000C0C  6EFE               	movwf	254,c	;volatile
  8915   000C0E  EE26  F086         	lfsr	2,_r_queue+337
  8916   000C12  EE10 F02F          	lfsr	1,47
  8917   000C16  50DE               	movf	postinc2,w,c
  8918   000C18  26E1               	addwf	fsr1l,f,c
  8919   000C1A  50DD               	movf	postdec2,w,c
  8920   000C1C  22E2               	addwfc	fsr1h,f,c
  8921   000C1E  50E7               	movf	indf1,w,c
  8922   000C20  6E37               	movwf	??_ISR^0,c
  8923   000C22  5037               	movf	??_ISR^0,w,c
  8924   000C24  0D03               	mullw	3
  8925   000C26  CFF3 F038          	movff	prodl,??_ISR+1
  8926   000C2A  CFF4 F039          	movff	prodh,??_ISR+2
  8927   000C2E  EE26  F086         	lfsr	2,_r_queue+337
  8928   000C32  CFDE F03A          	movff	postinc2,??_ISR+3
  8929   000C36  CFDD F03B          	movff	postdec2,??_ISR+4
  8930   000C3A  5038               	movf	(??_ISR+1)^0,w,c
  8931   000C3C  243A               	addwf	(??_ISR+3)^0,w,c
  8932   000C3E  6E3C               	movwf	(??_ISR+5)^0,c
  8933   000C40  5039               	movf	(??_ISR+2)^0,w,c
  8934   000C42  203B               	addwfc	(??_ISR+4)^0,w,c
  8935   000C44  6E3D               	movwf	(??_ISR+6)^0,c
  8936   000C46  0E19               	movlw	25
  8937   000C48  243C               	addwf	(??_ISR+5)^0,w,c
  8938   000C4A  6ED9               	movwf	fsr2l,c
  8939   000C4C  0E00               	movlw	0
  8940   000C4E  203D               	addwfc	(??_ISR+6)^0,w,c
  8941   000C50  6EDA               	movwf	fsr2h,c
  8942   000C52  50DF               	movf	indf2,w,c
  8943   000C54  6EFF               	movwf	255,c	;volatile
  8944   000C56  EE26  F086         	lfsr	2,_r_queue+337
  8945   000C5A  EE10 F02F          	lfsr	1,47
  8946   000C5E  50DE               	movf	postinc2,w,c
  8947   000C60  26E1               	addwf	fsr1l,f,c
  8948   000C62  50DD               	movf	postdec2,w,c
  8949   000C64  22E2               	addwfc	fsr1h,f,c
  8950   000C66  50E7               	movf	indf1,w,c
  8951   000C68  A4D8               	btfss	status,2,c
  8952   000C6A  EF39  F006         	goto	i2u558_41
  8953   000C6E  EF3B  F006         	goto	i2u558_40
  8954   000C72                     i2u558_41:
  8955   000C72  EFB5  F005         	goto	i2l606
  8956   000C76                     i2u558_40:
  8957   000C76  EF80  F006         	goto	i2l5416
  8958   000C7A                     i2l605:
  8959   000C7A  0005               	push		;# 
  8960   000C7C  EE26  F086         	lfsr	2,_r_queue+337
  8961   000C80  EE10 F002          	lfsr	1,2
  8962   000C84  50DE               	movf	postinc2,w,c
  8963   000C86  26E1               	addwf	fsr1l,f,c
  8964   000C88  50DD               	movf	postdec2,w,c
  8965   000C8A  22E2               	addwfc	fsr1h,f,c
  8966   000C8C  50E7               	movf	indf1,w,c
  8967   000C8E  6EFD               	movwf	253,c	;volatile
  8968   000C90  EE26  F086         	lfsr	2,_r_queue+337
  8969   000C94  EE10 F002          	lfsr	1,2
  8970   000C98  50DE               	movf	postinc2,w,c
  8971   000C9A  26E1               	addwf	fsr1l,f,c
  8972   000C9C  50DD               	movf	postdec2,w,c
  8973   000C9E  22E2               	addwfc	fsr1h,f,c
  8974   000CA0  CFE6 F037          	movff	postinc1,??_ISR
  8975   000CA4  CFE5 F038          	movff	postdec1,??_ISR+1
  8976   000CA8  C037  F039         	movff	??_ISR,??_ISR+2
  8977   000CAC  C038  F03A         	movff	??_ISR+1,??_ISR+3
  8978   000CB0  6A3B               	clrf	(??_ISR+4)^0,c
  8979   000CB2  C03A  F039         	movff	??_ISR+3,??_ISR+2
  8980   000CB6  C03B  F03A         	movff	??_ISR+4,??_ISR+3
  8981   000CBA  6A3B               	clrf	(??_ISR+4)^0,c
  8982   000CBC  5039               	movf	(??_ISR+2)^0,w,c
  8983   000CBE  6EFE               	movwf	254,c	;volatile
  8984   000CC0  0E10               	movlw	16
  8985   000CC2  6E37               	movwf	??_ISR^0,c
  8986   000CC4  EE26  F086         	lfsr	2,_r_queue+337
  8987   000CC8  EE10 F002          	lfsr	1,2
  8988   000CCC  50DE               	movf	postinc2,w,c
  8989   000CCE  26E1               	addwf	fsr1l,f,c
  8990   000CD0  50DD               	movf	postdec2,w,c
  8991   000CD2  22E2               	addwfc	fsr1h,f,c
  8992   000CD4  CFE6 F038          	movff	postinc1,??_ISR+1
  8993   000CD8  CFE5 F039          	movff	postdec1,??_ISR+2
  8994   000CDC  C038  F03A         	movff	??_ISR+1,??_ISR+3
  8995   000CE0  C039  F03B         	movff	??_ISR+2,??_ISR+4
  8996   000CE4  6A3C               	clrf	(??_ISR+5)^0,c
  8997   000CE6  2837               	incf	??_ISR^0,w,c
  8998   000CE8  6E3D               	movwf	(??_ISR+6)^0,c
  8999   000CEA  EF7B  F006         	goto	i2u559_40
  9000   000CEE                     i2u559_45:
  9001   000CEE  90D8               	bcf	status,0,c
  9002   000CF0  323C               	rrcf	(??_ISR+5)^0,f,c
  9003   000CF2  323B               	rrcf	(??_ISR+4)^0,f,c
  9004   000CF4  323A               	rrcf	(??_ISR+3)^0,f,c
  9005   000CF6                     i2u559_40:
  9006   000CF6  2E3D               	decfsz	(??_ISR+6)^0,f,c
  9007   000CF8  EF77  F006         	goto	i2u559_45
  9008   000CFC  503A               	movf	(??_ISR+3)^0,w,c
  9009   000CFE  6EFF               	movwf	255,c	;volatile
  9010   000D00                     i2l5416:
  9011   000D00  0E14               	movlw	20
  9012   000D02  6E47               	movwf	_rr_quantum^0,c
  9013   000D04                     i2l610:
  9014   000D04  C043  FFF4         	movff	??_ISR+12,prodh
  9015   000D08  C042  FFF3         	movff	??_ISR+11,prodl
  9016   000D0C  C041  FFDA         	movff	??_ISR+10,fsr2h
  9017   000D10  C040  FFD9         	movff	??_ISR+9,fsr2l
  9018   000D14  C03F  FFE2         	movff	??_ISR+8,fsr1h
  9019   000D18  C03E  FFE1         	movff	??_ISR+7,fsr1l
  9020   000D1C  9201               	bcf	int$flags,1,c	;clear compiler interrupt flag (level 2)
  9021   000D1E  0011               	retfie		f
  9022   000D20                     __end_of_ISR:
  9023                           	callstack 0
  9024                           
  9025 ;; *************** function i2_scheduler *****************
  9026 ;; Defined at:
  9027 ;;		line 9 in file "scheduler.c"
  9028 ;; Parameters:    Size  Location     Type
  9029 ;;		None
  9030 ;; Auto vars:     Size  Location     Type
  9031 ;;		None
  9032 ;; Return value:  Size  Location     Type
  9033 ;;                  1    wreg      void 
  9034 ;; Registers used:
  9035 ;;		wreg, fsr2l, fsr2h, status,2, status,0, prodl, prodh, cstack
  9036 ;; Tracked objects:
  9037 ;;		On entry : 0/0
  9038 ;;		On exit  : 0/0
  9039 ;;		Unchanged: 0/0
  9040 ;; Data sizes:     COMRAM   BANK0   BANK1   BANK2   BANK3   BANK4   BANK5   BANK6   BANK7   BANK8   BANK9  BANK10  BANK1
      +1  BANK12  BANK13  BANK14  BANK15
  9041 ;;      Params:         0       0       0       0       0       0       0       0       0       0       0       0       
      +0       0       0       0       0
  9042 ;;      Locals:         0       0       0       0       0       0       0       0       0       0       0       0       
      +0       0       0       0       0
  9043 ;;      Temps:          3       0       0       0       0       0       0       0       0       0       0       0       
      +0       0       0       0       0
  9044 ;;      Totals:         3       0       0       0       0       0       0       0       0       0       0       0       
      +0       0       0       0       0
  9045 ;;Total ram usage:        3 bytes
  9046 ;; Hardware stack levels used: 1
  9047 ;; Hardware stack levels required when called: 1
  9048 ;; This function calls:
  9049 ;;		i2_priority_rr_scheduler
  9050 ;; This function is called by:
  9051 ;;		_ISR
  9052 ;; This function uses a non-reentrant model
  9053 ;;
  9054                           
  9055                           	psect	text31
  9056   00316E                     __ptext31:
  9057                           	callstack 0
  9058   00316E                     i2_scheduler:
  9059                           	callstack 19
  9060   00316E                     
  9061                           ;scheduler.c: 15:     r_queue.pos_task_running = priority_rr_scheduler();
  9062   00316E  EC70  F014         	call	i2_priority_rr_scheduler	;wreg free
  9063   003172  6E09               	movwf	??i2_scheduler^0,c
  9064   003174  C009  F688         	movff	??i2_scheduler,_r_queue+339
  9065   003178                     
  9066                           ;scheduler.c: 17:     r_queue.task_running = &r_queue.TASKS[r_queue.pos_task_running];
  9067   003178  C688  F009         	movff	_r_queue+339,??i2_scheduler
  9068   00317C  5009               	movf	??i2_scheduler^0,w,c
  9069   00317E  0D30               	mullw	48
  9070   003180  0E35               	movlw	low _r_queue
  9071   003182  24F3               	addwf	243,w,c
  9072   003184  6E0A               	movwf	(??i2_scheduler+1)^0,c
  9073   003186  0E05               	movlw	high _r_queue
  9074   003188  20F4               	addwfc	prodh,w,c
  9075   00318A  6E0B               	movwf	(??i2_scheduler+2)^0,c
  9076   00318C  C00A  F686         	movff	??i2_scheduler+1,_r_queue+337
  9077   003190  C00B  F687         	movff	??i2_scheduler+2,_r_queue+338
  9078   003194  0012               	return		;funcret
  9079   003196                     __end_ofi2_scheduler:
  9080                           	callstack 0
  9081                           
  9082 ;; *************** function i2_priority_rr_scheduler *****************
  9083 ;; Defined at:
  9084 ;;		line 51 in file "scheduler.c"
  9085 ;; Parameters:    Size  Location     Type
  9086 ;;		None
  9087 ;; Auto vars:     Size  Location     Type
  9088 ;;  idx             1    6[COMRAM] unsigned char 
  9089 ;;  i               1    5[COMRAM] unsigned char 
  9090 ;;  i               1    4[COMRAM] unsigned char 
  9091 ;;  found           1    3[COMRAM] unsigned char 
  9092 ;;  max_prio        1    2[COMRAM] unsigned char 
  9093 ;;  current         1    1[COMRAM] unsigned char 
  9094 ;; Return value:  Size  Location     Type
  9095 ;;                  1    wreg      unsigned char 
  9096 ;; Registers used:
  9097 ;;		wreg, fsr2l, fsr2h, status,2, status,0, prodl, prodh
  9098 ;; Tracked objects:
  9099 ;;		On entry : 0/0
  9100 ;;		On exit  : 0/0
  9101 ;;		Unchanged: 0/0
  9102 ;; Data sizes:     COMRAM   BANK0   BANK1   BANK2   BANK3   BANK4   BANK5   BANK6   BANK7   BANK8   BANK9  BANK10  BANK1
      +1  BANK12  BANK13  BANK14  BANK15
  9103 ;;      Params:         0       0       0       0       0       0       0       0       0       0       0       0       
      +0       0       0       0       0
  9104 ;;      Locals:         6       0       0       0       0       0       0       0       0       0       0       0       
      +0       0       0       0       0
  9105 ;;      Temps:          1       0       0       0       0       0       0       0       0       0       0       0       
      +0       0       0       0       0
  9106 ;;      Totals:         7       0       0       0       0       0       0       0       0       0       0       0       
      +0       0       0       0       0
  9107 ;;Total ram usage:        7 bytes
  9108 ;; Hardware stack levels used: 1
  9109 ;; This function calls:
  9110 ;;		Nothing
  9111 ;; This function is called by:
  9112 ;;		i2_scheduler
  9113 ;; This function uses a non-reentrant model
  9114 ;;
  9115                           
  9116                           	psect	text32
  9117   0028E0                     __ptext32:
  9118                           	callstack 0
  9119   0028E0                     i2_priority_rr_scheduler:
  9120                           	callstack 19
  9121   0028E0                     
  9122                           ;scheduler.c: 52:     uint8_t max_prio = 0;
  9123   0028E0  6A04               	clrf	i2priority_rr_scheduler@max_prio^0,c
  9124                           
  9125                           ;scheduler.c: 53:     uint8_t found = 0;
  9126   0028E2  6A05               	clrf	i2priority_rr_scheduler@found^0,c
  9127                           
  9128                           ;scheduler.c: 55:     for (uint8_t i = 0; i < r_queue.size; i++) {
  9129   0028E4  6A07               	clrf	i2priority_rr_scheduler@i^0,c
  9130   0028E6  EFAB  F014         	goto	i2l2626
  9131   0028EA                     i2l2614:
  9132                           
  9133                           ;scheduler.c: 56:         if (r_queue.TASKS[i].task_state == READY) {
  9134   0028EA  5007               	movf	i2priority_rr_scheduler@i^0,w,c
  9135   0028EC  0D30               	mullw	48
  9136   0028EE  0E36               	movlw	low (_r_queue+1)
  9137   0028F0  24F3               	addwf	243,w,c
  9138   0028F2  6ED9               	movwf	fsr2l,c
  9139   0028F4  0E05               	movlw	high (_r_queue+1)
  9140   0028F6  20F4               	addwfc	prodh,w,c
  9141   0028F8  6EDA               	movwf	fsr2h,c
  9142   0028FA  50DF               	movf	indf2,w,c
  9143   0028FC  A4D8               	btfss	status,2,c
  9144   0028FE  EF83  F014         	goto	i2u156_41
  9145   002902  EF85  F014         	goto	i2u156_40
  9146   002906                     i2u156_41:
  9147   002906  EFAA  F014         	goto	i2l2624
  9148   00290A                     i2u156_40:
  9149   00290A                     
  9150                           ;scheduler.c: 57:             if (!found || r_queue.TASKS[i].task_priority > max_prio) {
  9151   00290A  5005               	movf	i2priority_rr_scheduler@found^0,w,c
  9152   00290C  B4D8               	btfsc	status,2,c
  9153   00290E  EF8B  F014         	goto	i2u157_41
  9154   002912  EF8D  F014         	goto	i2u157_40
  9155   002916                     i2u157_41:
  9156   002916  EF9E  F014         	goto	i2l2620
  9157   00291A                     i2u157_40:
  9158   00291A  5007               	movf	i2priority_rr_scheduler@i^0,w,c
  9159   00291C  0D30               	mullw	48
  9160   00291E  0E3A               	movlw	low (_r_queue+5)
  9161   002920  24F3               	addwf	243,w,c
  9162   002922  6ED9               	movwf	fsr2l,c
  9163   002924  0E05               	movlw	high (_r_queue+5)
  9164   002926  20F4               	addwfc	prodh,w,c
  9165   002928  6EDA               	movwf	fsr2h,c
  9166   00292A  50DE               	movf	postinc2,w,c
  9167   00292C  5C04               	subwf	i2priority_rr_scheduler@max_prio^0,w,c
  9168   00292E  B0D8               	btfsc	status,0,c
  9169   002930  EF9C  F014         	goto	i2u158_41
  9170   002934  EF9E  F014         	goto	i2u158_40
  9171   002938                     i2u158_41:
  9172   002938  EFAA  F014         	goto	i2l2624
  9173   00293C                     i2u158_40:
  9174   00293C                     i2l2620:
  9175                           
  9176                           ;scheduler.c: 58:                 max_prio = r_queue.TASKS[i].task_priority;
  9177   00293C  5007               	movf	i2priority_rr_scheduler@i^0,w,c
  9178   00293E  0D30               	mullw	48
  9179   002940  0E3A               	movlw	low (_r_queue+5)
  9180   002942  24F3               	addwf	243,w,c
  9181   002944  6ED9               	movwf	fsr2l,c
  9182   002946  0E05               	movlw	high (_r_queue+5)
  9183   002948  20F4               	addwfc	prodh,w,c
  9184   00294A  6EDA               	movwf	fsr2h,c
  9185   00294C  50DF               	movf	indf2,w,c
  9186   00294E  6E04               	movwf	i2priority_rr_scheduler@max_prio^0,c
  9187   002950                     
  9188                           ;scheduler.c: 59:                 found = 1;
  9189   002950  0E01               	movlw	1
  9190   002952  6E05               	movwf	i2priority_rr_scheduler@found^0,c
  9191   002954                     i2l2624:
  9192                           
  9193                           ;scheduler.c: 62:     }
  9194   002954  2A07               	incf	i2priority_rr_scheduler@i^0,f,c
  9195   002956                     i2l2626:
  9196   002956  EE26  F085         	lfsr	2,_r_queue+336
  9197   00295A  50DE               	movf	postinc2,w,c
  9198   00295C  5C07               	subwf	i2priority_rr_scheduler@i^0,w,c
  9199   00295E  A0D8               	btfss	status,0,c
  9200   002960  EFB4  F014         	goto	i2u159_41
  9201   002964  EFB6  F014         	goto	i2u159_40
  9202   002968                     i2u159_41:
  9203   002968  EF75  F014         	goto	i2l2614
  9204   00296C                     i2u159_40:
  9205   00296C                     
  9206                           ;scheduler.c: 63:     if (!found)return 0;
  9207   00296C  5005               	movf	i2priority_rr_scheduler@found^0,w,c
  9208   00296E  A4D8               	btfss	status,2,c
  9209   002970  EFBC  F014         	goto	i2u160_41
  9210   002974  EFBE  F014         	goto	i2u160_40
  9211   002978                     i2u160_41:
  9212   002978  EFC1  F014         	goto	i2l504
  9213   00297C                     i2u160_40:
  9214   00297C                     i2l2630:
  9215   00297C  0E00               	movlw	0
  9216   00297E  EF0A  F015         	goto	i2l505
  9217   002982                     i2l504:
  9218                           
  9219                           ;scheduler.c: 64:     uint8_t current = r_queue.pos_task_running;
  9220   002982  C688  F003         	movff	_r_queue+339,i2priority_rr_scheduler@current
  9221                           
  9222                           ;scheduler.c: 66:     for (uint8_t i = 0; i < r_queue.size; i++) {
  9223   002986  6A06               	clrf	i2priority_rr_scheduler@i_1768^0,c
  9224   002988  EFFD  F014         	goto	i2l2650
  9225   00298C                     i2l2634:
  9226                           
  9227                           ;scheduler.c: 67:         uint8_t idx = current + i;
  9228   00298C  5003               	movf	i2priority_rr_scheduler@current^0,w,c
  9229   00298E  2406               	addwf	i2priority_rr_scheduler@i_1768^0,w,c
  9230   002990  6E08               	movwf	i2priority_rr_scheduler@idx^0,c
  9231   002992                     
  9232                           ;scheduler.c: 68:         if (idx >= r_queue.size) idx -= r_queue.size;
  9233   002992  EE26  F085         	lfsr	2,_r_queue+336
  9234   002996  50DE               	movf	postinc2,w,c
  9235   002998  5C08               	subwf	i2priority_rr_scheduler@idx^0,w,c
  9236   00299A  A0D8               	btfss	status,0,c
  9237   00299C  EFD2  F014         	goto	i2u161_41
  9238   0029A0  EFD4  F014         	goto	i2u161_40
  9239   0029A4                     i2u161_41:
  9240   0029A4  EFD8  F014         	goto	i2l2640
  9241   0029A8                     i2u161_40:
  9242   0029A8  EE26  F085         	lfsr	2,_r_queue+336
  9243   0029AC  50DF               	movf	indf2,w,c
  9244   0029AE  5E08               	subwf	i2priority_rr_scheduler@idx^0,f,c
  9245   0029B0                     i2l2640:
  9246                           
  9247                           ;scheduler.c: 69:         if (r_queue.TASKS[idx].task_state == READY &&
  9248   0029B0  5008               	movf	i2priority_rr_scheduler@idx^0,w,c
  9249   0029B2  0D30               	mullw	48
  9250   0029B4  0E36               	movlw	low (_r_queue+1)
  9251   0029B6  24F3               	addwf	243,w,c
  9252   0029B8  6ED9               	movwf	fsr2l,c
  9253   0029BA  0E05               	movlw	high (_r_queue+1)
  9254   0029BC  20F4               	addwfc	prodh,w,c
  9255   0029BE  6EDA               	movwf	fsr2h,c
  9256   0029C0  50DF               	movf	indf2,w,c
  9257   0029C2  A4D8               	btfss	status,2,c
  9258   0029C4  EFE6  F014         	goto	i2u162_41
  9259   0029C8  EFE8  F014         	goto	i2u162_40
  9260   0029CC                     i2u162_41:
  9261   0029CC  EFFC  F014         	goto	i2l2648
  9262   0029D0                     i2u162_40:
  9263   0029D0  5008               	movf	i2priority_rr_scheduler@idx^0,w,c
  9264   0029D2  0D30               	mullw	48
  9265   0029D4  0E3A               	movlw	low (_r_queue+5)
  9266   0029D6  24F3               	addwf	243,w,c
  9267   0029D8  6ED9               	movwf	fsr2l,c
  9268   0029DA  0E05               	movlw	high (_r_queue+5)
  9269   0029DC  20F4               	addwfc	prodh,w,c
  9270   0029DE  6EDA               	movwf	fsr2h,c
  9271   0029E0  5004               	movf	i2priority_rr_scheduler@max_prio^0,w,c
  9272   0029E2  18DE               	xorwf	postinc2,w,c
  9273   0029E4  A4D8               	btfss	status,2,c
  9274   0029E6  EFF7  F014         	goto	i2u163_41
  9275   0029EA  EFF9  F014         	goto	i2u163_40
  9276   0029EE                     i2u163_41:
  9277   0029EE  EFFC  F014         	goto	i2l2648
  9278   0029F2                     i2u163_40:
  9279   0029F2                     
  9280                           ;scheduler.c: 70:                 r_queue.TASKS[idx].task_priority == max_prio) {;schedu
      +                          ler.c: 71:             return idx;
  9281   0029F2  5008               	movf	i2priority_rr_scheduler@idx^0,w,c
  9282   0029F4  EF0A  F015         	goto	i2l505
  9283   0029F8                     i2l2648:
  9284                           
  9285                           ;scheduler.c: 73:     }
  9286   0029F8  2A06               	incf	i2priority_rr_scheduler@i_1768^0,f,c
  9287   0029FA                     i2l2650:
  9288   0029FA  EE26  F085         	lfsr	2,_r_queue+336
  9289   0029FE  50DE               	movf	postinc2,w,c
  9290   002A00  5C06               	subwf	i2priority_rr_scheduler@i_1768^0,w,c
  9291   002A02  A0D8               	btfss	status,0,c
  9292   002A04  EF06  F015         	goto	i2u164_41
  9293   002A08  EF08  F015         	goto	i2u164_40
  9294   002A0C                     i2u164_41:
  9295   002A0C  EFC6  F014         	goto	i2l2634
  9296   002A10                     i2u164_40:
  9297   002A10  EFBE  F014         	goto	i2l2630
  9298   002A14                     i2l505:
  9299   002A14  0012               	return		;funcret
  9300   002A16                     __end_ofi2_priority_rr_scheduler:
  9301                           	callstack 0
  9302                           
  9303 ;; *************** function i2_os_create_task *****************
  9304 ;; Defined at:
  9305 ;;		line 22 in file "kernel.c"
  9306 ;; Parameters:    Size  Location     Type
  9307 ;;  id              1    wreg     unsigned char 
  9308 ;;  func            2    0[COMRAM] PTR FTN()void 
  9309 ;;		 -> tarefaOneShot(1), idle(1), tarefaPWN(1), READ_ADC(1), 
  9310 ;;		 -> LED_2(1), LED_1(1), 
  9311 ;;  prior           1    2[COMRAM] unsigned char 
  9312 ;; Auto vars:     Size  Location     Type
  9313 ;;  id              1    4[COMRAM] unsigned char 
  9314 ;;  new_task       48    5[COMRAM] struct tcb
  9315 ;; Return value:  Size  Location     Type
  9316 ;;                  1    wreg      void 
  9317 ;; Registers used:
  9318 ;;		wreg, fsr1l, fsr1h, fsr2l, fsr2h, status,2, status,0, prodl, prodh
  9319 ;; Tracked objects:
  9320 ;;		On entry : 0/0
  9321 ;;		On exit  : 0/0
  9322 ;;		Unchanged: 0/0
  9323 ;; Data sizes:     COMRAM   BANK0   BANK1   BANK2   BANK3   BANK4   BANK5   BANK6   BANK7   BANK8   BANK9  BANK10  BANK1
      +1  BANK12  BANK13  BANK14  BANK15
  9324 ;;      Params:         3       0       0       0       0       0       0       0       0       0       0       0       
      +0       0       0       0       0
  9325 ;;      Locals:        49       0       0       0       0       0       0       0       0       0       0       0       
      +0       0       0       0       0
  9326 ;;      Temps:          1       0       0       0       0       0       0       0       0       0       0       0       
      +0       0       0       0       0
  9327 ;;      Totals:        53       0       0       0       0       0       0       0       0       0       0       0       
      +0       0       0       0       0
  9328 ;;Total ram usage:       53 bytes
  9329 ;; Hardware stack levels used: 1
  9330 ;; This function calls:
  9331 ;;		Nothing
  9332 ;; This function is called by:
  9333 ;;		_ISR
  9334 ;; This function uses a non-reentrant model
  9335 ;;
  9336                           
  9337                           	psect	text33
  9338   002D5E                     __ptext33:
  9339                           	callstack 0
  9340   002D5E                     i2_os_create_task:
  9341                           	callstack 20
  9342                           
  9343                           ;incstack = 0
  9344                           ;i2os_create_task@id stored from wreg
  9345   002D5E  6E06               	movwf	i2os_create_task@id^0,c
  9346   002D60                     
  9347                           ;kernel.c: 22: void os_create_task(uint8_t id, f_ptr func, uint8_t prior);kernel.c: 23: 
      +                          {;kernel.c: 24:     tcb_t new_task;;kernel.c: 26:     new_task.task_id = id;
  9348   002D60  C006  F007         	movff	i2os_create_task@id,i2os_create_task@new_task
  9349   002D64                     
  9350                           ;kernel.c: 27:     new_task.task_delay = 0;
  9351   002D64  6A0B               	clrf	(i2os_create_task@new_task+4)^0,c
  9352   002D66                     
  9353                           ;kernel.c: 28:     new_task.task_priority = prior;
  9354   002D66  C004  F00C         	movff	i2os_create_task@prior,i2os_create_task@new_task+5
  9355   002D6A                     
  9356                           ;kernel.c: 29:     new_task.task_ptr = func;
  9357   002D6A  C002  F009         	movff	i2os_create_task@func,i2os_create_task@new_task+2
  9358   002D6E  C003  F00A         	movff	i2os_create_task@func+1,i2os_create_task@new_task+3
  9359   002D72                     
  9360                           ;kernel.c: 30:     new_task.task_state = READY;
  9361   002D72  6A08               	clrf	(i2os_create_task@new_task+1)^0,c
  9362   002D74                     
  9363                           ;kernel.c: 32:     new_task.BSR_REG = 0;
  9364   002D74  6A0F               	clrf	(i2os_create_task@new_task+8)^0,c
  9365   002D76                     
  9366                           ;kernel.c: 33:     new_task.FSR0H_REG = 0;
  9367   002D76  6A13               	clrf	(i2os_create_task@new_task+12)^0,c
  9368   002D78                     
  9369                           ;kernel.c: 34:     new_task.FSR0L_REG = 0;
  9370   002D78  6A12               	clrf	(i2os_create_task@new_task+11)^0,c
  9371   002D7A                     
  9372                           ;kernel.c: 35:     new_task.FSR1H_REG = 0;
  9373   002D7A  6A15               	clrf	(i2os_create_task@new_task+14)^0,c
  9374   002D7C                     
  9375                           ;kernel.c: 36:     new_task.FSR1L_REG = 0;
  9376   002D7C  6A14               	clrf	(i2os_create_task@new_task+13)^0,c
  9377   002D7E                     
  9378                           ;kernel.c: 37:     new_task.FSR2H_REG = 0;
  9379   002D7E  6A17               	clrf	(i2os_create_task@new_task+16)^0,c
  9380   002D80                     
  9381                           ;kernel.c: 38:     new_task.FSR2L_REG = 0;
  9382   002D80  6A16               	clrf	(i2os_create_task@new_task+15)^0,c
  9383   002D82                     
  9384                           ;kernel.c: 39:     new_task.PCLATH_REG = 0;
  9385   002D82  6A1C               	clrf	(i2os_create_task@new_task+21)^0,c
  9386   002D84                     
  9387                           ;kernel.c: 40:     new_task.PCLATU_REG = 0;
  9388   002D84  6A1D               	clrf	(i2os_create_task@new_task+22)^0,c
  9389   002D86                     
  9390                           ;kernel.c: 41:     new_task.PRODH_REG = 0;
  9391   002D86  6A11               	clrf	(i2os_create_task@new_task+10)^0,c
  9392   002D88                     
  9393                           ;kernel.c: 42:     new_task.PRODL_REG = 0;
  9394   002D88  6A10               	clrf	(i2os_create_task@new_task+9)^0,c
  9395   002D8A                     
  9396                           ;kernel.c: 43:     new_task.STATUS_REG = 0;
  9397   002D8A  6A0E               	clrf	(i2os_create_task@new_task+7)^0,c
  9398   002D8C                     
  9399                           ;kernel.c: 44:     new_task.TABLAT_REG = 0;
  9400   002D8C  6A18               	clrf	(i2os_create_task@new_task+17)^0,c
  9401   002D8E                     
  9402                           ;kernel.c: 45:     new_task.TBLPTRH_REG = 0;
  9403   002D8E  6A1A               	clrf	(i2os_create_task@new_task+19)^0,c
  9404   002D90                     
  9405                           ;kernel.c: 46:     new_task.TBLPTRL_REG = 0;
  9406   002D90  6A19               	clrf	(i2os_create_task@new_task+18)^0,c
  9407   002D92                     
  9408                           ;kernel.c: 47:     new_task.TBLPTRU_REG = 0;
  9409   002D92  6A1B               	clrf	(i2os_create_task@new_task+20)^0,c
  9410   002D94                     
  9411                           ;kernel.c: 48:     new_task.W_REG = 0;
  9412   002D94  6A0D               	clrf	(i2os_create_task@new_task+6)^0,c
  9413   002D96                     
  9414                           ;kernel.c: 49:     new_task.task_stack.stack_size = 0;
  9415   002D96  6A36               	clrf	(i2os_create_task@new_task+47)^0,c
  9416   002D98                     
  9417                           ;kernel.c: 52:     r_queue.TASKS[r_queue.size++] = new_task;
  9418   002D98  EE20  F007         	lfsr	2,i2os_create_task@new_task
  9419   002D9C  C685  F005         	movff	_r_queue+336,??i2_os_create_task
  9420   002DA0  5005               	movf	??i2_os_create_task^0,w,c
  9421   002DA2  0D30               	mullw	48
  9422   002DA4  0E35               	movlw	low _r_queue
  9423   002DA6  24F3               	addwf	243,w,c
  9424   002DA8  6EE1               	movwf	fsr1l,c
  9425   002DAA  0E05               	movlw	high _r_queue
  9426   002DAC  20F4               	addwfc	prodh,w,c
  9427   002DAE  6EE2               	movwf	fsr1h,c
  9428   002DB0  0E2F               	movlw	47
  9429   002DB2                     i2u186_41:
  9430   002DB2  CFDB FFE3          	movff	plusw2,plusw1
  9431   002DB6  06E8               	decf	wreg,f,c
  9432   002DB8  E2FC               	bc	i2u186_41
  9433   002DBA  C685  FFE8         	movff	_r_queue+336,wreg
  9434   002DBE  0F01               	addlw	1
  9435   002DC0  CFE8 F685          	movff	wreg,_r_queue+336
  9436   002DC4  0012               	return		;funcret
  9437   002DC6                     __end_ofi2_os_create_task:
  9438                           	callstack 0
  9439                           
  9440                           	psect	smallconst
  9441   001000                     __psmallconst:
  9442                           	callstack 0
  9443   001000  00                 	db	0
  9444   001001  00                 	db	0	; dummy byte at the end
  9445   001000                     __smallconst    set	__psmallconst
  9446   001000                     __mediumconst   set	__psmallconst
  9447   000002                     __activetblptr  equ	2
  9448                           
  9449                           	psect	rparam
  9450   000001                     ___rparam_used  equ	1
  9451   000000                     ___param_bank   equ	0
  9452   000000                     __Lparam        equ	__Lrparam
  9453   000000                     __Hparam        equ	__Hrparam
  9454   000001                     btemp           set	1	;btemp
  9455   000001                     int$flags       set	1
  9456   000001                     btemp0          set	1
  9457   000002                     btemp1          set	2
  9458                           tosu	equ	0xFFF
  9459                           tosh	equ	0xFFE
  9460                           tosl	equ	0xFFD
  9461                           stkptr	equ	0xFFC
  9462                           pclatu	equ	0xFFB
  9463                           pclath	equ	0xFFA
  9464                           pcl	equ	0xFF9
  9465                           tblptru	equ	0xFF8
  9466                           tblptrh	equ	0xFF7
  9467                           tblptrl	equ	0xFF6
  9468                           tablat	equ	0xFF5
  9469                           prodh	equ	0xFF4
  9470                           prodl	equ	0xFF3
  9471                           indf0	equ	0xFEF
  9472                           postinc0	equ	0xFEE
  9473                           postdec0	equ	0xFED
  9474                           preinc0	equ	0xFEC
  9475                           plusw0	equ	0xFEB
  9476                           fsr0h	equ	0xFEA
  9477                           fsr0l	equ	0xFE9
  9478                           wreg	equ	0xFE8
  9479                           indf1	equ	0xFE7
  9480                           postinc1	equ	0xFE6
  9481                           postdec1	equ	0xFE5
  9482                           preinc1	equ	0xFE4
  9483                           plusw1	equ	0xFE3
  9484                           fsr1h	equ	0xFE2
  9485                           fsr1l	equ	0xFE1
  9486                           bsr	equ	0xFE0
  9487                           indf2	equ	0xFDF
  9488                           postinc2	equ	0xFDE
  9489                           postdec2	equ	0xFDD
  9490                           preinc2	equ	0xFDC
  9491                           plusw2	equ	0xFDB
  9492                           fsr2h	equ	0xFDA
  9493                           fsr2l	equ	0xFD9
  9494                           status	equ	0xFD8

Data Sizes:
    Strings     0
    Constant    0
    Data        7
    BSS         897
    Persistent  0
    Stack       0

Auto Spaces:
    Space          Size  Autos    Used
    COMRAM           94     68      70
    BANK0           160      1      51
    BANK1           256     84      84
    BANK2           256    128     128
    BANK3           256     53      53
    BANK4           256      0       0
    BANK5           256      0       0
    BANK6           256      0       0
    BANK7           256      0       0
    BANK8           256      0       0
    BANK9           256      0       0
    BANK10          256      0       0
    BANK11          256      0       0
    BANK12          256      0       0
    BANK13          256      0       0
    BANK14          256      0       0
    BANK15           56      0       0

Pointer List with Targets:

    i2os_create_task@new_task$task_ptr	PTR FTN()void  size(2) Largest target is 1
		 -> idle(), LED_1(), LED_2(), READ_ADC(), 
		 -> tarefaOneShot(), tarefaPWN(), 

    mutex_init@m	PTR struct mutex size(1) Largest target is 11
		 -> m_led(BANK0[11]), 

    mutex_lock@m	PTR struct mutex size(1) Largest target is 11
		 -> m_led(BANK0[11]), 

    mutex_unlock@m	PTR struct mutex size(1) Largest target is 11
		 -> m_led(BANK0[11]), 

    new_task$task_ptr	PTR FTN()void  size(2) Largest target is 1
		 -> idle(), LED_1(), LED_2(), READ_ADC(), 
		 -> tarefaOneShot(), tarefaPWN(), 

    os_create_task@func	PTR FTN()void  size(2) Largest target is 1
		 -> idle(), LED_1(), LED_2(), READ_ADC(), 
		 -> tarefaOneShot(), tarefaPWN(), 

    os_task_change_state@task_handle$task_ptr	PTR FTN()void  size(2) Largest target is 1
		 -> idle(), LED_1(), LED_2(), READ_ADC(), 
		 -> tarefaOneShot(), tarefaPWN(), 

    pipe_init@p	PTR struct pipe size(1) Largest target is 24
		 -> p(BANK0[24]), 

    pipe_read@dado	PTR unsigned char  size(1) Largest target is 1
		 -> dado(COMRAM[1]), 

    pipe_read@p	PTR struct pipe size(1) Largest target is 24
		 -> p(BANK0[24]), 

    pipe_write@p	PTR struct pipe size(1) Largest target is 24
		 -> p(BANK0[24]), 

    r_queue$task_ptr	PTR FTN()void  size(2) Largest target is 1
		 -> idle(), LED_1(), LED_2(), READ_ADC(), 
		 -> tarefaOneShot(), tarefaPWN(), 

    r_queue$task_running	PTR struct tcb size(2) Largest target is 340
		 -> r_queue(BIGRAM[340]), r_queue$TASKS(BIGRAM[336]), 

    r_queue$task_running$task_ptr	PTR FTN()void  size(2) Largest target is 1
		 -> idle(), LED_1(), LED_2(), READ_ADC(), 
		 -> tarefaOneShot(), tarefaPWN(), 

    r_queue$TASKS$task_ptr	PTR FTN()void  size(2) Largest target is 1
		 -> idle(), LED_1(), LED_2(), READ_ADC(), 
		 -> tarefaOneShot(), tarefaPWN(), 

    S74tcb$task_ptr	PTR FTN()void  size(2) Largest target is 1
		 -> idle(), LED_1(), LED_2(), READ_ADC(), 
		 -> tarefaOneShot(), tarefaPWN(), 

    S98ready_queue$task_running	PTR struct tcb size(2) Largest target is 340
		 -> r_queue(BIGRAM[340]), 

    sem_init@sem	PTR struct sem size(1) Largest target is 24
		 -> p(BANK0[24]), s(BANK0[9]), 

    sem_post@sem	PTR struct sem size(1) Largest target is 24
		 -> p(BANK0[24]), s(BANK0[9]), 

    sem_wait@sem	PTR struct sem size(1) Largest target is 24
		 -> p(BANK0[24]), s(BANK0[9]), 

    sp__SRAMalloc	PTR unsigned char  size(2) Largest target is 512
		 -> _uDynamicHeap(BIGRAM[512]), NULL(NULL[0]), 


Critical Paths under _main in COMRAM

    None.

Critical Paths under _idle in COMRAM

    None.

Critical Paths under _idle in COMRAM

    None.

Critical Paths under _LED_1 in COMRAM

    None.

Critical Paths under _LED_2 in COMRAM

    None.

Critical Paths under _READ_ADC in COMRAM

    None.

Critical Paths under _tarefaPWN in COMRAM

    None.

Critical Paths under _LED_1 in COMRAM

    None.

Critical Paths under _LED_2 in COMRAM

    None.

Critical Paths under _READ_ADC in COMRAM

    None.

Critical Paths under _tarefaPWN in COMRAM

    None.

Critical Paths under _ISR in COMRAM

    _ISR->i2_os_create_task
    i2_scheduler->i2_priority_rr_scheduler

Critical Paths under _main in BANK0

    None.

Critical Paths under _idle in BANK0

    None.

Critical Paths under _idle in BANK0

    None.

Critical Paths under _LED_1 in BANK0

    None.

Critical Paths under _LED_2 in BANK0

    None.

Critical Paths under _READ_ADC in BANK0

    None.

Critical Paths under _tarefaPWN in BANK0

    None.

Critical Paths under _LED_1 in BANK0

    None.

Critical Paths under _LED_2 in BANK0

    None.

Critical Paths under _READ_ADC in BANK0

    None.

Critical Paths under _tarefaPWN in BANK0

    None.

Critical Paths under _ISR in BANK0

    None.

Critical Paths under _main in BANK1

    None.

Critical Paths under _idle in BANK1

    None.

Critical Paths under _idle in BANK1

    None.

Critical Paths under _LED_1 in BANK1

    _LED_1->_pipe_write
    _sem_wait->___awmod
    _sem_post->___awmod

Critical Paths under _LED_2 in BANK1

    _LED_2->_pipe_read
    _pipe_read->_sem_wait
    _sem_wait->___awmod
    _sem_post->___awmod

Critical Paths under _READ_ADC in BANK1

    None.

Critical Paths under _tarefaPWN in BANK1

    None.

Critical Paths under _LED_1 in BANK1

    _LED_1->_pipe_write
    _sem_wait->___awmod
    _sem_post->___awmod

Critical Paths under _LED_2 in BANK1

    _LED_2->_pipe_read
    _pipe_read->_sem_wait
    _sem_wait->___awmod
    _sem_post->___awmod

Critical Paths under _READ_ADC in BANK1

    None.

Critical Paths under _tarefaPWN in BANK1

    None.

Critical Paths under _ISR in BANK1

    None.

Critical Paths under _main in BANK2

    None.

Critical Paths under _idle in BANK2

    None.

Critical Paths under _idle in BANK2

    None.

Critical Paths under _LED_1 in BANK2

    _os_delay->i1_scheduler
    i1_scheduler->i1_priority_rr_scheduler

Critical Paths under _LED_2 in BANK2

    i1_scheduler->i1_priority_rr_scheduler

Critical Paths under _READ_ADC in BANK2

    _os_delay->i1_scheduler
    i1_scheduler->i1_priority_rr_scheduler

Critical Paths under _tarefaPWN in BANK2

    _tarefaPWN->_os_delay
    _os_delay->i1_scheduler
    i1_scheduler->i1_priority_rr_scheduler

Critical Paths under _LED_1 in BANK2

    _os_delay->i1_scheduler
    i1_scheduler->i1_priority_rr_scheduler

Critical Paths under _LED_2 in BANK2

    i1_scheduler->i1_priority_rr_scheduler

Critical Paths under _READ_ADC in BANK2

    _os_delay->i1_scheduler
    i1_scheduler->i1_priority_rr_scheduler

Critical Paths under _tarefaPWN in BANK2

    _tarefaPWN->_os_delay
    _os_delay->i1_scheduler
    i1_scheduler->i1_priority_rr_scheduler

Critical Paths under _ISR in BANK2

    None.

Critical Paths under _main in BANK3

    _main->_os_create_task
    _os_start->_scheduler
    _scheduler->_priority_rr_scheduler
    _os_config->_os_create_task
    _config_user->_pipe_init
    _pipe_init->_sem_init

Critical Paths under _idle in BANK3

    None.

Critical Paths under _idle in BANK3

    None.

Critical Paths under _LED_1 in BANK3

    None.

Critical Paths under _LED_2 in BANK3

    None.

Critical Paths under _READ_ADC in BANK3

    None.

Critical Paths under _tarefaPWN in BANK3

    None.

Critical Paths under _LED_1 in BANK3

    None.

Critical Paths under _LED_2 in BANK3

    None.

Critical Paths under _READ_ADC in BANK3

    None.

Critical Paths under _tarefaPWN in BANK3

    None.

Critical Paths under _ISR in BANK3

    None.

Critical Paths under _main in BANK4

    None.

Critical Paths under _idle in BANK4

    None.

Critical Paths under _idle in BANK4

    None.

Critical Paths under _LED_1 in BANK4

    None.

Critical Paths under _LED_2 in BANK4

    None.

Critical Paths under _READ_ADC in BANK4

    None.

Critical Paths under _tarefaPWN in BANK4

    None.

Critical Paths under _LED_1 in BANK4

    None.

Critical Paths under _LED_2 in BANK4

    None.

Critical Paths under _READ_ADC in BANK4

    None.

Critical Paths under _tarefaPWN in BANK4

    None.

Critical Paths under _ISR in BANK4

    None.

Critical Paths under _main in BANK5

    None.

Critical Paths under _idle in BANK5

    None.

Critical Paths under _idle in BANK5

    None.

Critical Paths under _LED_1 in BANK5

    None.

Critical Paths under _LED_2 in BANK5

    None.

Critical Paths under _READ_ADC in BANK5

    None.

Critical Paths under _tarefaPWN in BANK5

    None.

Critical Paths under _LED_1 in BANK5

    None.

Critical Paths under _LED_2 in BANK5

    None.

Critical Paths under _READ_ADC in BANK5

    None.

Critical Paths under _tarefaPWN in BANK5

    None.

Critical Paths under _ISR in BANK5

    None.

Critical Paths under _main in BANK6

    None.

Critical Paths under _idle in BANK6

    None.

Critical Paths under _idle in BANK6

    None.

Critical Paths under _LED_1 in BANK6

    None.

Critical Paths under _LED_2 in BANK6

    None.

Critical Paths under _READ_ADC in BANK6

    None.

Critical Paths under _tarefaPWN in BANK6

    None.

Critical Paths under _LED_1 in BANK6

    None.

Critical Paths under _LED_2 in BANK6

    None.

Critical Paths under _READ_ADC in BANK6

    None.

Critical Paths under _tarefaPWN in BANK6

    None.

Critical Paths under _ISR in BANK6

    None.

Critical Paths under _main in BANK7

    None.

Critical Paths under _idle in BANK7

    None.

Critical Paths under _idle in BANK7

    None.

Critical Paths under _LED_1 in BANK7

    None.

Critical Paths under _LED_2 in BANK7

    None.

Critical Paths under _READ_ADC in BANK7

    None.

Critical Paths under _tarefaPWN in BANK7

    None.

Critical Paths under _LED_1 in BANK7

    None.

Critical Paths under _LED_2 in BANK7

    None.

Critical Paths under _READ_ADC in BANK7

    None.

Critical Paths under _tarefaPWN in BANK7

    None.

Critical Paths under _ISR in BANK7

    None.

Critical Paths under _main in BANK8

    None.

Critical Paths under _idle in BANK8

    None.

Critical Paths under _idle in BANK8

    None.

Critical Paths under _LED_1 in BANK8

    None.

Critical Paths under _LED_2 in BANK8

    None.

Critical Paths under _READ_ADC in BANK8

    None.

Critical Paths under _tarefaPWN in BANK8

    None.

Critical Paths under _LED_1 in BANK8

    None.

Critical Paths under _LED_2 in BANK8

    None.

Critical Paths under _READ_ADC in BANK8

    None.

Critical Paths under _tarefaPWN in BANK8

    None.

Critical Paths under _ISR in BANK8

    None.

Critical Paths under _main in BANK9

    None.

Critical Paths under _idle in BANK9

    None.

Critical Paths under _idle in BANK9

    None.

Critical Paths under _LED_1 in BANK9

    None.

Critical Paths under _LED_2 in BANK9

    None.

Critical Paths under _READ_ADC in BANK9

    None.

Critical Paths under _tarefaPWN in BANK9

    None.

Critical Paths under _LED_1 in BANK9

    None.

Critical Paths under _LED_2 in BANK9

    None.

Critical Paths under _READ_ADC in BANK9

    None.

Critical Paths under _tarefaPWN in BANK9

    None.

Critical Paths under _ISR in BANK9

    None.

Critical Paths under _main in BANK10

    None.

Critical Paths under _idle in BANK10

    None.

Critical Paths under _idle in BANK10

    None.

Critical Paths under _LED_1 in BANK10

    None.

Critical Paths under _LED_2 in BANK10

    None.

Critical Paths under _READ_ADC in BANK10

    None.

Critical Paths under _tarefaPWN in BANK10

    None.

Critical Paths under _LED_1 in BANK10

    None.

Critical Paths under _LED_2 in BANK10

    None.

Critical Paths under _READ_ADC in BANK10

    None.

Critical Paths under _tarefaPWN in BANK10

    None.

Critical Paths under _ISR in BANK10

    None.

Critical Paths under _main in BANK11

    None.

Critical Paths under _idle in BANK11

    None.

Critical Paths under _idle in BANK11

    None.

Critical Paths under _LED_1 in BANK11

    None.

Critical Paths under _LED_2 in BANK11

    None.

Critical Paths under _READ_ADC in BANK11

    None.

Critical Paths under _tarefaPWN in BANK11

    None.

Critical Paths under _LED_1 in BANK11

    None.

Critical Paths under _LED_2 in BANK11

    None.

Critical Paths under _READ_ADC in BANK11

    None.

Critical Paths under _tarefaPWN in BANK11

    None.

Critical Paths under _ISR in BANK11

    None.

Critical Paths under _main in BANK12

    None.

Critical Paths under _idle in BANK12

    None.

Critical Paths under _idle in BANK12

    None.

Critical Paths under _LED_1 in BANK12

    None.

Critical Paths under _LED_2 in BANK12

    None.

Critical Paths under _READ_ADC in BANK12

    None.

Critical Paths under _tarefaPWN in BANK12

    None.

Critical Paths under _LED_1 in BANK12

    None.

Critical Paths under _LED_2 in BANK12

    None.

Critical Paths under _READ_ADC in BANK12

    None.

Critical Paths under _tarefaPWN in BANK12

    None.

Critical Paths under _ISR in BANK12

    None.

Critical Paths under _main in BANK13

    None.

Critical Paths under _idle in BANK13

    None.

Critical Paths under _idle in BANK13

    None.

Critical Paths under _LED_1 in BANK13

    None.

Critical Paths under _LED_2 in BANK13

    None.

Critical Paths under _READ_ADC in BANK13

    None.

Critical Paths under _tarefaPWN in BANK13

    None.

Critical Paths under _LED_1 in BANK13

    None.

Critical Paths under _LED_2 in BANK13

    None.

Critical Paths under _READ_ADC in BANK13

    None.

Critical Paths under _tarefaPWN in BANK13

    None.

Critical Paths under _ISR in BANK13

    None.

Critical Paths under _main in BANK14

    None.

Critical Paths under _idle in BANK14

    None.

Critical Paths under _idle in BANK14

    None.

Critical Paths under _LED_1 in BANK14

    None.

Critical Paths under _LED_2 in BANK14

    None.

Critical Paths under _READ_ADC in BANK14

    None.

Critical Paths under _tarefaPWN in BANK14

    None.

Critical Paths under _LED_1 in BANK14

    None.

Critical Paths under _LED_2 in BANK14

    None.

Critical Paths under _READ_ADC in BANK14

    None.

Critical Paths under _tarefaPWN in BANK14

    None.

Critical Paths under _ISR in BANK14

    None.

Critical Paths under _main in BANK15

    None.

Critical Paths under _idle in BANK15

    None.

Critical Paths under _idle in BANK15

    None.

Critical Paths under _LED_1 in BANK15

    None.

Critical Paths under _LED_2 in BANK15

    None.

Critical Paths under _READ_ADC in BANK15

    None.

Critical Paths under _tarefaPWN in BANK15

    None.

Critical Paths under _LED_1 in BANK15

    None.

Critical Paths under _LED_2 in BANK15

    None.

Critical Paths under _READ_ADC in BANK15

    None.

Critical Paths under _tarefaPWN in BANK15

    None.

Critical Paths under _ISR in BANK15

    None.

Call Graph Tables:

 ---------------------------------------------------------------------------------
 (Depth) Function   	        Calls       Base Space   Used Autos Params    Refs
 ---------------------------------------------------------------------------------
 (0) _main                                                 0     0      0    5614
                          _os_config
                     _os_create_task
                           _os_start
 ---------------------------------------------------------------------------------
 (1) _os_start                                             7     7      0     696
                                             10 BANK3      7     7      0
                          _scheduler
                     _setup_hardware
 ---------------------------------------------------------------------------------
 (2) _setup_hardware                                       0     0      0       0
 ---------------------------------------------------------------------------------
 (2) _scheduler                                            3     3      0     696
                                              7 BANK3      3     3      0
              _priority_rr_scheduler
 ---------------------------------------------------------------------------------
 (3) _priority_rr_scheduler                                7     7      0     696
                                              0 BANK3      7     7      0
 ---------------------------------------------------------------------------------
 (1) _os_config                                            0     0      0    2858
                        _config_user
                     _os_create_task
 ---------------------------------------------------------------------------------
 (2) _os_create_task                                      53    50      3    2060
                                              0 BANK3     53    50      3
 ---------------------------------------------------------------------------------
 (2) _config_user                                          0     0      0     798
                         _adc_config
                         _mutex_init
                          _pipe_init
                           _pwm_init
                           _sem_init
 ---------------------------------------------------------------------------------
 (3) _pwm_init                                             0     0      0       0
 ---------------------------------------------------------------------------------
 (3) _pipe_init                                            1     0      1     378
                                              2 BANK3      1     0      1
                           _sem_init
 ---------------------------------------------------------------------------------
 (4) _sem_init                                             2     0      2     204
                                              0 BANK3      2     0      2
 ---------------------------------------------------------------------------------
 (3) _mutex_init                                           1     0      1     216
                                              0 BANK3      1     0      1
 ---------------------------------------------------------------------------------
 (3) _adc_config                                           0     0      0       0
 ---------------------------------------------------------------------------------
 Estimated maximum stack depth 4
 ---------------------------------------------------------------------------------
 (Depth) Function   	        Calls       Base Space   Used Autos Params    Refs
 ---------------------------------------------------------------------------------
 (5) _idle                                                 1     1      0       0
                                              0 BANK0      1     1      0
 ---------------------------------------------------------------------------------
 Estimated maximum stack depth 5
 ---------------------------------------------------------------------------------
 (Depth) Function   	        Calls       Base Space   Used Autos Params    Refs
 ---------------------------------------------------------------------------------
 (5) _idle                                                 1     1      0       0
                                              0 BANK0      1     1      0
 ---------------------------------------------------------------------------------
 Estimated maximum stack depth 5
 ---------------------------------------------------------------------------------
 (Depth) Function   	        Calls       Base Space   Used Autos Params    Refs
 ---------------------------------------------------------------------------------
 (5) _LED_1                                                8     8      0   12545
                                             59 BANK1      8     8      0
                            ___awmod
                         _mutex_lock
                       _mutex_unlock
                           _os_delay
                         _pipe_write
                           _sem_post
 ---------------------------------------------------------------------------------
 (6) _pipe_write                                           3     1      2    4390
                                             56 BANK1      3     1      2
                           _sem_post
                           _sem_wait
 ---------------------------------------------------------------------------------
 (7) _sem_wait                                             8     7      1    2595
                                             73 BANK1      8     7      1
                            ___awmod
                        i1_scheduler
 ---------------------------------------------------------------------------------
 (7) _sem_post                                             3     2      1    1275
                                             73 BANK1      3     2      1
                            ___awmod
 ---------------------------------------------------------------------------------
 (6) _os_delay                                             8     8      0    1340
                                            120 BANK2      8     8      0
                        i1_scheduler
 ---------------------------------------------------------------------------------
 (6) _mutex_unlock                                         4     3      1    1650
                                             48 BANK1      4     3      1
                            ___awmod
 ---------------------------------------------------------------------------------
 (6) _mutex_lock                                           8     7      1    2705
                                             48 BANK1      8     7      1
                            ___awmod
                        i1_scheduler
 ---------------------------------------------------------------------------------
 (8) i1_scheduler                                          3     3      0    1215
                                            117 BANK2      3     3      0
            i1_priority_rr_scheduler
 ---------------------------------------------------------------------------------
 (9) i1_priority_rr_scheduler                              7     7      0    1215
                                            110 BANK2      7     7      0
 ---------------------------------------------------------------------------------
 (8) ___awmod                                              6     2      4     915
                                             67 BANK1      6     2      4
 ---------------------------------------------------------------------------------
 Estimated maximum stack depth 9
 ---------------------------------------------------------------------------------
 (Depth) Function   	        Calls       Base Space   Used Autos Params    Refs
 ---------------------------------------------------------------------------------
 (5) _LED_2                                                0     0      0    6985
                          _pipe_read
                           _sem_wait
 ---------------------------------------------------------------------------------
 (6) _pipe_read                                            3     1      2    4390
                                             81 BANK1      3     1      2
                           _sem_post
                           _sem_wait
 ---------------------------------------------------------------------------------
 (7) _sem_wait                                             8     7      1    2595
                                             73 BANK1      8     7      1
                            ___awmod
                        i1_scheduler
 ---------------------------------------------------------------------------------
 (8) i1_scheduler                                          3     3      0    1215
                                            117 BANK2      3     3      0
            i1_priority_rr_scheduler
 ---------------------------------------------------------------------------------
 (9) i1_priority_rr_scheduler                              7     7      0    1215
                                            110 BANK2      7     7      0
 ---------------------------------------------------------------------------------
 (7) _sem_post                                             3     2      1    1275
                                             73 BANK1      3     2      1
                            ___awmod
 ---------------------------------------------------------------------------------
 (8) ___awmod                                              6     2      4     915
                                             67 BANK1      6     2      4
 ---------------------------------------------------------------------------------
 Estimated maximum stack depth 9
 ---------------------------------------------------------------------------------
 (Depth) Function   	        Calls       Base Space   Used Autos Params    Refs
 ---------------------------------------------------------------------------------
 (5) _READ_ADC                                             0     0      0    1340
                           _adc_read
                           _os_delay
 ---------------------------------------------------------------------------------
 (6) _os_delay                                             8     8      0    1340
                                            120 BANK2      8     8      0
                        i1_scheduler
 ---------------------------------------------------------------------------------
 (8) i1_scheduler                                          3     3      0    1215
                                            117 BANK2      3     3      0
            i1_priority_rr_scheduler
 ---------------------------------------------------------------------------------
 (9) i1_priority_rr_scheduler                              7     7      0    1215
                                            110 BANK2      7     7      0
 ---------------------------------------------------------------------------------
 (6) _adc_read                                             2     0      2       0
                                             92 BANK2      2     0      2
 ---------------------------------------------------------------------------------
 Estimated maximum stack depth 9
 ---------------------------------------------------------------------------------
 (Depth) Function   	        Calls       Base Space   Used Autos Params    Refs
 ---------------------------------------------------------------------------------
 (5) _tarefaPWN                                            0     0      0    1495
                           _os_delay
                       _pwm_set_duty
 ---------------------------------------------------------------------------------
 (6) _pwm_set_duty                                         4     2      2     155
                                            110 BANK2      4     2      2
 ---------------------------------------------------------------------------------
 (6) _os_delay                                             8     8      0    1340
                                            120 BANK2      8     8      0
                        i1_scheduler
 ---------------------------------------------------------------------------------
 (8) i1_scheduler                                          3     3      0    1215
                                            117 BANK2      3     3      0
            i1_priority_rr_scheduler
 ---------------------------------------------------------------------------------
 (9) i1_priority_rr_scheduler                              7     7      0    1215
                                            110 BANK2      7     7      0
 ---------------------------------------------------------------------------------
 Estimated maximum stack depth 9
 ---------------------------------------------------------------------------------
 (Depth) Function   	        Calls       Base Space   Used Autos Params    Refs
 ---------------------------------------------------------------------------------
 (5) _LED_1                                                8     8      0   12545
                                             59 BANK1      8     8      0
                            ___awmod
                         _mutex_lock
                       _mutex_unlock
                           _os_delay
                         _pipe_write
                           _sem_post
 ---------------------------------------------------------------------------------
 (6) _pipe_write                                           3     1      2    4390
                                             56 BANK1      3     1      2
                           _sem_post
                           _sem_wait
 ---------------------------------------------------------------------------------
 (7) _sem_wait                                             8     7      1    2595
                                             73 BANK1      8     7      1
                            ___awmod
                        i1_scheduler
 ---------------------------------------------------------------------------------
 (7) _sem_post                                             3     2      1    1275
                                             73 BANK1      3     2      1
                            ___awmod
 ---------------------------------------------------------------------------------
 (6) _os_delay                                             8     8      0    1340
                                            120 BANK2      8     8      0
                        i1_scheduler
 ---------------------------------------------------------------------------------
 (6) _mutex_unlock                                         4     3      1    1650
                                             48 BANK1      4     3      1
                            ___awmod
 ---------------------------------------------------------------------------------
 (6) _mutex_lock                                           8     7      1    2705
                                             48 BANK1      8     7      1
                            ___awmod
                        i1_scheduler
 ---------------------------------------------------------------------------------
 (8) i1_scheduler                                          3     3      0    1215
                                            117 BANK2      3     3      0
            i1_priority_rr_scheduler
 ---------------------------------------------------------------------------------
 (9) i1_priority_rr_scheduler                              7     7      0    1215
                                            110 BANK2      7     7      0
 ---------------------------------------------------------------------------------
 (8) ___awmod                                              6     2      4     915
                                             67 BANK1      6     2      4
 ---------------------------------------------------------------------------------
 Estimated maximum stack depth 9
 ---------------------------------------------------------------------------------
 (Depth) Function   	        Calls       Base Space   Used Autos Params    Refs
 ---------------------------------------------------------------------------------
 (5) _LED_2                                                0     0      0    6985
                          _pipe_read
                           _sem_wait
 ---------------------------------------------------------------------------------
 (6) _pipe_read                                            3     1      2    4390
                                             81 BANK1      3     1      2
                           _sem_post
                           _sem_wait
 ---------------------------------------------------------------------------------
 (7) _sem_wait                                             8     7      1    2595
                                             73 BANK1      8     7      1
                            ___awmod
                        i1_scheduler
 ---------------------------------------------------------------------------------
 (8) i1_scheduler                                          3     3      0    1215
                                            117 BANK2      3     3      0
            i1_priority_rr_scheduler
 ---------------------------------------------------------------------------------
 (9) i1_priority_rr_scheduler                              7     7      0    1215
                                            110 BANK2      7     7      0
 ---------------------------------------------------------------------------------
 (7) _sem_post                                             3     2      1    1275
                                             73 BANK1      3     2      1
                            ___awmod
 ---------------------------------------------------------------------------------
 (8) ___awmod                                              6     2      4     915
                                             67 BANK1      6     2      4
 ---------------------------------------------------------------------------------
 Estimated maximum stack depth 9
 ---------------------------------------------------------------------------------
 (Depth) Function   	        Calls       Base Space   Used Autos Params    Refs
 ---------------------------------------------------------------------------------
 (5) _READ_ADC                                             0     0      0    1340
                           _adc_read
                           _os_delay
 ---------------------------------------------------------------------------------
 (6) _os_delay                                             8     8      0    1340
                                            120 BANK2      8     8      0
                        i1_scheduler
 ---------------------------------------------------------------------------------
 (8) i1_scheduler                                          3     3      0    1215
                                            117 BANK2      3     3      0
            i1_priority_rr_scheduler
 ---------------------------------------------------------------------------------
 (9) i1_priority_rr_scheduler                              7     7      0    1215
                                            110 BANK2      7     7      0
 ---------------------------------------------------------------------------------
 (6) _adc_read                                             2     0      2       0
                                             92 BANK2      2     0      2
 ---------------------------------------------------------------------------------
 Estimated maximum stack depth 9
 ---------------------------------------------------------------------------------
 (Depth) Function   	        Calls       Base Space   Used Autos Params    Refs
 ---------------------------------------------------------------------------------
 (5) _tarefaPWN                                            0     0      0    1495
                           _os_delay
                       _pwm_set_duty
 ---------------------------------------------------------------------------------
 (6) _pwm_set_duty                                         4     2      2     155
                                            110 BANK2      4     2      2
 ---------------------------------------------------------------------------------
 (6) _os_delay                                             8     8      0    1340
                                            120 BANK2      8     8      0
                        i1_scheduler
 ---------------------------------------------------------------------------------
 (8) i1_scheduler                                          3     3      0    1215
                                            117 BANK2      3     3      0
            i1_priority_rr_scheduler
 ---------------------------------------------------------------------------------
 (9) i1_priority_rr_scheduler                              7     7      0    1215
                                            110 BANK2      7     7      0
 ---------------------------------------------------------------------------------
 Estimated maximum stack depth 9
 ---------------------------------------------------------------------------------
 (Depth) Function   	        Calls       Base Space   Used Autos Params    Refs
 ---------------------------------------------------------------------------------
 (10) _ISR                                                15    15      0    1444
                                             53 COMRAM    15    15      0
                   i2_os_create_task
                        i2_scheduler
 ---------------------------------------------------------------------------------
 (11) i2_scheduler                                         3     3      0     341
                                              7 COMRAM     3     3      0
            i2_priority_rr_scheduler
 ---------------------------------------------------------------------------------
 (12) i2_priority_rr_scheduler                             7     7      0     341
                                              0 COMRAM     7     7      0
 ---------------------------------------------------------------------------------
 (11) i2_os_create_task                                   53    50      3     626
                                              0 COMRAM    53    50      3
 ---------------------------------------------------------------------------------
 Estimated maximum stack depth 12
 ---------------------------------------------------------------------------------

 Call Graph Graphs:

 _main (ROOT)
   _os_config
     _config_user
       _adc_config
       _mutex_init
       _pipe_init
         _sem_init
       _pwm_init
       _sem_init
     _os_create_task
   _os_create_task
   _os_start
     _scheduler
       _priority_rr_scheduler
     _setup_hardware

 _idle (ROOT)

 _idle (ROOT)

 _LED_1 (ROOT)
   ___awmod
   _mutex_lock
     ___awmod
     i1_scheduler
       i1_priority_rr_scheduler
   _mutex_unlock
     ___awmod
   _os_delay
     i1_scheduler
   _pipe_write
     _sem_post
       ___awmod
     _sem_wait
       ___awmod
       i1_scheduler
   _sem_post

 _LED_2 (ROOT)
   _pipe_read
     _sem_post
       ___awmod
     _sem_wait
       ___awmod
       i1_scheduler
         i1_priority_rr_scheduler
   _sem_wait

 _READ_ADC (ROOT)
   _adc_read
   _os_delay
     i1_scheduler
       i1_priority_rr_scheduler

 _tarefaPWN (ROOT)
   _os_delay
     i1_scheduler
       i1_priority_rr_scheduler
   _pwm_set_duty

 _LED_1 (ROOT)
   ___awmod
   _mutex_lock
     ___awmod
     i1_scheduler
       i1_priority_rr_scheduler
   _mutex_unlock
     ___awmod
   _os_delay
     i1_scheduler
   _pipe_write
     _sem_post
       ___awmod
     _sem_wait
       ___awmod
       i1_scheduler
   _sem_post

 _LED_2 (ROOT)
   _pipe_read
     _sem_post
       ___awmod
     _sem_wait
       ___awmod
       i1_scheduler
         i1_priority_rr_scheduler
   _sem_wait

 _READ_ADC (ROOT)
   _adc_read
   _os_delay
     i1_scheduler
       i1_priority_rr_scheduler

 _tarefaPWN (ROOT)
   _os_delay
     i1_scheduler
       i1_priority_rr_scheduler
   _pwm_set_duty

 _ISR (ROOT)
   i2_os_create_task
   i2_scheduler
     i2_priority_rr_scheduler

Address spaces:
Name               Size   Autos  Total    Usage
BIGRAM            3895      0     852     21.9%
BITBANK14          256      0       0      0.0%
BANK14             256      0       0      0.0%
BITBANK13          256      0       0      0.0%
BANK13             256      0       0      0.0%
BITBANK12          256      0       0      0.0%
BANK12             256      0       0      0.0%
BITBANK11          256      0       0      0.0%
BANK11             256      0       0      0.0%
BITBANK10          256      0       0      0.0%
BANK10             256      0       0      0.0%
BITBANK9           256      0       0      0.0%
BANK9              256      0       0      0.0%
BITBANK8           256      0       0      0.0%
BANK8              256      0       0      0.0%
BITBANK7           256      0       0      0.0%
BANK7              256      0       0      0.0%
BITBANK6           256      0       0      0.0%
BANK6              256      0       0      0.0%
BITBANK5           256      0       0      0.0%
BANK5              256      0       0      0.0%
BITBANK4           256      0       0      0.0%
BANK4              256      0       0      0.0%
BITBANK3           256      0       0      0.0%
BANK3              256     53      53     20.7%
BITBANK2           256      0       0      0.0%
BANK2              256    128     128     50.0%
BITBANK1           256      0       0      0.0%
BANK1              256     84      84     32.8%
BITBANK0           160      0       0      0.0%
BANK0              160      1      51     31.9%
BITCOMRAM           94      0       0      0.0%
COMRAM              94     68      70     74.5%
BITBIGSFRlllh       80      0       0      0.0%
BITBIGSFRh          66      0       0      0.0%
BITBANK15           56      0       0      0.0%
BANK15              56      0       0      0.0%
BITBIGSFRllh        45      0       0      0.0%
BITBIGSFRlh          2      0       0      0.0%
STACK                0      0       0      0.0%
DATA                 0      0    1176      0.0%


Microchip Technology PIC18 Macro Assembler V3.10 build 20250813170317 
Symbol Table                                                                                   Thu May  7 15:10:12 2026

            __end_ofi2_scheduler 3196                                _p 0060                                _s 0083  
                             l20 2E80                               l19 2E80                              l101 2D5C  
                            l120 3066                              l130 266E                              l125 25DE  
                            l126 24CC                              l231 2FFA                              l207 31BA  
                            l400 31F2                              l306 3216                              l264 3034  
                            l504 2714                              l505 27A6                              l372 2FBE  
                            l383 2F32                              l392 3068                              l393 308A  
                            l297 316C                              l571 31D6                              l476 30F0  
                            _BSR 0FE0                              _PR2 0FBB                              _ISR 0008  
       priority_rr_scheduler@idx 0306                     ___awmod@sign 0148                     _pwm_set_duty 3098  
                            prod 0FF3                              wreg 0FE8                             ?_ISR 0002  
                           ISR@i 0044                             l2350 316A                             l2342 3146  
                           l2344 3152                             l2352 320A                             l2346 3164  
                           l2354 320C                             l2348 3166                             l5100 3016  
                           l2356 3214                             l5102 3024                             l5110 26AC  
                           l2550 31CA                             l5120 26FE                             l5112 26CE  
                           l5104 2670                             l5200 30D4                             l2552 31D2  
                           l5210 2FB4                             l5202 2F7C                             l5130 273A  
                           l5122 270E                             l5114 26E2                             l5106 267C  
                           l2554 31D4                             l2546 31BC                             l5204 2F94  
                           l5212 3036                             l5140 278A                             l5132 2742  
                           l5108 269C                             l5116 26E6                             l2548 31C6  
                           l5220 231A                             l5206 2F9C                             l5150 2CFA  
                           l5214 304E                             l5134 2762                             l5126 271E  
                           l5142 278C                             l5118 26E8                             l5230 24E0  
                           l5222 231E                             l5208 2FAA                             l5160 2D0E  
                           l5152 2CFE                             l5216 3062                             l5136 2784  
                           l5128 2724                             l5240 2668                             l5232 252A  
                           l5224 233E                             l5090 2FCA                             l5082 3196  
                           l5170 2D18                             l5162 2D10                             l5154 2D02  
                           l5234 2572                             l5226 24AA                             l5242 266C  
                           l5218 2316                             l5092 2FD6                             l5084 31A2  
                           l5180 2D22                             l5172 2D1A                             l5164 2D12  
                           l5156 2D0A                             l5148 2CF6                             l5236 25BA  
                           l5228 24CE                             l5244 2E28                             l5094 2FE2  
                           l5086 31AE                             l5190 2D2C                             l5182 2D24  
                           l5174 2D1C                             l5166 2D14                             l5158 2D0C  
                           l5238 25E0                             l5096 2FEE                             l5088 2FC0  
                           l5192 2D2E                             l5184 2D26                             l5176 2D1E  
                           l5168 2D16                             l5098 2FFC                             l5194 2D30  
                           l5186 2D28                             l5178 2D20                             l5196 2D52  
                           l5188 2D2A                             l5198 30C8                             l4920 2BDA  
                           l4930 2C44                             l4922 2BDE                             l4914 30F2  
                           l4940 2F5C                             l4932 2C4E                             l4924 2C06  
                           l4916 30F4                             l4950 308C                             l4942 2F62  
                           l4934 2C54                             l4926 2C1E                             l4918 2BC8  
                           l4952 31F2                             l4944 2F74                             l4936 2F32  
                           l4928 2C3C                             l4954 31FE                             l4946 3068  
                           l4938 2F4A                             l4948 3084                             u5200 273A  
                           u5201 2736                             u5210 2762                             u5211 275E  
                           u5220 2784                             u5221 2780                             u5230 27A2  
                           u5150 269C                             u5231 279E                             u5151 2698  
                           u5160 26AC                             u5241 2D4A                             u5161 26A8  
                           u5170 26CE                             u5250 233E                             u5171 26CA  
                           u5251 233A                             u5180 26FE                             u5260 24CC  
                           u5181 26FA                             u5261 24C8                             u5190 270E  
                           u5270 25DA                             u5191 270A                             u5271 25D6  
                           u5280 265C                             u5285 2654                             i1l93 2284  
                           i1l94 2172                             i1l98 2314                             _TMR0 0FD6  
                           _TOSH 0FFE                             _TOSL 0FFD                             _WREG 0FE8  
                           _TOSU 0FFF                             _dado 0046                             _idle 30F2  
                           _main 2E28                             fsr1h 0FE2                             fsr2h 0FDA  
                           indf1 0FE7                             indf2 0FDF                             fsr1l 0FE1  
                           fsr2l 0FD9                             btemp 0001                             prodh 0FF4  
                           prodl 0FF3                             start 0D20                 pwm_set_duty@duty 026E  
                   ___param_bank 0000     i1priority_rr_scheduler@found 0271                            ??_ISR 0037  
     i1priority_rr_scheduler@idx 0274                 __end_of_READ_ADC 3098                            ?_idle 0002  
                          ?_main 0002                            _ADRES 0FC3                  __end_of___awmod 2BC8  
                          _T2CON 0FBA                            _LED_1 2BC8                            _FSR0H 0FEA  
                          _LED_2 2F32                            _FSR1H 0FE2                            _FSR0L 0FE9  
                          _FSR2H 0FDA                            _FSR1L 0FE1                            _FSR2L 0FD9  
                          i1l300 31DA                            i1l220 1B5E                            i1l302 31E8  
                          i1l303 31F0                            i1l224 1D00                            i1l243 15E0  
                          i1l219 1C70                            i1l244 14CE                            i1l228 2CF0  
                          i2l101 2DC4                            i1l309 30C6                            i1l270 2EDE  
                          i1l255 2B16                            i1l504 284C                            i1l505 28DE  
                          i1l249 1694                            i1l267 2F30                            i1l476 3144  
                          i2l504 2982                            i2l505 2A14                            i2l610 0D04  
                          i2l605 0C7A                            i2l606 0B6A                            i2l476 3194  
                          i2l591 0674                            i1l967 2BC6                            i2l592 0564  
                          _PRODH 0FF4                            _PRODL 0FF3                   pipe_write@dado 0139  
   priority_rr_scheduler@current 0301                      i1_scheduler 311C                            _m_led 0078  
               i2_os_create_task 2D5E                            btemp0 0001                            btemp1 0002  
                          tablat 0FF5                            plusw1 0FE3                            plusw2 0FDB  
                          status 0FD8                      i2_scheduler 316E                  __initialization 2DC6  
                   __end_of_idle 311C                     __end_of_main 2E88    __end_of_priority_rr_scheduler 27A8  
                         ??_idle 0092                           ??_main 0002                           ?_LED_1 0002  
                  __activetblptr 0002                           ?_LED_2 0002                           _CCPR1L 0FBE  
               __end_of_adc_read 31F2                           i1l4050 2B36                           i1l4042 2B18  
                         i1l4060 2B6E                           i1l4052 2B44                           i1l4044 2B1C  
                         i1l4062 2B7C                           i1l4070 2BA6                           i1l4054 2B4C  
                         i1l4046 2B2A                           i1l4072 2BB6                           i1l4064 2B92  
                         i1l4056 2B5E                           i1l4048 2B32                           i1l4074 2BBE  
                         i1l4066 2B9A                           i1l4058 2B66                           i1l4170 2CBA  
                         i1l4068 2BA0                           i1l4172 2CEE                           i1l4164 2C64  
                         i1l4270 2A16                           i1l4166 2C66                           i1l4280 2A8C  
                         i1l4272 2A18                           i1l4168 2C8A                           i1l4290 2B08  
                         i1l4282 2A9E                           i1l4274 2A30                           i1l4284 2AD2  
                         i1l4276 2A54                           i1l4292 2B14                           i1l4550 27D4  
                         i1l4286 2ADE                           i1l4278 2A6E                           i1l4552 27E4  
                         i1l4560 2820                           i1l4800 14E2                           i1l4288 2B00  
                         i1l4570 285C                           i1l4562 2836                           i1l4554 2806  
                         i1l4546 27A8                           i1l4810 166A                           i1l4802 152C  
                         i1l4572 2872                           i1l4564 2846                           i1l4556 281A  
                         i1l4548 27B4                           i1l4804 1574                           i1l4812 1672  
                         i1l4740 1F82                           i1l4732 1D06                           i1l4660 16DA  
                         i1l4820 2EEC                           i1l4830 2EB6                           i1l4582 28C2  
                         i1l4574 287A                           i1l4558 281E                           i1l4814 167C  
                         i1l4806 15BC                           i1l4750 1FE4                           i1l4742 1F96  
                         i1l4734 1D08                           i1l4670 199C                           i1l4662 170E  
                         i1l4654 1696                           i1l4822 2F08                           i1l4832 31D8  
                         i1l4576 289A                           i1l4568 2856                           i1l4584 28C4  
                         i1l4808 15E2                           i1l4816 1692                           i1l4760 2218  
                         i1l4752 2150                           i1l4736 1D2A                           i1l4744 1FA6  
                         i1l4680 1B60                           i1l4664 1730                           i1l4672 19AC  
                         i1l4656 1698                           i1l4824 2F26                           i1l4834 3098  
                         i1l4826 2E88                           i1l4578 28BC                           i1l4770 1002  
                         i1l4762 2260                           i1l4754 2174                           i1l4746 1FC0  
                         i1l4738 1EA8                           i1l4690 1C72                           i1l4682 1B72  
                         i1l4674 19B0                           i1l4666 18AE                           i1l4658 16B8  
                         i1l4818 2EE0                           i2l2620 293C                           i2l2612 28E0  
                         i1l4828 2E94                           i1l4780 107E                           i1l4772 1004  
                         i1l4764 2286                           i1l4756 2186                           i1l4748 1FC4  
                         i1l4692 1CFA                           i1l4684 1BBC                           i1l4676 19D0  
                         i1l4668 1988                           i2l2630 297C                           i2l2622 2950  
                         i2l2614 28EA                           i1l4782 10A0                           i1l4790 131C  
                         i1l4774 101C                           i1l4766 230E                           i1l4758 21D0  
                         i1l4686 1C04                           i1l4678 1B3C                           i1l4694 1CFE  
                         i2l2640 29B0                           i2l2616 290A                           i2l2624 2954  
                         i1l4696 311C                           i1l4792 1320                           i1l4784 121E  
                         i1l4776 103E                           i1l4768 2312                           i1l4688 1C4C  
                         i2l2642 29D0                           i2l2634 298C                           i2l2650 29FA  
                         i2l2618 291A                           i2l2626 2956                           i1l4698 3128  
                         i1l4794 1340                           i1l4786 12F8                           i1l4778 1072  
                         i2l2820 2D66                           i2l2644 29F2                           i2l2636 2992  
                         i2l2628 296C                           i1l4796 14AC                           i1l4788 130C  
                         _PCLATH 0FFA                           i2l2830 2D78                           i2l2822 2D6A  
                         i2l2638 29A8                           i1l4798 14D0                           i2l2840 2D82  
                         i2l2832 2D7A                           i2l2824 2D72                           i2l2816 2D60  
                         i2l2648 29F8                           i2l5400 09DE                           i2l2850 2D8C  
                         i2l2842 2D84                           i2l2834 2D7C                           i2l2826 2D74  
                         i2l2818 2D64                           i2l5410 0C0E                           i2l5402 0B48  
                         i2l5330 0032                           i2l2860 2D96                           i2l2852 2D8E  
                         i2l2844 2D86                           i2l2836 2D7E                           i2l2828 2D76  
                         i2l5412 0C56                           i2l5404 0B6C                           i2l5332 003C  
                         i2l5340 00DC                           i2l2862 2D98                           i2l2854 2D90  
                         i2l2846 2D88                           i2l2838 2D80                           i2l5414 0C7C  
                         i2l5406 0B7E                           i2l5350 013C                           i2l5342 0104  
                         i2l5334 006A                           i2l5326 0022                           i2l2864 2DBA  
                         i2l2856 2D92                           i2l2848 2D8A                           i2l5416 0D00  
                         i2l5408 0BC6                           i2l5360 03B8                           i2l5352 02B8  
                         i2l5344 0106                           i2l5336 00B8                           i2l5328 0030  
                         _PCLATU 0FFB                           i2l2858 2D94                           i2l2866 316E  
                         i2l5370 05C0                           i2l5362 03D8                           i2l5354 0390  
                         i2l5346 0116                           i2l5338 00D8                           i2l2868 3178  
                         i2l5372 0608                           i2l5364 0542                           i2l5356 03A4  
                         i2l5348 011A                           i2l5380 06FE                           i2l5390 08BE  
                         i2l5382 070C                           i2l5374 0650                           i2l5366 0566  
                         i2l5358 03B4                           i2l5392 0996                           i2l5384 070E  
                         i2l5376 0676                           i2l5368 0578                           i2l5394 09AA  
                         i2l5386 0720                           i2l5378 06FA                           i2l5388 0742  
                         i2l5396 09BA                           i2l5398 09BE    i2priority_rr_scheduler@i_1768 0006  
                         _TABLAT 0FF5                           u490_20 2F5C                           u490_21 2F58  
                         u491_20 2F74                           u491_21 2F70                           u492_20 3084  
                         u492_21 3080                           u487_20 3104                           u487_21 30FE  
                         u487_26 3106                           u488_21 2BD2                           u489_20 2BEE  
                         u489_21 2BE8                           u489_26 2BF0                           _STATUS 0FD8  
                         _STKPTR 0FFC         ?i2_priority_rr_scheduler 0002                        ??___awmod 0002  
                  mutex_unlock@m 0130                           clear_0 2E00                           clear_1 2E12  
                ___awmod@divisor 0145               os_create_task@func 0300                 ??_setup_hardware 0002  
                         isa$std 0001                  ___awmod@counter 0147                 __end_of_os_delay 2316  
               __end_of_sem_init 31BC                 __end_of_sem_wait 1D02                 __end_of_sem_post 2CF2  
                   __pdataCOMRAM 0047                 __end_of_os_start 2670                     __mediumconst 1000  
                         tblptrh 0FF7                           tblptrl 0FF6                           tblptru 0FF8  
          i2os_create_task@prior 0004                 __end_of_pwm_init 3218                       __accesstop 0060  
        __end_of__initialization 2E1A                        ?_READ_ADC 0002           priority_rr_scheduler@i 0305  
                  ___rparam_used 0001                    __end_of_LED_1 2C64                    __end_of_LED_2 2F7C  
                 _os_create_task 2CF2                   __pcstackCOMRAM 0002                     __pidataBANK0 3218  
                     _adc_config 3146                          ??_LED_1 013B                          ??_LED_2 0002  
               os_create_task@id 0304                       __pbssBANK0 0060  __end_ofi2_priority_rr_scheduler 2A16  
                     ??_READ_ADC 0002                    __uDynamicHeap 0335           __end_of_os_create_task 2D5E  
       __end_ofi2_os_create_task 2DC6                          _CCP1CON 0FBD                        ?_adc_read 025C  
        i1_priority_rr_scheduler 27A8                          _TBLPTRH 0FF7                          _TBLPTRL 0FF6  
                        _TBLPTRU 0FF8                     ?i1_scheduler 0002             mutex_unlock@task_idx 0133  
                    sem_init@sem 0300                     ?i2_scheduler 0002                      pipe_write@p 0138  
                    sem_wait@sem 0149                  ?_os_create_task 0300                        ?_os_delay 0002  
                        __Hparam 0000                      sem_post@sem 0149                        ?_sem_init 0300  
                      ?_sem_wait 0149   i2priority_rr_scheduler@current 0003                        ?_sem_post 0149  
                        __Lparam 0000                        ?_os_start 0002                      ?_adc_config 0002  
                        ___awmod 2B18                        ?_pwm_init 0002                     __psmallconst 1000  
                        __pcinit 2DC6                          __ramtop 1000                       ??_adc_read 0002  
                        __ptext0 2E28                          __ptext1 2316                          __ptext2 31BC  
                        __ptext3 30C8                          __ptext4 2670                          __ptext5 3036  
                        __ptext6 2CF2                          __ptext7 2F7C                          __ptext8 320A  
                        __ptext9 2FFC                        _T0CONbits 0FD5                 ___awmod@dividend 0143  
                        _r_queue 0535              os_create_task@prior 0302                __end_of_scheduler 30F2  
           end_of_initialization 2E1A                __end_of_tarefaPWN 320A                __end_of_pipe_init 3036  
              __end_of_pipe_read 2EE0                __end_of_os_config 3068                    __Lmediumconst 0000  
                     _pipe_write 2EE0           os_create_task@new_task 0305                       ??_os_delay 0278  
                     ??_sem_init 0002                       ??_sem_wait 014A                       ??_sem_post 014A  
                     ??_os_start 030A   i1priority_rr_scheduler@current 026F                          postdec1 0FE5  
                        postdec2 0FDD                          postinc0 0FEE                          postinc1 0FE6  
                        postinc2 0FDE                       ??_pwm_init 0002        ??i1_priority_rr_scheduler 026E  
                  pipe_read@dado 0152                       LED_1@F6269 008C                        _PORTCbits 0F82  
                      _PORTDbits 0F83                       _rr_quantum 0047            _priority_rr_scheduler 2670  
                     _mutex_init 2FC0                       _mutex_lock 1002                        _TRISAbits 0F92  
                      _TRISBbits 0F93                        _TRISCbits 0F94                        _TRISDbits 0F95  
                  sem_init@valor 0301                    ?_mutex_unlock 0130                      _CCP1CONbits 0FBD  
                  ??_config_user 0002                      mutex_init@m 0300                      mutex_lock@m 0130  
                  __pidataCOMRAM 321E                    ?_pwm_set_duty 026E              start_initialization 2DC6  
                    __end_of_ISR 0D20                   ??_mutex_unlock 0131                      ?_pipe_write 0138  
              ?i2_os_create_task 0002                      __pdataBANK0 008C             i2os_create_task@func 0002  
            __end_of_config_user 2FC0               ??i2_os_create_task 0005                    _tarefaOneShot 0000  
         ?_priority_rr_scheduler 0002                   ??_pwm_set_duty 0270                         LED_1@seq 013C  
                       LED_1@pos 0142                      __pbssBIGRAM 0335                      ?_mutex_init 0300  
                    ?_mutex_lock 0130                      __pbssCOMRAM 0046                    __pcstackBANK0 0092  
                  __pcstackBANK1 0100                    __pcstackBANK2 0200                    __pcstackBANK3 0300  
       i2priority_rr_scheduler@i 0007                 ??_os_create_task 0303               i2os_create_task@id 0006  
                      __pintcode 0008                     ??_adc_config 0002                         ?___awmod 0143  
                     pipe_init@p 0302                       pipe_read@p 0151          i2_priority_rr_scheduler 28E0  
                    __smallconst 1000               __end_of_adc_config 316E    i1priority_rr_scheduler@i_1768 0272  
                      _scheduler 30C8                         _LATDbits 0F8C                         _READ_ADC 3068  
                      _tarefaPWN 31F2                        _pipe_init 2FFC                        _pipe_read 2E88  
                      _os_config 3036                         i1u400_20 2A54                         i1u400_21 2A50  
                       i1u401_20 2A6E                         i1u401_21 2A6A                         i1u440_20 27E4  
                       i1u440_21 27E0                         i1u441_20 2806                         i1u441_21 2802  
                       i1u442_20 2836                         i1u450_20 1730                         i1u442_21 2832  
                       i1u450_21 172C                         i1u363_20 2B2A                         i1u443_20 2846  
                       i1u451_20 19AC                         i1u363_21 2B26                         i1u443_21 2842  
                       i1u451_21 19A8                         i1u364_20 2B44                         i1u444_20 2872  
                       i1u460_20 1D2A                         i1u452_20 19D0                         i1u364_21 2B40  
                       i1u444_21 286E                         i1u460_21 1D26                         i1u452_21 19CC  
                       i1u365_20 2B5E                         i1u445_20 289A                         i1u461_20 1FA6  
                       i1u453_20 1B5E                         i1u365_21 2B5A                         i1u445_21 2896  
                       i1u461_21 1FA2                         i1u453_21 1B5A                         i1u366_20 2B7C  
                       i1u446_20 28BC                         i1u470_20 14CE                         i1u462_20 1FE4  
                       i1u454_20 1C6C                         i1u366_21 2B78                         i1u446_21 28B8  
                       i1u470_21 14CA                         i1u462_21 1FE0                         i1u454_21 1C68  
                       i1u367_20 2B92                         i1u447_20 28DA                         i1u439_20 27D4  
                       i1u471_20 15DC                         i1u463_20 2172                         i1u455_20 1CEE  
                       i1u367_21 2B8E                         i1u447_21 28D6                         i1u439_21 27D0  
                       i1u471_21 15D8                         i1u463_21 216E                         i1u455_25 1CE6  
                       i1u368_20 2BB6                         i1u472_20 165E                         i1u464_20 2280  
                       i1u368_21 2BB2                         i1u464_21 227C                         i2u160_40 297C  
                       i2u160_41 2978                         i1u472_25 1656                         i1u473_20 31E8  
                       i1u465_20 2302                         i1u385_20 2C8A                         i1u449_20 16B8  
                       i1u473_21 31E4                         i1u385_21 2C86                         i1u449_21 16B4  
                       i2u161_40 29A8                         i2u161_41 29A4                         i1u465_25 22FA  
                       i1u466_20 101C                         i1u466_21 1018                         i2u162_40 29D0  
                       i2u162_41 29CC                         i1u467_20 10A0                         i1u467_21 109C  
                       i2u163_40 29F2                         i2u163_41 29EE                         i1u468_20 131C  
                       i1u468_21 1318                         i2u164_40 2A10                         i2u156_40 290A  
                       i2u164_41 2A0C                         i2u156_41 2906                         i1u469_20 1340  
                       i1u469_21 133C                         i2u157_40 291A                         i2u157_41 2916  
                       i2u158_40 293C                         i2u158_41 2938                         i1u399_20 2A30  
                       i1u399_21 2A2C                         i2u159_40 296C                         i2u159_41 2968  
                       i2u186_41 2DB2                     os_delay@time 027F                         i2u550_40 0564  
                       i2u542_40 0030                         i2u550_41 0560                         i2u542_41 002C  
                       i2u551_40 0670                         i2u543_40 006A                         i2u551_41 066C  
                       i2u543_41 0066                         i2u552_40 06F0                         i2u544_40 00B8  
                       i2u544_41 00B4                         i2u552_45 06E8                         i2u553_40 070C  
                       i2u545_40 0104                         i2u553_41 0708                         i2u545_41 0100  
                       i2u554_40 0742                         i2u546_40 0116                         i2u554_41 073E  
                       i2u546_41 0112                         i2u555_40 09BA                         i2u547_40 013C  
                       i2u555_41 09B6                         i2u547_41 0138                      _config_user 2F7C  
                       i2u556_40 09DE                         i2u548_40 03B4                         i2u556_41 09DA  
                       i2u548_41 03B0                         i2u557_40 0B6A                         i2u549_40 03D8  
                       i2u557_41 0B66                         i2u549_41 03D4                         i2u558_40 0C76  
                       i2u558_41 0C72                         i2u559_40 0CF6                         i2u559_45 0CEE  
    priority_rr_scheduler@i_1768 0304             __end_of_mutex_unlock 2B18                       _ADCON0bits 0FC2  
                     _ADCON1bits 0FC1                       _ADCON2bits 0FC0       i2priority_rr_scheduler@idx 0008  
                    _INTCON2bits 0FF1                        copy_data0 2DDA                       ?_scheduler 0002  
                     ?_tarefaPWN 0002                       ?_pipe_init 0302                       ?_pipe_read 0151  
           __end_of_pwm_set_duty 30C8                       ?_os_config 0002  i2priority_rr_scheduler@max_prio 0004  
  priority_rr_scheduler@max_prio 0302                         __Hrparam 0000                         __Lrparam 0000  
   i2priority_rr_scheduler@found 0005        ??i2_priority_rr_scheduler 0002                         _adc_read 31D8  
                     _ANSELAbits 0F38                       _ANSELBbits 0F39                       _ANSELCbits 0F3A  
                     _ANSELDbits 0F3B                         __ptext10 3196                         __ptext11 2FC0  
                       __ptext20 1002                         __ptext12 3146                         __ptext21 311C  
                       __ptext13 30F2                         __ptext22 27A8                         __ptext14 2BC8  
                       __ptext31 316E                         __ptext23 2B18                         __ptext15 2EE0  
                       __ptext32 28E0                         __ptext24 2F32                         __ptext16 1696  
                       __ptext33 2D5E                         __ptext25 2E88                         __ptext17 2C64  
                       __ptext26 3068                         __ptext18 1D02                         __ptext27 31D8  
                       __ptext19 2A16                         __ptext28 31F2                         __ptext29 3098  
                 _setup_hardware 31BC         i2os_create_task@new_task 0007                     ??_pipe_write 013A  
                       _os_delay 1D02                         _sem_init 3196         ?i1_priority_rr_scheduler 0002  
                       _sem_wait 1696                         _sem_post 2C64                         _os_start 2316  
                       isa$xinst 0000                         int$flags 0001                         _pwm_init 320A  
        ??_priority_rr_scheduler 0300       priority_rr_scheduler@found 0303                     ??_mutex_init 0002  
                   ??_mutex_lock 0131                       _INTCONbits 0FF2               __end_of_pipe_write 2F32  
         __end_of_setup_hardware 31D8                    ??i1_scheduler 0275                         intlevel1 0000  
                       intlevel2 0000                    ??i2_scheduler 0009                      ??_scheduler 0307  
                    ??_tarefaPWN 0002                      ??_pipe_init 0002                      ??_pipe_read 0153  
                    ??_os_config 0002               __end_of_mutex_init 2FFC               __end_of_mutex_lock 1696  
i1priority_rr_scheduler@max_prio 0270                  ?_setup_hardware 0002         i1priority_rr_scheduler@i 0273  
__end_ofi1_priority_rr_scheduler 28E0              __end_ofi1_scheduler 3146                     _mutex_unlock 2A16  
                   ?_config_user 0002  
