

Microchip MPLAB XC8 Assembler V3.10 build 20250813170317 
                                                                                               Wed Apr 29 15:11:24 2026

Microchip MPLAB XC8 C Compiler v3.10 (Free license) build 20250813170317 Og1 
     1                           	processor	18F46K22
     2                           	fnconf	rparam,??,?,0
     3                           	pagewidth 120
     4                           	opt	flic
     5                           	psect	idataCOMRAM,global,class=CODE,space=0,delta=1,noexec
     6                           	psect	cinit,global,reloc=2,class=CODE,space=0,delta=1
     7                           	psect	bssCOMRAM,global,class=COMRAM,space=1,delta=1,lowdata,noexec
     8                           	psect	dataCOMRAM,global,class=COMRAM,space=1,delta=1,lowdata,noexec
     9                           	psect	bssBIGRAM,global,class=BIGRAM,space=1,delta=1,noexec
    10                           	psect	cstackBANK0,global,class=BANK0,space=1,delta=1,lowdata,noexec
    11                           	psect	cstackCOMRAM,global,class=COMRAM,space=1,delta=1,lowdata,noexec
    12                           	psect	text0,global,reloc=2,class=CODE,space=0,delta=1
    13                           	psect	text1,global,reloc=2,class=CODE,space=0,delta=1
    14                           	psect	text2,global,reloc=2,class=CODE,space=0,delta=1
    15                           	psect	text3,global,reloc=2,class=CODE,space=0,delta=1
    16                           	psect	text4,global,reloc=2,class=CODE,space=0,delta=1
    17                           	psect	text5,global,reloc=2,class=CODE,space=0,delta=1,group=1
    18                           	psect	text6,global,reloc=2,class=CODE,space=0,delta=1
    19                           	psect	text7,global,reloc=2,class=CODE,space=0,delta=1
    20                           	psect	text8,global,reloc=2,class=CODE,space=0,delta=1
    21                           	psect	text9,global,reloc=2,class=CODE,space=0,delta=1
    22                           	psect	text10,global,reloc=2,class=CODE,space=0,delta=1
    23                           	psect	text11,global,reloc=2,class=CODE,space=0,delta=1
    24                           	psect	text12,global,reloc=2,class=CODE,space=0,delta=1
    25                           	psect	text13,global,reloc=2,class=CODE,space=0,delta=1
    26                           	psect	text14,global,reloc=2,class=CODE,space=0,delta=1
    27                           	psect	text15,global,reloc=2,class=CODE,space=0,delta=1
    28                           	psect	text16,global,reloc=2,class=CODE,space=0,delta=1
    29                           	psect	text17,global,reloc=2,class=CODE,space=0,delta=1
    30                           	psect	text18,global,reloc=2,class=CODE,space=0,delta=1
    31                           	psect	text19,global,reloc=2,class=CODE,space=0,delta=1
    32                           	psect	text20,global,reloc=2,class=CODE,space=0,delta=1
    33                           	psect	text21,global,reloc=2,class=CODE,space=0,delta=1
    34                           	psect	intcode,global,reloc=2,class=CODE,space=0,delta=1
    35                           	psect	text23,global,reloc=2,class=CODE,space=0,delta=1
    36                           	psect	text24,global,reloc=2,class=CODE,space=0,delta=1
    37                           	psect	text25,global,reloc=2,class=CODE,space=0,delta=1
    38                           	psect	smallconst,global,reloc=2,class=SMALLCONST,space=0,delta=1,noexec
    39                           	psect	intsave_regs,global,class=BIGRAM,space=1,delta=1,noexec
    40                           	psect	rparam,global,class=COMRAM,space=1,delta=1,noexec
    41                           	dabs	1,0x1,1
    42   000000                     
    43                           ; Generated 24/03/2025 GMT
    44                           ; 
    45                           ; Copyright © 2025, Microchip Technology Inc. and its subsidiaries ("Microchip")
    46                           ; All rights reserved.
    47                           ; 
    48                           ; This software is developed by Microchip Technology Inc. and its subsidiaries ("Microch
      +                          ip").
    49                           ; 
    50                           ; Redistribution and use in source and binary forms, with or without modification, are
    51                           ; permitted provided that the following conditions are met:
    52                           ; 
    53                           ;     1. Redistributions of source code must retain the above copyright notice, this lis
      +                          t of
    54                           ;        conditions and the following disclaimer.
    55                           ; 
    56                           ;     2. Redistributions in binary form must reproduce the above copyright notice, this 
      +                          list
    57                           ;        of conditions and the following disclaimer in the documentation and/or other
    58                           ;        materials provided with the distribution. Publication is not required when
    59                           ;        this file is used in an embedded application.
    60                           ; 
    61                           ;     3. Microchip's name may not be used to endorse or promote products derived from th
      +                          is
    62                           ;        software without specific prior written permission.
    63                           ; 
    64                           ; THIS SOFTWARE IS PROVIDED BY MICROCHIP "AS IS" AND ANY EXPRESS OR IMPLIED WARRANTIES,
    65                           ; INCLUDING, BUT NOT LIMITED TO, THE IMPLIED WARRANTIES OF MERCHANTABILITY AND FITNESS F
      +                          OR
    66                           ; PURPOSE ARE DISCLAIMED.  IN NO EVENT SHALL MICROCHIP BE LIABLE FOR ANY DIRECT, INDIREC
      +                          T,
    67                           ; INCIDENTAL, SPECIAL, EXEMPLARY, OR CONSEQUENTIAL DAMAGES (INCLUDING BUT NOT LIMITED TO
    68                           ; PROCUREMENT OF SUBSTITUTE GOODS OR SERVICES; LOSS OF USE, DATA OR PROFITS; OR BUSINESS
    69                           ; INTERRUPTION) HOWSOEVER CAUSED AND ON ANY THEORY OF LIABILITY, WHETHER IN CONTRACT, ST
      +                          RICT
    70                           ; LIABILITY, OR TORT (INCLUDING NEGLIGENCE OR OTHERWISE) ARISING IN ANY WAY OUT OF THE U
      +                          SE OF
    71                           ; THIS SOFTWARE, EVEN IF ADVISED OF THE POSSIBILITY OF SUCH DAMAGE.
    72                           ; 
    73                           ; 
    74                           ; Code-generator required, PIC18F46K22 Definitions
    75                           ; 
    76                           ; SFR Addresses
    77   000FE0                     bsr             equ	4064
    78   000FE9                     fsr0            equ	4073
    79   000FEA                     fsr0h           equ	4074
    80   000FE9                     fsr0l           equ	4073
    81   000FE1                     fsr1            equ	4065
    82   000FE2                     fsr1h           equ	4066
    83   000FE1                     fsr1l           equ	4065
    84   000FD9                     fsr2            equ	4057
    85   000FDA                     fsr2h           equ	4058
    86   000FD9                     fsr2l           equ	4057
    87   000FEF                     indf0           equ	4079
    88   000FE7                     indf1           equ	4071
    89   000FDF                     indf2           equ	4063
    90   000FF2                     intcon          equ	4082
    91   000000                     nvmcon          equ	0
    92   000FF9                     pcl             equ	4089
    93   000FFA                     pclath          equ	4090
    94   000FFB                     pclatu          equ	4091
    95   000FEB                     plusw0          equ	4075
    96   000FE3                     plusw1          equ	4067
    97   000FDB                     plusw2          equ	4059
    98   000FED                     postdec0        equ	4077
    99   000FE5                     postdec1        equ	4069
   100   000FDD                     postdec2        equ	4061
   101   000FEE                     postinc0        equ	4078
   102   000FE6                     postinc1        equ	4070
   103   000FDE                     postinc2        equ	4062
   104   000FEC                     preinc0         equ	4076
   105   000FE4                     preinc1         equ	4068
   106   000FDC                     preinc2         equ	4060
   107   000FF3                     prod            equ	4083
   108   000FF4                     prodh           equ	4084
   109   000FF3                     prodl           equ	4083
   110   000FD8                     status          equ	4056
   111   000FF5                     tablat          equ	4085
   112   000FF6                     tblptr          equ	4086
   113   000FF7                     tblptrh         equ	4087
   114   000FF6                     tblptrl         equ	4086
   115   000FF8                     tblptru         equ	4088
   116   000FFD                     tosl            equ	4093
   117   000FE8                     wreg            equ	4072
   118   000F38                     ANSELA          equ	3896	;# 
   119   000F39                     ANSELB          equ	3897	;# 
   120   000F3A                     ANSELC          equ	3898	;# 
   121   000F3B                     ANSELD          equ	3899	;# 
   122   000F3C                     ANSELE          equ	3900	;# 
   123   000F3D                     PMD2            equ	3901	;# 
   124   000F3E                     PMD1            equ	3902	;# 
   125   000F3F                     PMD0            equ	3903	;# 
   126   000F40                     VREFCON2        equ	3904	;# 
   127   000F40                     DACCON1         equ	3904	;# 
   128   000F41                     VREFCON1        equ	3905	;# 
   129   000F41                     DACCON0         equ	3905	;# 
   130   000F42                     VREFCON0        equ	3906	;# 
   131   000F42                     FVRCON          equ	3906	;# 
   132   000F43                     CTMUICON        equ	3907	;# 
   133   000F43                     CTMUICONH       equ	3907	;# 
   134   000F44                     CTMUCONL        equ	3908	;# 
   135   000F44                     CTMUCON1        equ	3908	;# 
   136   000F45                     CTMUCONH        equ	3909	;# 
   137   000F45                     CTMUCON0        equ	3909	;# 
   138   000F46                     SRCON1          equ	3910	;# 
   139   000F47                     SRCON0          equ	3911	;# 
   140   000F48                     CCPTMRS1        equ	3912	;# 
   141   000F49                     CCPTMRS0        equ	3913	;# 
   142   000F4A                     T6CON           equ	3914	;# 
   143   000F4B                     PR6             equ	3915	;# 
   144   000F4C                     TMR6            equ	3916	;# 
   145   000F4D                     T5GCON          equ	3917	;# 
   146   000F4E                     T5CON           equ	3918	;# 
   147   000F4F                     TMR5            equ	3919	;# 
   148   000F4F                     TMR5L           equ	3919	;# 
   149   000F50                     TMR5H           equ	3920	;# 
   150   000F51                     T4CON           equ	3921	;# 
   151   000F52                     PR4             equ	3922	;# 
   152   000F53                     TMR4            equ	3923	;# 
   153   000F54                     CCP5CON         equ	3924	;# 
   154   000F55                     CCPR5           equ	3925	;# 
   155   000F55                     CCPR5L          equ	3925	;# 
   156   000F56                     CCPR5H          equ	3926	;# 
   157   000F57                     CCP4CON         equ	3927	;# 
   158   000F58                     CCPR4           equ	3928	;# 
   159   000F58                     CCPR4L          equ	3928	;# 
   160   000F59                     CCPR4H          equ	3929	;# 
   161   000F5A                     PSTR3CON        equ	3930	;# 
   162   000F5B                     ECCP3AS         equ	3931	;# 
   163   000F5B                     CCP3AS          equ	3931	;# 
   164   000F5C                     PWM3CON         equ	3932	;# 
   165   000F5D                     CCP3CON         equ	3933	;# 
   166   000F5E                     CCPR3           equ	3934	;# 
   167   000F5E                     CCPR3L          equ	3934	;# 
   168   000F5F                     CCPR3H          equ	3935	;# 
   169   000F60                     SLRCON          equ	3936	;# 
   170   000F61                     WPUB            equ	3937	;# 
   171   000F62                     IOCB            equ	3938	;# 
   172   000F63                     PSTR2CON        equ	3939	;# 
   173   000F64                     ECCP2AS         equ	3940	;# 
   174   000F64                     CCP2AS          equ	3940	;# 
   175   000F65                     PWM2CON         equ	3941	;# 
   176   000F66                     CCP2CON         equ	3942	;# 
   177   000F67                     CCPR2           equ	3943	;# 
   178   000F67                     CCPR2L          equ	3943	;# 
   179   000F68                     CCPR2H          equ	3944	;# 
   180   000F69                     SSP2CON3        equ	3945	;# 
   181   000F6A                     SSP2MSK         equ	3946	;# 
   182   000F6B                     SSP2CON2        equ	3947	;# 
   183   000F6C                     SSP2CON1        equ	3948	;# 
   184   000F6D                     SSP2STAT        equ	3949	;# 
   185   000F6E                     SSP2ADD         equ	3950	;# 
   186   000F6F                     SSP2BUF         equ	3951	;# 
   187   000F70                     BAUDCON2        equ	3952	;# 
   188   000F70                     BAUD2CON        equ	3952	;# 
   189   000F71                     RCSTA2          equ	3953	;# 
   190   000F71                     RC2STA          equ	3953	;# 
   191   000F72                     TXSTA2          equ	3954	;# 
   192   000F72                     TX2STA          equ	3954	;# 
   193   000F73                     TXREG2          equ	3955	;# 
   194   000F73                     TX2REG          equ	3955	;# 
   195   000F74                     RCREG2          equ	3956	;# 
   196   000F74                     RC2REG          equ	3956	;# 
   197   000F75                     SPBRG2          equ	3957	;# 
   198   000F75                     SP2BRG          equ	3957	;# 
   199   000F76                     SPBRGH2         equ	3958	;# 
   200   000F76                     SP2BRGH         equ	3958	;# 
   201   000F77                     CM2CON1         equ	3959	;# 
   202   000F77                     CM12CON         equ	3959	;# 
   203   000F78                     CM2CON0         equ	3960	;# 
   204   000F78                     CM2CON          equ	3960	;# 
   205   000F79                     CM1CON0         equ	3961	;# 
   206   000F79                     CM1CON          equ	3961	;# 
   207   000F7A                     PIE4            equ	3962	;# 
   208   000F7B                     PIR4            equ	3963	;# 
   209   000F7C                     IPR4            equ	3964	;# 
   210   000F7D                     PIE5            equ	3965	;# 
   211   000F7E                     PIR5            equ	3966	;# 
   212   000F7F                     IPR5            equ	3967	;# 
   213   000F80                     PORTA           equ	3968	;# 
   214   000F81                     PORTB           equ	3969	;# 
   215   000F82                     PORTC           equ	3970	;# 
   216   000F83                     PORTD           equ	3971	;# 
   217   000F84                     PORTE           equ	3972	;# 
   218   000F89                     LATA            equ	3977	;# 
   219   000F8A                     LATB            equ	3978	;# 
   220   000F8B                     LATC            equ	3979	;# 
   221   000F8C                     LATD            equ	3980	;# 
   222   000F8D                     LATE            equ	3981	;# 
   223   000F92                     TRISA           equ	3986	;# 
   224   000F92                     DDRA            equ	3986	;# 
   225   000F93                     TRISB           equ	3987	;# 
   226   000F93                     DDRB            equ	3987	;# 
   227   000F94                     TRISC           equ	3988	;# 
   228   000F94                     DDRC            equ	3988	;# 
   229   000F95                     TRISD           equ	3989	;# 
   230   000F95                     DDRD            equ	3989	;# 
   231   000F96                     TRISE           equ	3990	;# 
   232   000F96                     DDRE            equ	3990	;# 
   233   000F9B                     OSCTUNE         equ	3995	;# 
   234   000F9C                     HLVDCON         equ	3996	;# 
   235   000F9C                     LVDCON          equ	3996	;# 
   236   000F9D                     PIE1            equ	3997	;# 
   237   000F9E                     PIR1            equ	3998	;# 
   238   000F9F                     IPR1            equ	3999	;# 
   239   000FA0                     PIE2            equ	4000	;# 
   240   000FA1                     PIR2            equ	4001	;# 
   241   000FA2                     IPR2            equ	4002	;# 
   242   000FA3                     PIE3            equ	4003	;# 
   243   000FA4                     PIR3            equ	4004	;# 
   244   000FA5                     IPR3            equ	4005	;# 
   245   000FA6                     EECON1          equ	4006	;# 
   246   000FA7                     EECON2          equ	4007	;# 
   247   000FA8                     EEDATA          equ	4008	;# 
   248   000FA9                     EEADR           equ	4009	;# 
   249   000FAA                     EEADRH          equ	4010	;# 
   250   000FAB                     RCSTA1          equ	4011	;# 
   251   000FAB                     RCSTA           equ	4011	;# 
   252   000FAB                     RC1STA          equ	4011	;# 
   253   000FAC                     TXSTA1          equ	4012	;# 
   254   000FAC                     TXSTA           equ	4012	;# 
   255   000FAC                     TX1STA          equ	4012	;# 
   256   000FAD                     TXREG1          equ	4013	;# 
   257   000FAD                     TXREG           equ	4013	;# 
   258   000FAD                     TX1REG          equ	4013	;# 
   259   000FAE                     RCREG1          equ	4014	;# 
   260   000FAE                     RCREG           equ	4014	;# 
   261   000FAE                     RC1REG          equ	4014	;# 
   262   000FAF                     SPBRG1          equ	4015	;# 
   263   000FAF                     SPBRG           equ	4015	;# 
   264   000FAF                     SP1BRG          equ	4015	;# 
   265   000FB0                     SPBRGH1         equ	4016	;# 
   266   000FB0                     SPBRGH          equ	4016	;# 
   267   000FB0                     SP1BRGH         equ	4016	;# 
   268   000FB1                     T3CON           equ	4017	;# 
   269   000FB2                     TMR3            equ	4018	;# 
   270   000FB2                     TMR3L           equ	4018	;# 
   271   000FB3                     TMR3H           equ	4019	;# 
   272   000FB4                     T3GCON          equ	4020	;# 
   273   000FB6                     ECCP1AS         equ	4022	;# 
   274   000FB6                     ECCPAS          equ	4022	;# 
   275   000FB7                     PWM1CON         equ	4023	;# 
   276   000FB7                     PWMCON          equ	4023	;# 
   277   000FB8                     BAUDCON1        equ	4024	;# 
   278   000FB8                     BAUDCON         equ	4024	;# 
   279   000FB8                     BAUDCTL         equ	4024	;# 
   280   000FB8                     BAUD1CON        equ	4024	;# 
   281   000FB9                     PSTR1CON        equ	4025	;# 
   282   000FB9                     PSTRCON         equ	4025	;# 
   283   000FBA                     T2CON           equ	4026	;# 
   284   000FBB                     PR2             equ	4027	;# 
   285   000FBC                     TMR2            equ	4028	;# 
   286   000FBD                     CCP1CON         equ	4029	;# 
   287   000FBE                     CCPR1           equ	4030	;# 
   288   000FBE                     CCPR1L          equ	4030	;# 
   289   000FBF                     CCPR1H          equ	4031	;# 
   290   000FC0                     ADCON2          equ	4032	;# 
   291   000FC1                     ADCON1          equ	4033	;# 
   292   000FC2                     ADCON0          equ	4034	;# 
   293   000FC3                     ADRES           equ	4035	;# 
   294   000FC3                     ADRESL          equ	4035	;# 
   295   000FC4                     ADRESH          equ	4036	;# 
   296   000FC5                     SSP1CON2        equ	4037	;# 
   297   000FC5                     SSPCON2         equ	4037	;# 
   298   000FC6                     SSP1CON1        equ	4038	;# 
   299   000FC6                     SSPCON1         equ	4038	;# 
   300   000FC7                     SSP1STAT        equ	4039	;# 
   301   000FC7                     SSPSTAT         equ	4039	;# 
   302   000FC8                     SSP1ADD         equ	4040	;# 
   303   000FC8                     SSPADD          equ	4040	;# 
   304   000FC9                     SSP1BUF         equ	4041	;# 
   305   000FC9                     SSPBUF          equ	4041	;# 
   306   000FCA                     SSP1MSK         equ	4042	;# 
   307   000FCA                     SSPMSK          equ	4042	;# 
   308   000FCB                     SSP1CON3        equ	4043	;# 
   309   000FCB                     SSPCON3         equ	4043	;# 
   310   000FCC                     T1GCON          equ	4044	;# 
   311   000FCD                     T1CON           equ	4045	;# 
   312   000FCE                     TMR1            equ	4046	;# 
   313   000FCE                     TMR1L           equ	4046	;# 
   314   000FCF                     TMR1H           equ	4047	;# 
   315   000FD0                     RCON            equ	4048	;# 
   316   000FD1                     WDTCON          equ	4049	;# 
   317   000FD2                     OSCCON2         equ	4050	;# 
   318   000FD3                     OSCCON          equ	4051	;# 
   319   000FD5                     T0CON           equ	4053	;# 
   320   000FD6                     TMR0            equ	4054	;# 
   321   000FD6                     TMR0L           equ	4054	;# 
   322   000FD7                     TMR0H           equ	4055	;# 
   323   000FD8                     STATUS          equ	4056	;# 
   324   000FD9                     FSR2            equ	4057	;# 
   325   000FD9                     FSR2L           equ	4057	;# 
   326   000FDA                     FSR2H           equ	4058	;# 
   327   000FDB                     PLUSW2          equ	4059	;# 
   328   000FDC                     PREINC2         equ	4060	;# 
   329   000FDD                     POSTDEC2        equ	4061	;# 
   330   000FDE                     POSTINC2        equ	4062	;# 
   331   000FDF                     INDF2           equ	4063	;# 
   332   000FE0                     BSR             equ	4064	;# 
   333   000FE1                     FSR1            equ	4065	;# 
   334   000FE1                     FSR1L           equ	4065	;# 
   335   000FE2                     FSR1H           equ	4066	;# 
   336   000FE3                     PLUSW1          equ	4067	;# 
   337   000FE4                     PREINC1         equ	4068	;# 
   338   000FE5                     POSTDEC1        equ	4069	;# 
   339   000FE6                     POSTINC1        equ	4070	;# 
   340   000FE7                     INDF1           equ	4071	;# 
   341   000FE8                     WREG            equ	4072	;# 
   342   000FE9                     FSR0            equ	4073	;# 
   343   000FE9                     FSR0L           equ	4073	;# 
   344   000FEA                     FSR0H           equ	4074	;# 
   345   000FEB                     PLUSW0          equ	4075	;# 
   346   000FEC                     PREINC0         equ	4076	;# 
   347   000FED                     POSTDEC0        equ	4077	;# 
   348   000FEE                     POSTINC0        equ	4078	;# 
   349   000FEF                     INDF0           equ	4079	;# 
   350   000FF0                     INTCON3         equ	4080	;# 
   351   000FF1                     INTCON2         equ	4081	;# 
   352   000FF2                     INTCON          equ	4082	;# 
   353   000FF3                     PROD            equ	4083	;# 
   354   000FF3                     PRODL           equ	4083	;# 
   355   000FF4                     PRODH           equ	4084	;# 
   356   000FF5                     TABLAT          equ	4085	;# 
   357   000FF6                     TBLPTR          equ	4086	;# 
   358   000FF6                     TBLPTRL         equ	4086	;# 
   359   000FF7                     TBLPTRH         equ	4087	;# 
   360   000FF8                     TBLPTRU         equ	4088	;# 
   361   000FF9                     PCLAT           equ	4089	;# 
   362   000FF9                     PC              equ	4089	;# 
   363   000FF9                     PCL             equ	4089	;# 
   364   000FFA                     PCLATH          equ	4090	;# 
   365   000FFB                     PCLATU          equ	4091	;# 
   366   000FFC                     STKPTR          equ	4092	;# 
   367   000FFD                     TOS             equ	4093	;# 
   368   000FFD                     TOSL            equ	4093	;# 
   369   000FFE                     TOSH            equ	4094	;# 
   370   000FFF                     TOSU            equ	4095	;# 
   371   000F38                     ANSELA          equ	3896	;# 
   372   000F39                     ANSELB          equ	3897	;# 
   373   000F3A                     ANSELC          equ	3898	;# 
   374   000F3B                     ANSELD          equ	3899	;# 
   375   000F3C                     ANSELE          equ	3900	;# 
   376   000F3D                     PMD2            equ	3901	;# 
   377   000F3E                     PMD1            equ	3902	;# 
   378   000F3F                     PMD0            equ	3903	;# 
   379   000F40                     VREFCON2        equ	3904	;# 
   380   000F40                     DACCON1         equ	3904	;# 
   381   000F41                     VREFCON1        equ	3905	;# 
   382   000F41                     DACCON0         equ	3905	;# 
   383   000F42                     VREFCON0        equ	3906	;# 
   384   000F42                     FVRCON          equ	3906	;# 
   385   000F43                     CTMUICON        equ	3907	;# 
   386   000F43                     CTMUICONH       equ	3907	;# 
   387   000F44                     CTMUCONL        equ	3908	;# 
   388   000F44                     CTMUCON1        equ	3908	;# 
   389   000F45                     CTMUCONH        equ	3909	;# 
   390   000F45                     CTMUCON0        equ	3909	;# 
   391   000F46                     SRCON1          equ	3910	;# 
   392   000F47                     SRCON0          equ	3911	;# 
   393   000F48                     CCPTMRS1        equ	3912	;# 
   394   000F49                     CCPTMRS0        equ	3913	;# 
   395   000F4A                     T6CON           equ	3914	;# 
   396   000F4B                     PR6             equ	3915	;# 
   397   000F4C                     TMR6            equ	3916	;# 
   398   000F4D                     T5GCON          equ	3917	;# 
   399   000F4E                     T5CON           equ	3918	;# 
   400   000F4F                     TMR5            equ	3919	;# 
   401   000F4F                     TMR5L           equ	3919	;# 
   402   000F50                     TMR5H           equ	3920	;# 
   403   000F51                     T4CON           equ	3921	;# 
   404   000F52                     PR4             equ	3922	;# 
   405   000F53                     TMR4            equ	3923	;# 
   406   000F54                     CCP5CON         equ	3924	;# 
   407   000F55                     CCPR5           equ	3925	;# 
   408   000F55                     CCPR5L          equ	3925	;# 
   409   000F56                     CCPR5H          equ	3926	;# 
   410   000F57                     CCP4CON         equ	3927	;# 
   411   000F58                     CCPR4           equ	3928	;# 
   412   000F58                     CCPR4L          equ	3928	;# 
   413   000F59                     CCPR4H          equ	3929	;# 
   414   000F5A                     PSTR3CON        equ	3930	;# 
   415   000F5B                     ECCP3AS         equ	3931	;# 
   416   000F5B                     CCP3AS          equ	3931	;# 
   417   000F5C                     PWM3CON         equ	3932	;# 
   418   000F5D                     CCP3CON         equ	3933	;# 
   419   000F5E                     CCPR3           equ	3934	;# 
   420   000F5E                     CCPR3L          equ	3934	;# 
   421   000F5F                     CCPR3H          equ	3935	;# 
   422   000F60                     SLRCON          equ	3936	;# 
   423   000F61                     WPUB            equ	3937	;# 
   424   000F62                     IOCB            equ	3938	;# 
   425   000F63                     PSTR2CON        equ	3939	;# 
   426   000F64                     ECCP2AS         equ	3940	;# 
   427   000F64                     CCP2AS          equ	3940	;# 
   428   000F65                     PWM2CON         equ	3941	;# 
   429   000F66                     CCP2CON         equ	3942	;# 
   430   000F67                     CCPR2           equ	3943	;# 
   431   000F67                     CCPR2L          equ	3943	;# 
   432   000F68                     CCPR2H          equ	3944	;# 
   433   000F69                     SSP2CON3        equ	3945	;# 
   434   000F6A                     SSP2MSK         equ	3946	;# 
   435   000F6B                     SSP2CON2        equ	3947	;# 
   436   000F6C                     SSP2CON1        equ	3948	;# 
   437   000F6D                     SSP2STAT        equ	3949	;# 
   438   000F6E                     SSP2ADD         equ	3950	;# 
   439   000F6F                     SSP2BUF         equ	3951	;# 
   440   000F70                     BAUDCON2        equ	3952	;# 
   441   000F70                     BAUD2CON        equ	3952	;# 
   442   000F71                     RCSTA2          equ	3953	;# 
   443   000F71                     RC2STA          equ	3953	;# 
   444   000F72                     TXSTA2          equ	3954	;# 
   445   000F72                     TX2STA          equ	3954	;# 
   446   000F73                     TXREG2          equ	3955	;# 
   447   000F73                     TX2REG          equ	3955	;# 
   448   000F74                     RCREG2          equ	3956	;# 
   449   000F74                     RC2REG          equ	3956	;# 
   450   000F75                     SPBRG2          equ	3957	;# 
   451   000F75                     SP2BRG          equ	3957	;# 
   452   000F76                     SPBRGH2         equ	3958	;# 
   453   000F76                     SP2BRGH         equ	3958	;# 
   454   000F77                     CM2CON1         equ	3959	;# 
   455   000F77                     CM12CON         equ	3959	;# 
   456   000F78                     CM2CON0         equ	3960	;# 
   457   000F78                     CM2CON          equ	3960	;# 
   458   000F79                     CM1CON0         equ	3961	;# 
   459   000F79                     CM1CON          equ	3961	;# 
   460   000F7A                     PIE4            equ	3962	;# 
   461   000F7B                     PIR4            equ	3963	;# 
   462   000F7C                     IPR4            equ	3964	;# 
   463   000F7D                     PIE5            equ	3965	;# 
   464   000F7E                     PIR5            equ	3966	;# 
   465   000F7F                     IPR5            equ	3967	;# 
   466   000F80                     PORTA           equ	3968	;# 
   467   000F81                     PORTB           equ	3969	;# 
   468   000F82                     PORTC           equ	3970	;# 
   469   000F83                     PORTD           equ	3971	;# 
   470   000F84                     PORTE           equ	3972	;# 
   471   000F89                     LATA            equ	3977	;# 
   472   000F8A                     LATB            equ	3978	;# 
   473   000F8B                     LATC            equ	3979	;# 
   474   000F8C                     LATD            equ	3980	;# 
   475   000F8D                     LATE            equ	3981	;# 
   476   000F92                     TRISA           equ	3986	;# 
   477   000F92                     DDRA            equ	3986	;# 
   478   000F93                     TRISB           equ	3987	;# 
   479   000F93                     DDRB            equ	3987	;# 
   480   000F94                     TRISC           equ	3988	;# 
   481   000F94                     DDRC            equ	3988	;# 
   482   000F95                     TRISD           equ	3989	;# 
   483   000F95                     DDRD            equ	3989	;# 
   484   000F96                     TRISE           equ	3990	;# 
   485   000F96                     DDRE            equ	3990	;# 
   486   000F9B                     OSCTUNE         equ	3995	;# 
   487   000F9C                     HLVDCON         equ	3996	;# 
   488   000F9C                     LVDCON          equ	3996	;# 
   489   000F9D                     PIE1            equ	3997	;# 
   490   000F9E                     PIR1            equ	3998	;# 
   491   000F9F                     IPR1            equ	3999	;# 
   492   000FA0                     PIE2            equ	4000	;# 
   493   000FA1                     PIR2            equ	4001	;# 
   494   000FA2                     IPR2            equ	4002	;# 
   495   000FA3                     PIE3            equ	4003	;# 
   496   000FA4                     PIR3            equ	4004	;# 
   497   000FA5                     IPR3            equ	4005	;# 
   498   000FA6                     EECON1          equ	4006	;# 
   499   000FA7                     EECON2          equ	4007	;# 
   500   000FA8                     EEDATA          equ	4008	;# 
   501   000FA9                     EEADR           equ	4009	;# 
   502   000FAA                     EEADRH          equ	4010	;# 
   503   000FAB                     RCSTA1          equ	4011	;# 
   504   000FAB                     RCSTA           equ	4011	;# 
   505   000FAB                     RC1STA          equ	4011	;# 
   506   000FAC                     TXSTA1          equ	4012	;# 
   507   000FAC                     TXSTA           equ	4012	;# 
   508   000FAC                     TX1STA          equ	4012	;# 
   509   000FAD                     TXREG1          equ	4013	;# 
   510   000FAD                     TXREG           equ	4013	;# 
   511   000FAD                     TX1REG          equ	4013	;# 
   512   000FAE                     RCREG1          equ	4014	;# 
   513   000FAE                     RCREG           equ	4014	;# 
   514   000FAE                     RC1REG          equ	4014	;# 
   515   000FAF                     SPBRG1          equ	4015	;# 
   516   000FAF                     SPBRG           equ	4015	;# 
   517   000FAF                     SP1BRG          equ	4015	;# 
   518   000FB0                     SPBRGH1         equ	4016	;# 
   519   000FB0                     SPBRGH          equ	4016	;# 
   520   000FB0                     SP1BRGH         equ	4016	;# 
   521   000FB1                     T3CON           equ	4017	;# 
   522   000FB2                     TMR3            equ	4018	;# 
   523   000FB2                     TMR3L           equ	4018	;# 
   524   000FB3                     TMR3H           equ	4019	;# 
   525   000FB4                     T3GCON          equ	4020	;# 
   526   000FB6                     ECCP1AS         equ	4022	;# 
   527   000FB6                     ECCPAS          equ	4022	;# 
   528   000FB7                     PWM1CON         equ	4023	;# 
   529   000FB7                     PWMCON          equ	4023	;# 
   530   000FB8                     BAUDCON1        equ	4024	;# 
   531   000FB8                     BAUDCON         equ	4024	;# 
   532   000FB8                     BAUDCTL         equ	4024	;# 
   533   000FB8                     BAUD1CON        equ	4024	;# 
   534   000FB9                     PSTR1CON        equ	4025	;# 
   535   000FB9                     PSTRCON         equ	4025	;# 
   536   000FBA                     T2CON           equ	4026	;# 
   537   000FBB                     PR2             equ	4027	;# 
   538   000FBC                     TMR2            equ	4028	;# 
   539   000FBD                     CCP1CON         equ	4029	;# 
   540   000FBE                     CCPR1           equ	4030	;# 
   541   000FBE                     CCPR1L          equ	4030	;# 
   542   000FBF                     CCPR1H          equ	4031	;# 
   543   000FC0                     ADCON2          equ	4032	;# 
   544   000FC1                     ADCON1          equ	4033	;# 
   545   000FC2                     ADCON0          equ	4034	;# 
   546   000FC3                     ADRES           equ	4035	;# 
   547   000FC3                     ADRESL          equ	4035	;# 
   548   000FC4                     ADRESH          equ	4036	;# 
   549   000FC5                     SSP1CON2        equ	4037	;# 
   550   000FC5                     SSPCON2         equ	4037	;# 
   551   000FC6                     SSP1CON1        equ	4038	;# 
   552   000FC6                     SSPCON1         equ	4038	;# 
   553   000FC7                     SSP1STAT        equ	4039	;# 
   554   000FC7                     SSPSTAT         equ	4039	;# 
   555   000FC8                     SSP1ADD         equ	4040	;# 
   556   000FC8                     SSPADD          equ	4040	;# 
   557   000FC9                     SSP1BUF         equ	4041	;# 
   558   000FC9                     SSPBUF          equ	4041	;# 
   559   000FCA                     SSP1MSK         equ	4042	;# 
   560   000FCA                     SSPMSK          equ	4042	;# 
   561   000FCB                     SSP1CON3        equ	4043	;# 
   562   000FCB                     SSPCON3         equ	4043	;# 
   563   000FCC                     T1GCON          equ	4044	;# 
   564   000FCD                     T1CON           equ	4045	;# 
   565   000FCE                     TMR1            equ	4046	;# 
   566   000FCE                     TMR1L           equ	4046	;# 
   567   000FCF                     TMR1H           equ	4047	;# 
   568   000FD0                     RCON            equ	4048	;# 
   569   000FD1                     WDTCON          equ	4049	;# 
   570   000FD2                     OSCCON2         equ	4050	;# 
   571   000FD3                     OSCCON          equ	4051	;# 
   572   000FD5                     T0CON           equ	4053	;# 
   573   000FD6                     TMR0            equ	4054	;# 
   574   000FD6                     TMR0L           equ	4054	;# 
   575   000FD7                     TMR0H           equ	4055	;# 
   576   000FD8                     STATUS          equ	4056	;# 
   577   000FD9                     FSR2            equ	4057	;# 
   578   000FD9                     FSR2L           equ	4057	;# 
   579   000FDA                     FSR2H           equ	4058	;# 
   580   000FDB                     PLUSW2          equ	4059	;# 
   581   000FDC                     PREINC2         equ	4060	;# 
   582   000FDD                     POSTDEC2        equ	4061	;# 
   583   000FDE                     POSTINC2        equ	4062	;# 
   584   000FDF                     INDF2           equ	4063	;# 
   585   000FE0                     BSR             equ	4064	;# 
   586   000FE1                     FSR1            equ	4065	;# 
   587   000FE1                     FSR1L           equ	4065	;# 
   588   000FE2                     FSR1H           equ	4066	;# 
   589   000FE3                     PLUSW1          equ	4067	;# 
   590   000FE4                     PREINC1         equ	4068	;# 
   591   000FE5                     POSTDEC1        equ	4069	;# 
   592   000FE6                     POSTINC1        equ	4070	;# 
   593   000FE7                     INDF1           equ	4071	;# 
   594   000FE8                     WREG            equ	4072	;# 
   595   000FE9                     FSR0            equ	4073	;# 
   596   000FE9                     FSR0L           equ	4073	;# 
   597   000FEA                     FSR0H           equ	4074	;# 
   598   000FEB                     PLUSW0          equ	4075	;# 
   599   000FEC                     PREINC0         equ	4076	;# 
   600   000FED                     POSTDEC0        equ	4077	;# 
   601   000FEE                     POSTINC0        equ	4078	;# 
   602   000FEF                     INDF0           equ	4079	;# 
   603   000FF0                     INTCON3         equ	4080	;# 
   604   000FF1                     INTCON2         equ	4081	;# 
   605   000FF2                     INTCON          equ	4082	;# 
   606   000FF3                     PROD            equ	4083	;# 
   607   000FF3                     PRODL           equ	4083	;# 
   608   000FF4                     PRODH           equ	4084	;# 
   609   000FF5                     TABLAT          equ	4085	;# 
   610   000FF6                     TBLPTR          equ	4086	;# 
   611   000FF6                     TBLPTRL         equ	4086	;# 
   612   000FF7                     TBLPTRH         equ	4087	;# 
   613   000FF8                     TBLPTRU         equ	4088	;# 
   614   000FF9                     PCLAT           equ	4089	;# 
   615   000FF9                     PC              equ	4089	;# 
   616   000FF9                     PCL             equ	4089	;# 
   617   000FFA                     PCLATH          equ	4090	;# 
   618   000FFB                     PCLATU          equ	4091	;# 
   619   000FFC                     STKPTR          equ	4092	;# 
   620   000FFD                     TOS             equ	4093	;# 
   621   000FFD                     TOSL            equ	4093	;# 
   622   000FFE                     TOSH            equ	4094	;# 
   623   000FFF                     TOSU            equ	4095	;# 
   624   000F38                     ANSELA          equ	3896	;# 
   625   000F39                     ANSELB          equ	3897	;# 
   626   000F3A                     ANSELC          equ	3898	;# 
   627   000F3B                     ANSELD          equ	3899	;# 
   628   000F3C                     ANSELE          equ	3900	;# 
   629   000F3D                     PMD2            equ	3901	;# 
   630   000F3E                     PMD1            equ	3902	;# 
   631   000F3F                     PMD0            equ	3903	;# 
   632   000F40                     VREFCON2        equ	3904	;# 
   633   000F40                     DACCON1         equ	3904	;# 
   634   000F41                     VREFCON1        equ	3905	;# 
   635   000F41                     DACCON0         equ	3905	;# 
   636   000F42                     VREFCON0        equ	3906	;# 
   637   000F42                     FVRCON          equ	3906	;# 
   638   000F43                     CTMUICON        equ	3907	;# 
   639   000F43                     CTMUICONH       equ	3907	;# 
   640   000F44                     CTMUCONL        equ	3908	;# 
   641   000F44                     CTMUCON1        equ	3908	;# 
   642   000F45                     CTMUCONH        equ	3909	;# 
   643   000F45                     CTMUCON0        equ	3909	;# 
   644   000F46                     SRCON1          equ	3910	;# 
   645   000F47                     SRCON0          equ	3911	;# 
   646   000F48                     CCPTMRS1        equ	3912	;# 
   647   000F49                     CCPTMRS0        equ	3913	;# 
   648   000F4A                     T6CON           equ	3914	;# 
   649   000F4B                     PR6             equ	3915	;# 
   650   000F4C                     TMR6            equ	3916	;# 
   651   000F4D                     T5GCON          equ	3917	;# 
   652   000F4E                     T5CON           equ	3918	;# 
   653   000F4F                     TMR5            equ	3919	;# 
   654   000F4F                     TMR5L           equ	3919	;# 
   655   000F50                     TMR5H           equ	3920	;# 
   656   000F51                     T4CON           equ	3921	;# 
   657   000F52                     PR4             equ	3922	;# 
   658   000F53                     TMR4            equ	3923	;# 
   659   000F54                     CCP5CON         equ	3924	;# 
   660   000F55                     CCPR5           equ	3925	;# 
   661   000F55                     CCPR5L          equ	3925	;# 
   662   000F56                     CCPR5H          equ	3926	;# 
   663   000F57                     CCP4CON         equ	3927	;# 
   664   000F58                     CCPR4           equ	3928	;# 
   665   000F58                     CCPR4L          equ	3928	;# 
   666   000F59                     CCPR4H          equ	3929	;# 
   667   000F5A                     PSTR3CON        equ	3930	;# 
   668   000F5B                     ECCP3AS         equ	3931	;# 
   669   000F5B                     CCP3AS          equ	3931	;# 
   670   000F5C                     PWM3CON         equ	3932	;# 
   671   000F5D                     CCP3CON         equ	3933	;# 
   672   000F5E                     CCPR3           equ	3934	;# 
   673   000F5E                     CCPR3L          equ	3934	;# 
   674   000F5F                     CCPR3H          equ	3935	;# 
   675   000F60                     SLRCON          equ	3936	;# 
   676   000F61                     WPUB            equ	3937	;# 
   677   000F62                     IOCB            equ	3938	;# 
   678   000F63                     PSTR2CON        equ	3939	;# 
   679   000F64                     ECCP2AS         equ	3940	;# 
   680   000F64                     CCP2AS          equ	3940	;# 
   681   000F65                     PWM2CON         equ	3941	;# 
   682   000F66                     CCP2CON         equ	3942	;# 
   683   000F67                     CCPR2           equ	3943	;# 
   684   000F67                     CCPR2L          equ	3943	;# 
   685   000F68                     CCPR2H          equ	3944	;# 
   686   000F69                     SSP2CON3        equ	3945	;# 
   687   000F6A                     SSP2MSK         equ	3946	;# 
   688   000F6B                     SSP2CON2        equ	3947	;# 
   689   000F6C                     SSP2CON1        equ	3948	;# 
   690   000F6D                     SSP2STAT        equ	3949	;# 
   691   000F6E                     SSP2ADD         equ	3950	;# 
   692   000F6F                     SSP2BUF         equ	3951	;# 
   693   000F70                     BAUDCON2        equ	3952	;# 
   694   000F70                     BAUD2CON        equ	3952	;# 
   695   000F71                     RCSTA2          equ	3953	;# 
   696   000F71                     RC2STA          equ	3953	;# 
   697   000F72                     TXSTA2          equ	3954	;# 
   698   000F72                     TX2STA          equ	3954	;# 
   699   000F73                     TXREG2          equ	3955	;# 
   700   000F73                     TX2REG          equ	3955	;# 
   701   000F74                     RCREG2          equ	3956	;# 
   702   000F74                     RC2REG          equ	3956	;# 
   703   000F75                     SPBRG2          equ	3957	;# 
   704   000F75                     SP2BRG          equ	3957	;# 
   705   000F76                     SPBRGH2         equ	3958	;# 
   706   000F76                     SP2BRGH         equ	3958	;# 
   707   000F77                     CM2CON1         equ	3959	;# 
   708   000F77                     CM12CON         equ	3959	;# 
   709   000F78                     CM2CON0         equ	3960	;# 
   710   000F78                     CM2CON          equ	3960	;# 
   711   000F79                     CM1CON0         equ	3961	;# 
   712   000F79                     CM1CON          equ	3961	;# 
   713   000F7A                     PIE4            equ	3962	;# 
   714   000F7B                     PIR4            equ	3963	;# 
   715   000F7C                     IPR4            equ	3964	;# 
   716   000F7D                     PIE5            equ	3965	;# 
   717   000F7E                     PIR5            equ	3966	;# 
   718   000F7F                     IPR5            equ	3967	;# 
   719   000F80                     PORTA           equ	3968	;# 
   720   000F81                     PORTB           equ	3969	;# 
   721   000F82                     PORTC           equ	3970	;# 
   722   000F83                     PORTD           equ	3971	;# 
   723   000F84                     PORTE           equ	3972	;# 
   724   000F89                     LATA            equ	3977	;# 
   725   000F8A                     LATB            equ	3978	;# 
   726   000F8B                     LATC            equ	3979	;# 
   727   000F8C                     LATD            equ	3980	;# 
   728   000F8D                     LATE            equ	3981	;# 
   729   000F92                     TRISA           equ	3986	;# 
   730   000F92                     DDRA            equ	3986	;# 
   731   000F93                     TRISB           equ	3987	;# 
   732   000F93                     DDRB            equ	3987	;# 
   733   000F94                     TRISC           equ	3988	;# 
   734   000F94                     DDRC            equ	3988	;# 
   735   000F95                     TRISD           equ	3989	;# 
   736   000F95                     DDRD            equ	3989	;# 
   737   000F96                     TRISE           equ	3990	;# 
   738   000F96                     DDRE            equ	3990	;# 
   739   000F9B                     OSCTUNE         equ	3995	;# 
   740   000F9C                     HLVDCON         equ	3996	;# 
   741   000F9C                     LVDCON          equ	3996	;# 
   742   000F9D                     PIE1            equ	3997	;# 
   743   000F9E                     PIR1            equ	3998	;# 
   744   000F9F                     IPR1            equ	3999	;# 
   745   000FA0                     PIE2            equ	4000	;# 
   746   000FA1                     PIR2            equ	4001	;# 
   747   000FA2                     IPR2            equ	4002	;# 
   748   000FA3                     PIE3            equ	4003	;# 
   749   000FA4                     PIR3            equ	4004	;# 
   750   000FA5                     IPR3            equ	4005	;# 
   751   000FA6                     EECON1          equ	4006	;# 
   752   000FA7                     EECON2          equ	4007	;# 
   753   000FA8                     EEDATA          equ	4008	;# 
   754   000FA9                     EEADR           equ	4009	;# 
   755   000FAA                     EEADRH          equ	4010	;# 
   756   000FAB                     RCSTA1          equ	4011	;# 
   757   000FAB                     RCSTA           equ	4011	;# 
   758   000FAB                     RC1STA          equ	4011	;# 
   759   000FAC                     TXSTA1          equ	4012	;# 
   760   000FAC                     TXSTA           equ	4012	;# 
   761   000FAC                     TX1STA          equ	4012	;# 
   762   000FAD                     TXREG1          equ	4013	;# 
   763   000FAD                     TXREG           equ	4013	;# 
   764   000FAD                     TX1REG          equ	4013	;# 
   765   000FAE                     RCREG1          equ	4014	;# 
   766   000FAE                     RCREG           equ	4014	;# 
   767   000FAE                     RC1REG          equ	4014	;# 
   768   000FAF                     SPBRG1          equ	4015	;# 
   769   000FAF                     SPBRG           equ	4015	;# 
   770   000FAF                     SP1BRG          equ	4015	;# 
   771   000FB0                     SPBRGH1         equ	4016	;# 
   772   000FB0                     SPBRGH          equ	4016	;# 
   773   000FB0                     SP1BRGH         equ	4016	;# 
   774   000FB1                     T3CON           equ	4017	;# 
   775   000FB2                     TMR3            equ	4018	;# 
   776   000FB2                     TMR3L           equ	4018	;# 
   777   000FB3                     TMR3H           equ	4019	;# 
   778   000FB4                     T3GCON          equ	4020	;# 
   779   000FB6                     ECCP1AS         equ	4022	;# 
   780   000FB6                     ECCPAS          equ	4022	;# 
   781   000FB7                     PWM1CON         equ	4023	;# 
   782   000FB7                     PWMCON          equ	4023	;# 
   783   000FB8                     BAUDCON1        equ	4024	;# 
   784   000FB8                     BAUDCON         equ	4024	;# 
   785   000FB8                     BAUDCTL         equ	4024	;# 
   786   000FB8                     BAUD1CON        equ	4024	;# 
   787   000FB9                     PSTR1CON        equ	4025	;# 
   788   000FB9                     PSTRCON         equ	4025	;# 
   789   000FBA                     T2CON           equ	4026	;# 
   790   000FBB                     PR2             equ	4027	;# 
   791   000FBC                     TMR2            equ	4028	;# 
   792   000FBD                     CCP1CON         equ	4029	;# 
   793   000FBE                     CCPR1           equ	4030	;# 
   794   000FBE                     CCPR1L          equ	4030	;# 
   795   000FBF                     CCPR1H          equ	4031	;# 
   796   000FC0                     ADCON2          equ	4032	;# 
   797   000FC1                     ADCON1          equ	4033	;# 
   798   000FC2                     ADCON0          equ	4034	;# 
   799   000FC3                     ADRES           equ	4035	;# 
   800   000FC3                     ADRESL          equ	4035	;# 
   801   000FC4                     ADRESH          equ	4036	;# 
   802   000FC5                     SSP1CON2        equ	4037	;# 
   803   000FC5                     SSPCON2         equ	4037	;# 
   804   000FC6                     SSP1CON1        equ	4038	;# 
   805   000FC6                     SSPCON1         equ	4038	;# 
   806   000FC7                     SSP1STAT        equ	4039	;# 
   807   000FC7                     SSPSTAT         equ	4039	;# 
   808   000FC8                     SSP1ADD         equ	4040	;# 
   809   000FC8                     SSPADD          equ	4040	;# 
   810   000FC9                     SSP1BUF         equ	4041	;# 
   811   000FC9                     SSPBUF          equ	4041	;# 
   812   000FCA                     SSP1MSK         equ	4042	;# 
   813   000FCA                     SSPMSK          equ	4042	;# 
   814   000FCB                     SSP1CON3        equ	4043	;# 
   815   000FCB                     SSPCON3         equ	4043	;# 
   816   000FCC                     T1GCON          equ	4044	;# 
   817   000FCD                     T1CON           equ	4045	;# 
   818   000FCE                     TMR1            equ	4046	;# 
   819   000FCE                     TMR1L           equ	4046	;# 
   820   000FCF                     TMR1H           equ	4047	;# 
   821   000FD0                     RCON            equ	4048	;# 
   822   000FD1                     WDTCON          equ	4049	;# 
   823   000FD2                     OSCCON2         equ	4050	;# 
   824   000FD3                     OSCCON          equ	4051	;# 
   825   000FD5                     T0CON           equ	4053	;# 
   826   000FD6                     TMR0            equ	4054	;# 
   827   000FD6                     TMR0L           equ	4054	;# 
   828   000FD7                     TMR0H           equ	4055	;# 
   829   000FD8                     STATUS          equ	4056	;# 
   830   000FD9                     FSR2            equ	4057	;# 
   831   000FD9                     FSR2L           equ	4057	;# 
   832   000FDA                     FSR2H           equ	4058	;# 
   833   000FDB                     PLUSW2          equ	4059	;# 
   834   000FDC                     PREINC2         equ	4060	;# 
   835   000FDD                     POSTDEC2        equ	4061	;# 
   836   000FDE                     POSTINC2        equ	4062	;# 
   837   000FDF                     INDF2           equ	4063	;# 
   838   000FE0                     BSR             equ	4064	;# 
   839   000FE1                     FSR1            equ	4065	;# 
   840   000FE1                     FSR1L           equ	4065	;# 
   841   000FE2                     FSR1H           equ	4066	;# 
   842   000FE3                     PLUSW1          equ	4067	;# 
   843   000FE4                     PREINC1         equ	4068	;# 
   844   000FE5                     POSTDEC1        equ	4069	;# 
   845   000FE6                     POSTINC1        equ	4070	;# 
   846   000FE7                     INDF1           equ	4071	;# 
   847   000FE8                     WREG            equ	4072	;# 
   848   000FE9                     FSR0            equ	4073	;# 
   849   000FE9                     FSR0L           equ	4073	;# 
   850   000FEA                     FSR0H           equ	4074	;# 
   851   000FEB                     PLUSW0          equ	4075	;# 
   852   000FEC                     PREINC0         equ	4076	;# 
   853   000FED                     POSTDEC0        equ	4077	;# 
   854   000FEE                     POSTINC0        equ	4078	;# 
   855   000FEF                     INDF0           equ	4079	;# 
   856   000FF0                     INTCON3         equ	4080	;# 
   857   000FF1                     INTCON2         equ	4081	;# 
   858   000FF2                     INTCON          equ	4082	;# 
   859   000FF3                     PROD            equ	4083	;# 
   860   000FF3                     PRODL           equ	4083	;# 
   861   000FF4                     PRODH           equ	4084	;# 
   862   000FF5                     TABLAT          equ	4085	;# 
   863   000FF6                     TBLPTR          equ	4086	;# 
   864   000FF6                     TBLPTRL         equ	4086	;# 
   865   000FF7                     TBLPTRH         equ	4087	;# 
   866   000FF8                     TBLPTRU         equ	4088	;# 
   867   000FF9                     PCLAT           equ	4089	;# 
   868   000FF9                     PC              equ	4089	;# 
   869   000FF9                     PCL             equ	4089	;# 
   870   000FFA                     PCLATH          equ	4090	;# 
   871   000FFB                     PCLATU          equ	4091	;# 
   872   000FFC                     STKPTR          equ	4092	;# 
   873   000FFD                     TOS             equ	4093	;# 
   874   000FFD                     TOSL            equ	4093	;# 
   875   000FFE                     TOSH            equ	4094	;# 
   876   000FFF                     TOSU            equ	4095	;# 
   877   000F38                     ANSELA          equ	3896	;# 
   878   000F39                     ANSELB          equ	3897	;# 
   879   000F3A                     ANSELC          equ	3898	;# 
   880   000F3B                     ANSELD          equ	3899	;# 
   881   000F3C                     ANSELE          equ	3900	;# 
   882   000F3D                     PMD2            equ	3901	;# 
   883   000F3E                     PMD1            equ	3902	;# 
   884   000F3F                     PMD0            equ	3903	;# 
   885   000F40                     VREFCON2        equ	3904	;# 
   886   000F40                     DACCON1         equ	3904	;# 
   887   000F41                     VREFCON1        equ	3905	;# 
   888   000F41                     DACCON0         equ	3905	;# 
   889   000F42                     VREFCON0        equ	3906	;# 
   890   000F42                     FVRCON          equ	3906	;# 
   891   000F43                     CTMUICON        equ	3907	;# 
   892   000F43                     CTMUICONH       equ	3907	;# 
   893   000F44                     CTMUCONL        equ	3908	;# 
   894   000F44                     CTMUCON1        equ	3908	;# 
   895   000F45                     CTMUCONH        equ	3909	;# 
   896   000F45                     CTMUCON0        equ	3909	;# 
   897   000F46                     SRCON1          equ	3910	;# 
   898   000F47                     SRCON0          equ	3911	;# 
   899   000F48                     CCPTMRS1        equ	3912	;# 
   900   000F49                     CCPTMRS0        equ	3913	;# 
   901   000F4A                     T6CON           equ	3914	;# 
   902   000F4B                     PR6             equ	3915	;# 
   903   000F4C                     TMR6            equ	3916	;# 
   904   000F4D                     T5GCON          equ	3917	;# 
   905   000F4E                     T5CON           equ	3918	;# 
   906   000F4F                     TMR5            equ	3919	;# 
   907   000F4F                     TMR5L           equ	3919	;# 
   908   000F50                     TMR5H           equ	3920	;# 
   909   000F51                     T4CON           equ	3921	;# 
   910   000F52                     PR4             equ	3922	;# 
   911   000F53                     TMR4            equ	3923	;# 
   912   000F54                     CCP5CON         equ	3924	;# 
   913   000F55                     CCPR5           equ	3925	;# 
   914   000F55                     CCPR5L          equ	3925	;# 
   915   000F56                     CCPR5H          equ	3926	;# 
   916   000F57                     CCP4CON         equ	3927	;# 
   917   000F58                     CCPR4           equ	3928	;# 
   918   000F58                     CCPR4L          equ	3928	;# 
   919   000F59                     CCPR4H          equ	3929	;# 
   920   000F5A                     PSTR3CON        equ	3930	;# 
   921   000F5B                     ECCP3AS         equ	3931	;# 
   922   000F5B                     CCP3AS          equ	3931	;# 
   923   000F5C                     PWM3CON         equ	3932	;# 
   924   000F5D                     CCP3CON         equ	3933	;# 
   925   000F5E                     CCPR3           equ	3934	;# 
   926   000F5E                     CCPR3L          equ	3934	;# 
   927   000F5F                     CCPR3H          equ	3935	;# 
   928   000F60                     SLRCON          equ	3936	;# 
   929   000F61                     WPUB            equ	3937	;# 
   930   000F62                     IOCB            equ	3938	;# 
   931   000F63                     PSTR2CON        equ	3939	;# 
   932   000F64                     ECCP2AS         equ	3940	;# 
   933   000F64                     CCP2AS          equ	3940	;# 
   934   000F65                     PWM2CON         equ	3941	;# 
   935   000F66                     CCP2CON         equ	3942	;# 
   936   000F67                     CCPR2           equ	3943	;# 
   937   000F67                     CCPR2L          equ	3943	;# 
   938   000F68                     CCPR2H          equ	3944	;# 
   939   000F69                     SSP2CON3        equ	3945	;# 
   940   000F6A                     SSP2MSK         equ	3946	;# 
   941   000F6B                     SSP2CON2        equ	3947	;# 
   942   000F6C                     SSP2CON1        equ	3948	;# 
   943   000F6D                     SSP2STAT        equ	3949	;# 
   944   000F6E                     SSP2ADD         equ	3950	;# 
   945   000F6F                     SSP2BUF         equ	3951	;# 
   946   000F70                     BAUDCON2        equ	3952	;# 
   947   000F70                     BAUD2CON        equ	3952	;# 
   948   000F71                     RCSTA2          equ	3953	;# 
   949   000F71                     RC2STA          equ	3953	;# 
   950   000F72                     TXSTA2          equ	3954	;# 
   951   000F72                     TX2STA          equ	3954	;# 
   952   000F73                     TXREG2          equ	3955	;# 
   953   000F73                     TX2REG          equ	3955	;# 
   954   000F74                     RCREG2          equ	3956	;# 
   955   000F74                     RC2REG          equ	3956	;# 
   956   000F75                     SPBRG2          equ	3957	;# 
   957   000F75                     SP2BRG          equ	3957	;# 
   958   000F76                     SPBRGH2         equ	3958	;# 
   959   000F76                     SP2BRGH         equ	3958	;# 
   960   000F77                     CM2CON1         equ	3959	;# 
   961   000F77                     CM12CON         equ	3959	;# 
   962   000F78                     CM2CON0         equ	3960	;# 
   963   000F78                     CM2CON          equ	3960	;# 
   964   000F79                     CM1CON0         equ	3961	;# 
   965   000F79                     CM1CON          equ	3961	;# 
   966   000F7A                     PIE4            equ	3962	;# 
   967   000F7B                     PIR4            equ	3963	;# 
   968   000F7C                     IPR4            equ	3964	;# 
   969   000F7D                     PIE5            equ	3965	;# 
   970   000F7E                     PIR5            equ	3966	;# 
   971   000F7F                     IPR5            equ	3967	;# 
   972   000F80                     PORTA           equ	3968	;# 
   973   000F81                     PORTB           equ	3969	;# 
   974   000F82                     PORTC           equ	3970	;# 
   975   000F83                     PORTD           equ	3971	;# 
   976   000F84                     PORTE           equ	3972	;# 
   977   000F89                     LATA            equ	3977	;# 
   978   000F8A                     LATB            equ	3978	;# 
   979   000F8B                     LATC            equ	3979	;# 
   980   000F8C                     LATD            equ	3980	;# 
   981   000F8D                     LATE            equ	3981	;# 
   982   000F92                     TRISA           equ	3986	;# 
   983   000F92                     DDRA            equ	3986	;# 
   984   000F93                     TRISB           equ	3987	;# 
   985   000F93                     DDRB            equ	3987	;# 
   986   000F94                     TRISC           equ	3988	;# 
   987   000F94                     DDRC            equ	3988	;# 
   988   000F95                     TRISD           equ	3989	;# 
   989   000F95                     DDRD            equ	3989	;# 
   990   000F96                     TRISE           equ	3990	;# 
   991   000F96                     DDRE            equ	3990	;# 
   992   000F9B                     OSCTUNE         equ	3995	;# 
   993   000F9C                     HLVDCON         equ	3996	;# 
   994   000F9C                     LVDCON          equ	3996	;# 
   995   000F9D                     PIE1            equ	3997	;# 
   996   000F9E                     PIR1            equ	3998	;# 
   997   000F9F                     IPR1            equ	3999	;# 
   998   000FA0                     PIE2            equ	4000	;# 
   999   000FA1                     PIR2            equ	4001	;# 
  1000   000FA2                     IPR2            equ	4002	;# 
  1001   000FA3                     PIE3            equ	4003	;# 
  1002   000FA4                     PIR3            equ	4004	;# 
  1003   000FA5                     IPR3            equ	4005	;# 
  1004   000FA6                     EECON1          equ	4006	;# 
  1005   000FA7                     EECON2          equ	4007	;# 
  1006   000FA8                     EEDATA          equ	4008	;# 
  1007   000FA9                     EEADR           equ	4009	;# 
  1008   000FAA                     EEADRH          equ	4010	;# 
  1009   000FAB                     RCSTA1          equ	4011	;# 
  1010   000FAB                     RCSTA           equ	4011	;# 
  1011   000FAB                     RC1STA          equ	4011	;# 
  1012   000FAC                     TXSTA1          equ	4012	;# 
  1013   000FAC                     TXSTA           equ	4012	;# 
  1014   000FAC                     TX1STA          equ	4012	;# 
  1015   000FAD                     TXREG1          equ	4013	;# 
  1016   000FAD                     TXREG           equ	4013	;# 
  1017   000FAD                     TX1REG          equ	4013	;# 
  1018   000FAE                     RCREG1          equ	4014	;# 
  1019   000FAE                     RCREG           equ	4014	;# 
  1020   000FAE                     RC1REG          equ	4014	;# 
  1021   000FAF                     SPBRG1          equ	4015	;# 
  1022   000FAF                     SPBRG           equ	4015	;# 
  1023   000FAF                     SP1BRG          equ	4015	;# 
  1024   000FB0                     SPBRGH1         equ	4016	;# 
  1025   000FB0                     SPBRGH          equ	4016	;# 
  1026   000FB0                     SP1BRGH         equ	4016	;# 
  1027   000FB1                     T3CON           equ	4017	;# 
  1028   000FB2                     TMR3            equ	4018	;# 
  1029   000FB2                     TMR3L           equ	4018	;# 
  1030   000FB3                     TMR3H           equ	4019	;# 
  1031   000FB4                     T3GCON          equ	4020	;# 
  1032   000FB6                     ECCP1AS         equ	4022	;# 
  1033   000FB6                     ECCPAS          equ	4022	;# 
  1034   000FB7                     PWM1CON         equ	4023	;# 
  1035   000FB7                     PWMCON          equ	4023	;# 
  1036   000FB8                     BAUDCON1        equ	4024	;# 
  1037   000FB8                     BAUDCON         equ	4024	;# 
  1038   000FB8                     BAUDCTL         equ	4024	;# 
  1039   000FB8                     BAUD1CON        equ	4024	;# 
  1040   000FB9                     PSTR1CON        equ	4025	;# 
  1041   000FB9                     PSTRCON         equ	4025	;# 
  1042   000FBA                     T2CON           equ	4026	;# 
  1043   000FBB                     PR2             equ	4027	;# 
  1044   000FBC                     TMR2            equ	4028	;# 
  1045   000FBD                     CCP1CON         equ	4029	;# 
  1046   000FBE                     CCPR1           equ	4030	;# 
  1047   000FBE                     CCPR1L          equ	4030	;# 
  1048   000FBF                     CCPR1H          equ	4031	;# 
  1049   000FC0                     ADCON2          equ	4032	;# 
  1050   000FC1                     ADCON1          equ	4033	;# 
  1051   000FC2                     ADCON0          equ	4034	;# 
  1052   000FC3                     ADRES           equ	4035	;# 
  1053   000FC3                     ADRESL          equ	4035	;# 
  1054   000FC4                     ADRESH          equ	4036	;# 
  1055   000FC5                     SSP1CON2        equ	4037	;# 
  1056   000FC5                     SSPCON2         equ	4037	;# 
  1057   000FC6                     SSP1CON1        equ	4038	;# 
  1058   000FC6                     SSPCON1         equ	4038	;# 
  1059   000FC7                     SSP1STAT        equ	4039	;# 
  1060   000FC7                     SSPSTAT         equ	4039	;# 
  1061   000FC8                     SSP1ADD         equ	4040	;# 
  1062   000FC8                     SSPADD          equ	4040	;# 
  1063   000FC9                     SSP1BUF         equ	4041	;# 
  1064   000FC9                     SSPBUF          equ	4041	;# 
  1065   000FCA                     SSP1MSK         equ	4042	;# 
  1066   000FCA                     SSPMSK          equ	4042	;# 
  1067   000FCB                     SSP1CON3        equ	4043	;# 
  1068   000FCB                     SSPCON3         equ	4043	;# 
  1069   000FCC                     T1GCON          equ	4044	;# 
  1070   000FCD                     T1CON           equ	4045	;# 
  1071   000FCE                     TMR1            equ	4046	;# 
  1072   000FCE                     TMR1L           equ	4046	;# 
  1073   000FCF                     TMR1H           equ	4047	;# 
  1074   000FD0                     RCON            equ	4048	;# 
  1075   000FD1                     WDTCON          equ	4049	;# 
  1076   000FD2                     OSCCON2         equ	4050	;# 
  1077   000FD3                     OSCCON          equ	4051	;# 
  1078   000FD5                     T0CON           equ	4053	;# 
  1079   000FD6                     TMR0            equ	4054	;# 
  1080   000FD6                     TMR0L           equ	4054	;# 
  1081   000FD7                     TMR0H           equ	4055	;# 
  1082   000FD8                     STATUS          equ	4056	;# 
  1083   000FD9                     FSR2            equ	4057	;# 
  1084   000FD9                     FSR2L           equ	4057	;# 
  1085   000FDA                     FSR2H           equ	4058	;# 
  1086   000FDB                     PLUSW2          equ	4059	;# 
  1087   000FDC                     PREINC2         equ	4060	;# 
  1088   000FDD                     POSTDEC2        equ	4061	;# 
  1089   000FDE                     POSTINC2        equ	4062	;# 
  1090   000FDF                     INDF2           equ	4063	;# 
  1091   000FE0                     BSR             equ	4064	;# 
  1092   000FE1                     FSR1            equ	4065	;# 
  1093   000FE1                     FSR1L           equ	4065	;# 
  1094   000FE2                     FSR1H           equ	4066	;# 
  1095   000FE3                     PLUSW1          equ	4067	;# 
  1096   000FE4                     PREINC1         equ	4068	;# 
  1097   000FE5                     POSTDEC1        equ	4069	;# 
  1098   000FE6                     POSTINC1        equ	4070	;# 
  1099   000FE7                     INDF1           equ	4071	;# 
  1100   000FE8                     WREG            equ	4072	;# 
  1101   000FE9                     FSR0            equ	4073	;# 
  1102   000FE9                     FSR0L           equ	4073	;# 
  1103   000FEA                     FSR0H           equ	4074	;# 
  1104   000FEB                     PLUSW0          equ	4075	;# 
  1105   000FEC                     PREINC0         equ	4076	;# 
  1106   000FED                     POSTDEC0        equ	4077	;# 
  1107   000FEE                     POSTINC0        equ	4078	;# 
  1108   000FEF                     INDF0           equ	4079	;# 
  1109   000FF0                     INTCON3         equ	4080	;# 
  1110   000FF1                     INTCON2         equ	4081	;# 
  1111   000FF2                     INTCON          equ	4082	;# 
  1112   000FF3                     PROD            equ	4083	;# 
  1113   000FF3                     PRODL           equ	4083	;# 
  1114   000FF4                     PRODH           equ	4084	;# 
  1115   000FF5                     TABLAT          equ	4085	;# 
  1116   000FF6                     TBLPTR          equ	4086	;# 
  1117   000FF6                     TBLPTRL         equ	4086	;# 
  1118   000FF7                     TBLPTRH         equ	4087	;# 
  1119   000FF8                     TBLPTRU         equ	4088	;# 
  1120   000FF9                     PCLAT           equ	4089	;# 
  1121   000FF9                     PC              equ	4089	;# 
  1122   000FF9                     PCL             equ	4089	;# 
  1123   000FFA                     PCLATH          equ	4090	;# 
  1124   000FFB                     PCLATU          equ	4091	;# 
  1125   000FFC                     STKPTR          equ	4092	;# 
  1126   000FFD                     TOS             equ	4093	;# 
  1127   000FFD                     TOSL            equ	4093	;# 
  1128   000FFE                     TOSH            equ	4094	;# 
  1129   000FFF                     TOSU            equ	4095	;# 
  1130   000F38                     ANSELA          equ	3896	;# 
  1131   000F39                     ANSELB          equ	3897	;# 
  1132   000F3A                     ANSELC          equ	3898	;# 
  1133   000F3B                     ANSELD          equ	3899	;# 
  1134   000F3C                     ANSELE          equ	3900	;# 
  1135   000F3D                     PMD2            equ	3901	;# 
  1136   000F3E                     PMD1            equ	3902	;# 
  1137   000F3F                     PMD0            equ	3903	;# 
  1138   000F40                     VREFCON2        equ	3904	;# 
  1139   000F40                     DACCON1         equ	3904	;# 
  1140   000F41                     VREFCON1        equ	3905	;# 
  1141   000F41                     DACCON0         equ	3905	;# 
  1142   000F42                     VREFCON0        equ	3906	;# 
  1143   000F42                     FVRCON          equ	3906	;# 
  1144   000F43                     CTMUICON        equ	3907	;# 
  1145   000F43                     CTMUICONH       equ	3907	;# 
  1146   000F44                     CTMUCONL        equ	3908	;# 
  1147   000F44                     CTMUCON1        equ	3908	;# 
  1148   000F45                     CTMUCONH        equ	3909	;# 
  1149   000F45                     CTMUCON0        equ	3909	;# 
  1150   000F46                     SRCON1          equ	3910	;# 
  1151   000F47                     SRCON0          equ	3911	;# 
  1152   000F48                     CCPTMRS1        equ	3912	;# 
  1153   000F49                     CCPTMRS0        equ	3913	;# 
  1154   000F4A                     T6CON           equ	3914	;# 
  1155   000F4B                     PR6             equ	3915	;# 
  1156   000F4C                     TMR6            equ	3916	;# 
  1157   000F4D                     T5GCON          equ	3917	;# 
  1158   000F4E                     T5CON           equ	3918	;# 
  1159   000F4F                     TMR5            equ	3919	;# 
  1160   000F4F                     TMR5L           equ	3919	;# 
  1161   000F50                     TMR5H           equ	3920	;# 
  1162   000F51                     T4CON           equ	3921	;# 
  1163   000F52                     PR4             equ	3922	;# 
  1164   000F53                     TMR4            equ	3923	;# 
  1165   000F54                     CCP5CON         equ	3924	;# 
  1166   000F55                     CCPR5           equ	3925	;# 
  1167   000F55                     CCPR5L          equ	3925	;# 
  1168   000F56                     CCPR5H          equ	3926	;# 
  1169   000F57                     CCP4CON         equ	3927	;# 
  1170   000F58                     CCPR4           equ	3928	;# 
  1171   000F58                     CCPR4L          equ	3928	;# 
  1172   000F59                     CCPR4H          equ	3929	;# 
  1173   000F5A                     PSTR3CON        equ	3930	;# 
  1174   000F5B                     ECCP3AS         equ	3931	;# 
  1175   000F5B                     CCP3AS          equ	3931	;# 
  1176   000F5C                     PWM3CON         equ	3932	;# 
  1177   000F5D                     CCP3CON         equ	3933	;# 
  1178   000F5E                     CCPR3           equ	3934	;# 
  1179   000F5E                     CCPR3L          equ	3934	;# 
  1180   000F5F                     CCPR3H          equ	3935	;# 
  1181   000F60                     SLRCON          equ	3936	;# 
  1182   000F61                     WPUB            equ	3937	;# 
  1183   000F62                     IOCB            equ	3938	;# 
  1184   000F63                     PSTR2CON        equ	3939	;# 
  1185   000F64                     ECCP2AS         equ	3940	;# 
  1186   000F64                     CCP2AS          equ	3940	;# 
  1187   000F65                     PWM2CON         equ	3941	;# 
  1188   000F66                     CCP2CON         equ	3942	;# 
  1189   000F67                     CCPR2           equ	3943	;# 
  1190   000F67                     CCPR2L          equ	3943	;# 
  1191   000F68                     CCPR2H          equ	3944	;# 
  1192   000F69                     SSP2CON3        equ	3945	;# 
  1193   000F6A                     SSP2MSK         equ	3946	;# 
  1194   000F6B                     SSP2CON2        equ	3947	;# 
  1195   000F6C                     SSP2CON1        equ	3948	;# 
  1196   000F6D                     SSP2STAT        equ	3949	;# 
  1197   000F6E                     SSP2ADD         equ	3950	;# 
  1198   000F6F                     SSP2BUF         equ	3951	;# 
  1199   000F70                     BAUDCON2        equ	3952	;# 
  1200   000F70                     BAUD2CON        equ	3952	;# 
  1201   000F71                     RCSTA2          equ	3953	;# 
  1202   000F71                     RC2STA          equ	3953	;# 
  1203   000F72                     TXSTA2          equ	3954	;# 
  1204   000F72                     TX2STA          equ	3954	;# 
  1205   000F73                     TXREG2          equ	3955	;# 
  1206   000F73                     TX2REG          equ	3955	;# 
  1207   000F74                     RCREG2          equ	3956	;# 
  1208   000F74                     RC2REG          equ	3956	;# 
  1209   000F75                     SPBRG2          equ	3957	;# 
  1210   000F75                     SP2BRG          equ	3957	;# 
  1211   000F76                     SPBRGH2         equ	3958	;# 
  1212   000F76                     SP2BRGH         equ	3958	;# 
  1213   000F77                     CM2CON1         equ	3959	;# 
  1214   000F77                     CM12CON         equ	3959	;# 
  1215   000F78                     CM2CON0         equ	3960	;# 
  1216   000F78                     CM2CON          equ	3960	;# 
  1217   000F79                     CM1CON0         equ	3961	;# 
  1218   000F79                     CM1CON          equ	3961	;# 
  1219   000F7A                     PIE4            equ	3962	;# 
  1220   000F7B                     PIR4            equ	3963	;# 
  1221   000F7C                     IPR4            equ	3964	;# 
  1222   000F7D                     PIE5            equ	3965	;# 
  1223   000F7E                     PIR5            equ	3966	;# 
  1224   000F7F                     IPR5            equ	3967	;# 
  1225   000F80                     PORTA           equ	3968	;# 
  1226   000F81                     PORTB           equ	3969	;# 
  1227   000F82                     PORTC           equ	3970	;# 
  1228   000F83                     PORTD           equ	3971	;# 
  1229   000F84                     PORTE           equ	3972	;# 
  1230   000F89                     LATA            equ	3977	;# 
  1231   000F8A                     LATB            equ	3978	;# 
  1232   000F8B                     LATC            equ	3979	;# 
  1233   000F8C                     LATD            equ	3980	;# 
  1234   000F8D                     LATE            equ	3981	;# 
  1235   000F92                     TRISA           equ	3986	;# 
  1236   000F92                     DDRA            equ	3986	;# 
  1237   000F93                     TRISB           equ	3987	;# 
  1238   000F93                     DDRB            equ	3987	;# 
  1239   000F94                     TRISC           equ	3988	;# 
  1240   000F94                     DDRC            equ	3988	;# 
  1241   000F95                     TRISD           equ	3989	;# 
  1242   000F95                     DDRD            equ	3989	;# 
  1243   000F96                     TRISE           equ	3990	;# 
  1244   000F96                     DDRE            equ	3990	;# 
  1245   000F9B                     OSCTUNE         equ	3995	;# 
  1246   000F9C                     HLVDCON         equ	3996	;# 
  1247   000F9C                     LVDCON          equ	3996	;# 
  1248   000F9D                     PIE1            equ	3997	;# 
  1249   000F9E                     PIR1            equ	3998	;# 
  1250   000F9F                     IPR1            equ	3999	;# 
  1251   000FA0                     PIE2            equ	4000	;# 
  1252   000FA1                     PIR2            equ	4001	;# 
  1253   000FA2                     IPR2            equ	4002	;# 
  1254   000FA3                     PIE3            equ	4003	;# 
  1255   000FA4                     PIR3            equ	4004	;# 
  1256   000FA5                     IPR3            equ	4005	;# 
  1257   000FA6                     EECON1          equ	4006	;# 
  1258   000FA7                     EECON2          equ	4007	;# 
  1259   000FA8                     EEDATA          equ	4008	;# 
  1260   000FA9                     EEADR           equ	4009	;# 
  1261   000FAA                     EEADRH          equ	4010	;# 
  1262   000FAB                     RCSTA1          equ	4011	;# 
  1263   000FAB                     RCSTA           equ	4011	;# 
  1264   000FAB                     RC1STA          equ	4011	;# 
  1265   000FAC                     TXSTA1          equ	4012	;# 
  1266   000FAC                     TXSTA           equ	4012	;# 
  1267   000FAC                     TX1STA          equ	4012	;# 
  1268   000FAD                     TXREG1          equ	4013	;# 
  1269   000FAD                     TXREG           equ	4013	;# 
  1270   000FAD                     TX1REG          equ	4013	;# 
  1271   000FAE                     RCREG1          equ	4014	;# 
  1272   000FAE                     RCREG           equ	4014	;# 
  1273   000FAE                     RC1REG          equ	4014	;# 
  1274   000FAF                     SPBRG1          equ	4015	;# 
  1275   000FAF                     SPBRG           equ	4015	;# 
  1276   000FAF                     SP1BRG          equ	4015	;# 
  1277   000FB0                     SPBRGH1         equ	4016	;# 
  1278   000FB0                     SPBRGH          equ	4016	;# 
  1279   000FB0                     SP1BRGH         equ	4016	;# 
  1280   000FB1                     T3CON           equ	4017	;# 
  1281   000FB2                     TMR3            equ	4018	;# 
  1282   000FB2                     TMR3L           equ	4018	;# 
  1283   000FB3                     TMR3H           equ	4019	;# 
  1284   000FB4                     T3GCON          equ	4020	;# 
  1285   000FB6                     ECCP1AS         equ	4022	;# 
  1286   000FB6                     ECCPAS          equ	4022	;# 
  1287   000FB7                     PWM1CON         equ	4023	;# 
  1288   000FB7                     PWMCON          equ	4023	;# 
  1289   000FB8                     BAUDCON1        equ	4024	;# 
  1290   000FB8                     BAUDCON         equ	4024	;# 
  1291   000FB8                     BAUDCTL         equ	4024	;# 
  1292   000FB8                     BAUD1CON        equ	4024	;# 
  1293   000FB9                     PSTR1CON        equ	4025	;# 
  1294   000FB9                     PSTRCON         equ	4025	;# 
  1295   000FBA                     T2CON           equ	4026	;# 
  1296   000FBB                     PR2             equ	4027	;# 
  1297   000FBC                     TMR2            equ	4028	;# 
  1298   000FBD                     CCP1CON         equ	4029	;# 
  1299   000FBE                     CCPR1           equ	4030	;# 
  1300   000FBE                     CCPR1L          equ	4030	;# 
  1301   000FBF                     CCPR1H          equ	4031	;# 
  1302   000FC0                     ADCON2          equ	4032	;# 
  1303   000FC1                     ADCON1          equ	4033	;# 
  1304   000FC2                     ADCON0          equ	4034	;# 
  1305   000FC3                     ADRES           equ	4035	;# 
  1306   000FC3                     ADRESL          equ	4035	;# 
  1307   000FC4                     ADRESH          equ	4036	;# 
  1308   000FC5                     SSP1CON2        equ	4037	;# 
  1309   000FC5                     SSPCON2         equ	4037	;# 
  1310   000FC6                     SSP1CON1        equ	4038	;# 
  1311   000FC6                     SSPCON1         equ	4038	;# 
  1312   000FC7                     SSP1STAT        equ	4039	;# 
  1313   000FC7                     SSPSTAT         equ	4039	;# 
  1314   000FC8                     SSP1ADD         equ	4040	;# 
  1315   000FC8                     SSPADD          equ	4040	;# 
  1316   000FC9                     SSP1BUF         equ	4041	;# 
  1317   000FC9                     SSPBUF          equ	4041	;# 
  1318   000FCA                     SSP1MSK         equ	4042	;# 
  1319   000FCA                     SSPMSK          equ	4042	;# 
  1320   000FCB                     SSP1CON3        equ	4043	;# 
  1321   000FCB                     SSPCON3         equ	4043	;# 
  1322   000FCC                     T1GCON          equ	4044	;# 
  1323   000FCD                     T1CON           equ	4045	;# 
  1324   000FCE                     TMR1            equ	4046	;# 
  1325   000FCE                     TMR1L           equ	4046	;# 
  1326   000FCF                     TMR1H           equ	4047	;# 
  1327   000FD0                     RCON            equ	4048	;# 
  1328   000FD1                     WDTCON          equ	4049	;# 
  1329   000FD2                     OSCCON2         equ	4050	;# 
  1330   000FD3                     OSCCON          equ	4051	;# 
  1331   000FD5                     T0CON           equ	4053	;# 
  1332   000FD6                     TMR0            equ	4054	;# 
  1333   000FD6                     TMR0L           equ	4054	;# 
  1334   000FD7                     TMR0H           equ	4055	;# 
  1335   000FD8                     STATUS          equ	4056	;# 
  1336   000FD9                     FSR2            equ	4057	;# 
  1337   000FD9                     FSR2L           equ	4057	;# 
  1338   000FDA                     FSR2H           equ	4058	;# 
  1339   000FDB                     PLUSW2          equ	4059	;# 
  1340   000FDC                     PREINC2         equ	4060	;# 
  1341   000FDD                     POSTDEC2        equ	4061	;# 
  1342   000FDE                     POSTINC2        equ	4062	;# 
  1343   000FDF                     INDF2           equ	4063	;# 
  1344   000FE0                     BSR             equ	4064	;# 
  1345   000FE1                     FSR1            equ	4065	;# 
  1346   000FE1                     FSR1L           equ	4065	;# 
  1347   000FE2                     FSR1H           equ	4066	;# 
  1348   000FE3                     PLUSW1          equ	4067	;# 
  1349   000FE4                     PREINC1         equ	4068	;# 
  1350   000FE5                     POSTDEC1        equ	4069	;# 
  1351   000FE6                     POSTINC1        equ	4070	;# 
  1352   000FE7                     INDF1           equ	4071	;# 
  1353   000FE8                     WREG            equ	4072	;# 
  1354   000FE9                     FSR0            equ	4073	;# 
  1355   000FE9                     FSR0L           equ	4073	;# 
  1356   000FEA                     FSR0H           equ	4074	;# 
  1357   000FEB                     PLUSW0          equ	4075	;# 
  1358   000FEC                     PREINC0         equ	4076	;# 
  1359   000FED                     POSTDEC0        equ	4077	;# 
  1360   000FEE                     POSTINC0        equ	4078	;# 
  1361   000FEF                     INDF0           equ	4079	;# 
  1362   000FF0                     INTCON3         equ	4080	;# 
  1363   000FF1                     INTCON2         equ	4081	;# 
  1364   000FF2                     INTCON          equ	4082	;# 
  1365   000FF3                     PROD            equ	4083	;# 
  1366   000FF3                     PRODL           equ	4083	;# 
  1367   000FF4                     PRODH           equ	4084	;# 
  1368   000FF5                     TABLAT          equ	4085	;# 
  1369   000FF6                     TBLPTR          equ	4086	;# 
  1370   000FF6                     TBLPTRL         equ	4086	;# 
  1371   000FF7                     TBLPTRH         equ	4087	;# 
  1372   000FF8                     TBLPTRU         equ	4088	;# 
  1373   000FF9                     PCLAT           equ	4089	;# 
  1374   000FF9                     PC              equ	4089	;# 
  1375   000FF9                     PCL             equ	4089	;# 
  1376   000FFA                     PCLATH          equ	4090	;# 
  1377   000FFB                     PCLATU          equ	4091	;# 
  1378   000FFC                     STKPTR          equ	4092	;# 
  1379   000FFD                     TOS             equ	4093	;# 
  1380   000FFD                     TOSL            equ	4093	;# 
  1381   000FFE                     TOSH            equ	4094	;# 
  1382   000FFF                     TOSU            equ	4095	;# 
  1383   000F38                     ANSELA          equ	3896	;# 
  1384   000F39                     ANSELB          equ	3897	;# 
  1385   000F3A                     ANSELC          equ	3898	;# 
  1386   000F3B                     ANSELD          equ	3899	;# 
  1387   000F3C                     ANSELE          equ	3900	;# 
  1388   000F3D                     PMD2            equ	3901	;# 
  1389   000F3E                     PMD1            equ	3902	;# 
  1390   000F3F                     PMD0            equ	3903	;# 
  1391   000F40                     VREFCON2        equ	3904	;# 
  1392   000F40                     DACCON1         equ	3904	;# 
  1393   000F41                     VREFCON1        equ	3905	;# 
  1394   000F41                     DACCON0         equ	3905	;# 
  1395   000F42                     VREFCON0        equ	3906	;# 
  1396   000F42                     FVRCON          equ	3906	;# 
  1397   000F43                     CTMUICON        equ	3907	;# 
  1398   000F43                     CTMUICONH       equ	3907	;# 
  1399   000F44                     CTMUCONL        equ	3908	;# 
  1400   000F44                     CTMUCON1        equ	3908	;# 
  1401   000F45                     CTMUCONH        equ	3909	;# 
  1402   000F45                     CTMUCON0        equ	3909	;# 
  1403   000F46                     SRCON1          equ	3910	;# 
  1404   000F47                     SRCON0          equ	3911	;# 
  1405   000F48                     CCPTMRS1        equ	3912	;# 
  1406   000F49                     CCPTMRS0        equ	3913	;# 
  1407   000F4A                     T6CON           equ	3914	;# 
  1408   000F4B                     PR6             equ	3915	;# 
  1409   000F4C                     TMR6            equ	3916	;# 
  1410   000F4D                     T5GCON          equ	3917	;# 
  1411   000F4E                     T5CON           equ	3918	;# 
  1412   000F4F                     TMR5            equ	3919	;# 
  1413   000F4F                     TMR5L           equ	3919	;# 
  1414   000F50                     TMR5H           equ	3920	;# 
  1415   000F51                     T4CON           equ	3921	;# 
  1416   000F52                     PR4             equ	3922	;# 
  1417   000F53                     TMR4            equ	3923	;# 
  1418   000F54                     CCP5CON         equ	3924	;# 
  1419   000F55                     CCPR5           equ	3925	;# 
  1420   000F55                     CCPR5L          equ	3925	;# 
  1421   000F56                     CCPR5H          equ	3926	;# 
  1422   000F57                     CCP4CON         equ	3927	;# 
  1423   000F58                     CCPR4           equ	3928	;# 
  1424   000F58                     CCPR4L          equ	3928	;# 
  1425   000F59                     CCPR4H          equ	3929	;# 
  1426   000F5A                     PSTR3CON        equ	3930	;# 
  1427   000F5B                     ECCP3AS         equ	3931	;# 
  1428   000F5B                     CCP3AS          equ	3931	;# 
  1429   000F5C                     PWM3CON         equ	3932	;# 
  1430   000F5D                     CCP3CON         equ	3933	;# 
  1431   000F5E                     CCPR3           equ	3934	;# 
  1432   000F5E                     CCPR3L          equ	3934	;# 
  1433   000F5F                     CCPR3H          equ	3935	;# 
  1434   000F60                     SLRCON          equ	3936	;# 
  1435   000F61                     WPUB            equ	3937	;# 
  1436   000F62                     IOCB            equ	3938	;# 
  1437   000F63                     PSTR2CON        equ	3939	;# 
  1438   000F64                     ECCP2AS         equ	3940	;# 
  1439   000F64                     CCP2AS          equ	3940	;# 
  1440   000F65                     PWM2CON         equ	3941	;# 
  1441   000F66                     CCP2CON         equ	3942	;# 
  1442   000F67                     CCPR2           equ	3943	;# 
  1443   000F67                     CCPR2L          equ	3943	;# 
  1444   000F68                     CCPR2H          equ	3944	;# 
  1445   000F69                     SSP2CON3        equ	3945	;# 
  1446   000F6A                     SSP2MSK         equ	3946	;# 
  1447   000F6B                     SSP2CON2        equ	3947	;# 
  1448   000F6C                     SSP2CON1        equ	3948	;# 
  1449   000F6D                     SSP2STAT        equ	3949	;# 
  1450   000F6E                     SSP2ADD         equ	3950	;# 
  1451   000F6F                     SSP2BUF         equ	3951	;# 
  1452   000F70                     BAUDCON2        equ	3952	;# 
  1453   000F70                     BAUD2CON        equ	3952	;# 
  1454   000F71                     RCSTA2          equ	3953	;# 
  1455   000F71                     RC2STA          equ	3953	;# 
  1456   000F72                     TXSTA2          equ	3954	;# 
  1457   000F72                     TX2STA          equ	3954	;# 
  1458   000F73                     TXREG2          equ	3955	;# 
  1459   000F73                     TX2REG          equ	3955	;# 
  1460   000F74                     RCREG2          equ	3956	;# 
  1461   000F74                     RC2REG          equ	3956	;# 
  1462   000F75                     SPBRG2          equ	3957	;# 
  1463   000F75                     SP2BRG          equ	3957	;# 
  1464   000F76                     SPBRGH2         equ	3958	;# 
  1465   000F76                     SP2BRGH         equ	3958	;# 
  1466   000F77                     CM2CON1         equ	3959	;# 
  1467   000F77                     CM12CON         equ	3959	;# 
  1468   000F78                     CM2CON0         equ	3960	;# 
  1469   000F78                     CM2CON          equ	3960	;# 
  1470   000F79                     CM1CON0         equ	3961	;# 
  1471   000F79                     CM1CON          equ	3961	;# 
  1472   000F7A                     PIE4            equ	3962	;# 
  1473   000F7B                     PIR4            equ	3963	;# 
  1474   000F7C                     IPR4            equ	3964	;# 
  1475   000F7D                     PIE5            equ	3965	;# 
  1476   000F7E                     PIR5            equ	3966	;# 
  1477   000F7F                     IPR5            equ	3967	;# 
  1478   000F80                     PORTA           equ	3968	;# 
  1479   000F81                     PORTB           equ	3969	;# 
  1480   000F82                     PORTC           equ	3970	;# 
  1481   000F83                     PORTD           equ	3971	;# 
  1482   000F84                     PORTE           equ	3972	;# 
  1483   000F89                     LATA            equ	3977	;# 
  1484   000F8A                     LATB            equ	3978	;# 
  1485   000F8B                     LATC            equ	3979	;# 
  1486   000F8C                     LATD            equ	3980	;# 
  1487   000F8D                     LATE            equ	3981	;# 
  1488   000F92                     TRISA           equ	3986	;# 
  1489   000F92                     DDRA            equ	3986	;# 
  1490   000F93                     TRISB           equ	3987	;# 
  1491   000F93                     DDRB            equ	3987	;# 
  1492   000F94                     TRISC           equ	3988	;# 
  1493   000F94                     DDRC            equ	3988	;# 
  1494   000F95                     TRISD           equ	3989	;# 
  1495   000F95                     DDRD            equ	3989	;# 
  1496   000F96                     TRISE           equ	3990	;# 
  1497   000F96                     DDRE            equ	3990	;# 
  1498   000F9B                     OSCTUNE         equ	3995	;# 
  1499   000F9C                     HLVDCON         equ	3996	;# 
  1500   000F9C                     LVDCON          equ	3996	;# 
  1501   000F9D                     PIE1            equ	3997	;# 
  1502   000F9E                     PIR1            equ	3998	;# 
  1503   000F9F                     IPR1            equ	3999	;# 
  1504   000FA0                     PIE2            equ	4000	;# 
  1505   000FA1                     PIR2            equ	4001	;# 
  1506   000FA2                     IPR2            equ	4002	;# 
  1507   000FA3                     PIE3            equ	4003	;# 
  1508   000FA4                     PIR3            equ	4004	;# 
  1509   000FA5                     IPR3            equ	4005	;# 
  1510   000FA6                     EECON1          equ	4006	;# 
  1511   000FA7                     EECON2          equ	4007	;# 
  1512   000FA8                     EEDATA          equ	4008	;# 
  1513   000FA9                     EEADR           equ	4009	;# 
  1514   000FAA                     EEADRH          equ	4010	;# 
  1515   000FAB                     RCSTA1          equ	4011	;# 
  1516   000FAB                     RCSTA           equ	4011	;# 
  1517   000FAB                     RC1STA          equ	4011	;# 
  1518   000FAC                     TXSTA1          equ	4012	;# 
  1519   000FAC                     TXSTA           equ	4012	;# 
  1520   000FAC                     TX1STA          equ	4012	;# 
  1521   000FAD                     TXREG1          equ	4013	;# 
  1522   000FAD                     TXREG           equ	4013	;# 
  1523   000FAD                     TX1REG          equ	4013	;# 
  1524   000FAE                     RCREG1          equ	4014	;# 
  1525   000FAE                     RCREG           equ	4014	;# 
  1526   000FAE                     RC1REG          equ	4014	;# 
  1527   000FAF                     SPBRG1          equ	4015	;# 
  1528   000FAF                     SPBRG           equ	4015	;# 
  1529   000FAF                     SP1BRG          equ	4015	;# 
  1530   000FB0                     SPBRGH1         equ	4016	;# 
  1531   000FB0                     SPBRGH          equ	4016	;# 
  1532   000FB0                     SP1BRGH         equ	4016	;# 
  1533   000FB1                     T3CON           equ	4017	;# 
  1534   000FB2                     TMR3            equ	4018	;# 
  1535   000FB2                     TMR3L           equ	4018	;# 
  1536   000FB3                     TMR3H           equ	4019	;# 
  1537   000FB4                     T3GCON          equ	4020	;# 
  1538   000FB6                     ECCP1AS         equ	4022	;# 
  1539   000FB6                     ECCPAS          equ	4022	;# 
  1540   000FB7                     PWM1CON         equ	4023	;# 
  1541   000FB7                     PWMCON          equ	4023	;# 
  1542   000FB8                     BAUDCON1        equ	4024	;# 
  1543   000FB8                     BAUDCON         equ	4024	;# 
  1544   000FB8                     BAUDCTL         equ	4024	;# 
  1545   000FB8                     BAUD1CON        equ	4024	;# 
  1546   000FB9                     PSTR1CON        equ	4025	;# 
  1547   000FB9                     PSTRCON         equ	4025	;# 
  1548   000FBA                     T2CON           equ	4026	;# 
  1549   000FBB                     PR2             equ	4027	;# 
  1550   000FBC                     TMR2            equ	4028	;# 
  1551   000FBD                     CCP1CON         equ	4029	;# 
  1552   000FBE                     CCPR1           equ	4030	;# 
  1553   000FBE                     CCPR1L          equ	4030	;# 
  1554   000FBF                     CCPR1H          equ	4031	;# 
  1555   000FC0                     ADCON2          equ	4032	;# 
  1556   000FC1                     ADCON1          equ	4033	;# 
  1557   000FC2                     ADCON0          equ	4034	;# 
  1558   000FC3                     ADRES           equ	4035	;# 
  1559   000FC3                     ADRESL          equ	4035	;# 
  1560   000FC4                     ADRESH          equ	4036	;# 
  1561   000FC5                     SSP1CON2        equ	4037	;# 
  1562   000FC5                     SSPCON2         equ	4037	;# 
  1563   000FC6                     SSP1CON1        equ	4038	;# 
  1564   000FC6                     SSPCON1         equ	4038	;# 
  1565   000FC7                     SSP1STAT        equ	4039	;# 
  1566   000FC7                     SSPSTAT         equ	4039	;# 
  1567   000FC8                     SSP1ADD         equ	4040	;# 
  1568   000FC8                     SSPADD          equ	4040	;# 
  1569   000FC9                     SSP1BUF         equ	4041	;# 
  1570   000FC9                     SSPBUF          equ	4041	;# 
  1571   000FCA                     SSP1MSK         equ	4042	;# 
  1572   000FCA                     SSPMSK          equ	4042	;# 
  1573   000FCB                     SSP1CON3        equ	4043	;# 
  1574   000FCB                     SSPCON3         equ	4043	;# 
  1575   000FCC                     T1GCON          equ	4044	;# 
  1576   000FCD                     T1CON           equ	4045	;# 
  1577   000FCE                     TMR1            equ	4046	;# 
  1578   000FCE                     TMR1L           equ	4046	;# 
  1579   000FCF                     TMR1H           equ	4047	;# 
  1580   000FD0                     RCON            equ	4048	;# 
  1581   000FD1                     WDTCON          equ	4049	;# 
  1582   000FD2                     OSCCON2         equ	4050	;# 
  1583   000FD3                     OSCCON          equ	4051	;# 
  1584   000FD5                     T0CON           equ	4053	;# 
  1585   000FD6                     TMR0            equ	4054	;# 
  1586   000FD6                     TMR0L           equ	4054	;# 
  1587   000FD7                     TMR0H           equ	4055	;# 
  1588   000FD8                     STATUS          equ	4056	;# 
  1589   000FD9                     FSR2            equ	4057	;# 
  1590   000FD9                     FSR2L           equ	4057	;# 
  1591   000FDA                     FSR2H           equ	4058	;# 
  1592   000FDB                     PLUSW2          equ	4059	;# 
  1593   000FDC                     PREINC2         equ	4060	;# 
  1594   000FDD                     POSTDEC2        equ	4061	;# 
  1595   000FDE                     POSTINC2        equ	4062	;# 
  1596   000FDF                     INDF2           equ	4063	;# 
  1597   000FE0                     BSR             equ	4064	;# 
  1598   000FE1                     FSR1            equ	4065	;# 
  1599   000FE1                     FSR1L           equ	4065	;# 
  1600   000FE2                     FSR1H           equ	4066	;# 
  1601   000FE3                     PLUSW1          equ	4067	;# 
  1602   000FE4                     PREINC1         equ	4068	;# 
  1603   000FE5                     POSTDEC1        equ	4069	;# 
  1604   000FE6                     POSTINC1        equ	4070	;# 
  1605   000FE7                     INDF1           equ	4071	;# 
  1606   000FE8                     WREG            equ	4072	;# 
  1607   000FE9                     FSR0            equ	4073	;# 
  1608   000FE9                     FSR0L           equ	4073	;# 
  1609   000FEA                     FSR0H           equ	4074	;# 
  1610   000FEB                     PLUSW0          equ	4075	;# 
  1611   000FEC                     PREINC0         equ	4076	;# 
  1612   000FED                     POSTDEC0        equ	4077	;# 
  1613   000FEE                     POSTINC0        equ	4078	;# 
  1614   000FEF                     INDF0           equ	4079	;# 
  1615   000FF0                     INTCON3         equ	4080	;# 
  1616   000FF1                     INTCON2         equ	4081	;# 
  1617   000FF2                     INTCON          equ	4082	;# 
  1618   000FF3                     PROD            equ	4083	;# 
  1619   000FF3                     PRODL           equ	4083	;# 
  1620   000FF4                     PRODH           equ	4084	;# 
  1621   000FF5                     TABLAT          equ	4085	;# 
  1622   000FF6                     TBLPTR          equ	4086	;# 
  1623   000FF6                     TBLPTRL         equ	4086	;# 
  1624   000FF7                     TBLPTRH         equ	4087	;# 
  1625   000FF8                     TBLPTRU         equ	4088	;# 
  1626   000FF9                     PCLAT           equ	4089	;# 
  1627   000FF9                     PC              equ	4089	;# 
  1628   000FF9                     PCL             equ	4089	;# 
  1629   000FFA                     PCLATH          equ	4090	;# 
  1630   000FFB                     PCLATU          equ	4091	;# 
  1631   000FFC                     STKPTR          equ	4092	;# 
  1632   000FFD                     TOS             equ	4093	;# 
  1633   000FFD                     TOSL            equ	4093	;# 
  1634   000FFE                     TOSH            equ	4094	;# 
  1635   000FFF                     TOSU            equ	4095	;# 
  1636   000F38                     ANSELA          equ	3896	;# 
  1637   000F39                     ANSELB          equ	3897	;# 
  1638   000F3A                     ANSELC          equ	3898	;# 
  1639   000F3B                     ANSELD          equ	3899	;# 
  1640   000F3C                     ANSELE          equ	3900	;# 
  1641   000F3D                     PMD2            equ	3901	;# 
  1642   000F3E                     PMD1            equ	3902	;# 
  1643   000F3F                     PMD0            equ	3903	;# 
  1644   000F40                     VREFCON2        equ	3904	;# 
  1645   000F40                     DACCON1         equ	3904	;# 
  1646   000F41                     VREFCON1        equ	3905	;# 
  1647   000F41                     DACCON0         equ	3905	;# 
  1648   000F42                     VREFCON0        equ	3906	;# 
  1649   000F42                     FVRCON          equ	3906	;# 
  1650   000F43                     CTMUICON        equ	3907	;# 
  1651   000F43                     CTMUICONH       equ	3907	;# 
  1652   000F44                     CTMUCONL        equ	3908	;# 
  1653   000F44                     CTMUCON1        equ	3908	;# 
  1654   000F45                     CTMUCONH        equ	3909	;# 
  1655   000F45                     CTMUCON0        equ	3909	;# 
  1656   000F46                     SRCON1          equ	3910	;# 
  1657   000F47                     SRCON0          equ	3911	;# 
  1658   000F48                     CCPTMRS1        equ	3912	;# 
  1659   000F49                     CCPTMRS0        equ	3913	;# 
  1660   000F4A                     T6CON           equ	3914	;# 
  1661   000F4B                     PR6             equ	3915	;# 
  1662   000F4C                     TMR6            equ	3916	;# 
  1663   000F4D                     T5GCON          equ	3917	;# 
  1664   000F4E                     T5CON           equ	3918	;# 
  1665   000F4F                     TMR5            equ	3919	;# 
  1666   000F4F                     TMR5L           equ	3919	;# 
  1667   000F50                     TMR5H           equ	3920	;# 
  1668   000F51                     T4CON           equ	3921	;# 
  1669   000F52                     PR4             equ	3922	;# 
  1670   000F53                     TMR4            equ	3923	;# 
  1671   000F54                     CCP5CON         equ	3924	;# 
  1672   000F55                     CCPR5           equ	3925	;# 
  1673   000F55                     CCPR5L          equ	3925	;# 
  1674   000F56                     CCPR5H          equ	3926	;# 
  1675   000F57                     CCP4CON         equ	3927	;# 
  1676   000F58                     CCPR4           equ	3928	;# 
  1677   000F58                     CCPR4L          equ	3928	;# 
  1678   000F59                     CCPR4H          equ	3929	;# 
  1679   000F5A                     PSTR3CON        equ	3930	;# 
  1680   000F5B                     ECCP3AS         equ	3931	;# 
  1681   000F5B                     CCP3AS          equ	3931	;# 
  1682   000F5C                     PWM3CON         equ	3932	;# 
  1683   000F5D                     CCP3CON         equ	3933	;# 
  1684   000F5E                     CCPR3           equ	3934	;# 
  1685   000F5E                     CCPR3L          equ	3934	;# 
  1686   000F5F                     CCPR3H          equ	3935	;# 
  1687   000F60                     SLRCON          equ	3936	;# 
  1688   000F61                     WPUB            equ	3937	;# 
  1689   000F62                     IOCB            equ	3938	;# 
  1690   000F63                     PSTR2CON        equ	3939	;# 
  1691   000F64                     ECCP2AS         equ	3940	;# 
  1692   000F64                     CCP2AS          equ	3940	;# 
  1693   000F65                     PWM2CON         equ	3941	;# 
  1694   000F66                     CCP2CON         equ	3942	;# 
  1695   000F67                     CCPR2           equ	3943	;# 
  1696   000F67                     CCPR2L          equ	3943	;# 
  1697   000F68                     CCPR2H          equ	3944	;# 
  1698   000F69                     SSP2CON3        equ	3945	;# 
  1699   000F6A                     SSP2MSK         equ	3946	;# 
  1700   000F6B                     SSP2CON2        equ	3947	;# 
  1701   000F6C                     SSP2CON1        equ	3948	;# 
  1702   000F6D                     SSP2STAT        equ	3949	;# 
  1703   000F6E                     SSP2ADD         equ	3950	;# 
  1704   000F6F                     SSP2BUF         equ	3951	;# 
  1705   000F70                     BAUDCON2        equ	3952	;# 
  1706   000F70                     BAUD2CON        equ	3952	;# 
  1707   000F71                     RCSTA2          equ	3953	;# 
  1708   000F71                     RC2STA          equ	3953	;# 
  1709   000F72                     TXSTA2          equ	3954	;# 
  1710   000F72                     TX2STA          equ	3954	;# 
  1711   000F73                     TXREG2          equ	3955	;# 
  1712   000F73                     TX2REG          equ	3955	;# 
  1713   000F74                     RCREG2          equ	3956	;# 
  1714   000F74                     RC2REG          equ	3956	;# 
  1715   000F75                     SPBRG2          equ	3957	;# 
  1716   000F75                     SP2BRG          equ	3957	;# 
  1717   000F76                     SPBRGH2         equ	3958	;# 
  1718   000F76                     SP2BRGH         equ	3958	;# 
  1719   000F77                     CM2CON1         equ	3959	;# 
  1720   000F77                     CM12CON         equ	3959	;# 
  1721   000F78                     CM2CON0         equ	3960	;# 
  1722   000F78                     CM2CON          equ	3960	;# 
  1723   000F79                     CM1CON0         equ	3961	;# 
  1724   000F79                     CM1CON          equ	3961	;# 
  1725   000F7A                     PIE4            equ	3962	;# 
  1726   000F7B                     PIR4            equ	3963	;# 
  1727   000F7C                     IPR4            equ	3964	;# 
  1728   000F7D                     PIE5            equ	3965	;# 
  1729   000F7E                     PIR5            equ	3966	;# 
  1730   000F7F                     IPR5            equ	3967	;# 
  1731   000F80                     PORTA           equ	3968	;# 
  1732   000F81                     PORTB           equ	3969	;# 
  1733   000F82                     PORTC           equ	3970	;# 
  1734   000F83                     PORTD           equ	3971	;# 
  1735   000F84                     PORTE           equ	3972	;# 
  1736   000F89                     LATA            equ	3977	;# 
  1737   000F8A                     LATB            equ	3978	;# 
  1738   000F8B                     LATC            equ	3979	;# 
  1739   000F8C                     LATD            equ	3980	;# 
  1740   000F8D                     LATE            equ	3981	;# 
  1741   000F92                     TRISA           equ	3986	;# 
  1742   000F92                     DDRA            equ	3986	;# 
  1743   000F93                     TRISB           equ	3987	;# 
  1744   000F93                     DDRB            equ	3987	;# 
  1745   000F94                     TRISC           equ	3988	;# 
  1746   000F94                     DDRC            equ	3988	;# 
  1747   000F95                     TRISD           equ	3989	;# 
  1748   000F95                     DDRD            equ	3989	;# 
  1749   000F96                     TRISE           equ	3990	;# 
  1750   000F96                     DDRE            equ	3990	;# 
  1751   000F9B                     OSCTUNE         equ	3995	;# 
  1752   000F9C                     HLVDCON         equ	3996	;# 
  1753   000F9C                     LVDCON          equ	3996	;# 
  1754   000F9D                     PIE1            equ	3997	;# 
  1755   000F9E                     PIR1            equ	3998	;# 
  1756   000F9F                     IPR1            equ	3999	;# 
  1757   000FA0                     PIE2            equ	4000	;# 
  1758   000FA1                     PIR2            equ	4001	;# 
  1759   000FA2                     IPR2            equ	4002	;# 
  1760   000FA3                     PIE3            equ	4003	;# 
  1761   000FA4                     PIR3            equ	4004	;# 
  1762   000FA5                     IPR3            equ	4005	;# 
  1763   000FA6                     EECON1          equ	4006	;# 
  1764   000FA7                     EECON2          equ	4007	;# 
  1765   000FA8                     EEDATA          equ	4008	;# 
  1766   000FA9                     EEADR           equ	4009	;# 
  1767   000FAA                     EEADRH          equ	4010	;# 
  1768   000FAB                     RCSTA1          equ	4011	;# 
  1769   000FAB                     RCSTA           equ	4011	;# 
  1770   000FAB                     RC1STA          equ	4011	;# 
  1771   000FAC                     TXSTA1          equ	4012	;# 
  1772   000FAC                     TXSTA           equ	4012	;# 
  1773   000FAC                     TX1STA          equ	4012	;# 
  1774   000FAD                     TXREG1          equ	4013	;# 
  1775   000FAD                     TXREG           equ	4013	;# 
  1776   000FAD                     TX1REG          equ	4013	;# 
  1777   000FAE                     RCREG1          equ	4014	;# 
  1778   000FAE                     RCREG           equ	4014	;# 
  1779   000FAE                     RC1REG          equ	4014	;# 
  1780   000FAF                     SPBRG1          equ	4015	;# 
  1781   000FAF                     SPBRG           equ	4015	;# 
  1782   000FAF                     SP1BRG          equ	4015	;# 
  1783   000FB0                     SPBRGH1         equ	4016	;# 
  1784   000FB0                     SPBRGH          equ	4016	;# 
  1785   000FB0                     SP1BRGH         equ	4016	;# 
  1786   000FB1                     T3CON           equ	4017	;# 
  1787   000FB2                     TMR3            equ	4018	;# 
  1788   000FB2                     TMR3L           equ	4018	;# 
  1789   000FB3                     TMR3H           equ	4019	;# 
  1790   000FB4                     T3GCON          equ	4020	;# 
  1791   000FB6                     ECCP1AS         equ	4022	;# 
  1792   000FB6                     ECCPAS          equ	4022	;# 
  1793   000FB7                     PWM1CON         equ	4023	;# 
  1794   000FB7                     PWMCON          equ	4023	;# 
  1795   000FB8                     BAUDCON1        equ	4024	;# 
  1796   000FB8                     BAUDCON         equ	4024	;# 
  1797   000FB8                     BAUDCTL         equ	4024	;# 
  1798   000FB8                     BAUD1CON        equ	4024	;# 
  1799   000FB9                     PSTR1CON        equ	4025	;# 
  1800   000FB9                     PSTRCON         equ	4025	;# 
  1801   000FBA                     T2CON           equ	4026	;# 
  1802   000FBB                     PR2             equ	4027	;# 
  1803   000FBC                     TMR2            equ	4028	;# 
  1804   000FBD                     CCP1CON         equ	4029	;# 
  1805   000FBE                     CCPR1           equ	4030	;# 
  1806   000FBE                     CCPR1L          equ	4030	;# 
  1807   000FBF                     CCPR1H          equ	4031	;# 
  1808   000FC0                     ADCON2          equ	4032	;# 
  1809   000FC1                     ADCON1          equ	4033	;# 
  1810   000FC2                     ADCON0          equ	4034	;# 
  1811   000FC3                     ADRES           equ	4035	;# 
  1812   000FC3                     ADRESL          equ	4035	;# 
  1813   000FC4                     ADRESH          equ	4036	;# 
  1814   000FC5                     SSP1CON2        equ	4037	;# 
  1815   000FC5                     SSPCON2         equ	4037	;# 
  1816   000FC6                     SSP1CON1        equ	4038	;# 
  1817   000FC6                     SSPCON1         equ	4038	;# 
  1818   000FC7                     SSP1STAT        equ	4039	;# 
  1819   000FC7                     SSPSTAT         equ	4039	;# 
  1820   000FC8                     SSP1ADD         equ	4040	;# 
  1821   000FC8                     SSPADD          equ	4040	;# 
  1822   000FC9                     SSP1BUF         equ	4041	;# 
  1823   000FC9                     SSPBUF          equ	4041	;# 
  1824   000FCA                     SSP1MSK         equ	4042	;# 
  1825   000FCA                     SSPMSK          equ	4042	;# 
  1826   000FCB                     SSP1CON3        equ	4043	;# 
  1827   000FCB                     SSPCON3         equ	4043	;# 
  1828   000FCC                     T1GCON          equ	4044	;# 
  1829   000FCD                     T1CON           equ	4045	;# 
  1830   000FCE                     TMR1            equ	4046	;# 
  1831   000FCE                     TMR1L           equ	4046	;# 
  1832   000FCF                     TMR1H           equ	4047	;# 
  1833   000FD0                     RCON            equ	4048	;# 
  1834   000FD1                     WDTCON          equ	4049	;# 
  1835   000FD2                     OSCCON2         equ	4050	;# 
  1836   000FD3                     OSCCON          equ	4051	;# 
  1837   000FD5                     T0CON           equ	4053	;# 
  1838   000FD6                     TMR0            equ	4054	;# 
  1839   000FD6                     TMR0L           equ	4054	;# 
  1840   000FD7                     TMR0H           equ	4055	;# 
  1841   000FD8                     STATUS          equ	4056	;# 
  1842   000FD9                     FSR2            equ	4057	;# 
  1843   000FD9                     FSR2L           equ	4057	;# 
  1844   000FDA                     FSR2H           equ	4058	;# 
  1845   000FDB                     PLUSW2          equ	4059	;# 
  1846   000FDC                     PREINC2         equ	4060	;# 
  1847   000FDD                     POSTDEC2        equ	4061	;# 
  1848   000FDE                     POSTINC2        equ	4062	;# 
  1849   000FDF                     INDF2           equ	4063	;# 
  1850   000FE0                     BSR             equ	4064	;# 
  1851   000FE1                     FSR1            equ	4065	;# 
  1852   000FE1                     FSR1L           equ	4065	;# 
  1853   000FE2                     FSR1H           equ	4066	;# 
  1854   000FE3                     PLUSW1          equ	4067	;# 
  1855   000FE4                     PREINC1         equ	4068	;# 
  1856   000FE5                     POSTDEC1        equ	4069	;# 
  1857   000FE6                     POSTINC1        equ	4070	;# 
  1858   000FE7                     INDF1           equ	4071	;# 
  1859   000FE8                     WREG            equ	4072	;# 
  1860   000FE9                     FSR0            equ	4073	;# 
  1861   000FE9                     FSR0L           equ	4073	;# 
  1862   000FEA                     FSR0H           equ	4074	;# 
  1863   000FEB                     PLUSW0          equ	4075	;# 
  1864   000FEC                     PREINC0         equ	4076	;# 
  1865   000FED                     POSTDEC0        equ	4077	;# 
  1866   000FEE                     POSTINC0        equ	4078	;# 
  1867   000FEF                     INDF0           equ	4079	;# 
  1868   000FF0                     INTCON3         equ	4080	;# 
  1869   000FF1                     INTCON2         equ	4081	;# 
  1870   000FF2                     INTCON          equ	4082	;# 
  1871   000FF3                     PROD            equ	4083	;# 
  1872   000FF3                     PRODL           equ	4083	;# 
  1873   000FF4                     PRODH           equ	4084	;# 
  1874   000FF5                     TABLAT          equ	4085	;# 
  1875   000FF6                     TBLPTR          equ	4086	;# 
  1876   000FF6                     TBLPTRL         equ	4086	;# 
  1877   000FF7                     TBLPTRH         equ	4087	;# 
  1878   000FF8                     TBLPTRU         equ	4088	;# 
  1879   000FF9                     PCLAT           equ	4089	;# 
  1880   000FF9                     PC              equ	4089	;# 
  1881   000FF9                     PCL             equ	4089	;# 
  1882   000FFA                     PCLATH          equ	4090	;# 
  1883   000FFB                     PCLATU          equ	4091	;# 
  1884   000FFC                     STKPTR          equ	4092	;# 
  1885   000FFD                     TOS             equ	4093	;# 
  1886   000FFD                     TOSL            equ	4093	;# 
  1887   000FFE                     TOSH            equ	4094	;# 
  1888   000FFF                     TOSU            equ	4095	;# 
  1889                           
  1890                           	psect	idataCOMRAM
  1891   002292                     __pidataCOMRAM:
  1892                           	callstack 0
  1893                           
  1894                           ;initializer for _rr_quantum
  1895   002292  14                 	db	20
  1896   000F3A                     _ANSELCbits     set	3898
  1897   000F3B                     _ANSELDbits     set	3899
  1898   000F38                     _ANSELAbits     set	3896
  1899   000FD6                     _TMR0           set	4054
  1900   000FD5                     _T0CONbits      set	4053
  1901   000F83                     _PORTDbits      set	3971
  1902   000F95                     _TRISDbits      set	3989
  1903   000FC3                     _ADRESL         set	4035
  1904   000FC4                     _ADRESH         set	4036
  1905   000F92                     _TRISAbits      set	3986
  1906   000FC0                     _ADCON2bits     set	4032
  1907   000FC1                     _ADCON1bits     set	4033
  1908   000FC2                     _ADCON0bits     set	4034
  1909   000F82                     _PORTCbits      set	3970
  1910   000F94                     _TRISCbits      set	3988
  1911   000FFC                     _STKPTR         set	4092
  1912   000FFF                     _TOSU           set	4095
  1913   000FFE                     _TOSH           set	4094
  1914   000FFD                     _TOSL           set	4093
  1915   000FD8                     _STATUS         set	4056
  1916   000FE8                     _WREG           set	4072
  1917   000FF8                     _TBLPTRU        set	4088
  1918   000FF6                     _TBLPTRL        set	4086
  1919   000FF7                     _TBLPTRH        set	4087
  1920   000FF5                     _TABLAT         set	4085
  1921   000FF3                     _PRODL          set	4083
  1922   000FF4                     _PRODH          set	4084
  1923   000FFB                     _PCLATU         set	4091
  1924   000FFA                     _PCLATH         set	4090
  1925   000FD9                     _FSR2L          set	4057
  1926   000FDA                     _FSR2H          set	4058
  1927   000FE1                     _FSR1L          set	4065
  1928   000FE2                     _FSR1H          set	4066
  1929   000FE9                     _FSR0L          set	4073
  1930   000FEA                     _FSR0H          set	4074
  1931   000FE0                     _BSR            set	4064
  1932   000FF2                     _INTCONbits     set	4082
  1933                           
  1934                           ; #config settings
  1935                           
  1936                           	psect	cinit
  1937   001FCE                     __pcinit:
  1938                           	callstack 0
  1939   001FCE                     start_initialization:
  1940                           	callstack 0
  1941   001FCE                     __initialization:
  1942                           	callstack 0
  1943                           
  1944                           ; Initialize objects allocated to COMRAM (1 bytes)
  1945                           ; load TBLPTR registers with __pidataCOMRAM
  1946   001FCE  0E92               	movlw	low __pidataCOMRAM
  1947   001FD0  6EF6               	movwf	tblptrl,c
  1948   001FD2  0E22               	movlw	high __pidataCOMRAM
  1949   001FD4  6EF7               	movwf	tblptrh,c
  1950   001FD6  0E00               	movlw	low (__pidataCOMRAM shr (0+16))
  1951   001FD8  6EF8               	movwf	tblptru,c
  1952   001FDA  0009               	tblrd		*+	;fetch initializer
  1953   001FDC  CFF5 F044          	movff	tablat,__pdataCOMRAM
  1954                           
  1955                           ; Clear objects allocated to BIGRAM (984 bytes)
  1956   001FE0  EE00  F0D9         	lfsr	0,__pbssBIGRAM
  1957   001FE4  EE13 F0D8          	lfsr	1,984
  1958   001FE8                     clear_0:
  1959   001FE8  6AEE               	clrf	postinc0,c
  1960   001FEA  50E5               	movf	postdec1,w,c
  1961   001FEC  50E1               	movf	fsr1l,w,c
  1962   001FEE  E1FC               	bnz	clear_0
  1963   001FF0  50E2               	movf	fsr1h,w,c
  1964   001FF2  E1FA               	bnz	clear_0
  1965                           
  1966                           ; Clear objects allocated to COMRAM (35 bytes)
  1967   001FF4  EE00  F002         	lfsr	0,__pbssCOMRAM
  1968   001FF8  0E23               	movlw	35
  1969   001FFA                     clear_1:
  1970   001FFA  6AEE               	clrf	postinc0,c
  1971   001FFC  06E8               	decf	wreg,f,c
  1972   001FFE  E1FD               	bnz	clear_1
  1973   002000                     end_of_initialization:
  1974                           	callstack 0
  1975   002000                     __end_of__initialization:
  1976                           	callstack 0
  1977   002000  9001               	bcf	int$flags,0,c	;clear compiler interrupt flag (level 1)
  1978   002002  9201               	bcf	int$flags,1,c	;clear compiler interrupt flag (level 2)
  1979   002004  0E00               	movlw	low (__Lmediumconst shr (0+16))
  1980   002006  6EF8               	movwf	tblptru,c
  1981   002008  0100               	movlb	0
  1982   00200A  EF29  F011         	goto	_main	;jump to C main() function
  1983                           
  1984                           	psect	bssCOMRAM
  1985   000002                     __pbssCOMRAM:
  1986                           	callstack 0
  1987   000002                     _p:
  1988                           	callstack 0
  1989   000002                     	ds	20
  1990   000016                     _m_led:
  1991                           	callstack 0
  1992   000016                     	ds	8
  1993   00001E                     _s:
  1994                           	callstack 0
  1995   00001E                     	ds	7
  1996                           
  1997                           	psect	dataCOMRAM
  1998   000044                     __pdataCOMRAM:
  1999                           	callstack 0
  2000   000044                     _rr_quantum:
  2001                           	callstack 0
  2002   000044                     	ds	1
  2003                           
  2004                           	psect	bssBIGRAM
  2005   0000D9                     __pbssBIGRAM:
  2006                           	callstack 0
  2007   0000D9                     __uDynamicHeap:
  2008                           	callstack 0
  2009   0000D9                     	ds	512
  2010   0002D9                     _r_queue:
  2011                           	callstack 0
  2012   0002D9                     	ds	472
  2013                           
  2014                           	psect	cstackBANK0
  2015   000060                     __pcstackBANK0:
  2016                           	callstack 0
  2017   000060                     ?___awmod:
  2018                           	callstack 0
  2019   000060                     sem_init@sem:
  2020                           	callstack 0
  2021   000060                     os_create_task@func:
  2022                           	callstack 0
  2023   000060                     SRAMInitHeap@pHeap:
  2024                           	callstack 0
  2025   000060                     ___awmod@dividend:
  2026                           	callstack 0
  2027   000060                     ??_idle:
  2028                           
  2029                           ; 1 bytes @ 0x0
  2030   000060                     	ds	1
  2031   000061                     sem_init@valor:
  2032                           	callstack 0
  2033                           
  2034                           ; 1 bytes @ 0x1
  2035   000061                     	ds	1
  2036   000062                     os_create_task@prior:
  2037                           	callstack 0
  2038   000062                     SRAMInitHeap@count:
  2039                           	callstack 0
  2040   000062                     ___awmod@divisor:
  2041                           	callstack 0
  2042   000062                     ??_sem_init:
  2043                           
  2044                           ; 1 bytes @ 0x2
  2045   000062                     	ds	1
  2046   000063                     os_create_task@id:
  2047                           	callstack 0
  2048                           
  2049                           ; 1 bytes @ 0x3
  2050   000063                     	ds	1
  2051   000064                     ___awmod@counter:
  2052                           	callstack 0
  2053   000064                     os_create_task@new_task:
  2054                           	callstack 0
  2055                           
  2056                           ; 117 bytes @ 0x4
  2057   000064                     	ds	1
  2058   000065                     ___awmod@sign:
  2059                           	callstack 0
  2060                           
  2061                           ; 1 bytes @ 0x5
  2062   000065                     	ds	1
  2063   000066                     priority_rr_scheduler@current:
  2064                           	callstack 0
  2065                           
  2066                           ; 1 bytes @ 0x6
  2067   000066                     	ds	1
  2068   000067                     priority_rr_scheduler@max_prio:
  2069                           	callstack 0
  2070                           
  2071                           ; 1 bytes @ 0x7
  2072   000067                     	ds	1
  2073   000068                     priority_rr_scheduler@found:
  2074                           	callstack 0
  2075                           
  2076                           ; 1 bytes @ 0x8
  2077   000068                     	ds	1
  2078   000069                     priority_rr_scheduler@i_1482:
  2079                           	callstack 0
  2080                           
  2081                           ; 1 bytes @ 0x9
  2082   000069                     	ds	1
  2083   00006A                     priority_rr_scheduler@idx:
  2084                           	callstack 0
  2085                           
  2086                           ; 1 bytes @ 0xA
  2087   00006A                     	ds	1
  2088   00006B                     priority_rr_scheduler@i:
  2089                           	callstack 0
  2090                           
  2091                           ; 1 bytes @ 0xB
  2092   00006B                     	ds	1
  2093   00006C                     ??_scheduler:
  2094                           
  2095                           ; 1 bytes @ 0xC
  2096   00006C                     	ds	3
  2097   00006F                     ??_os_start:
  2098                           
  2099                           ; 1 bytes @ 0xF
  2100   00006F                     	ds	106
  2101                           
  2102                           	psect	cstackCOMRAM
  2103   000025                     __pcstackCOMRAM:
  2104                           	callstack 0
  2105   000025                     ?_adc_read:
  2106                           	callstack 0
  2107   000025                     ?i1___awmod:
  2108                           	callstack 0
  2109   000025                     ?i2___awmod:
  2110                           	callstack 0
  2111   000025                     i1___awmod@dividend:
  2112                           	callstack 0
  2113   000025                     i2___awmod@dividend:
  2114                           	callstack 0
  2115                           
  2116                           ; 2 bytes @ 0x0
  2117   000025                     	ds	2
  2118   000027                     i1___awmod@divisor:
  2119                           	callstack 0
  2120   000027                     i2___awmod@divisor:
  2121                           	callstack 0
  2122   000027                     ??_adc_read:
  2123                           
  2124                           ; 1 bytes @ 0x2
  2125   000027                     	ds	2
  2126   000029                     adc_read@channel:
  2127                           	callstack 0
  2128   000029                     i1___awmod@counter:
  2129                           	callstack 0
  2130   000029                     i2___awmod@counter:
  2131                           	callstack 0
  2132   000029                     
  2133                           ; 1 bytes @ 0x4
  2134   000029                     	ds	1
  2135   00002A                     i1___awmod@sign:
  2136                           	callstack 0
  2137   00002A                     i2___awmod@sign:
  2138                           	callstack 0
  2139                           
  2140                           ; 1 bytes @ 0x5
  2141   00002A                     	ds	1
  2142   00002B                     ??i1_priority_rr_scheduler:
  2143   00002B                     ??i2_priority_rr_scheduler:
  2144                           
  2145                           ; 1 bytes @ 0x6
  2146   00002B                     	ds	1
  2147   00002C                     i1priority_rr_scheduler@current:
  2148                           	callstack 0
  2149   00002C                     i2priority_rr_scheduler@current:
  2150                           	callstack 0
  2151                           
  2152                           ; 1 bytes @ 0x7
  2153   00002C                     	ds	1
  2154   00002D                     i1priority_rr_scheduler@max_prio:
  2155                           	callstack 0
  2156   00002D                     i2priority_rr_scheduler@max_prio:
  2157                           	callstack 0
  2158                           
  2159                           ; 1 bytes @ 0x8
  2160   00002D                     	ds	1
  2161   00002E                     i1priority_rr_scheduler@found:
  2162                           	callstack 0
  2163   00002E                     i2priority_rr_scheduler@found:
  2164                           	callstack 0
  2165                           
  2166                           ; 1 bytes @ 0x9
  2167   00002E                     	ds	1
  2168   00002F                     i1priority_rr_scheduler@i_1482:
  2169                           	callstack 0
  2170   00002F                     i2priority_rr_scheduler@i_1482:
  2171                           	callstack 0
  2172                           
  2173                           ; 1 bytes @ 0xA
  2174   00002F                     	ds	1
  2175   000030                     i1priority_rr_scheduler@idx:
  2176                           	callstack 0
  2177   000030                     i2priority_rr_scheduler@idx:
  2178                           	callstack 0
  2179                           
  2180                           ; 1 bytes @ 0xB
  2181   000030                     	ds	1
  2182   000031                     i1priority_rr_scheduler@i:
  2183                           	callstack 0
  2184   000031                     i2priority_rr_scheduler@i:
  2185                           	callstack 0
  2186                           
  2187                           ; 1 bytes @ 0xC
  2188   000031                     	ds	1
  2189   000032                     ??i1_scheduler:
  2190   000032                     ??i2_scheduler:
  2191                           
  2192                           ; 1 bytes @ 0xD
  2193   000032                     	ds	3
  2194   000035                     ??_os_delay:
  2195   000035                     ??_ISR:
  2196                           
  2197                           ; 1 bytes @ 0x10
  2198   000035                     	ds	7
  2199   00003C                     os_delay@time:
  2200                           	callstack 0
  2201                           
  2202                           ; 1 bytes @ 0x17
  2203   00003C                     	ds	1
  2204   00003D                     tarefaLeituraADC_UART@valor:
  2205                           	callstack 0
  2206   00003D                     
  2207                           ; 1 bytes @ 0x18
  2208   00003D                     	ds	2
  2209   00003F                     mutex_init@m:
  2210                           	callstack 0
  2211   00003F                     pipe_init@p:
  2212                           	callstack 0
  2213   00003F                     ??_os_create_task:
  2214   00003F                     ??_priority_rr_scheduler:
  2215   00003F                     
  2216                           ; 1 bytes @ 0x1A
  2217   00003F                     	ds	1
  2218   000040                     
  2219                           ; 1 bytes @ 0x1B
  2220   000040                     	ds	2
  2221   000042                     ISR@i:
  2222                           	callstack 0
  2223                           
  2224                           ; 2 bytes @ 0x1D
  2225   000042                     	ds	2
  2226                           
  2227 ;;
  2228 ;;Main: autosize = 0, tempsize = 0, incstack = 0, save=0
  2229 ;;
  2230 ;; *************** function _main *****************
  2231 ;; Defined at:
  2232 ;;		line 8 in file "main.c"
  2233 ;; Parameters:    Size  Location     Type
  2234 ;;		None
  2235 ;; Auto vars:     Size  Location     Type
  2236 ;;		None
  2237 ;; Return value:  Size  Location     Type
  2238 ;;                  2   12[None  ] int 
  2239 ;; Registers used:
  2240 ;;		wreg, fsr1l, fsr1h, fsr2l, fsr2h, status,2, status,0, prodl, prodh, cstack
  2241 ;; Tracked objects:
  2242 ;;		On entry : 0/0
  2243 ;;		On exit  : 0/0
  2244 ;;		Unchanged: 0/0
  2245 ;; Data sizes:     COMRAM   BANK0   BANK1   BANK2   BANK3   BANK4   BANK5   BANK6   BANK7   BANK8   BANK9  BANK10  BANK1
      +1  BANK12  BANK13  BANK14  BANK15
  2246 ;;      Params:         0       0       0       0       0       0       0       0       0       0       0       0       
      +0       0       0       0       0
  2247 ;;      Locals:         0       0       0       0       0       0       0       0       0       0       0       0       
      +0       0       0       0       0
  2248 ;;      Temps:          0       0       0       0       0       0       0       0       0       0       0       0       
      +0       0       0       0       0
  2249 ;;      Totals:         0       0       0       0       0       0       0       0       0       0       0       0       
      +0       0       0       0       0
  2250 ;;Total ram usage:        0 bytes
  2251 ;; Hardware stack levels required when called: 13
  2252 ;; This function calls:
  2253 ;;		_os_config
  2254 ;;		_os_create_task
  2255 ;;		_os_start
  2256 ;; This function is called by:
  2257 ;;		Startup code after reset
  2258 ;; This function uses a non-reentrant model
  2259 ;;
  2260                           
  2261                           	psect	text0
  2262   002252                     __ptext0:
  2263                           	callstack 0
  2264   002252                     _main:
  2265                           	callstack 18
  2266   002252                     
  2267                           ;main.c: 9:     os_config();
  2268   002252  EC5D  F010         	call	_os_config	;wreg free
  2269                           
  2270                           ;main.c: 29:     os_create_task(2, tarefaLeituraADC_UART, 5);
  2271   002256  0E82               	movlw	low _tarefaLeituraADC_UART
  2272   002258  0100               	movlb	0	; () banked
  2273   00225A  6F60               	movwf	os_create_task@func& (0+255),b
  2274   00225C  0E20               	movlw	high _tarefaLeituraADC_UART
  2275   00225E  6F61               	movwf	(os_create_task@func+1)& (0+255),b
  2276   002260  0E05               	movlw	5
  2277   002262  6F62               	movwf	os_create_task@prior& (0+255),b
  2278   002264  0E02               	movlw	2
  2279   002266  EC7E  F00F         	call	_os_create_task
  2280                           
  2281                           ;main.c: 30:     os_start();
  2282   00226A  EC04  F00B         	call	_os_start	;wreg free
  2283   00226E                     l13:
  2284   00226E  EF37  F011         	goto	l13
  2285   002272  EF8D  F003         	goto	start
  2286   002276                     __end_of_main:
  2287                           	callstack 0
  2288                           
  2289 ;; *************** function _os_start *****************
  2290 ;; Defined at:
  2291 ;;		line 113 in file "kernel.c"
  2292 ;; Parameters:    Size  Location     Type
  2293 ;;		None
  2294 ;; Auto vars:     Size  Location     Type
  2295 ;;		None
  2296 ;; Return value:  Size  Location     Type
  2297 ;;                  1    wreg      void 
  2298 ;; Registers used:
  2299 ;;		wreg, fsr1l, fsr1h, fsr2l, fsr2h, status,2, status,0, prodl, prodh, cstack
  2300 ;; Tracked objects:
  2301 ;;		On entry : 0/0
  2302 ;;		On exit  : 0/0
  2303 ;;		Unchanged: 0/0
  2304 ;; Data sizes:     COMRAM   BANK0   BANK1   BANK2   BANK3   BANK4   BANK5   BANK6   BANK7   BANK8   BANK9  BANK10  BANK1
      +1  BANK12  BANK13  BANK14  BANK15
  2305 ;;      Params:         0       0       0       0       0       0       0       0       0       0       0       0       
      +0       0       0       0       0
  2306 ;;      Locals:         0       0       0       0       0       0       0       0       0       0       0       0       
      +0       0       0       0       0
  2307 ;;      Temps:          0       7       0       0       0       0       0       0       0       0       0       0       
      +0       0       0       0       0
  2308 ;;      Totals:         0       7       0       0       0       0       0       0       0       0       0       0       
      +0       0       0       0       0
  2309 ;;Total ram usage:        7 bytes
  2310 ;; Hardware stack levels used: 1
  2311 ;; Hardware stack levels required when called: 12
  2312 ;; This function calls:
  2313 ;;		_scheduler
  2314 ;;		_setup_hardware
  2315 ;; This function is called by:
  2316 ;;		_main
  2317 ;; This function uses a non-reentrant model
  2318 ;;
  2319                           
  2320                           	psect	text1
  2321   001608                     __ptext1:
  2322                           	callstack 0
  2323   001608                     _os_start:
  2324                           	callstack 18
  2325   001608                     
  2326                           ;kernel.c: 115:     setup_hardware();
  2327   001608  EC3B  F011         	call	_setup_hardware	;wreg free
  2328   00160C                     
  2329                           ;kernel.c: 116:     scheduler();
  2330   00160C  ECC4  F010         	call	_scheduler	;wreg free
  2331   001610  EE24  F0AE         	lfsr	2,_r_queue+469
  2332   001614  EE10 F001          	lfsr	1,1
  2333   001618  50DE               	movf	postinc2,w,c
  2334   00161A  26E1               	addwf	fsr1l,f,c
  2335   00161C  50DD               	movf	postdec2,w,c
  2336   00161E  22E2               	addwfc	fsr1h,f,c
  2337   001620  50E7               	movf	indf1,w,c
  2338   001622  A4D8               	btfss	status,2,c
  2339   001624  EF16  F00B         	goto	u2481
  2340   001628  EF18  F00B         	goto	u2480
  2341   00162C                     u2481:
  2342   00162C  EFAF  F00C         	goto	l3290
  2343   001630                     u2480:
  2344   001630  EE24  F0AE         	lfsr	2,_r_queue+469
  2345   001634  EE10 F001          	lfsr	1,1
  2346   001638  50DE               	movf	postinc2,w,c
  2347   00163A  26E1               	addwf	fsr1l,f,c
  2348   00163C  50DD               	movf	postdec2,w,c
  2349   00163E  22E2               	addwfc	fsr1h,f,c
  2350   001640  0E02               	movlw	2
  2351   001642  6EE7               	movwf	indf1,c
  2352   001644  EE24  F0AE         	lfsr	2,_r_queue+469
  2353   001648  EE10 F008          	lfsr	1,8
  2354   00164C  50DE               	movf	postinc2,w,c
  2355   00164E  26E1               	addwf	fsr1l,f,c
  2356   001650  50DD               	movf	postdec2,w,c
  2357   001652  22E2               	addwfc	fsr1h,f,c
  2358   001654  50E7               	movf	indf1,w,c
  2359   001656  6EE0               	movwf	224,c	;volatile
  2360   001658  EE24  F0AE         	lfsr	2,_r_queue+469
  2361   00165C  EE10 F00C          	lfsr	1,12
  2362   001660  50DE               	movf	postinc2,w,c
  2363   001662  26E1               	addwf	fsr1l,f,c
  2364   001664  50DD               	movf	postdec2,w,c
  2365   001666  22E2               	addwfc	fsr1h,f,c
  2366   001668  50E7               	movf	indf1,w,c
  2367   00166A  6EEA               	movwf	234,c	;volatile
  2368   00166C  EE24  F0AE         	lfsr	2,_r_queue+469
  2369   001670  EE10 F00B          	lfsr	1,11
  2370   001674  50DE               	movf	postinc2,w,c
  2371   001676  26E1               	addwf	fsr1l,f,c
  2372   001678  50DD               	movf	postdec2,w,c
  2373   00167A  22E2               	addwfc	fsr1h,f,c
  2374   00167C  50E7               	movf	indf1,w,c
  2375   00167E  6EE9               	movwf	233,c	;volatile
  2376   001680  EE24  F0AE         	lfsr	2,_r_queue+469
  2377   001684  EE10 F00E          	lfsr	1,14
  2378   001688  50DE               	movf	postinc2,w,c
  2379   00168A  26E1               	addwf	fsr1l,f,c
  2380   00168C  50DD               	movf	postdec2,w,c
  2381   00168E  22E2               	addwfc	fsr1h,f,c
  2382   001690  50E7               	movf	indf1,w,c
  2383   001692  6EE2               	movwf	226,c	;volatile
  2384   001694  EE24  F0AE         	lfsr	2,_r_queue+469
  2385   001698  EE10 F00D          	lfsr	1,13
  2386   00169C  50DE               	movf	postinc2,w,c
  2387   00169E  26E1               	addwf	fsr1l,f,c
  2388   0016A0  50DD               	movf	postdec2,w,c
  2389   0016A2  22E2               	addwfc	fsr1h,f,c
  2390   0016A4  50E7               	movf	indf1,w,c
  2391   0016A6  6EE1               	movwf	225,c	;volatile
  2392   0016A8  EE24  F0AE         	lfsr	2,_r_queue+469
  2393   0016AC  EE10 F010          	lfsr	1,16
  2394   0016B0  50DE               	movf	postinc2,w,c
  2395   0016B2  26E1               	addwf	fsr1l,f,c
  2396   0016B4  50DD               	movf	postdec2,w,c
  2397   0016B6  22E2               	addwfc	fsr1h,f,c
  2398   0016B8  50E7               	movf	indf1,w,c
  2399   0016BA  6EDA               	movwf	218,c	;volatile
  2400   0016BC  EE24  F0AE         	lfsr	2,_r_queue+469
  2401   0016C0  EE10 F00F          	lfsr	1,15
  2402   0016C4  50DE               	movf	postinc2,w,c
  2403   0016C6  26E1               	addwf	fsr1l,f,c
  2404   0016C8  50DD               	movf	postdec2,w,c
  2405   0016CA  22E2               	addwfc	fsr1h,f,c
  2406   0016CC  50E7               	movf	indf1,w,c
  2407   0016CE  6ED9               	movwf	217,c	;volatile
  2408   0016D0  EE24  F0AE         	lfsr	2,_r_queue+469
  2409   0016D4  EE10 F015          	lfsr	1,21
  2410   0016D8  50DE               	movf	postinc2,w,c
  2411   0016DA  26E1               	addwf	fsr1l,f,c
  2412   0016DC  50DD               	movf	postdec2,w,c
  2413   0016DE  22E2               	addwfc	fsr1h,f,c
  2414   0016E0  50E7               	movf	indf1,w,c
  2415   0016E2  6EFA               	movwf	250,c	;volatile
  2416   0016E4  EE24  F0AE         	lfsr	2,_r_queue+469
  2417   0016E8  EE10 F016          	lfsr	1,22
  2418   0016EC  50DE               	movf	postinc2,w,c
  2419   0016EE  26E1               	addwf	fsr1l,f,c
  2420   0016F0  50DD               	movf	postdec2,w,c
  2421   0016F2  22E2               	addwfc	fsr1h,f,c
  2422   0016F4  50E7               	movf	indf1,w,c
  2423   0016F6  6EFB               	movwf	251,c	;volatile
  2424   0016F8  EE24  F0AE         	lfsr	2,_r_queue+469
  2425   0016FC  EE10 F00A          	lfsr	1,10
  2426   001700  50DE               	movf	postinc2,w,c
  2427   001702  26E1               	addwf	fsr1l,f,c
  2428   001704  50DD               	movf	postdec2,w,c
  2429   001706  22E2               	addwfc	fsr1h,f,c
  2430   001708  50E7               	movf	indf1,w,c
  2431   00170A  6EF4               	movwf	244,c	;volatile
  2432   00170C  EE24  F0AE         	lfsr	2,_r_queue+469
  2433   001710  EE10 F009          	lfsr	1,9
  2434   001714  50DE               	movf	postinc2,w,c
  2435   001716  26E1               	addwf	fsr1l,f,c
  2436   001718  50DD               	movf	postdec2,w,c
  2437   00171A  22E2               	addwfc	fsr1h,f,c
  2438   00171C  50E7               	movf	indf1,w,c
  2439   00171E  6EF3               	movwf	243,c	;volatile
  2440   001720  EE24  F0AE         	lfsr	2,_r_queue+469
  2441   001724  EE10 F011          	lfsr	1,17
  2442   001728  50DE               	movf	postinc2,w,c
  2443   00172A  26E1               	addwf	fsr1l,f,c
  2444   00172C  50DD               	movf	postdec2,w,c
  2445   00172E  22E2               	addwfc	fsr1h,f,c
  2446   001730  50E7               	movf	indf1,w,c
  2447   001732  6EF5               	movwf	245,c	;volatile
  2448   001734  EE24  F0AE         	lfsr	2,_r_queue+469
  2449   001738  EE10 F013          	lfsr	1,19
  2450   00173C  50DE               	movf	postinc2,w,c
  2451   00173E  26E1               	addwf	fsr1l,f,c
  2452   001740  50DD               	movf	postdec2,w,c
  2453   001742  22E2               	addwfc	fsr1h,f,c
  2454   001744  50E7               	movf	indf1,w,c
  2455   001746  6EF7               	movwf	247,c	;volatile
  2456   001748  EE24  F0AE         	lfsr	2,_r_queue+469
  2457   00174C  EE10 F012          	lfsr	1,18
  2458   001750  50DE               	movf	postinc2,w,c
  2459   001752  26E1               	addwf	fsr1l,f,c
  2460   001754  50DD               	movf	postdec2,w,c
  2461   001756  22E2               	addwfc	fsr1h,f,c
  2462   001758  50E7               	movf	indf1,w,c
  2463   00175A  6EF6               	movwf	246,c	;volatile
  2464   00175C  EE24  F0AE         	lfsr	2,_r_queue+469
  2465   001760  EE10 F014          	lfsr	1,20
  2466   001764  50DE               	movf	postinc2,w,c
  2467   001766  26E1               	addwf	fsr1l,f,c
  2468   001768  50DD               	movf	postdec2,w,c
  2469   00176A  22E2               	addwfc	fsr1h,f,c
  2470   00176C  50E7               	movf	indf1,w,c
  2471   00176E  6EF8               	movwf	248,c	;volatile
  2472   001770  EE24  F0AE         	lfsr	2,_r_queue+469
  2473   001774  EE10 F007          	lfsr	1,7
  2474   001778  50DE               	movf	postinc2,w,c
  2475   00177A  26E1               	addwf	fsr1l,f,c
  2476   00177C  50DD               	movf	postdec2,w,c
  2477   00177E  22E2               	addwfc	fsr1h,f,c
  2478   001780  50E7               	movf	indf1,w,c
  2479   001782  6ED8               	movwf	216,c	;volatile
  2480   001784  EE24  F0AE         	lfsr	2,_r_queue+469
  2481   001788  EE10 F006          	lfsr	1,6
  2482   00178C  50DE               	movf	postinc2,w,c
  2483   00178E  26E1               	addwf	fsr1l,f,c
  2484   001790  50DD               	movf	postdec2,w,c
  2485   001792  22E2               	addwfc	fsr1h,f,c
  2486   001794  50E7               	movf	indf1,w,c
  2487   001796  0100               	movlb	0	; () banked
  2488   001798  6F6F               	movwf	??_os_start& (0+255),b
  2489   00179A  516F               	movf	??_os_start& (0+255),w,b
  2490   00179C                     
  2491                           ; BSR set to: 0
  2492   00179C  6AFC               	clrf	252,c	;volatile
  2493   00179E  EE24  F0AE         	lfsr	2,_r_queue+469
  2494   0017A2  EE10 F074          	lfsr	1,116
  2495   0017A6  50DE               	movf	postinc2,w,c
  2496   0017A8  26E1               	addwf	fsr1l,f,c
  2497   0017AA  50DD               	movf	postdec2,w,c
  2498   0017AC  22E2               	addwfc	fsr1h,f,c
  2499   0017AE  50E7               	movf	indf1,w,c
  2500   0017B0  B4D8               	btfsc	status,2,c
  2501   0017B2  EFDD  F00B         	goto	u2491
  2502   0017B6  EFDF  F00B         	goto	u2490
  2503   0017BA                     u2491:
  2504   0017BA  EF68  F00C         	goto	l134
  2505   0017BE                     u2490:
  2506   0017BE                     l135:
  2507                           
  2508                           ; BSR set to: 0
  2509   0017BE  0005               	push		;# 
  2510   0017C0  EE24  F0AE         	lfsr	2,_r_queue+469
  2511   0017C4  EE10 F074          	lfsr	1,116
  2512   0017C8  50DE               	movf	postinc2,w,c
  2513   0017CA  26E1               	addwf	fsr1l,f,c
  2514   0017CC  50DD               	movf	postdec2,w,c
  2515   0017CE  22E2               	addwfc	fsr1h,f,c
  2516   0017D0  06E7               	decf	indf1,f,c
  2517   0017D2  EE24  F0AE         	lfsr	2,_r_queue+469
  2518   0017D6  EE10 F074          	lfsr	1,116
  2519   0017DA  50DE               	movf	postinc2,w,c
  2520   0017DC  26E1               	addwf	fsr1l,f,c
  2521   0017DE  50DD               	movf	postdec2,w,c
  2522   0017E0  22E2               	addwfc	fsr1h,f,c
  2523   0017E2  50E7               	movf	indf1,w,c
  2524   0017E4  0100               	movlb	0	; () banked
  2525   0017E6  6F6F               	movwf	??_os_start& (0+255),b
  2526   0017E8  516F               	movf	??_os_start& (0+255),w,b
  2527   0017EA  0D03               	mullw	3
  2528   0017EC  CFF3 F070          	movff	prodl,??_os_start+1
  2529   0017F0  CFF4 F071          	movff	prodh,??_os_start+2
  2530   0017F4  EE24  F0AE         	lfsr	2,_r_queue+469
  2531   0017F8  CFDE F072          	movff	postinc2,??_os_start+3
  2532   0017FC  CFDD F073          	movff	postdec2,??_os_start+4
  2533   001800  5170               	movf	(??_os_start+1)& (0+255),w,b
  2534   001802  2572               	addwf	(??_os_start+3)& (0+255),w,b
  2535   001804  6F74               	movwf	(??_os_start+5)& (0+255),b
  2536   001806  5171               	movf	(??_os_start+2)& (0+255),w,b
  2537   001808  2173               	addwfc	(??_os_start+4)& (0+255),w,b
  2538   00180A  6F75               	movwf	(??_os_start+6)& (0+255),b
  2539   00180C  0E17               	movlw	23
  2540   00180E  2574               	addwf	(??_os_start+5)& (0+255),w,b
  2541   001810  6ED9               	movwf	fsr2l,c
  2542   001812  0E00               	movlw	0
  2543   001814  2175               	addwfc	(??_os_start+6)& (0+255),w,b
  2544   001816  6EDA               	movwf	fsr2h,c
  2545   001818  50DF               	movf	indf2,w,c
  2546   00181A  6EFD               	movwf	253,c	;volatile
  2547   00181C                     
  2548                           ; BSR set to: 0
  2549   00181C  EE24  F0AE         	lfsr	2,_r_queue+469
  2550   001820  EE10 F074          	lfsr	1,116
  2551   001824  50DE               	movf	postinc2,w,c
  2552   001826  26E1               	addwf	fsr1l,f,c
  2553   001828  50DD               	movf	postdec2,w,c
  2554   00182A  22E2               	addwfc	fsr1h,f,c
  2555   00182C  50E7               	movf	indf1,w,c
  2556   00182E  6F6F               	movwf	??_os_start& (0+255),b
  2557   001830  516F               	movf	??_os_start& (0+255),w,b
  2558   001832  0D03               	mullw	3
  2559   001834  CFF3 F070          	movff	prodl,??_os_start+1
  2560   001838  CFF4 F071          	movff	prodh,??_os_start+2
  2561   00183C  EE24  F0AE         	lfsr	2,_r_queue+469
  2562   001840  CFDE F072          	movff	postinc2,??_os_start+3
  2563   001844  CFDD F073          	movff	postdec2,??_os_start+4
  2564   001848  5170               	movf	(??_os_start+1)& (0+255),w,b
  2565   00184A  2572               	addwf	(??_os_start+3)& (0+255),w,b
  2566   00184C  6F74               	movwf	(??_os_start+5)& (0+255),b
  2567   00184E  5171               	movf	(??_os_start+2)& (0+255),w,b
  2568   001850  2173               	addwfc	(??_os_start+4)& (0+255),w,b
  2569   001852  6F75               	movwf	(??_os_start+6)& (0+255),b
  2570   001854  0E18               	movlw	24
  2571   001856  2574               	addwf	(??_os_start+5)& (0+255),w,b
  2572   001858  6ED9               	movwf	fsr2l,c
  2573   00185A  0E00               	movlw	0
  2574   00185C  2175               	addwfc	(??_os_start+6)& (0+255),w,b
  2575   00185E  6EDA               	movwf	fsr2h,c
  2576   001860  50DF               	movf	indf2,w,c
  2577   001862  6EFE               	movwf	254,c	;volatile
  2578   001864                     
  2579                           ; BSR set to: 0
  2580   001864  EE24  F0AE         	lfsr	2,_r_queue+469
  2581   001868  EE10 F074          	lfsr	1,116
  2582   00186C  50DE               	movf	postinc2,w,c
  2583   00186E  26E1               	addwf	fsr1l,f,c
  2584   001870  50DD               	movf	postdec2,w,c
  2585   001872  22E2               	addwfc	fsr1h,f,c
  2586   001874  50E7               	movf	indf1,w,c
  2587   001876  6F6F               	movwf	??_os_start& (0+255),b
  2588   001878  516F               	movf	??_os_start& (0+255),w,b
  2589   00187A  0D03               	mullw	3
  2590   00187C  CFF3 F070          	movff	prodl,??_os_start+1
  2591   001880  CFF4 F071          	movff	prodh,??_os_start+2
  2592   001884  EE24  F0AE         	lfsr	2,_r_queue+469
  2593   001888  CFDE F072          	movff	postinc2,??_os_start+3
  2594   00188C  CFDD F073          	movff	postdec2,??_os_start+4
  2595   001890  5170               	movf	(??_os_start+1)& (0+255),w,b
  2596   001892  2572               	addwf	(??_os_start+3)& (0+255),w,b
  2597   001894  6F74               	movwf	(??_os_start+5)& (0+255),b
  2598   001896  5171               	movf	(??_os_start+2)& (0+255),w,b
  2599   001898  2173               	addwfc	(??_os_start+4)& (0+255),w,b
  2600   00189A  6F75               	movwf	(??_os_start+6)& (0+255),b
  2601   00189C  0E19               	movlw	25
  2602   00189E  2574               	addwf	(??_os_start+5)& (0+255),w,b
  2603   0018A0  6ED9               	movwf	fsr2l,c
  2604   0018A2  0E00               	movlw	0
  2605   0018A4  2175               	addwfc	(??_os_start+6)& (0+255),w,b
  2606   0018A6  6EDA               	movwf	fsr2h,c
  2607   0018A8  50DF               	movf	indf2,w,c
  2608   0018AA  6EFF               	movwf	255,c	;volatile
  2609   0018AC                     
  2610                           ; BSR set to: 0
  2611   0018AC  EE24  F0AE         	lfsr	2,_r_queue+469
  2612   0018B0  EE10 F074          	lfsr	1,116
  2613   0018B4  50DE               	movf	postinc2,w,c
  2614   0018B6  26E1               	addwf	fsr1l,f,c
  2615   0018B8  50DD               	movf	postdec2,w,c
  2616   0018BA  22E2               	addwfc	fsr1h,f,c
  2617   0018BC  50E7               	movf	indf1,w,c
  2618   0018BE  A4D8               	btfss	status,2,c
  2619   0018C0  EF64  F00C         	goto	u2501
  2620   0018C4  EF66  F00C         	goto	u2500
  2621   0018C8                     u2501:
  2622   0018C8  EFDF  F00B         	goto	l135
  2623   0018CC                     u2500:
  2624   0018CC  EFAD  F00C         	goto	l3288
  2625   0018D0                     l134:
  2626                           
  2627                           ; BSR set to: 0
  2628   0018D0  0005               	push		;# 
  2629   0018D2  EE24  F0AE         	lfsr	2,_r_queue+469
  2630   0018D6  EE10 F002          	lfsr	1,2
  2631   0018DA  50DE               	movf	postinc2,w,c
  2632   0018DC  26E1               	addwf	fsr1l,f,c
  2633   0018DE  50DD               	movf	postdec2,w,c
  2634   0018E0  22E2               	addwfc	fsr1h,f,c
  2635   0018E2  50E7               	movf	indf1,w,c
  2636   0018E4  6EFD               	movwf	253,c	;volatile
  2637   0018E6  EE24  F0AE         	lfsr	2,_r_queue+469
  2638   0018EA  EE10 F002          	lfsr	1,2
  2639   0018EE  50DE               	movf	postinc2,w,c
  2640   0018F0  26E1               	addwf	fsr1l,f,c
  2641   0018F2  50DD               	movf	postdec2,w,c
  2642   0018F4  22E2               	addwfc	fsr1h,f,c
  2643   0018F6  CFE6 F06F          	movff	postinc1,??_os_start
  2644   0018FA  CFE5 F070          	movff	postdec1,??_os_start+1
  2645   0018FE  C06F  F071         	movff	??_os_start,??_os_start+2
  2646   001902  C070  F072         	movff	??_os_start+1,??_os_start+3
  2647   001906  0100               	movlb	0	; () banked
  2648   001908  6B73               	clrf	(??_os_start+4)& (0+255),b
  2649   00190A  C072  F071         	movff	??_os_start+3,??_os_start+2
  2650   00190E  C073  F072         	movff	??_os_start+4,??_os_start+3
  2651   001912  6B73               	clrf	(??_os_start+4)& (0+255),b
  2652   001914  5171               	movf	(??_os_start+2)& (0+255),w,b
  2653   001916  6EFE               	movwf	254,c	;volatile
  2654   001918  0E10               	movlw	16
  2655   00191A  6F6F               	movwf	??_os_start& (0+255),b
  2656   00191C  EE24  F0AE         	lfsr	2,_r_queue+469
  2657   001920  EE10 F002          	lfsr	1,2
  2658   001924  50DE               	movf	postinc2,w,c
  2659   001926  26E1               	addwf	fsr1l,f,c
  2660   001928  50DD               	movf	postdec2,w,c
  2661   00192A  22E2               	addwfc	fsr1h,f,c
  2662   00192C  CFE6 F070          	movff	postinc1,??_os_start+1
  2663   001930  CFE5 F071          	movff	postdec1,??_os_start+2
  2664   001934  C070  F072         	movff	??_os_start+1,??_os_start+3
  2665   001938  C071  F073         	movff	??_os_start+2,??_os_start+4
  2666   00193C  6B74               	clrf	(??_os_start+5)& (0+255),b
  2667   00193E  296F               	incf	??_os_start& (0+255),w,b
  2668   001940  6F75               	movwf	(??_os_start+6)& (0+255),b
  2669   001942  EFA7  F00C         	goto	u2510
  2670   001946                     u2515:
  2671   001946  90D8               	bcf	status,0,c
  2672   001948  3374               	rrcf	(??_os_start+5)& (0+255),f,b
  2673   00194A  3373               	rrcf	(??_os_start+4)& (0+255),f,b
  2674   00194C  3372               	rrcf	(??_os_start+3)& (0+255),f,b
  2675   00194E                     u2510:
  2676   00194E  2F75               	decfsz	(??_os_start+6)& (0+255),f,b
  2677   001950  EFA3  F00C         	goto	u2515
  2678   001954  0100               	movlb	0	; () banked
  2679   001956  5172               	movf	(??_os_start+3)& (0+255),w,b
  2680   001958  6EFF               	movwf	255,c	;volatile
  2681   00195A                     l3288:
  2682                           
  2683                           ; BSR set to: 0
  2684   00195A  0E14               	movlw	20
  2685   00195C  6E44               	movwf	_rr_quantum^0,c
  2686   00195E                     l3290:
  2687                           
  2688                           ;kernel.c: 118:     INTCONbits.GIE = 1;;
  2689   00195E  8EF2               	bsf	242,7,c	;volatile
  2690   001960  0012               	return		;funcret
  2691   001962                     __end_of_os_start:
  2692                           	callstack 0
  2693                           
  2694 ;; *************** function _setup_hardware *****************
  2695 ;; Defined at:
  2696 ;;		line 10 in file "hw.c"
  2697 ;; Parameters:    Size  Location     Type
  2698 ;;		None
  2699 ;; Auto vars:     Size  Location     Type
  2700 ;;		None
  2701 ;; Return value:  Size  Location     Type
  2702 ;;                  1    wreg      void 
  2703 ;; Registers used:
  2704 ;;		wreg, status,2
  2705 ;; Tracked objects:
  2706 ;;		On entry : 0/0
  2707 ;;		On exit  : 0/0
  2708 ;;		Unchanged: 0/0
  2709 ;; Data sizes:     COMRAM   BANK0   BANK1   BANK2   BANK3   BANK4   BANK5   BANK6   BANK7   BANK8   BANK9  BANK10  BANK1
      +1  BANK12  BANK13  BANK14  BANK15
  2710 ;;      Params:         0       0       0       0       0       0       0       0       0       0       0       0       
      +0       0       0       0       0
  2711 ;;      Locals:         0       0       0       0       0       0       0       0       0       0       0       0       
      +0       0       0       0       0
  2712 ;;      Temps:          0       0       0       0       0       0       0       0       0       0       0       0       
      +0       0       0       0       0
  2713 ;;      Totals:         0       0       0       0       0       0       0       0       0       0       0       0       
      +0       0       0       0       0
  2714 ;;Total ram usage:        0 bytes
  2715 ;; Hardware stack levels used: 1
  2716 ;; Hardware stack levels required when called: 9
  2717 ;; This function calls:
  2718 ;;		Nothing
  2719 ;; This function is called by:
  2720 ;;		_os_start
  2721 ;; This function uses a non-reentrant model
  2722 ;;
  2723                           
  2724                           	psect	text2
  2725   002276                     __ptext2:
  2726                           	callstack 0
  2727   002276                     _setup_hardware:
  2728                           	callstack 20
  2729   002276                     
  2730                           ;hw.c: 13:     INTCONbits.TMR0IE = 1;
  2731   002276  8AF2               	bsf	242,5,c	;volatile
  2732                           
  2733                           ;hw.c: 14:     INTCONbits.TMR0IF = 0;
  2734   002278  94F2               	bcf	242,2,c	;volatile
  2735                           
  2736                           ;hw.c: 15:     T0CONbits.T08BIT = 1;
  2737   00227A  8CD5               	bsf	213,6,c	;volatile
  2738                           
  2739                           ;hw.c: 16:     T0CONbits.T0CS = 0;
  2740   00227C  9AD5               	bcf	213,5,c	;volatile
  2741                           
  2742                           ;hw.c: 17:     T0CONbits.PSA = 0;
  2743   00227E  96D5               	bcf	213,3,c	;volatile
  2744   002280                     
  2745                           ;hw.c: 18:     T0CONbits.T0PS = 0b111;
  2746   002280  0E07               	movlw	7
  2747   002282  12D5               	iorwf	213,f,c	;volatile
  2748   002284                     
  2749                           ;hw.c: 19:     T0CONbits.TMR0ON = 1;
  2750   002284  8ED5               	bsf	213,7,c	;volatile
  2751                           
  2752                           ;hw.c: 20:     TMR0 = 0;
  2753   002286  6AD7               	clrf	215,c	;volatile
  2754   002288  0E00               	movlw	0
  2755   00228A  6ED6               	movwf	214,c	;volatile
  2756   00228C  0012               	return		;funcret
  2757   00228E                     __end_of_setup_hardware:
  2758                           	callstack 0
  2759                           
  2760 ;; *************** function _scheduler *****************
  2761 ;; Defined at:
  2762 ;;		line 9 in file "scheduler.c"
  2763 ;; Parameters:    Size  Location     Type
  2764 ;;		None
  2765 ;; Auto vars:     Size  Location     Type
  2766 ;;		None
  2767 ;; Return value:  Size  Location     Type
  2768 ;;                  1    wreg      void 
  2769 ;; Registers used:
  2770 ;;		wreg, fsr2l, fsr2h, status,2, status,0, prodl, prodh, cstack
  2771 ;; Tracked objects:
  2772 ;;		On entry : 0/0
  2773 ;;		On exit  : 0/0
  2774 ;;		Unchanged: 0/0
  2775 ;; Data sizes:     COMRAM   BANK0   BANK1   BANK2   BANK3   BANK4   BANK5   BANK6   BANK7   BANK8   BANK9  BANK10  BANK1
      +1  BANK12  BANK13  BANK14  BANK15
  2776 ;;      Params:         0       0       0       0       0       0       0       0       0       0       0       0       
      +0       0       0       0       0
  2777 ;;      Locals:         0       0       0       0       0       0       0       0       0       0       0       0       
      +0       0       0       0       0
  2778 ;;      Temps:          0       3       0       0       0       0       0       0       0       0       0       0       
      +0       0       0       0       0
  2779 ;;      Totals:         0       3       0       0       0       0       0       0       0       0       0       0       
      +0       0       0       0       0
  2780 ;;Total ram usage:        3 bytes
  2781 ;; Hardware stack levels used: 1
  2782 ;; Hardware stack levels required when called: 11
  2783 ;; This function calls:
  2784 ;;		_priority_rr_scheduler
  2785 ;; This function is called by:
  2786 ;;		_os_start
  2787 ;;		_os_yield
  2788 ;;		_os_task_change_state
  2789 ;;		_sem_wait
  2790 ;;		_mutex_lock
  2791 ;; This function uses a non-reentrant model
  2792 ;;
  2793                           
  2794                           	psect	text3
  2795   002188                     __ptext3:
  2796                           	callstack 0
  2797   002188                     _scheduler:
  2798                           	callstack 18
  2799   002188                     
  2800                           ;scheduler.c: 15:     r_queue.pos_task_running = priority_rr_scheduler();
  2801   002188  ECB1  F00C         	call	_priority_rr_scheduler	;wreg free
  2802   00218C  0100               	movlb	0	; () banked
  2803   00218E  6F6C               	movwf	??_scheduler& (0+255),b
  2804   002190  C06C  F4B0         	movff	??_scheduler,_r_queue+471
  2805   002194                     
  2806                           ; BSR set to: 0
  2807                           ;scheduler.c: 17:     r_queue.task_running = &r_queue.TASKS[r_queue.pos_task_running];
  2808   002194  C4B0  F06C         	movff	_r_queue+471,??_scheduler
  2809   002198  516C               	movf	??_scheduler& (0+255),w,b
  2810   00219A  0D75               	mullw	117
  2811   00219C  0ED9               	movlw	low _r_queue
  2812   00219E  24F3               	addwf	243,w,c
  2813   0021A0  6F6D               	movwf	(??_scheduler+1)& (0+255),b
  2814   0021A2  0E02               	movlw	high _r_queue
  2815   0021A4  20F4               	addwfc	prodh,w,c
  2816   0021A6  6F6E               	movwf	(??_scheduler+2)& (0+255),b
  2817   0021A8  C06D  F4AE         	movff	??_scheduler+1,_r_queue+469
  2818   0021AC  C06E  F4AF         	movff	??_scheduler+2,_r_queue+470
  2819   0021B0                     
  2820                           ; BSR set to: 0
  2821   0021B0  0012               	return		;funcret
  2822   0021B2                     __end_of_scheduler:
  2823                           	callstack 0
  2824                           
  2825 ;; *************** function _priority_rr_scheduler *****************
  2826 ;; Defined at:
  2827 ;;		line 52 in file "scheduler.c"
  2828 ;; Parameters:    Size  Location     Type
  2829 ;;		None
  2830 ;; Auto vars:     Size  Location     Type
  2831 ;;  idx             1   10[BANK0 ] unsigned char 
  2832 ;;  i               1    9[BANK0 ] unsigned char 
  2833 ;;  i               1   11[BANK0 ] unsigned char 
  2834 ;;  found           1    8[BANK0 ] unsigned char 
  2835 ;;  max_prio        1    7[BANK0 ] unsigned char 
  2836 ;;  current         1    6[BANK0 ] unsigned char 
  2837 ;; Return value:  Size  Location     Type
  2838 ;;                  1    wreg      unsigned char 
  2839 ;; Registers used:
  2840 ;;		wreg, fsr2l, fsr2h, status,2, status,0, prodl, prodh, cstack
  2841 ;; Tracked objects:
  2842 ;;		On entry : 0/0
  2843 ;;		On exit  : 0/0
  2844 ;;		Unchanged: 0/0
  2845 ;; Data sizes:     COMRAM   BANK0   BANK1   BANK2   BANK3   BANK4   BANK5   BANK6   BANK7   BANK8   BANK9  BANK10  BANK1
      +1  BANK12  BANK13  BANK14  BANK15
  2846 ;;      Params:         0       0       0       0       0       0       0       0       0       0       0       0       
      +0       0       0       0       0
  2847 ;;      Locals:         0       6       0       0       0       0       0       0       0       0       0       0       
      +0       0       0       0       0
  2848 ;;      Temps:          1       0       0       0       0       0       0       0       0       0       0       0       
      +0       0       0       0       0
  2849 ;;      Totals:         1       6       0       0       0       0       0       0       0       0       0       0       
      +0       0       0       0       0
  2850 ;;Total ram usage:        7 bytes
  2851 ;; Hardware stack levels used: 1
  2852 ;; Hardware stack levels required when called: 10
  2853 ;; This function calls:
  2854 ;;		___awmod
  2855 ;; This function is called by:
  2856 ;;		_scheduler
  2857 ;; This function uses a non-reentrant model
  2858 ;;
  2859                           
  2860                           	psect	text4
  2861   001962                     __ptext4:
  2862                           	callstack 0
  2863   001962                     _priority_rr_scheduler:
  2864                           	callstack 18
  2865   001962                     
  2866                           ;scheduler.c: 53:     uint8_t max_prio = 0;
  2867   001962  0100               	movlb	0	; () banked
  2868   001964  6B67               	clrf	priority_rr_scheduler@max_prio& (0+255),b
  2869                           
  2870                           ;scheduler.c: 54:     uint8_t found = 0;
  2871   001966  6B68               	clrf	priority_rr_scheduler@found& (0+255),b
  2872                           
  2873                           ;scheduler.c: 57:     for (uint8_t i = 0; i < r_queue.size; i++) {
  2874   001968  6B6B               	clrf	priority_rr_scheduler@i& (0+255),b
  2875   00196A  EFED  F00C         	goto	l3152
  2876   00196E                     l3140:
  2877                           
  2878                           ; BSR set to: 0
  2879                           ;scheduler.c: 58:         if (r_queue.TASKS[i].task_state == READY) {
  2880   00196E  516B               	movf	priority_rr_scheduler@i& (0+255),w,b
  2881   001970  0D75               	mullw	117
  2882   001972  0EDA               	movlw	low (_r_queue+1)
  2883   001974  24F3               	addwf	243,w,c
  2884   001976  6ED9               	movwf	fsr2l,c
  2885   001978  0E02               	movlw	high (_r_queue+1)
  2886   00197A  20F4               	addwfc	prodh,w,c
  2887   00197C  6EDA               	movwf	fsr2h,c
  2888   00197E  50DF               	movf	indf2,w,c
  2889   001980  A4D8               	btfss	status,2,c
  2890   001982  EFC5  F00C         	goto	u2381
  2891   001986  EFC7  F00C         	goto	u2380
  2892   00198A                     u2381:
  2893   00198A  EFEC  F00C         	goto	l3150
  2894   00198E                     u2380:
  2895   00198E                     
  2896                           ; BSR set to: 0
  2897                           ;scheduler.c: 59:             if (!found || r_queue.TASKS[i].task_priority > max_prio) {
  2898   00198E  5168               	movf	priority_rr_scheduler@found& (0+255),w,b
  2899   001990  B4D8               	btfsc	status,2,c
  2900   001992  EFCD  F00C         	goto	u2391
  2901   001996  EFCF  F00C         	goto	u2390
  2902   00199A                     u2391:
  2903   00199A  EFE0  F00C         	goto	l3146
  2904   00199E                     u2390:
  2905   00199E                     
  2906                           ; BSR set to: 0
  2907   00199E  516B               	movf	priority_rr_scheduler@i& (0+255),w,b
  2908   0019A0  0D75               	mullw	117
  2909   0019A2  0EDE               	movlw	low (_r_queue+5)
  2910   0019A4  24F3               	addwf	243,w,c
  2911   0019A6  6ED9               	movwf	fsr2l,c
  2912   0019A8  0E02               	movlw	high (_r_queue+5)
  2913   0019AA  20F4               	addwfc	prodh,w,c
  2914   0019AC  6EDA               	movwf	fsr2h,c
  2915   0019AE  50DE               	movf	postinc2,w,c
  2916   0019B0  5D67               	subwf	priority_rr_scheduler@max_prio& (0+255),w,b
  2917   0019B2  B0D8               	btfsc	status,0,c
  2918   0019B4  EFDE  F00C         	goto	u2401
  2919   0019B8  EFE0  F00C         	goto	u2400
  2920   0019BC                     u2401:
  2921   0019BC  EFEC  F00C         	goto	l3150
  2922   0019C0                     u2400:
  2923   0019C0                     l3146:
  2924                           
  2925                           ; BSR set to: 0
  2926                           ;scheduler.c: 60:                 max_prio = r_queue.TASKS[i].task_priority;
  2927   0019C0  516B               	movf	priority_rr_scheduler@i& (0+255),w,b
  2928   0019C2  0D75               	mullw	117
  2929   0019C4  0EDE               	movlw	low (_r_queue+5)
  2930   0019C6  24F3               	addwf	243,w,c
  2931   0019C8  6ED9               	movwf	fsr2l,c
  2932   0019CA  0E02               	movlw	high (_r_queue+5)
  2933   0019CC  20F4               	addwfc	prodh,w,c
  2934   0019CE  6EDA               	movwf	fsr2h,c
  2935   0019D0  50DF               	movf	indf2,w,c
  2936   0019D2  6F67               	movwf	priority_rr_scheduler@max_prio& (0+255),b
  2937   0019D4                     
  2938                           ; BSR set to: 0
  2939                           ;scheduler.c: 61:                 found = 1;
  2940   0019D4  0E01               	movlw	1
  2941   0019D6  6F68               	movwf	priority_rr_scheduler@found& (0+255),b
  2942   0019D8                     l3150:
  2943                           
  2944                           ; BSR set to: 0
  2945                           ;scheduler.c: 64:     }
  2946   0019D8  2B6B               	incf	priority_rr_scheduler@i& (0+255),f,b
  2947   0019DA                     l3152:
  2948                           
  2949                           ; BSR set to: 0
  2950   0019DA  EE24  F0AD         	lfsr	2,_r_queue+468
  2951   0019DE  50DE               	movf	postinc2,w,c
  2952   0019E0  5D6B               	subwf	priority_rr_scheduler@i& (0+255),w,b
  2953   0019E2  A0D8               	btfss	status,0,c
  2954   0019E4  EFF6  F00C         	goto	u2411
  2955   0019E8  EFF8  F00C         	goto	u2410
  2956   0019EC                     u2411:
  2957   0019EC  EFB7  F00C         	goto	l3140
  2958   0019F0                     u2410:
  2959   0019F0                     
  2960                           ; BSR set to: 0
  2961                           ;scheduler.c: 65:     if (!found)return 0;
  2962   0019F0  5168               	movf	priority_rr_scheduler@found& (0+255),w,b
  2963   0019F2  A4D8               	btfss	status,2,c
  2964   0019F4  EFFE  F00C         	goto	u2421
  2965   0019F8  EF00  F00D         	goto	u2420
  2966   0019FC                     u2421:
  2967   0019FC  EF03  F00D         	goto	l509
  2968   001A00                     u2420:
  2969   001A00                     l3156:
  2970                           
  2971                           ; BSR set to: 0
  2972   001A00  0E00               	movlw	0
  2973   001A02  EF49  F00D         	goto	l510
  2974   001A06                     l509:
  2975                           
  2976                           ; BSR set to: 0
  2977                           ;scheduler.c: 66:     uint8_t current = r_queue.pos_task_running;
  2978   001A06  C4B0  F066         	movff	_r_queue+471,priority_rr_scheduler@current
  2979                           
  2980                           ;scheduler.c: 68:     for (uint8_t i = 0; i < r_queue.size; i++) {
  2981   001A0A  6B69               	clrf	priority_rr_scheduler@i_1482& (0+255),b
  2982   001A0C  EF3C  F00D         	goto	l3172
  2983   001A10                     l3160:
  2984                           
  2985                           ; BSR set to: 0
  2986                           ;scheduler.c: 69:         uint8_t idx = (current + i) % r_queue.size;
  2987   001A10  5166               	movf	priority_rr_scheduler@current& (0+255),w,b
  2988   001A12  2569               	addwf	priority_rr_scheduler@i_1482& (0+255),w,b
  2989   001A14  6F60               	movwf	___awmod@dividend& (0+255),b
  2990   001A16  6B61               	clrf	(___awmod@dividend+1)& (0+255),b
  2991   001A18  3761               	rlcf	(___awmod@dividend+1)& (0+255),f,b
  2992   001A1A  C4AD  F03F         	movff	_r_queue+468,??_priority_rr_scheduler
  2993   001A1E  503F               	movf	??_priority_rr_scheduler^0,w,c
  2994   001A20  6F62               	movwf	___awmod@divisor& (0+255),b
  2995   001A22  6B63               	clrf	(___awmod@divisor+1)& (0+255),b
  2996   001A24  EC78  F00E         	call	___awmod	;wreg free
  2997   001A28  0100               	movlb	0	; () banked
  2998   001A2A  5160               	movf	?___awmod& (0+255),w,b
  2999   001A2C  6F6A               	movwf	priority_rr_scheduler@idx& (0+255),b
  3000   001A2E                     
  3001                           ; BSR set to: 0
  3002                           ;scheduler.c: 70:         if (r_queue.TASKS[idx].task_state == READY &&
  3003   001A2E  516A               	movf	priority_rr_scheduler@idx& (0+255),w,b
  3004   001A30  0D75               	mullw	117
  3005   001A32  0EDA               	movlw	low (_r_queue+1)
  3006   001A34  24F3               	addwf	243,w,c
  3007   001A36  6ED9               	movwf	fsr2l,c
  3008   001A38  0E02               	movlw	high (_r_queue+1)
  3009   001A3A  20F4               	addwfc	prodh,w,c
  3010   001A3C  6EDA               	movwf	fsr2h,c
  3011   001A3E  50DF               	movf	indf2,w,c
  3012   001A40  A4D8               	btfss	status,2,c
  3013   001A42  EF25  F00D         	goto	u2431
  3014   001A46  EF27  F00D         	goto	u2430
  3015   001A4A                     u2431:
  3016   001A4A  EF3B  F00D         	goto	l3170
  3017   001A4E                     u2430:
  3018   001A4E                     
  3019                           ; BSR set to: 0
  3020   001A4E  516A               	movf	priority_rr_scheduler@idx& (0+255),w,b
  3021   001A50  0D75               	mullw	117
  3022   001A52  0EDE               	movlw	low (_r_queue+5)
  3023   001A54  24F3               	addwf	243,w,c
  3024   001A56  6ED9               	movwf	fsr2l,c
  3025   001A58  0E02               	movlw	high (_r_queue+5)
  3026   001A5A  20F4               	addwfc	prodh,w,c
  3027   001A5C  6EDA               	movwf	fsr2h,c
  3028   001A5E  5167               	movf	priority_rr_scheduler@max_prio& (0+255),w,b
  3029   001A60  18DE               	xorwf	postinc2,w,c
  3030   001A62  A4D8               	btfss	status,2,c
  3031   001A64  EF36  F00D         	goto	u2441
  3032   001A68  EF38  F00D         	goto	u2440
  3033   001A6C                     u2441:
  3034   001A6C  EF3B  F00D         	goto	l3170
  3035   001A70                     u2440:
  3036   001A70                     
  3037                           ; BSR set to: 0
  3038                           ;scheduler.c: 71:             r_queue.TASKS[idx].task_priority == max_prio) {;scheduler.
      +                          c: 72:             return idx;
  3039   001A70  516A               	movf	priority_rr_scheduler@idx& (0+255),w,b
  3040   001A72  EF49  F00D         	goto	l510
  3041   001A76                     l3170:
  3042                           
  3043                           ; BSR set to: 0
  3044                           ;scheduler.c: 74:     }
  3045   001A76  2B69               	incf	priority_rr_scheduler@i_1482& (0+255),f,b
  3046   001A78                     l3172:
  3047                           
  3048                           ; BSR set to: 0
  3049   001A78  EE24  F0AD         	lfsr	2,_r_queue+468
  3050   001A7C  50DE               	movf	postinc2,w,c
  3051   001A7E  5D69               	subwf	priority_rr_scheduler@i_1482& (0+255),w,b
  3052   001A80  A0D8               	btfss	status,0,c
  3053   001A82  EF45  F00D         	goto	u2451
  3054   001A86  EF47  F00D         	goto	u2450
  3055   001A8A                     u2451:
  3056   001A8A  EF08  F00D         	goto	l3160
  3057   001A8E                     u2450:
  3058   001A8E  EF00  F00D         	goto	l3156
  3059   001A92                     l510:
  3060                           
  3061                           ; BSR set to: 0
  3062   001A92  0012               	return		;funcret
  3063   001A94                     __end_of_priority_rr_scheduler:
  3064                           	callstack 0
  3065                           
  3066 ;; *************** function ___awmod *****************
  3067 ;; Defined at:
  3068 ;;		line 7 in file "C:\Program Files\Microchip\xc8\v3.10\pic\sources\c99\common\awmod.c"
  3069 ;; Parameters:    Size  Location     Type
  3070 ;;  dividend        2    0[BANK0 ] int 
  3071 ;;  divisor         2    2[BANK0 ] int 
  3072 ;; Auto vars:     Size  Location     Type
  3073 ;;  sign            1    5[BANK0 ] unsigned char 
  3074 ;;  counter         1    4[BANK0 ] unsigned char 
  3075 ;; Return value:  Size  Location     Type
  3076 ;;                  2    0[BANK0 ] int 
  3077 ;; Registers used:
  3078 ;;		wreg, status,2, status,0
  3079 ;; Tracked objects:
  3080 ;;		On entry : 0/0
  3081 ;;		On exit  : 0/0
  3082 ;;		Unchanged: 0/0
  3083 ;; Data sizes:     COMRAM   BANK0   BANK1   BANK2   BANK3   BANK4   BANK5   BANK6   BANK7   BANK8   BANK9  BANK10  BANK1
      +1  BANK12  BANK13  BANK14  BANK15
  3084 ;;      Params:         0       4       0       0       0       0       0       0       0       0       0       0       
      +0       0       0       0       0
  3085 ;;      Locals:         0       2       0       0       0       0       0       0       0       0       0       0       
      +0       0       0       0       0
  3086 ;;      Temps:          0       0       0       0       0       0       0       0       0       0       0       0       
      +0       0       0       0       0
  3087 ;;      Totals:         0       6       0       0       0       0       0       0       0       0       0       0       
      +0       0       0       0       0
  3088 ;;Total ram usage:        6 bytes
  3089 ;; Hardware stack levels used: 1
  3090 ;; Hardware stack levels required when called: 9
  3091 ;; This function calls:
  3092 ;;		Nothing
  3093 ;; This function is called by:
  3094 ;;		_priority_rr_scheduler
  3095 ;;		_sem_wait
  3096 ;;		_sem_post
  3097 ;;		_mutex_lock
  3098 ;;		_mutex_unlock
  3099 ;;		_LED_1
  3100 ;;		_RR_scheduler
  3101 ;;		_priority_scheduler
  3102 ;; This function uses a non-reentrant model
  3103 ;;
  3104                           
  3105                           	psect	text5
  3106   001CF0                     __ptext5:
  3107                           	callstack 0
  3108   001CF0                     ___awmod:
  3109                           	callstack 18
  3110   001CF0  0100               	movlb	0	; () banked
  3111   001CF2  6B65               	clrf	___awmod@sign& (0+255),b
  3112   001CF4                     
  3113                           ; BSR set to: 0
  3114   001CF4  BF61               	btfsc	(___awmod@dividend+1)& (0+255),7,b
  3115   001CF6  EF81  F00E         	goto	u2320
  3116   001CFA  EF7F  F00E         	goto	u2321
  3117   001CFE                     u2321:
  3118   001CFE  EF87  F00E         	goto	l3104
  3119   001D02                     u2320:
  3120   001D02                     
  3121                           ; BSR set to: 0
  3122   001D02  6D60               	negf	___awmod@dividend& (0+255),b
  3123   001D04  1F61               	comf	(___awmod@dividend+1)& (0+255),f,b
  3124   001D06  B0D8               	btfsc	status,0,c
  3125   001D08  2B61               	incf	(___awmod@dividend+1)& (0+255),f,b
  3126   001D0A                     
  3127                           ; BSR set to: 0
  3128   001D0A  0E01               	movlw	1
  3129   001D0C  6F65               	movwf	___awmod@sign& (0+255),b
  3130   001D0E                     l3104:
  3131                           
  3132                           ; BSR set to: 0
  3133   001D0E  BF63               	btfsc	(___awmod@divisor+1)& (0+255),7,b
  3134   001D10  EF8E  F00E         	goto	u2330
  3135   001D14  EF8C  F00E         	goto	u2331
  3136   001D18                     u2331:
  3137   001D18  EF92  F00E         	goto	l3108
  3138   001D1C                     u2330:
  3139   001D1C                     
  3140                           ; BSR set to: 0
  3141   001D1C  6D62               	negf	___awmod@divisor& (0+255),b
  3142   001D1E  1F63               	comf	(___awmod@divisor+1)& (0+255),f,b
  3143   001D20  B0D8               	btfsc	status,0,c
  3144   001D22  2B63               	incf	(___awmod@divisor+1)& (0+255),f,b
  3145   001D24                     l3108:
  3146                           
  3147                           ; BSR set to: 0
  3148   001D24  5162               	movf	___awmod@divisor& (0+255),w,b
  3149   001D26  1163               	iorwf	(___awmod@divisor+1)& (0+255),w,b
  3150   001D28  B4D8               	btfsc	status,2,c
  3151   001D2A  EF99  F00E         	goto	u2341
  3152   001D2E  EF9B  F00E         	goto	u2340
  3153   001D32                     u2341:
  3154   001D32  EFBF  F00E         	goto	l3124
  3155   001D36                     u2340:
  3156   001D36                     
  3157                           ; BSR set to: 0
  3158   001D36  0E01               	movlw	1
  3159   001D38  6F64               	movwf	___awmod@counter& (0+255),b
  3160   001D3A  EFA3  F00E         	goto	l3114
  3161   001D3E                     l3112:
  3162                           
  3163                           ; BSR set to: 0
  3164   001D3E  90D8               	bcf	status,0,c
  3165   001D40  3762               	rlcf	___awmod@divisor& (0+255),f,b
  3166   001D42  3763               	rlcf	(___awmod@divisor+1)& (0+255),f,b
  3167   001D44  2B64               	incf	___awmod@counter& (0+255),f,b
  3168   001D46                     l3114:
  3169                           
  3170                           ; BSR set to: 0
  3171   001D46  AF63               	btfss	(___awmod@divisor+1)& (0+255),7,b
  3172   001D48  EFA8  F00E         	goto	u2351
  3173   001D4C  EFAA  F00E         	goto	u2350
  3174   001D50                     u2351:
  3175   001D50  EF9F  F00E         	goto	l3112
  3176   001D54                     u2350:
  3177   001D54                     l3116:
  3178                           
  3179                           ; BSR set to: 0
  3180   001D54  5162               	movf	___awmod@divisor& (0+255),w,b
  3181   001D56  5D60               	subwf	___awmod@dividend& (0+255),w,b
  3182   001D58  5163               	movf	(___awmod@divisor+1)& (0+255),w,b
  3183   001D5A  5961               	subwfb	(___awmod@dividend+1)& (0+255),w,b
  3184   001D5C  A0D8               	btfss	status,0,c
  3185   001D5E  EFB3  F00E         	goto	u2361
  3186   001D62  EFB5  F00E         	goto	u2360
  3187   001D66                     u2361:
  3188   001D66  EFB9  F00E         	goto	l3120
  3189   001D6A                     u2360:
  3190   001D6A                     
  3191                           ; BSR set to: 0
  3192   001D6A  5162               	movf	___awmod@divisor& (0+255),w,b
  3193   001D6C  5F60               	subwf	___awmod@dividend& (0+255),f,b
  3194   001D6E  5163               	movf	(___awmod@divisor+1)& (0+255),w,b
  3195   001D70  5B61               	subwfb	(___awmod@dividend+1)& (0+255),f,b
  3196   001D72                     l3120:
  3197                           
  3198                           ; BSR set to: 0
  3199   001D72  90D8               	bcf	status,0,c
  3200   001D74  3363               	rrcf	(___awmod@divisor+1)& (0+255),f,b
  3201   001D76  3362               	rrcf	___awmod@divisor& (0+255),f,b
  3202   001D78                     
  3203                           ; BSR set to: 0
  3204   001D78  2F64               	decfsz	___awmod@counter& (0+255),f,b
  3205   001D7A  EFAA  F00E         	goto	l3116
  3206   001D7E                     l3124:
  3207                           
  3208                           ; BSR set to: 0
  3209   001D7E  5165               	movf	___awmod@sign& (0+255),w,b
  3210   001D80  B4D8               	btfsc	status,2,c
  3211   001D82  EFC5  F00E         	goto	u2371
  3212   001D86  EFC7  F00E         	goto	u2370
  3213   001D8A                     u2371:
  3214   001D8A  EFCB  F00E         	goto	l3128
  3215   001D8E                     u2370:
  3216   001D8E                     
  3217                           ; BSR set to: 0
  3218   001D8E  6D60               	negf	___awmod@dividend& (0+255),b
  3219   001D90  1F61               	comf	(___awmod@dividend+1)& (0+255),f,b
  3220   001D92  B0D8               	btfsc	status,0,c
  3221   001D94  2B61               	incf	(___awmod@dividend+1)& (0+255),f,b
  3222   001D96                     l3128:
  3223                           
  3224                           ; BSR set to: 0
  3225   001D96  C060  F060         	movff	___awmod@dividend,?___awmod
  3226   001D9A  C061  F061         	movff	___awmod@dividend+1,?___awmod+1
  3227   001D9E                     
  3228                           ; BSR set to: 0
  3229   001D9E  0012               	return		;funcret
  3230   001DA0                     __end_of___awmod:
  3231                           	callstack 0
  3232                           
  3233 ;; *************** function _os_config *****************
  3234 ;; Defined at:
  3235 ;;		line 67 in file "kernel.c"
  3236 ;; Parameters:    Size  Location     Type
  3237 ;;		None
  3238 ;; Auto vars:     Size  Location     Type
  3239 ;;		None
  3240 ;; Return value:  Size  Location     Type
  3241 ;;                  1    wreg      void 
  3242 ;; Registers used:
  3243 ;;		wreg, fsr1l, fsr1h, fsr2l, fsr2h, status,2, status,0, prodl, prodh, cstack
  3244 ;; Tracked objects:
  3245 ;;		On entry : 0/0
  3246 ;;		On exit  : 0/0
  3247 ;;		Unchanged: 0/0
  3248 ;; Data sizes:     COMRAM   BANK0   BANK1   BANK2   BANK3   BANK4   BANK5   BANK6   BANK7   BANK8   BANK9  BANK10  BANK1
      +1  BANK12  BANK13  BANK14  BANK15
  3249 ;;      Params:         0       0       0       0       0       0       0       0       0       0       0       0       
      +0       0       0       0       0
  3250 ;;      Locals:         0       0       0       0       0       0       0       0       0       0       0       0       
      +0       0       0       0       0
  3251 ;;      Temps:          0       0       0       0       0       0       0       0       0       0       0       0       
      +0       0       0       0       0
  3252 ;;      Totals:         0       0       0       0       0       0       0       0       0       0       0       0       
      +0       0       0       0       0
  3253 ;;Total ram usage:        0 bytes
  3254 ;; Hardware stack levels used: 1
  3255 ;; Hardware stack levels required when called: 12
  3256 ;; This function calls:
  3257 ;;		_SRAMInitHeap
  3258 ;;		_config_user
  3259 ;;		_os_create_task
  3260 ;; This function is called by:
  3261 ;;		_main
  3262 ;; This function uses a non-reentrant model
  3263 ;;
  3264                           
  3265                           	psect	text6
  3266   0020BA                     __ptext6:
  3267                           	callstack 0
  3268   0020BA                     _os_config:
  3269                           	callstack 18
  3270   0020BA                     
  3271                           ;kernel.c: 69:     r_queue.size = 0;
  3272   0020BA  0E00               	movlw	0
  3273   0020BC  CFE8 F4AD          	movff	wreg,_r_queue+468
  3274                           
  3275                           ;kernel.c: 70:     r_queue.task_running = &r_queue.TASKS[0];
  3276   0020C0  0ED9               	movlw	low _r_queue
  3277   0020C2  CFE8 F4AE          	movff	wreg,_r_queue+469
  3278   0020C6  0E02               	movlw	high _r_queue
  3279   0020C8  CFE8 F4AF          	movff	wreg,_r_queue+470
  3280                           
  3281                           ;kernel.c: 71:     r_queue.pos_task_running = 0;
  3282   0020CC  0E00               	movlw	0
  3283   0020CE  CFE8 F4B0          	movff	wreg,_r_queue+471
  3284   0020D2                     
  3285                           ;kernel.c: 74:     SRAMInitHeap();
  3286   0020D2  ECB4  F00F         	call	_SRAMInitHeap	;wreg free
  3287   0020D6                     
  3288                           ;kernel.c: 77:     os_create_task(1, idle, 0);
  3289   0020D6  0EB2               	movlw	low _idle
  3290   0020D8  0100               	movlb	0	; () banked
  3291   0020DA  6F60               	movwf	os_create_task@func& (0+255),b
  3292   0020DC  0E21               	movlw	high _idle
  3293   0020DE  6F61               	movwf	(os_create_task@func+1)& (0+255),b
  3294   0020E0  0E00               	movlw	0
  3295   0020E2  6F62               	movwf	os_create_task@prior& (0+255),b
  3296   0020E4  0E01               	movlw	1
  3297   0020E6  EC7E  F00F         	call	_os_create_task	;# 
  3298   0020EA                     
  3299                           ;kernel.c: 80:     config_user();
  3300   0020EA  EC78  F010         	call	_config_user	;wreg free
  3301   0020EE  0012               	return		;funcret
  3302   0020F0                     __end_of_os_config:
  3303                           	callstack 0
  3304                           
  3305 ;; *************** function _os_create_task *****************
  3306 ;; Defined at:
  3307 ;;		line 23 in file "kernel.c"
  3308 ;; Parameters:    Size  Location     Type
  3309 ;;  id              1    wreg     unsigned char 
  3310 ;;  func            2    0[BANK0 ] PTR FTN()void 
  3311 ;;		 -> idle(1), tarefaLeituraADC_UART(1), 
  3312 ;;  prior           1    2[BANK0 ] unsigned char 
  3313 ;; Auto vars:     Size  Location     Type
  3314 ;;  id              1    3[BANK0 ] unsigned char 
  3315 ;;  new_task      117    4[BANK0 ] struct tcb
  3316 ;; Return value:  Size  Location     Type
  3317 ;;                  1    wreg      void 
  3318 ;; Registers used:
  3319 ;;		wreg, fsr1l, fsr1h, fsr2l, fsr2h, status,2, status,0, prodl, prodh
  3320 ;; Tracked objects:
  3321 ;;		On entry : 0/0
  3322 ;;		On exit  : 0/0
  3323 ;;		Unchanged: 0/0
  3324 ;; Data sizes:     COMRAM   BANK0   BANK1   BANK2   BANK3   BANK4   BANK5   BANK6   BANK7   BANK8   BANK9  BANK10  BANK1
      +1  BANK12  BANK13  BANK14  BANK15
  3325 ;;      Params:         0       3       0       0       0       0       0       0       0       0       0       0       
      +0       0       0       0       0
  3326 ;;      Locals:         0     118       0       0       0       0       0       0       0       0       0       0       
      +0       0       0       0       0
  3327 ;;      Temps:          1       0       0       0       0       0       0       0       0       0       0       0       
      +0       0       0       0       0
  3328 ;;      Totals:         1     121       0       0       0       0       0       0       0       0       0       0       
      +0       0       0       0       0
  3329 ;;Total ram usage:      122 bytes
  3330 ;; Hardware stack levels used: 1
  3331 ;; Hardware stack levels required when called: 9
  3332 ;; This function calls:
  3333 ;;		Nothing
  3334 ;; This function is called by:
  3335 ;;		_main
  3336 ;;		_os_config
  3337 ;; This function uses a non-reentrant model
  3338 ;;
  3339                           
  3340                           	psect	text7
  3341   001EFC                     __ptext7:
  3342                           	callstack 0
  3343   001EFC                     _os_create_task:
  3344                           	callstack 20
  3345                           
  3346                           ;incstack = 0
  3347                           ;os_create_task@id stored from wreg
  3348   001EFC  0100               	movlb	0	; () banked
  3349   001EFE  6F63               	movwf	os_create_task@id& (0+255),b
  3350   001F00                     
  3351                           ;kernel.c: 23: void os_create_task(uint8_t id, f_ptr func, uint8_t prior);kernel.c: 24: 
      +                          {;kernel.c: 25:     tcb_t new_task;;kernel.c: 27:     new_task.task_id = id;
  3352   001F00  C063  F064         	movff	os_create_task@id,os_create_task@new_task
  3353   001F04                     
  3354                           ;kernel.c: 28:     new_task.task_delay = 0;
  3355   001F04  0100               	movlb	0	; () banked
  3356   001F06  6B68               	clrf	(os_create_task@new_task+4)& (0+255),b
  3357   001F08                     
  3358                           ; BSR set to: 0
  3359                           ;kernel.c: 29:     new_task.task_priority = prior;
  3360   001F08  C062  F069         	movff	os_create_task@prior,os_create_task@new_task+5
  3361   001F0C                     
  3362                           ; BSR set to: 0
  3363                           ;kernel.c: 30:     new_task.task_ptr = func;
  3364   001F0C  C060  F066         	movff	os_create_task@func,os_create_task@new_task+2
  3365   001F10  C061  F067         	movff	os_create_task@func+1,os_create_task@new_task+3
  3366   001F14                     
  3367                           ; BSR set to: 0
  3368                           ;kernel.c: 31:     new_task.task_state = READY;
  3369   001F14  6B65               	clrf	(os_create_task@new_task+1)& (0+255),b
  3370   001F16                     
  3371                           ; BSR set to: 0
  3372                           ;kernel.c: 33:     new_task.BSR_REG = 0;
  3373   001F16  6B6C               	clrf	(os_create_task@new_task+8)& (0+255),b
  3374   001F18                     
  3375                           ; BSR set to: 0
  3376                           ;kernel.c: 34:     new_task.FSR0H_REG = 0;
  3377   001F18  6B70               	clrf	(os_create_task@new_task+12)& (0+255),b
  3378   001F1A                     
  3379                           ; BSR set to: 0
  3380                           ;kernel.c: 35:     new_task.FSR0L_REG = 0;
  3381   001F1A  6B6F               	clrf	(os_create_task@new_task+11)& (0+255),b
  3382   001F1C                     
  3383                           ; BSR set to: 0
  3384                           ;kernel.c: 36:     new_task.FSR1H_REG = 0;
  3385   001F1C  6B72               	clrf	(os_create_task@new_task+14)& (0+255),b
  3386   001F1E                     
  3387                           ; BSR set to: 0
  3388                           ;kernel.c: 37:     new_task.FSR1L_REG = 0;
  3389   001F1E  6B71               	clrf	(os_create_task@new_task+13)& (0+255),b
  3390   001F20                     
  3391                           ; BSR set to: 0
  3392                           ;kernel.c: 38:     new_task.FSR2H_REG = 0;
  3393   001F20  6B74               	clrf	(os_create_task@new_task+16)& (0+255),b
  3394   001F22                     
  3395                           ; BSR set to: 0
  3396                           ;kernel.c: 39:     new_task.FSR2L_REG = 0;
  3397   001F22  6B73               	clrf	(os_create_task@new_task+15)& (0+255),b
  3398   001F24                     
  3399                           ; BSR set to: 0
  3400                           ;kernel.c: 40:     new_task.PCLATH_REG = 0;
  3401   001F24  6B79               	clrf	(os_create_task@new_task+21)& (0+255),b
  3402   001F26                     
  3403                           ; BSR set to: 0
  3404                           ;kernel.c: 41:     new_task.PCLATU_REG = 0;
  3405   001F26  6B7A               	clrf	(os_create_task@new_task+22)& (0+255),b
  3406   001F28                     
  3407                           ; BSR set to: 0
  3408                           ;kernel.c: 42:     new_task.PRODH_REG = 0;
  3409   001F28  6B6E               	clrf	(os_create_task@new_task+10)& (0+255),b
  3410   001F2A                     
  3411                           ; BSR set to: 0
  3412                           ;kernel.c: 43:     new_task.PRODL_REG = 0;
  3413   001F2A  6B6D               	clrf	(os_create_task@new_task+9)& (0+255),b
  3414   001F2C                     
  3415                           ; BSR set to: 0
  3416                           ;kernel.c: 44:     new_task.STATUS_REG = 0;
  3417   001F2C  6B6B               	clrf	(os_create_task@new_task+7)& (0+255),b
  3418   001F2E                     
  3419                           ; BSR set to: 0
  3420                           ;kernel.c: 45:     new_task.TABLAT_REG = 0;
  3421   001F2E  6B75               	clrf	(os_create_task@new_task+17)& (0+255),b
  3422   001F30                     
  3423                           ; BSR set to: 0
  3424                           ;kernel.c: 46:     new_task.TBLPTRH_REG = 0;
  3425   001F30  6B77               	clrf	(os_create_task@new_task+19)& (0+255),b
  3426   001F32                     
  3427                           ; BSR set to: 0
  3428                           ;kernel.c: 47:     new_task.TBLPTRL_REG = 0;
  3429   001F32  6B76               	clrf	(os_create_task@new_task+18)& (0+255),b
  3430   001F34                     
  3431                           ; BSR set to: 0
  3432                           ;kernel.c: 48:     new_task.TBLPTRU_REG = 0;
  3433   001F34  6B78               	clrf	(os_create_task@new_task+20)& (0+255),b
  3434   001F36                     
  3435                           ; BSR set to: 0
  3436                           ;kernel.c: 49:     new_task.W_REG = 0;
  3437   001F36  6B6A               	clrf	(os_create_task@new_task+6)& (0+255),b
  3438   001F38                     
  3439                           ; BSR set to: 0
  3440                           ;kernel.c: 50:     new_task.task_stack.stack_size = 0;
  3441   001F38  6BD8               	clrf	(os_create_task@new_task+116)& (0+255),b
  3442   001F3A                     
  3443                           ; BSR set to: 0
  3444                           ;kernel.c: 53:     r_queue.TASKS[r_queue.size++] = new_task;
  3445   001F3A  EE20  F064         	lfsr	2,os_create_task@new_task
  3446   001F3E  C4AD  F03F         	movff	_r_queue+468,??_os_create_task
  3447   001F42  503F               	movf	??_os_create_task^0,w,c
  3448   001F44  0D75               	mullw	117
  3449   001F46  0ED9               	movlw	low _r_queue
  3450   001F48  24F3               	addwf	243,w,c
  3451   001F4A  6EE1               	movwf	fsr1l,c
  3452   001F4C  0E02               	movlw	high _r_queue
  3453   001F4E  20F4               	addwfc	prodh,w,c
  3454   001F50  6EE2               	movwf	fsr1h,c
  3455   001F52  0E74               	movlw	116
  3456   001F54                     u2461:
  3457   001F54  CFDB FFE3          	movff	plusw2,plusw1
  3458   001F58  06E8               	decf	wreg,f,c
  3459   001F5A  E2FC               	bc	u2461
  3460   001F5C                     
  3461                           ; BSR set to: 0
  3462   001F5C  C4AD  FFE8         	movff	_r_queue+468,wreg
  3463   001F60  0F01               	addlw	1
  3464   001F62  CFE8 F4AD          	movff	wreg,_r_queue+468
  3465   001F66                     
  3466                           ; BSR set to: 0
  3467   001F66  0012               	return		;funcret
  3468   001F68                     __end_of_os_create_task:
  3469                           	callstack 0
  3470                           
  3471 ;; *************** function _config_user *****************
  3472 ;; Defined at:
  3473 ;;		line 12 in file "user.c"
  3474 ;; Parameters:    Size  Location     Type
  3475 ;;		None
  3476 ;; Auto vars:     Size  Location     Type
  3477 ;;		None
  3478 ;; Return value:  Size  Location     Type
  3479 ;;                  1    wreg      void 
  3480 ;; Registers used:
  3481 ;;		wreg, fsr2l, fsr2h, status,2, status,0, cstack
  3482 ;; Tracked objects:
  3483 ;;		On entry : 0/0
  3484 ;;		On exit  : 0/0
  3485 ;;		Unchanged: 0/0
  3486 ;; Data sizes:     COMRAM   BANK0   BANK1   BANK2   BANK3   BANK4   BANK5   BANK6   BANK7   BANK8   BANK9  BANK10  BANK1
      +1  BANK12  BANK13  BANK14  BANK15
  3487 ;;      Params:         0       0       0       0       0       0       0       0       0       0       0       0       
      +0       0       0       0       0
  3488 ;;      Locals:         0       0       0       0       0       0       0       0       0       0       0       0       
      +0       0       0       0       0
  3489 ;;      Temps:          0       0       0       0       0       0       0       0       0       0       0       0       
      +0       0       0       0       0
  3490 ;;      Totals:         0       0       0       0       0       0       0       0       0       0       0       0       
      +0       0       0       0       0
  3491 ;;Total ram usage:        0 bytes
  3492 ;; Hardware stack levels used: 1
  3493 ;; Hardware stack levels required when called: 11
  3494 ;; This function calls:
  3495 ;;		_adc_config
  3496 ;;		_adc_on
  3497 ;;		_mutex_init
  3498 ;;		_pipe_init
  3499 ;;		_sem_init
  3500 ;; This function is called by:
  3501 ;;		_os_config
  3502 ;; This function uses a non-reentrant model
  3503 ;;
  3504                           
  3505                           	psect	text8
  3506   0020F0                     __ptext8:
  3507                           	callstack 0
  3508   0020F0                     _config_user:
  3509                           	callstack 18
  3510   0020F0                     
  3511                           ;user.c: 13:     TRISCbits.RC6 = 0;
  3512   0020F0  9C94               	bcf	148,6,c	;volatile
  3513                           
  3514                           ;user.c: 14:     TRISCbits.RC7 = 0;
  3515   0020F2  9E94               	bcf	148,7,c	;volatile
  3516                           
  3517                           ;user.c: 15:     TRISDbits.RD0 = 0;
  3518   0020F4  9095               	bcf	149,0,c	;volatile
  3519                           
  3520                           ;user.c: 16:     ANSELDbits.ANSD0 = 0;
  3521   0020F6  010F               	movlb	15	; () banked
  3522   0020F8  913B               	bcf	59,0,b	;volatile
  3523                           
  3524                           ;user.c: 17:     ANSELCbits.ANSC6 = 0;
  3525   0020FA  9D3A               	bcf	58,6,b	;volatile
  3526                           
  3527                           ;user.c: 18:     ANSELCbits.ANSC7 = 0;
  3528   0020FC  9F3A               	bcf	58,7,b	;# 
  3529   0020FE                     
  3530                           ;user.c: 31:     sem_init(&s, 0);
  3531   0020FE  0E1E               	movlw	low _s
  3532   002100  0100               	movlb	0	; () banked
  3533   002102  6F60               	movwf	sem_init@sem& (0+255),b
  3534   002104  0E00               	movlw	0
  3535   002106  6F61               	movwf	sem_init@valor& (0+255),b
  3536   002108  ECAC  F010         	call	_sem_init	;wreg free
  3537                           
  3538                           ;user.c: 32:     pipe_init(&p);
  3539   00210C  0E02               	movlw	low _p
  3540   00210E  6E3F               	movwf	pipe_init@p^0,c
  3541   002110  EC07  F010         	call	_pipe_init	;wreg free
  3542                           
  3543                           ;user.c: 33:     mutex_init(&m_led);
  3544   002114  0E16               	movlw	low _m_led
  3545   002116  6E3F               	movwf	mutex_init@m^0,c
  3546   002118  EC24  F010         	call	_mutex_init	;wreg free
  3547   00211C                     
  3548                           ;user.c: 34:     adc_config();
  3549   00211C  EC16  F011         	call	_adc_config	;wreg free
  3550   002120                     
  3551                           ;user.c: 35:     adc_on();
  3552   002120  EC47  F011         	call	_adc_on	;wreg free
  3553   002124  0012               	return		;funcret
  3554   002126                     __end_of_config_user:
  3555                           	callstack 0
  3556                           
  3557 ;; *************** function _pipe_init *****************
  3558 ;; Defined at:
  3559 ;;		line 3 in file "com.c"
  3560 ;; Parameters:    Size  Location     Type
  3561 ;;  p               1   26[COMRAM] PTR struct pipe
  3562 ;;		 -> p(20), 
  3563 ;; Auto vars:     Size  Location     Type
  3564 ;;		None
  3565 ;; Return value:  Size  Location     Type
  3566 ;;                  1    wreg      void 
  3567 ;; Registers used:
  3568 ;;		wreg, fsr2l, fsr2h, status,2, status,0, cstack
  3569 ;; Tracked objects:
  3570 ;;		On entry : 0/0
  3571 ;;		On exit  : 0/0
  3572 ;;		Unchanged: 0/0
  3573 ;; Data sizes:     COMRAM   BANK0   BANK1   BANK2   BANK3   BANK4   BANK5   BANK6   BANK7   BANK8   BANK9  BANK10  BANK1
      +1  BANK12  BANK13  BANK14  BANK15
  3574 ;;      Params:         1       0       0       0       0       0       0       0       0       0       0       0       
      +0       0       0       0       0
  3575 ;;      Locals:         0       0       0       0       0       0       0       0       0       0       0       0       
      +0       0       0       0       0
  3576 ;;      Temps:          0       0       0       0       0       0       0       0       0       0       0       0       
      +0       0       0       0       0
  3577 ;;      Totals:         1       0       0       0       0       0       0       0       0       0       0       0       
      +0       0       0       0       0
  3578 ;;Total ram usage:        1 bytes
  3579 ;; Hardware stack levels used: 1
  3580 ;; Hardware stack levels required when called: 10
  3581 ;; This function calls:
  3582 ;;		_sem_init
  3583 ;; This function is called by:
  3584 ;;		_config_user
  3585 ;; This function uses a non-reentrant model
  3586 ;;
  3587                           
  3588                           	psect	text9
  3589   00200E                     __ptext9:
  3590                           	callstack 0
  3591   00200E                     _pipe_init:
  3592                           	callstack 18
  3593   00200E                     
  3594                           ;com.c: 3: void pipe_init(pipe_t *p);com.c: 4: {;com.c: 5:     p->pos_input = 0;
  3595   00200E  503F               	movf	pipe_init@p^0,w,c
  3596   002010  6ED9               	movwf	fsr2l,c
  3597   002012  6ADA               	clrf	fsr2h,c
  3598   002014  0E04               	movlw	4
  3599   002016  26D9               	addwf	fsr2l,f,c
  3600   002018  6ADF               	clrf	indf2,c
  3601                           
  3602                           ;com.c: 6:     p->pos_output = 0;
  3603   00201A  503F               	movf	pipe_init@p^0,w,c
  3604   00201C  6ED9               	movwf	fsr2l,c
  3605   00201E  6ADA               	clrf	fsr2h,c
  3606   002020  0E05               	movlw	5
  3607   002022  26D9               	addwf	fsr2l,f,c
  3608   002024  6ADF               	clrf	indf2,c
  3609   002026                     
  3610                           ;com.c: 7:     sem_init(&p->s_input, 4);
  3611   002026  503F               	movf	pipe_init@p^0,w,c
  3612   002028  0F06               	addlw	6
  3613   00202A  0100               	movlb	0	; () banked
  3614   00202C  6F60               	movwf	sem_init@sem& (0+255),b
  3615   00202E  0E04               	movlw	4
  3616   002030  6F61               	movwf	sem_init@valor& (0+255),b
  3617   002032  ECAC  F010         	call	_sem_init	;wreg free
  3618   002036                     
  3619                           ;com.c: 8:     sem_init(&p->s_output, 0);
  3620   002036  503F               	movf	pipe_init@p^0,w,c
  3621   002038  0F0D               	addlw	13
  3622   00203A  0100               	movlb	0	; () banked
  3623   00203C  6F60               	movwf	sem_init@sem& (0+255),b
  3624   00203E  0E00               	movlw	0
  3625   002040  6F61               	movwf	sem_init@valor& (0+255),b
  3626   002042  ECAC  F010         	call	_sem_init	;wreg free
  3627   002046  0012               	return		;funcret
  3628   002048                     __end_of_pipe_init:
  3629                           	callstack 0
  3630                           
  3631 ;; *************** function _sem_init *****************
  3632 ;; Defined at:
  3633 ;;		line 8 in file "sync.c"
  3634 ;; Parameters:    Size  Location     Type
  3635 ;;  sem             1    0[BANK0 ] PTR struct sem
  3636 ;;		 -> p(20), s(7), 
  3637 ;;  valor           1    1[BANK0 ] unsigned char 
  3638 ;; Auto vars:     Size  Location     Type
  3639 ;;		None
  3640 ;; Return value:  Size  Location     Type
  3641 ;;                  1    wreg      void 
  3642 ;; Registers used:
  3643 ;;		wreg, fsr2l, fsr2h, status,2, status,0
  3644 ;; Tracked objects:
  3645 ;;		On entry : 0/0
  3646 ;;		On exit  : 0/0
  3647 ;;		Unchanged: 0/0
  3648 ;; Data sizes:     COMRAM   BANK0   BANK1   BANK2   BANK3   BANK4   BANK5   BANK6   BANK7   BANK8   BANK9  BANK10  BANK1
      +1  BANK12  BANK13  BANK14  BANK15
  3649 ;;      Params:         0       2       0       0       0       0       0       0       0       0       0       0       
      +0       0       0       0       0
  3650 ;;      Locals:         0       0       0       0       0       0       0       0       0       0       0       0       
      +0       0       0       0       0
  3651 ;;      Temps:          0       2       0       0       0       0       0       0       0       0       0       0       
      +0       0       0       0       0
  3652 ;;      Totals:         0       4       0       0       0       0       0       0       0       0       0       0       
      +0       0       0       0       0
  3653 ;;Total ram usage:        4 bytes
  3654 ;; Hardware stack levels used: 1
  3655 ;; Hardware stack levels required when called: 9
  3656 ;; This function calls:
  3657 ;;		Nothing
  3658 ;; This function is called by:
  3659 ;;		_pipe_init
  3660 ;;		_config_user
  3661 ;; This function uses a non-reentrant model
  3662 ;;
  3663                           
  3664                           	psect	text10
  3665   002158                     __ptext10:
  3666                           	callstack 0
  3667   002158                     _sem_init:
  3668                           	callstack 18
  3669   002158                     
  3670                           ;sync.c: 9:     sem->contador = valor;
  3671   002158  0100               	movlb	0	; () banked
  3672   00215A  5161               	movf	sem_init@valor& (0+255),w,b
  3673   00215C  6F62               	movwf	??_sem_init& (0+255),b
  3674   00215E  6B63               	clrf	(??_sem_init+1)& (0+255),b
  3675   002160  5160               	movf	sem_init@sem& (0+255),w,b
  3676   002162  6ED9               	movwf	fsr2l,c
  3677   002164  6ADA               	clrf	fsr2h,c
  3678   002166  C062  FFDE         	movff	??_sem_init,postinc2
  3679   00216A  C063  FFDD         	movff	??_sem_init+1,postdec2
  3680   00216E                     
  3681                           ; BSR set to: 0
  3682                           ;sync.c: 10:     sem->pos_input = 0;
  3683   00216E  5160               	movf	sem_init@sem& (0+255),w,b
  3684   002170  6ED9               	movwf	fsr2l,c
  3685   002172  6ADA               	clrf	fsr2h,c
  3686   002174  0E05               	movlw	5
  3687   002176  26D9               	addwf	fsr2l,f,c
  3688   002178  6ADF               	clrf	indf2,c
  3689   00217A                     
  3690                           ; BSR set to: 0
  3691                           ;sync.c: 11:     sem->pos_output = 0;
  3692   00217A  5160               	movf	sem_init@sem& (0+255),w,b
  3693   00217C  6ED9               	movwf	fsr2l,c
  3694   00217E  6ADA               	clrf	fsr2h,c
  3695   002180  0E06               	movlw	6
  3696   002182  26D9               	addwf	fsr2l,f,c
  3697   002184  6ADF               	clrf	indf2,c
  3698   002186                     
  3699                           ; BSR set to: 0
  3700   002186  0012               	return		;funcret
  3701   002188                     __end_of_sem_init:
  3702                           	callstack 0
  3703                           
  3704 ;; *************** function _mutex_init *****************
  3705 ;; Defined at:
  3706 ;;		line 43 in file "sync.c"
  3707 ;; Parameters:    Size  Location     Type
  3708 ;;  m               1   26[COMRAM] PTR struct mutex
  3709 ;;		 -> m_led(8), 
  3710 ;; Auto vars:     Size  Location     Type
  3711 ;;		None
  3712 ;; Return value:  Size  Location     Type
  3713 ;;                  1    wreg      void 
  3714 ;; Registers used:
  3715 ;;		wreg, fsr2l, fsr2h, status,2, status,0
  3716 ;; Tracked objects:
  3717 ;;		On entry : 0/0
  3718 ;;		On exit  : 0/0
  3719 ;;		Unchanged: 0/0
  3720 ;; Data sizes:     COMRAM   BANK0   BANK1   BANK2   BANK3   BANK4   BANK5   BANK6   BANK7   BANK8   BANK9  BANK10  BANK1
      +1  BANK12  BANK13  BANK14  BANK15
  3721 ;;      Params:         1       0       0       0       0       0       0       0       0       0       0       0       
      +0       0       0       0       0
  3722 ;;      Locals:         0       0       0       0       0       0       0       0       0       0       0       0       
      +0       0       0       0       0
  3723 ;;      Temps:          0       0       0       0       0       0       0       0       0       0       0       0       
      +0       0       0       0       0
  3724 ;;      Totals:         1       0       0       0       0       0       0       0       0       0       0       0       
      +0       0       0       0       0
  3725 ;;Total ram usage:        1 bytes
  3726 ;; Hardware stack levels used: 1
  3727 ;; Hardware stack levels required when called: 9
  3728 ;; This function calls:
  3729 ;;		Nothing
  3730 ;; This function is called by:
  3731 ;;		_config_user
  3732 ;; This function uses a non-reentrant model
  3733 ;;
  3734                           
  3735                           	psect	text11
  3736   002048                     __ptext11:
  3737                           	callstack 0
  3738   002048                     _mutex_init:
  3739                           	callstack 19
  3740   002048                     
  3741                           ;sync.c: 44:     m->locked = 0;
  3742   002048  503F               	movf	mutex_init@m^0,w,c
  3743   00204A  6ED9               	movwf	fsr2l,c
  3744   00204C  6ADA               	clrf	fsr2h,c
  3745   00204E  6ADF               	clrf	indf2,c
  3746   002050                     
  3747                           ;sync.c: 45:     m->owner_id = 0;
  3748   002050  503F               	movf	mutex_init@m^0,w,c
  3749   002052  6ED9               	movwf	fsr2l,c
  3750   002054  6ADA               	clrf	fsr2h,c
  3751   002056  0E01               	movlw	1
  3752   002058  26D9               	addwf	fsr2l,f,c
  3753   00205A  6ADF               	clrf	indf2,c
  3754   00205C                     
  3755                           ;sync.c: 46:     m->pos_input = 0;
  3756   00205C  503F               	movf	mutex_init@m^0,w,c
  3757   00205E  6ED9               	movwf	fsr2l,c
  3758   002060  6ADA               	clrf	fsr2h,c
  3759   002062  0E05               	movlw	5
  3760   002064  26D9               	addwf	fsr2l,f,c
  3761   002066  6ADF               	clrf	indf2,c
  3762   002068                     
  3763                           ;sync.c: 47:     m->pos_output = 0;
  3764   002068  503F               	movf	mutex_init@m^0,w,c
  3765   00206A  6ED9               	movwf	fsr2l,c
  3766   00206C  6ADA               	clrf	fsr2h,c
  3767   00206E  0E06               	movlw	6
  3768   002070  26D9               	addwf	fsr2l,f,c
  3769   002072  6ADF               	clrf	indf2,c
  3770   002074                     
  3771                           ;sync.c: 48:     m->waiting_count = 0;
  3772   002074  503F               	movf	mutex_init@m^0,w,c
  3773   002076  6ED9               	movwf	fsr2l,c
  3774   002078  6ADA               	clrf	fsr2h,c
  3775   00207A  0E07               	movlw	7
  3776   00207C  26D9               	addwf	fsr2l,f,c
  3777   00207E  6ADF               	clrf	indf2,c
  3778   002080  0012               	return		;funcret
  3779   002082                     __end_of_mutex_init:
  3780                           	callstack 0
  3781                           
  3782 ;; *************** function _adc_on *****************
  3783 ;; Defined at:
  3784 ;;		line 15 in file "io.c"
  3785 ;; Parameters:    Size  Location     Type
  3786 ;;		None
  3787 ;; Auto vars:     Size  Location     Type
  3788 ;;		None
  3789 ;; Return value:  Size  Location     Type
  3790 ;;                  1    wreg      void 
  3791 ;; Registers used:
  3792 ;;		None
  3793 ;; Tracked objects:
  3794 ;;		On entry : 0/0
  3795 ;;		On exit  : 0/0
  3796 ;;		Unchanged: 0/0
  3797 ;; Data sizes:     COMRAM   BANK0   BANK1   BANK2   BANK3   BANK4   BANK5   BANK6   BANK7   BANK8   BANK9  BANK10  BANK1
      +1  BANK12  BANK13  BANK14  BANK15
  3798 ;;      Params:         0       0       0       0       0       0       0       0       0       0       0       0       
      +0       0       0       0       0
  3799 ;;      Locals:         0       0       0       0       0       0       0       0       0       0       0       0       
      +0       0       0       0       0
  3800 ;;      Temps:          0       0       0       0       0       0       0       0       0       0       0       0       
      +0       0       0       0       0
  3801 ;;      Totals:         0       0       0       0       0       0       0       0       0       0       0       0       
      +0       0       0       0       0
  3802 ;;Total ram usage:        0 bytes
  3803 ;; Hardware stack levels used: 1
  3804 ;; Hardware stack levels required when called: 9
  3805 ;; This function calls:
  3806 ;;		Nothing
  3807 ;; This function is called by:
  3808 ;;		_config_user
  3809 ;; This function uses a non-reentrant model
  3810 ;;
  3811                           
  3812                           	psect	text12
  3813   00228E                     __ptext12:
  3814                           	callstack 0
  3815   00228E                     _adc_on:
  3816                           	callstack 19
  3817   00228E                     
  3818                           ;io.c: 16:     ADCON0bits.ADON = 1;
  3819   00228E  80C2               	bsf	194,0,c	;volatile
  3820   002290  0012               	return		;funcret
  3821   002292                     __end_of_adc_on:
  3822                           	callstack 0
  3823                           
  3824 ;; *************** function _adc_config *****************
  3825 ;; Defined at:
  3826 ;;		line 4 in file "io.c"
  3827 ;; Parameters:    Size  Location     Type
  3828 ;;		None
  3829 ;; Auto vars:     Size  Location     Type
  3830 ;;		None
  3831 ;; Return value:  Size  Location     Type
  3832 ;;                  1    wreg      void 
  3833 ;; Registers used:
  3834 ;;		wreg, status,2
  3835 ;; Tracked objects:
  3836 ;;		On entry : 0/0
  3837 ;;		On exit  : 0/0
  3838 ;;		Unchanged: 0/0
  3839 ;; Data sizes:     COMRAM   BANK0   BANK1   BANK2   BANK3   BANK4   BANK5   BANK6   BANK7   BANK8   BANK9  BANK10  BANK1
      +1  BANK12  BANK13  BANK14  BANK15
  3840 ;;      Params:         0       0       0       0       0       0       0       0       0       0       0       0       
      +0       0       0       0       0
  3841 ;;      Locals:         0       0       0       0       0       0       0       0       0       0       0       0       
      +0       0       0       0       0
  3842 ;;      Temps:          0       0       0       0       0       0       0       0       0       0       0       0       
      +0       0       0       0       0
  3843 ;;      Totals:         0       0       0       0       0       0       0       0       0       0       0       0       
      +0       0       0       0       0
  3844 ;;Total ram usage:        0 bytes
  3845 ;; Hardware stack levels used: 1
  3846 ;; Hardware stack levels required when called: 9
  3847 ;; This function calls:
  3848 ;;		Nothing
  3849 ;; This function is called by:
  3850 ;;		_config_user
  3851 ;; This function uses a non-reentrant model
  3852 ;;
  3853                           
  3854                           	psect	text13
  3855   00222C                     __ptext13:
  3856                           	callstack 0
  3857   00222C                     _adc_config:
  3858                           	callstack 19
  3859   00222C                     
  3860                           ;io.c: 5:     ADCON0bits.CHS = 0b00000;
  3861   00222C  0E83               	movlw	-125
  3862   00222E  16C2               	andwf	194,f,c	;volatile
  3863                           
  3864                           ;io.c: 6:     ADCON1bits.PVCFG = 0b00;
  3865   002230  0EF3               	movlw	-13
  3866   002232  16C1               	andwf	193,f,c	;volatile
  3867                           
  3868                           ;io.c: 7:     ADCON1bits.NVCFG = 0b00;
  3869   002234  0EFC               	movlw	-4
  3870   002236  16C1               	andwf	193,f,c	;volatile
  3871   002238                     
  3872                           ;io.c: 8:     ADCON2bits.ADFM = 1;
  3873   002238  8EC0               	bsf	192,7,c	;volatile
  3874                           
  3875                           ;io.c: 9:     ADCON2bits.ACQT = 0b110;
  3876   00223A  50C0               	movf	192,w,c	;volatile
  3877   00223C  0BC7               	andlw	-57
  3878   00223E  0930               	iorlw	48
  3879   002240  6EC0               	movwf	192,c	;volatile
  3880                           
  3881                           ;io.c: 10:     ADCON2bits.ADCS = 0b100;
  3882   002242  50C0               	movf	192,w,c	;volatile
  3883   002244  0BF8               	andlw	-8
  3884   002246  0904               	iorlw	4
  3885   002248  6EC0               	movwf	192,c	;volatile
  3886   00224A                     
  3887                           ;io.c: 11:     TRISAbits.RA0 = 1;
  3888   00224A  8092               	bsf	146,0,c	;volatile
  3889   00224C                     
  3890                           ;io.c: 12:     ANSELAbits.ANSA0 = 1;
  3891   00224C  010F               	movlb	15	; () banked
  3892   00224E  8138               	bsf	56,0,b	;volatile
  3893   002250                     
  3894                           ; BSR set to: 15
  3895   002250  0012               	return		;funcret
  3896   002252                     __end_of_adc_config:
  3897                           	callstack 0
  3898                           
  3899 ;; *************** function _SRAMInitHeap *****************
  3900 ;; Defined at:
  3901 ;;		line 151 in file "mem.c"
  3902 ;; Parameters:    Size  Location     Type
  3903 ;;		None
  3904 ;; Auto vars:     Size  Location     Type
  3905 ;;  count           2    2[BANK0 ] unsigned int 
  3906 ;;  pHeap           2    0[BANK0 ] PTR unsigned char 
  3907 ;;		 -> _uDynamicHeap(512), 
  3908 ;; Return value:  Size  Location     Type
  3909 ;;                  1    wreg      void 
  3910 ;; Registers used:
  3911 ;;		wreg, fsr2l, fsr2h, status,2, status,0
  3912 ;; Tracked objects:
  3913 ;;		On entry : 0/0
  3914 ;;		On exit  : 0/0
  3915 ;;		Unchanged: 0/0
  3916 ;; Data sizes:     COMRAM   BANK0   BANK1   BANK2   BANK3   BANK4   BANK5   BANK6   BANK7   BANK8   BANK9  BANK10  BANK1
      +1  BANK12  BANK13  BANK14  BANK15
  3917 ;;      Params:         0       0       0       0       0       0       0       0       0       0       0       0       
      +0       0       0       0       0
  3918 ;;      Locals:         0       4       0       0       0       0       0       0       0       0       0       0       
      +0       0       0       0       0
  3919 ;;      Temps:          0       0       0       0       0       0       0       0       0       0       0       0       
      +0       0       0       0       0
  3920 ;;      Totals:         0       4       0       0       0       0       0       0       0       0       0       0       
      +0       0       0       0       0
  3921 ;;Total ram usage:        4 bytes
  3922 ;; Hardware stack levels used: 1
  3923 ;; Hardware stack levels required when called: 9
  3924 ;; This function calls:
  3925 ;;		Nothing
  3926 ;; This function is called by:
  3927 ;;		_os_config
  3928 ;; This function uses a non-reentrant model
  3929 ;;
  3930                           
  3931                           	psect	text14
  3932   001F68                     __ptext14:
  3933                           	callstack 0
  3934   001F68                     _SRAMInitHeap:
  3935                           	callstack 20
  3936   001F68                     
  3937                           ;mem.c: 153:  unsigned char * pHeap;;mem.c: 154:       unsigned int count;;mem.c: 156:  
      +                          pHeap = _uDynamicHeap;
  3938   001F68  0ED9               	movlw	low __uDynamicHeap
  3939   001F6A  0100               	movlb	0	; () banked
  3940   001F6C  6F60               	movwf	SRAMInitHeap@pHeap& (0+255),b
  3941   001F6E  0E00               	movlw	high __uDynamicHeap
  3942   001F70  6F61               	movwf	(SRAMInitHeap@pHeap+1)& (0+255),b
  3943   001F72                     
  3944                           ; BSR set to: 0
  3945                           ;mem.c: 157:  count = 0x200 -1;
  3946   001F72  0E01               	movlw	1
  3947   001F74  6F63               	movwf	(SRAMInitHeap@count+1)& (0+255),b
  3948   001F76  6962               	setf	SRAMInitHeap@count& (0+255),b
  3949   001F78                     l3236:
  3950                           
  3951                           ; BSR set to: 0
  3952                           ;mem.c: 160:  {;mem.c: 161:   if (count > 0x7F)
  3953   001F78  5163               	movf	(SRAMInitHeap@count+1)& (0+255),w,b
  3954   001F7A  E109               	bnz	u2470
  3955   001F7C  0E80               	movlw	128
  3956   001F7E  5D62               	subwf	SRAMInitHeap@count& (0+255),w,b
  3957   001F80  A0D8               	btfss	status,0,c
  3958   001F82  EFC5  F00F         	goto	u2471
  3959   001F86  EFC7  F00F         	goto	u2470
  3960   001F8A                     u2471:
  3961   001F8A  EFD9  F00F         	goto	l3244
  3962   001F8E                     u2470:
  3963   001F8E                     
  3964                           ; BSR set to: 0
  3965                           ;mem.c: 162:   {;mem.c: 163:    *pHeap = 0x7F;
  3966   001F8E  C060  FFD9         	movff	SRAMInitHeap@pHeap,fsr2l
  3967   001F92  C061  FFDA         	movff	SRAMInitHeap@pHeap+1,fsr2h
  3968   001F96  0E7F               	movlw	127
  3969   001F98  6EDF               	movwf	indf2,c
  3970   001F9A                     
  3971                           ; BSR set to: 0
  3972                           ;mem.c: 164:    pHeap += 0x7F;
  3973   001F9A  0E7F               	movlw	127
  3974   001F9C  2760               	addwf	SRAMInitHeap@pHeap& (0+255),f,b
  3975   001F9E  0E00               	movlw	0
  3976   001FA0  2361               	addwfc	(SRAMInitHeap@pHeap+1)& (0+255),f,b
  3977   001FA2                     
  3978                           ; BSR set to: 0
  3979                           ;mem.c: 165:    count = count - 0x7F;
  3980   001FA2  0E81               	movlw	129
  3981   001FA4  2562               	addwf	SRAMInitHeap@count& (0+255),w,b
  3982   001FA6  6F62               	movwf	SRAMInitHeap@count& (0+255),b
  3983   001FA8  0EFF               	movlw	255
  3984   001FAA  2163               	addwfc	(SRAMInitHeap@count+1)& (0+255),w,b
  3985   001FAC  6F63               	movwf	(SRAMInitHeap@count+1)& (0+255),b
  3986                           
  3987                           ;mem.c: 166:   }
  3988   001FAE  EFBC  F00F         	goto	l3236
  3989   001FB2                     l3244:
  3990                           
  3991                           ; BSR set to: 0
  3992                           ;mem.c: 168:   {;mem.c: 169:    *pHeap = count;
  3993   001FB2  C060  FFD9         	movff	SRAMInitHeap@pHeap,fsr2l
  3994   001FB6  C061  FFDA         	movff	SRAMInitHeap@pHeap+1,fsr2h
  3995   001FBA  C062  FFDF         	movff	SRAMInitHeap@count,indf2
  3996   001FBE                     
  3997                           ; BSR set to: 0
  3998                           ;mem.c: 170:    *(pHeap + count) = 0;
  3999   001FBE  5162               	movf	SRAMInitHeap@count& (0+255),w,b
  4000   001FC0  2560               	addwf	SRAMInitHeap@pHeap& (0+255),w,b
  4001   001FC2  6ED9               	movwf	fsr2l,c
  4002   001FC4  5163               	movf	(SRAMInitHeap@count+1)& (0+255),w,b
  4003   001FC6  2161               	addwfc	(SRAMInitHeap@pHeap+1)& (0+255),w,b
  4004   001FC8  6EDA               	movwf	fsr2h,c
  4005   001FCA  6ADF               	clrf	indf2,c
  4006   001FCC                     
  4007                           ; BSR set to: 0
  4008   001FCC  0012               	return		;funcret
  4009   001FCE                     __end_of_SRAMInitHeap:
  4010                           	callstack 0
  4011                           
  4012 ;; *************** function _idle *****************
  4013 ;; Defined at:
  4014 ;;		line 138 in file "kernel.c"
  4015 ;; Parameters:    Size  Location     Type
  4016 ;;		None
  4017 ;; Auto vars:     Size  Location     Type
  4018 ;;		None
  4019 ;; Return value:  Size  Location     Type
  4020 ;;                  1    wreg      void 
  4021 ;; Registers used:
  4022 ;;		wreg, status,2, status,0
  4023 ;; Tracked objects:
  4024 ;;		On entry : 0/0
  4025 ;;		On exit  : 0/0
  4026 ;;		Unchanged: 0/0
  4027 ;; Data sizes:     COMRAM   BANK0   BANK1   BANK2   BANK3   BANK4   BANK5   BANK6   BANK7   BANK8   BANK9  BANK10  BANK1
      +1  BANK12  BANK13  BANK14  BANK15
  4028 ;;      Params:         0       0       0       0       0       0       0       0       0       0       0       0       
      +0       0       0       0       0
  4029 ;;      Locals:         0       0       0       0       0       0       0       0       0       0       0       0       
      +0       0       0       0       0
  4030 ;;      Temps:          0       1       0       0       0       0       0       0       0       0       0       0       
      +0       0       0       0       0
  4031 ;;      Totals:         0       1       0       0       0       0       0       0       0       0       0       0       
      +0       0       0       0       0
  4032 ;;Total ram usage:        1 bytes
  4033 ;; Hardware stack levels used: 1
  4034 ;; Hardware stack levels required when called: 4
  4035 ;; This function calls:
  4036 ;;		Nothing
  4037 ;; This function is called by:
  4038 ;;		_os_config
  4039 ;;		_RR_scheduler
  4040 ;; This function uses a non-reentrant model
  4041 ;;
  4042                           
  4043                           	psect	text15
  4044   0021B2                     __ptext15:
  4045                           	callstack 0
  4046   0021B2                     _idle:
  4047                           	callstack 22
  4048   0021B2                     
  4049                           ;kernel.c: 140:     TRISCbits.RC0 = 0;
  4050   0021B2  9094               	bcf	148,0,c	;volatile
  4051   0021B4                     l3666:
  4052                           
  4053                           ;kernel.c: 143:         PORTCbits.RC0 = ~PORTCbits.RC0;
  4054   0021B4  B082               	btfsc	130,0,c	;volatile
  4055   0021B6  EFDF  F010         	goto	u303_21
  4056   0021BA  EFE2  F010         	goto	u303_20
  4057   0021BE                     u303_21:
  4058   0021BE  0E01               	movlw	1
  4059   0021C0  EFE3  F010         	goto	u303_26
  4060   0021C4                     u303_20:
  4061   0021C4  0E00               	movlw	0
  4062   0021C6                     u303_26:
  4063   0021C6  0AFF               	xorlw	255
  4064   0021C8  0100               	movlb	0	; () banked
  4065   0021CA  6F60               	movwf	??_idle& (0+255),b
  4066   0021CC  5082               	movf	130,w,c	;volatile
  4067   0021CE  1960               	xorwf	??_idle& (0+255),w,b
  4068   0021D0  0BFE               	andlw	-2
  4069   0021D2  1960               	xorwf	??_idle& (0+255),w,b
  4070   0021D4  6E82               	movwf	130,c	;volatile
  4071   0021D6  EFDA  F010         	goto	l3666
  4072   0021DA  0012               	return		;funcret
  4073   0021DC                     __end_of_idle:
  4074                           	callstack 0
  4075                           
  4076 ;; *************** function _tarefaLeituraADC_UART *****************
  4077 ;; Defined at:
  4078 ;;		line 160 in file "user.c"
  4079 ;; Parameters:    Size  Location     Type
  4080 ;;		None
  4081 ;; Auto vars:     Size  Location     Type
  4082 ;;  valor           2   24[COMRAM] unsigned short 
  4083 ;; Return value:  Size  Location     Type
  4084 ;;                  1    wreg      void 
  4085 ;; Registers used:
  4086 ;;		wreg, fsr1l, fsr1h, fsr2l, fsr2h, status,2, status,0, prodl, prodh, cstack
  4087 ;; Tracked objects:
  4088 ;;		On entry : 0/0
  4089 ;;		On exit  : 0/0
  4090 ;;		Unchanged: 0/0
  4091 ;; Data sizes:     COMRAM   BANK0   BANK1   BANK2   BANK3   BANK4   BANK5   BANK6   BANK7   BANK8   BANK9  BANK10  BANK1
      +1  BANK12  BANK13  BANK14  BANK15
  4092 ;;      Params:         0       0       0       0       0       0       0       0       0       0       0       0       
      +0       0       0       0       0
  4093 ;;      Locals:         2       0       0       0       0       0       0       0       0       0       0       0       
      +0       0       0       0       0
  4094 ;;      Temps:          0       0       0       0       0       0       0       0       0       0       0       0       
      +0       0       0       0       0
  4095 ;;      Totals:         2       0       0       0       0       0       0       0       0       0       0       0       
      +0       0       0       0       0
  4096 ;;Total ram usage:        2 bytes
  4097 ;; Hardware stack levels used: 1
  4098 ;; Hardware stack levels required when called: 8
  4099 ;; This function calls:
  4100 ;;		_adc_read
  4101 ;;		_os_delay
  4102 ;; This function is called by:
  4103 ;;		_main
  4104 ;; This function uses a non-reentrant model
  4105 ;;
  4106                           
  4107                           	psect	text16
  4108   002082                     __ptext16:
  4109                           	callstack 0
  4110   002082                     _tarefaLeituraADC_UART:
  4111                           	callstack 18
  4112   002082                     l429:
  4113   002082                     
  4114                           ;user.c: 164:         valor = adc_read(0);
  4115   002082  0E00               	movlw	0
  4116   002084  EC93  F010         	call	_adc_read
  4117   002088  C025  F03D         	movff	?_adc_read,tarefaLeituraADC_UART@valor
  4118   00208C  C026  F03E         	movff	?_adc_read+1,tarefaLeituraADC_UART@valor+1
  4119   002090                     
  4120                           ;user.c: 165:         if (valor > 100) {
  4121   002090  503E               	movf	(tarefaLeituraADC_UART@valor+1)^0,w,c
  4122   002092  E109               	bnz	u213_20
  4123   002094  0E65               	movlw	101
  4124   002096  5C3D               	subwf	tarefaLeituraADC_UART@valor^0,w,c
  4125   002098  A0D8               	btfss	status,0,c
  4126   00209A  EF51  F010         	goto	u213_21
  4127   00209E  EF53  F010         	goto	u213_20
  4128   0020A2                     u213_21:
  4129   0020A2  EF56  F010         	goto	l430
  4130   0020A6                     u213_20:
  4131   0020A6                     
  4132                           ;user.c: 166:             PORTDbits.RD0 = 1;
  4133   0020A6  8083               	bsf	131,0,c	;volatile
  4134                           
  4135                           ;user.c: 168:         } else {
  4136   0020A8  EF57  F010         	goto	l2998
  4137   0020AC                     l430:
  4138                           
  4139                           ;user.c: 169:             PORTDbits.RD0 = 0;
  4140   0020AC  9083               	bcf	131,0,c	;volatile
  4141   0020AE                     l2998:
  4142                           
  4143                           ;user.c: 172:         os_delay(10);
  4144   0020AE  0E0A               	movlw	10
  4145   0020B0  EC01  F008         	call	_os_delay
  4146   0020B4  EF41  F010         	goto	l429
  4147   0020B8  0012               	return		;funcret
  4148   0020BA                     __end_of_tarefaLeituraADC_UART:
  4149                           	callstack 0
  4150                           
  4151 ;; *************** function _os_delay *****************
  4152 ;; Defined at:
  4153 ;;		line 11 in file "kernel.c"
  4154 ;; Parameters:    Size  Location     Type
  4155 ;;  time            1    wreg     unsigned char 
  4156 ;; Auto vars:     Size  Location     Type
  4157 ;;  time            1   23[COMRAM] unsigned char 
  4158 ;; Return value:  Size  Location     Type
  4159 ;;                  1    wreg      void 
  4160 ;; Registers used:
  4161 ;;		wreg, fsr1l, fsr1h, fsr2l, fsr2h, status,2, status,0, prodl, prodh, cstack
  4162 ;; Tracked objects:
  4163 ;;		On entry : 0/0
  4164 ;;		On exit  : 0/0
  4165 ;;		Unchanged: 0/0
  4166 ;; Data sizes:     COMRAM   BANK0   BANK1   BANK2   BANK3   BANK4   BANK5   BANK6   BANK7   BANK8   BANK9  BANK10  BANK1
      +1  BANK12  BANK13  BANK14  BANK15
  4167 ;;      Params:         0       0       0       0       0       0       0       0       0       0       0       0       
      +0       0       0       0       0
  4168 ;;      Locals:         1       0       0       0       0       0       0       0       0       0       0       0       
      +0       0       0       0       0
  4169 ;;      Temps:          7       0       0       0       0       0       0       0       0       0       0       0       
      +0       0       0       0       0
  4170 ;;      Totals:         8       0       0       0       0       0       0       0       0       0       0       0       
      +0       0       0       0       0
  4171 ;;Total ram usage:        8 bytes
  4172 ;; Hardware stack levels used: 1
  4173 ;; Hardware stack levels required when called: 7
  4174 ;; This function calls:
  4175 ;;		i1_scheduler
  4176 ;; This function is called by:
  4177 ;;		_tarefaLeituraADC_UART
  4178 ;;		_LED_1
  4179 ;;		_LED_1_mutex
  4180 ;;		_LED_2_mutex
  4181 ;;		_LED_1_prio
  4182 ;;		_LED_2_prio
  4183 ;;		_LED_3_prio
  4184 ;; This function uses a non-reentrant model
  4185 ;;
  4186                           
  4187                           	psect	text17
  4188   001002                     __ptext17:
  4189                           	callstack 0
  4190   001002                     _os_delay:
  4191                           	callstack 18
  4192                           
  4193                           ;incstack = 0
  4194                           ;os_delay@time stored from wreg
  4195   001002  6E3C               	movwf	os_delay@time^0,c
  4196   001004                     
  4197                           ;kernel.c: 11: void os_delay(uint8_t time);kernel.c: 12: {;kernel.c: 13:     INTCONbits.
      +                          GIE = 0;;
  4198   001004  9EF2               	bcf	242,7,c	;volatile
  4199   001006  EE24  F0AE         	lfsr	2,_r_queue+469
  4200   00100A  EE10 F001          	lfsr	1,1
  4201   00100E  50DE               	movf	postinc2,w,c
  4202   001010  26E1               	addwf	fsr1l,f,c
  4203   001012  50DD               	movf	postdec2,w,c
  4204   001014  22E2               	addwfc	fsr1h,f,c
  4205   001016  0E02               	movlw	2
  4206   001018  18E6               	xorwf	postinc1,w,c
  4207   00101A  A4D8               	btfss	status,2,c
  4208   00101C  EF12  F008         	goto	i1u171_21
  4209   001020  EF14  F008         	goto	i1u171_20
  4210   001024                     i1u171_21:
  4211   001024  EF51  F009         	goto	i1l2676
  4212   001028                     i1u171_20:
  4213   001028  EE24  F0AE         	lfsr	2,_r_queue+469
  4214   00102C  EE10 F001          	lfsr	1,1
  4215   001030  50DE               	movf	postinc2,w,c
  4216   001032  26E1               	addwf	fsr1l,f,c
  4217   001034  50DD               	movf	postdec2,w,c
  4218   001036  22E2               	addwfc	fsr1h,f,c
  4219   001038  0E01               	movlw	1
  4220   00103A  6EE7               	movwf	indf1,c
  4221   00103C  EE24  F0AE         	lfsr	2,_r_queue+469
  4222   001040  EE10 F008          	lfsr	1,8
  4223   001044  50DE               	movf	postinc2,w,c
  4224   001046  26E1               	addwf	fsr1l,f,c
  4225   001048  50DD               	movf	postdec2,w,c
  4226   00104A  22E2               	addwfc	fsr1h,f,c
  4227   00104C  CFE0 FFE7          	movff	bsr,indf1	;volatile
  4228   001050  EE24  F0AE         	lfsr	2,_r_queue+469
  4229   001054  EE10 F00C          	lfsr	1,12
  4230   001058  50DE               	movf	postinc2,w,c
  4231   00105A  26E1               	addwf	fsr1l,f,c
  4232   00105C  50DD               	movf	postdec2,w,c
  4233   00105E  22E2               	addwfc	fsr1h,f,c
  4234   001060  CFEA FFE7          	movff	fsr0h,indf1	;volatile
  4235   001064  EE24  F0AE         	lfsr	2,_r_queue+469
  4236   001068  EE10 F00B          	lfsr	1,11
  4237   00106C  50DE               	movf	postinc2,w,c
  4238   00106E  26E1               	addwf	fsr1l,f,c
  4239   001070  50DD               	movf	postdec2,w,c
  4240   001072  22E2               	addwfc	fsr1h,f,c
  4241   001074  CFE9 FFE7          	movff	fsr0l,indf1	;volatile
  4242   001078  EE24  F0AE         	lfsr	2,_r_queue+469
  4243   00107C  EE10 F00E          	lfsr	1,14
  4244   001080  50DE               	movf	postinc2,w,c
  4245   001082  26E1               	addwf	fsr1l,f,c
  4246   001084  50DD               	movf	postdec2,w,c
  4247   001086  22E2               	addwfc	fsr1h,f,c
  4248   001088  CFE2 FFE7          	movff	fsr1h,indf1	;volatile
  4249   00108C  EE24  F0AE         	lfsr	2,_r_queue+469
  4250   001090  EE10 F00D          	lfsr	1,13
  4251   001094  50DE               	movf	postinc2,w,c
  4252   001096  26E1               	addwf	fsr1l,f,c
  4253   001098  50DD               	movf	postdec2,w,c
  4254   00109A  22E2               	addwfc	fsr1h,f,c
  4255   00109C  CFE1 FFE7          	movff	fsr1l,indf1	;volatile
  4256   0010A0  EE24  F0AE         	lfsr	2,_r_queue+469
  4257   0010A4  EE10 F010          	lfsr	1,16
  4258   0010A8  50DE               	movf	postinc2,w,c
  4259   0010AA  26E1               	addwf	fsr1l,f,c
  4260   0010AC  50DD               	movf	postdec2,w,c
  4261   0010AE  22E2               	addwfc	fsr1h,f,c
  4262   0010B0  CFDA FFE7          	movff	fsr2h,indf1	;volatile
  4263   0010B4  EE24  F0AE         	lfsr	2,_r_queue+469
  4264   0010B8  EE10 F00F          	lfsr	1,15
  4265   0010BC  50DE               	movf	postinc2,w,c
  4266   0010BE  26E1               	addwf	fsr1l,f,c
  4267   0010C0  50DD               	movf	postdec2,w,c
  4268   0010C2  22E2               	addwfc	fsr1h,f,c
  4269   0010C4  CFD9 FFE7          	movff	fsr2l,indf1	;volatile
  4270   0010C8  EE24  F0AE         	lfsr	2,_r_queue+469
  4271   0010CC  EE10 F015          	lfsr	1,21
  4272   0010D0  50DE               	movf	postinc2,w,c
  4273   0010D2  26E1               	addwf	fsr1l,f,c
  4274   0010D4  50DD               	movf	postdec2,w,c
  4275   0010D6  22E2               	addwfc	fsr1h,f,c
  4276   0010D8  CFFA FFE7          	movff	pclath,indf1	;volatile
  4277   0010DC  EE24  F0AE         	lfsr	2,_r_queue+469
  4278   0010E0  EE10 F016          	lfsr	1,22
  4279   0010E4  50DE               	movf	postinc2,w,c
  4280   0010E6  26E1               	addwf	fsr1l,f,c
  4281   0010E8  50DD               	movf	postdec2,w,c
  4282   0010EA  22E2               	addwfc	fsr1h,f,c
  4283   0010EC  CFFB FFE7          	movff	pclatu,indf1	;volatile
  4284   0010F0  EE24  F0AE         	lfsr	2,_r_queue+469
  4285   0010F4  EE10 F00A          	lfsr	1,10
  4286   0010F8  50DE               	movf	postinc2,w,c
  4287   0010FA  26E1               	addwf	fsr1l,f,c
  4288   0010FC  50DD               	movf	postdec2,w,c
  4289   0010FE  22E2               	addwfc	fsr1h,f,c
  4290   001100  CFF4 FFE7          	movff	prodh,indf1	;volatile
  4291   001104  EE24  F0AE         	lfsr	2,_r_queue+469
  4292   001108  EE10 F009          	lfsr	1,9
  4293   00110C  50DE               	movf	postinc2,w,c
  4294   00110E  26E1               	addwf	fsr1l,f,c
  4295   001110  50DD               	movf	postdec2,w,c
  4296   001112  22E2               	addwfc	fsr1h,f,c
  4297   001114  CFF3 FFE7          	movff	prodl,indf1	;volatile
  4298   001118  EE24  F0AE         	lfsr	2,_r_queue+469
  4299   00111C  EE10 F011          	lfsr	1,17
  4300   001120  50DE               	movf	postinc2,w,c
  4301   001122  26E1               	addwf	fsr1l,f,c
  4302   001124  50DD               	movf	postdec2,w,c
  4303   001126  22E2               	addwfc	fsr1h,f,c
  4304   001128  CFF5 FFE7          	movff	tablat,indf1	;volatile
  4305   00112C  EE24  F0AE         	lfsr	2,_r_queue+469
  4306   001130  EE10 F013          	lfsr	1,19
  4307   001134  50DE               	movf	postinc2,w,c
  4308   001136  26E1               	addwf	fsr1l,f,c
  4309   001138  50DD               	movf	postdec2,w,c
  4310   00113A  22E2               	addwfc	fsr1h,f,c
  4311   00113C  CFF7 FFE7          	movff	tblptrh,indf1	;volatile
  4312   001140  EE24  F0AE         	lfsr	2,_r_queue+469
  4313   001144  EE10 F012          	lfsr	1,18
  4314   001148  50DE               	movf	postinc2,w,c
  4315   00114A  26E1               	addwf	fsr1l,f,c
  4316   00114C  50DD               	movf	postdec2,w,c
  4317   00114E  22E2               	addwfc	fsr1h,f,c
  4318   001150  CFF6 FFE7          	movff	tblptrl,indf1	;volatile
  4319   001154  EE24  F0AE         	lfsr	2,_r_queue+469
  4320   001158  EE10 F014          	lfsr	1,20
  4321   00115C  50DE               	movf	postinc2,w,c
  4322   00115E  26E1               	addwf	fsr1l,f,c
  4323   001160  50DD               	movf	postdec2,w,c
  4324   001162  22E2               	addwfc	fsr1h,f,c
  4325   001164  CFF8 FFE7          	movff	tblptru,indf1	;volatile
  4326   001168  EE24  F0AE         	lfsr	2,_r_queue+469
  4327   00116C  EE10 F006          	lfsr	1,6
  4328   001170  50DE               	movf	postinc2,w,c
  4329   001172  26E1               	addwf	fsr1l,f,c
  4330   001174  50DD               	movf	postdec2,w,c
  4331   001176  22E2               	addwfc	fsr1h,f,c
  4332   001178  CFE8 FFE7          	movff	wreg,indf1	;volatile
  4333   00117C  EE24  F0AE         	lfsr	2,_r_queue+469
  4334   001180  EE10 F007          	lfsr	1,7
  4335   001184  50DE               	movf	postinc2,w,c
  4336   001186  26E1               	addwf	fsr1l,f,c
  4337   001188  50DD               	movf	postdec2,w,c
  4338   00118A  22E2               	addwfc	fsr1h,f,c
  4339   00118C  CFD8 FFE7          	movff	status,indf1	;volatile
  4340   001190  EE24  F0AE         	lfsr	2,_r_queue+469
  4341   001194  EE10 F074          	lfsr	1,116
  4342   001198  50DE               	movf	postinc2,w,c
  4343   00119A  26E1               	addwf	fsr1l,f,c
  4344   00119C  50DD               	movf	postdec2,w,c
  4345   00119E  22E2               	addwfc	fsr1h,f,c
  4346   0011A0  6AE7               	clrf	indf1,c
  4347   0011A2  EF49  F009         	goto	i1l2674
  4348   0011A6                     i1l2670:
  4349   0011A6  EE24  F0AE         	lfsr	2,_r_queue+469
  4350   0011AA  EE10 F074          	lfsr	1,116
  4351   0011AE  50DE               	movf	postinc2,w,c
  4352   0011B0  26E1               	addwf	fsr1l,f,c
  4353   0011B2  50DD               	movf	postdec2,w,c
  4354   0011B4  22E2               	addwfc	fsr1h,f,c
  4355   0011B6  50E7               	movf	indf1,w,c
  4356   0011B8  6E35               	movwf	??_os_delay^0,c
  4357   0011BA  5035               	movf	??_os_delay^0,w,c
  4358   0011BC  0D03               	mullw	3
  4359   0011BE  CFF3 F036          	movff	prodl,??_os_delay+1
  4360   0011C2  CFF4 F037          	movff	prodh,??_os_delay+2
  4361   0011C6  EE24  F0AE         	lfsr	2,_r_queue+469
  4362   0011CA  CFDE F038          	movff	postinc2,??_os_delay+3
  4363   0011CE  CFDD F039          	movff	postdec2,??_os_delay+4
  4364   0011D2  5036               	movf	(??_os_delay+1)^0,w,c
  4365   0011D4  2438               	addwf	(??_os_delay+3)^0,w,c
  4366   0011D6  6E3A               	movwf	(??_os_delay+5)^0,c
  4367   0011D8  5037               	movf	(??_os_delay+2)^0,w,c
  4368   0011DA  2039               	addwfc	(??_os_delay+4)^0,w,c
  4369   0011DC  6E3B               	movwf	(??_os_delay+6)^0,c
  4370   0011DE  0E17               	movlw	23
  4371   0011E0  243A               	addwf	(??_os_delay+5)^0,w,c
  4372   0011E2  6ED9               	movwf	fsr2l,c
  4373   0011E4  0E00               	movlw	0
  4374   0011E6  203B               	addwfc	(??_os_delay+6)^0,w,c
  4375   0011E8  6EDA               	movwf	fsr2h,c
  4376   0011EA  CFFD FFDF          	movff	tosl,indf2	;volatile
  4377   0011EE  EE24  F0AE         	lfsr	2,_r_queue+469
  4378   0011F2  EE10 F074          	lfsr	1,116
  4379   0011F6  50DE               	movf	postinc2,w,c
  4380   0011F8  26E1               	addwf	fsr1l,f,c
  4381   0011FA  50DD               	movf	postdec2,w,c
  4382   0011FC  22E2               	addwfc	fsr1h,f,c
  4383   0011FE  50E7               	movf	indf1,w,c
  4384   001200  6E35               	movwf	??_os_delay^0,c
  4385   001202  5035               	movf	??_os_delay^0,w,c
  4386   001204  0D03               	mullw	3
  4387   001206  CFF3 F036          	movff	prodl,??_os_delay+1
  4388   00120A  CFF4 F037          	movff	prodh,??_os_delay+2
  4389   00120E  EE24  F0AE         	lfsr	2,_r_queue+469
  4390   001212  CFDE F038          	movff	postinc2,??_os_delay+3
  4391   001216  CFDD F039          	movff	postdec2,??_os_delay+4
  4392   00121A  5036               	movf	(??_os_delay+1)^0,w,c
  4393   00121C  2438               	addwf	(??_os_delay+3)^0,w,c
  4394   00121E  6E3A               	movwf	(??_os_delay+5)^0,c
  4395   001220  5037               	movf	(??_os_delay+2)^0,w,c
  4396   001222  2039               	addwfc	(??_os_delay+4)^0,w,c
  4397   001224  6E3B               	movwf	(??_os_delay+6)^0,c
  4398   001226  0E18               	movlw	24
  4399   001228  243A               	addwf	(??_os_delay+5)^0,w,c
  4400   00122A  6ED9               	movwf	fsr2l,c
  4401   00122C  0E00               	movlw	0
  4402   00122E  203B               	addwfc	(??_os_delay+6)^0,w,c
  4403   001230  6EDA               	movwf	fsr2h,c
  4404   001232  CFFE FFDF          	movff	tosh,indf2	;volatile
  4405   001236  EE24  F0AE         	lfsr	2,_r_queue+469
  4406   00123A  EE10 F074          	lfsr	1,116
  4407   00123E  50DE               	movf	postinc2,w,c
  4408   001240  26E1               	addwf	fsr1l,f,c
  4409   001242  50DD               	movf	postdec2,w,c
  4410   001244  22E2               	addwfc	fsr1h,f,c
  4411   001246  50E7               	movf	indf1,w,c
  4412   001248  6E35               	movwf	??_os_delay^0,c
  4413   00124A  5035               	movf	??_os_delay^0,w,c
  4414   00124C  0D03               	mullw	3
  4415   00124E  CFF3 F036          	movff	prodl,??_os_delay+1
  4416   001252  CFF4 F037          	movff	prodh,??_os_delay+2
  4417   001256  EE24  F0AE         	lfsr	2,_r_queue+469
  4418   00125A  CFDE F038          	movff	postinc2,??_os_delay+3
  4419   00125E  CFDD F039          	movff	postdec2,??_os_delay+4
  4420   001262  5036               	movf	(??_os_delay+1)^0,w,c
  4421   001264  2438               	addwf	(??_os_delay+3)^0,w,c
  4422   001266  6E3A               	movwf	(??_os_delay+5)^0,c
  4423   001268  5037               	movf	(??_os_delay+2)^0,w,c
  4424   00126A  2039               	addwfc	(??_os_delay+4)^0,w,c
  4425   00126C  6E3B               	movwf	(??_os_delay+6)^0,c
  4426   00126E  0E19               	movlw	25
  4427   001270  243A               	addwf	(??_os_delay+5)^0,w,c
  4428   001272  6ED9               	movwf	fsr2l,c
  4429   001274  0E00               	movlw	0
  4430   001276  203B               	addwfc	(??_os_delay+6)^0,w,c
  4431   001278  6EDA               	movwf	fsr2h,c
  4432   00127A  CFFF FFDF          	movff	tosu,indf2	;volatile
  4433   00127E  EE24  F0AE         	lfsr	2,_r_queue+469
  4434   001282  EE10 F074          	lfsr	1,116
  4435   001286  50DE               	movf	postinc2,w,c
  4436   001288  26E1               	addwf	fsr1l,f,c
  4437   00128A  50DD               	movf	postdec2,w,c
  4438   00128C  22E2               	addwfc	fsr1h,f,c
  4439   00128E  2AE7               	incf	indf1,f,c
  4440   001290  0006               	pop		;# 
  4441   001292                     i1l2674:
  4442   001292  50FC               	movf	252,w,c	;volatile
  4443   001294  A4D8               	btfss	status,2,c
  4444   001296  EF4F  F009         	goto	i1u172_21
  4445   00129A  EF51  F009         	goto	i1u172_20
  4446   00129E                     i1u172_21:
  4447   00129E  EFD3  F008         	goto	i1l2670
  4448   0012A2                     i1u172_20:
  4449   0012A2                     i1l2676:
  4450                           
  4451                           ;kernel.c: 16:     r_queue.TASKS[r_queue.pos_task_running].task_delay = time;
  4452   0012A2  C4B0  F035         	movff	_r_queue+471,??_os_delay
  4453   0012A6  5035               	movf	??_os_delay^0,w,c
  4454   0012A8  0D75               	mullw	117
  4455   0012AA  0EDD               	movlw	low (_r_queue+4)
  4456   0012AC  24F3               	addwf	243,w,c
  4457   0012AE  6ED9               	movwf	fsr2l,c
  4458   0012B0  0E02               	movlw	high (_r_queue+4)
  4459   0012B2  20F4               	addwfc	prodh,w,c
  4460   0012B4  6EDA               	movwf	fsr2h,c
  4461   0012B6  C03C  FFDF         	movff	os_delay@time,indf2
  4462   0012BA                     
  4463                           ;kernel.c: 17:     scheduler();
  4464   0012BA  ECEE  F010         	call	i1_scheduler	;wreg free
  4465   0012BE  EE24  F0AE         	lfsr	2,_r_queue+469
  4466   0012C2  EE10 F001          	lfsr	1,1
  4467   0012C6  50DE               	movf	postinc2,w,c
  4468   0012C8  26E1               	addwf	fsr1l,f,c
  4469   0012CA  50DD               	movf	postdec2,w,c
  4470   0012CC  22E2               	addwfc	fsr1h,f,c
  4471   0012CE  50E7               	movf	indf1,w,c
  4472   0012D0  A4D8               	btfss	status,2,c
  4473   0012D2  EF6D  F009         	goto	i1u173_21
  4474   0012D6  EF6F  F009         	goto	i1u173_20
  4475   0012DA                     i1u173_21:
  4476   0012DA  EF02  F00B         	goto	i1l2700
  4477   0012DE                     i1u173_20:
  4478   0012DE  EE24  F0AE         	lfsr	2,_r_queue+469
  4479   0012E2  EE10 F001          	lfsr	1,1
  4480   0012E6  50DE               	movf	postinc2,w,c
  4481   0012E8  26E1               	addwf	fsr1l,f,c
  4482   0012EA  50DD               	movf	postdec2,w,c
  4483   0012EC  22E2               	addwfc	fsr1h,f,c
  4484   0012EE  0E02               	movlw	2
  4485   0012F0  6EE7               	movwf	indf1,c
  4486   0012F2  EE24  F0AE         	lfsr	2,_r_queue+469
  4487   0012F6  EE10 F008          	lfsr	1,8
  4488   0012FA  50DE               	movf	postinc2,w,c
  4489   0012FC  26E1               	addwf	fsr1l,f,c
  4490   0012FE  50DD               	movf	postdec2,w,c
  4491   001300  22E2               	addwfc	fsr1h,f,c
  4492   001302  50E7               	movf	indf1,w,c
  4493   001304  6EE0               	movwf	224,c	;volatile
  4494   001306  EE24  F0AE         	lfsr	2,_r_queue+469
  4495   00130A  EE10 F00C          	lfsr	1,12
  4496   00130E  50DE               	movf	postinc2,w,c
  4497   001310  26E1               	addwf	fsr1l,f,c
  4498   001312  50DD               	movf	postdec2,w,c
  4499   001314  22E2               	addwfc	fsr1h,f,c
  4500   001316  50E7               	movf	indf1,w,c
  4501   001318  6EEA               	movwf	234,c	;volatile
  4502   00131A  EE24  F0AE         	lfsr	2,_r_queue+469
  4503   00131E  EE10 F00B          	lfsr	1,11
  4504   001322  50DE               	movf	postinc2,w,c
  4505   001324  26E1               	addwf	fsr1l,f,c
  4506   001326  50DD               	movf	postdec2,w,c
  4507   001328  22E2               	addwfc	fsr1h,f,c
  4508   00132A  50E7               	movf	indf1,w,c
  4509   00132C  6EE9               	movwf	233,c	;volatile
  4510   00132E  EE24  F0AE         	lfsr	2,_r_queue+469
  4511   001332  EE10 F00E          	lfsr	1,14
  4512   001336  50DE               	movf	postinc2,w,c
  4513   001338  26E1               	addwf	fsr1l,f,c
  4514   00133A  50DD               	movf	postdec2,w,c
  4515   00133C  22E2               	addwfc	fsr1h,f,c
  4516   00133E  50E7               	movf	indf1,w,c
  4517   001340  6EE2               	movwf	226,c	;volatile
  4518   001342  EE24  F0AE         	lfsr	2,_r_queue+469
  4519   001346  EE10 F00D          	lfsr	1,13
  4520   00134A  50DE               	movf	postinc2,w,c
  4521   00134C  26E1               	addwf	fsr1l,f,c
  4522   00134E  50DD               	movf	postdec2,w,c
  4523   001350  22E2               	addwfc	fsr1h,f,c
  4524   001352  50E7               	movf	indf1,w,c
  4525   001354  6EE1               	movwf	225,c	;volatile
  4526   001356  EE24  F0AE         	lfsr	2,_r_queue+469
  4527   00135A  EE10 F010          	lfsr	1,16
  4528   00135E  50DE               	movf	postinc2,w,c
  4529   001360  26E1               	addwf	fsr1l,f,c
  4530   001362  50DD               	movf	postdec2,w,c
  4531   001364  22E2               	addwfc	fsr1h,f,c
  4532   001366  50E7               	movf	indf1,w,c
  4533   001368  6EDA               	movwf	218,c	;volatile
  4534   00136A  EE24  F0AE         	lfsr	2,_r_queue+469
  4535   00136E  EE10 F00F          	lfsr	1,15
  4536   001372  50DE               	movf	postinc2,w,c
  4537   001374  26E1               	addwf	fsr1l,f,c
  4538   001376  50DD               	movf	postdec2,w,c
  4539   001378  22E2               	addwfc	fsr1h,f,c
  4540   00137A  50E7               	movf	indf1,w,c
  4541   00137C  6ED9               	movwf	217,c	;volatile
  4542   00137E  EE24  F0AE         	lfsr	2,_r_queue+469
  4543   001382  EE10 F015          	lfsr	1,21
  4544   001386  50DE               	movf	postinc2,w,c
  4545   001388  26E1               	addwf	fsr1l,f,c
  4546   00138A  50DD               	movf	postdec2,w,c
  4547   00138C  22E2               	addwfc	fsr1h,f,c
  4548   00138E  50E7               	movf	indf1,w,c
  4549   001390  6EFA               	movwf	250,c	;volatile
  4550   001392  EE24  F0AE         	lfsr	2,_r_queue+469
  4551   001396  EE10 F016          	lfsr	1,22
  4552   00139A  50DE               	movf	postinc2,w,c
  4553   00139C  26E1               	addwf	fsr1l,f,c
  4554   00139E  50DD               	movf	postdec2,w,c
  4555   0013A0  22E2               	addwfc	fsr1h,f,c
  4556   0013A2  50E7               	movf	indf1,w,c
  4557   0013A4  6EFB               	movwf	251,c	;volatile
  4558   0013A6  EE24  F0AE         	lfsr	2,_r_queue+469
  4559   0013AA  EE10 F00A          	lfsr	1,10
  4560   0013AE  50DE               	movf	postinc2,w,c
  4561   0013B0  26E1               	addwf	fsr1l,f,c
  4562   0013B2  50DD               	movf	postdec2,w,c
  4563   0013B4  22E2               	addwfc	fsr1h,f,c
  4564   0013B6  50E7               	movf	indf1,w,c
  4565   0013B8  6EF4               	movwf	244,c	;volatile
  4566   0013BA  EE24  F0AE         	lfsr	2,_r_queue+469
  4567   0013BE  EE10 F009          	lfsr	1,9
  4568   0013C2  50DE               	movf	postinc2,w,c
  4569   0013C4  26E1               	addwf	fsr1l,f,c
  4570   0013C6  50DD               	movf	postdec2,w,c
  4571   0013C8  22E2               	addwfc	fsr1h,f,c
  4572   0013CA  50E7               	movf	indf1,w,c
  4573   0013CC  6EF3               	movwf	243,c	;volatile
  4574   0013CE  EE24  F0AE         	lfsr	2,_r_queue+469
  4575   0013D2  EE10 F011          	lfsr	1,17
  4576   0013D6  50DE               	movf	postinc2,w,c
  4577   0013D8  26E1               	addwf	fsr1l,f,c
  4578   0013DA  50DD               	movf	postdec2,w,c
  4579   0013DC  22E2               	addwfc	fsr1h,f,c
  4580   0013DE  50E7               	movf	indf1,w,c
  4581   0013E0  6EF5               	movwf	245,c	;volatile
  4582   0013E2  EE24  F0AE         	lfsr	2,_r_queue+469
  4583   0013E6  EE10 F013          	lfsr	1,19
  4584   0013EA  50DE               	movf	postinc2,w,c
  4585   0013EC  26E1               	addwf	fsr1l,f,c
  4586   0013EE  50DD               	movf	postdec2,w,c
  4587   0013F0  22E2               	addwfc	fsr1h,f,c
  4588   0013F2  50E7               	movf	indf1,w,c
  4589   0013F4  6EF7               	movwf	247,c	;volatile
  4590   0013F6  EE24  F0AE         	lfsr	2,_r_queue+469
  4591   0013FA  EE10 F012          	lfsr	1,18
  4592   0013FE  50DE               	movf	postinc2,w,c
  4593   001400  26E1               	addwf	fsr1l,f,c
  4594   001402  50DD               	movf	postdec2,w,c
  4595   001404  22E2               	addwfc	fsr1h,f,c
  4596   001406  50E7               	movf	indf1,w,c
  4597   001408  6EF6               	movwf	246,c	;volatile
  4598   00140A  EE24  F0AE         	lfsr	2,_r_queue+469
  4599   00140E  EE10 F014          	lfsr	1,20
  4600   001412  50DE               	movf	postinc2,w,c
  4601   001414  26E1               	addwf	fsr1l,f,c
  4602   001416  50DD               	movf	postdec2,w,c
  4603   001418  22E2               	addwfc	fsr1h,f,c
  4604   00141A  50E7               	movf	indf1,w,c
  4605   00141C  6EF8               	movwf	248,c	;volatile
  4606   00141E  EE24  F0AE         	lfsr	2,_r_queue+469
  4607   001422  EE10 F007          	lfsr	1,7
  4608   001426  50DE               	movf	postinc2,w,c
  4609   001428  26E1               	addwf	fsr1l,f,c
  4610   00142A  50DD               	movf	postdec2,w,c
  4611   00142C  22E2               	addwfc	fsr1h,f,c
  4612   00142E  50E7               	movf	indf1,w,c
  4613   001430  6ED8               	movwf	216,c	;volatile
  4614   001432  EE24  F0AE         	lfsr	2,_r_queue+469
  4615   001436  EE10 F006          	lfsr	1,6
  4616   00143A  50DE               	movf	postinc2,w,c
  4617   00143C  26E1               	addwf	fsr1l,f,c
  4618   00143E  50DD               	movf	postdec2,w,c
  4619   001440  22E2               	addwfc	fsr1h,f,c
  4620   001442  50E7               	movf	indf1,w,c
  4621   001444  6E35               	movwf	??_os_delay^0,c
  4622   001446  5035               	movf	??_os_delay^0,w,c
  4623   001448  6AFC               	clrf	252,c	;volatile
  4624   00144A  EE24  F0AE         	lfsr	2,_r_queue+469
  4625   00144E  EE10 F074          	lfsr	1,116
  4626   001452  50DE               	movf	postinc2,w,c
  4627   001454  26E1               	addwf	fsr1l,f,c
  4628   001456  50DD               	movf	postdec2,w,c
  4629   001458  22E2               	addwfc	fsr1h,f,c
  4630   00145A  50E7               	movf	indf1,w,c
  4631   00145C  B4D8               	btfsc	status,2,c
  4632   00145E  EF33  F00A         	goto	i1u174_21
  4633   001462  EF35  F00A         	goto	i1u174_20
  4634   001466                     i1u174_21:
  4635   001466  EFBD  F00A         	goto	i1l95
  4636   00146A                     i1u174_20:
  4637   00146A                     i1l96:
  4638   00146A  0005               	push		;# 
  4639   00146C  EE24  F0AE         	lfsr	2,_r_queue+469
  4640   001470  EE10 F074          	lfsr	1,116
  4641   001474  50DE               	movf	postinc2,w,c
  4642   001476  26E1               	addwf	fsr1l,f,c
  4643   001478  50DD               	movf	postdec2,w,c
  4644   00147A  22E2               	addwfc	fsr1h,f,c
  4645   00147C  06E7               	decf	indf1,f,c
  4646   00147E  EE24  F0AE         	lfsr	2,_r_queue+469
  4647   001482  EE10 F074          	lfsr	1,116
  4648   001486  50DE               	movf	postinc2,w,c
  4649   001488  26E1               	addwf	fsr1l,f,c
  4650   00148A  50DD               	movf	postdec2,w,c
  4651   00148C  22E2               	addwfc	fsr1h,f,c
  4652   00148E  50E7               	movf	indf1,w,c
  4653   001490  6E35               	movwf	??_os_delay^0,c
  4654   001492  5035               	movf	??_os_delay^0,w,c
  4655   001494  0D03               	mullw	3
  4656   001496  CFF3 F036          	movff	prodl,??_os_delay+1
  4657   00149A  CFF4 F037          	movff	prodh,??_os_delay+2
  4658   00149E  EE24  F0AE         	lfsr	2,_r_queue+469
  4659   0014A2  CFDE F038          	movff	postinc2,??_os_delay+3
  4660   0014A6  CFDD F039          	movff	postdec2,??_os_delay+4
  4661   0014AA  5036               	movf	(??_os_delay+1)^0,w,c
  4662   0014AC  2438               	addwf	(??_os_delay+3)^0,w,c
  4663   0014AE  6E3A               	movwf	(??_os_delay+5)^0,c
  4664   0014B0  5037               	movf	(??_os_delay+2)^0,w,c
  4665   0014B2  2039               	addwfc	(??_os_delay+4)^0,w,c
  4666   0014B4  6E3B               	movwf	(??_os_delay+6)^0,c
  4667   0014B6  0E17               	movlw	23
  4668   0014B8  243A               	addwf	(??_os_delay+5)^0,w,c
  4669   0014BA  6ED9               	movwf	fsr2l,c
  4670   0014BC  0E00               	movlw	0
  4671   0014BE  203B               	addwfc	(??_os_delay+6)^0,w,c
  4672   0014C0  6EDA               	movwf	fsr2h,c
  4673   0014C2  50DF               	movf	indf2,w,c
  4674   0014C4  6EFD               	movwf	253,c	;volatile
  4675   0014C6  EE24  F0AE         	lfsr	2,_r_queue+469
  4676   0014CA  EE10 F074          	lfsr	1,116
  4677   0014CE  50DE               	movf	postinc2,w,c
  4678   0014D0  26E1               	addwf	fsr1l,f,c
  4679   0014D2  50DD               	movf	postdec2,w,c
  4680   0014D4  22E2               	addwfc	fsr1h,f,c
  4681   0014D6  50E7               	movf	indf1,w,c
  4682   0014D8  6E35               	movwf	??_os_delay^0,c
  4683   0014DA  5035               	movf	??_os_delay^0,w,c
  4684   0014DC  0D03               	mullw	3
  4685   0014DE  CFF3 F036          	movff	prodl,??_os_delay+1
  4686   0014E2  CFF4 F037          	movff	prodh,??_os_delay+2
  4687   0014E6  EE24  F0AE         	lfsr	2,_r_queue+469
  4688   0014EA  CFDE F038          	movff	postinc2,??_os_delay+3
  4689   0014EE  CFDD F039          	movff	postdec2,??_os_delay+4
  4690   0014F2  5036               	movf	(??_os_delay+1)^0,w,c
  4691   0014F4  2438               	addwf	(??_os_delay+3)^0,w,c
  4692   0014F6  6E3A               	movwf	(??_os_delay+5)^0,c
  4693   0014F8  5037               	movf	(??_os_delay+2)^0,w,c
  4694   0014FA  2039               	addwfc	(??_os_delay+4)^0,w,c
  4695   0014FC  6E3B               	movwf	(??_os_delay+6)^0,c
  4696   0014FE  0E18               	movlw	24
  4697   001500  243A               	addwf	(??_os_delay+5)^0,w,c
  4698   001502  6ED9               	movwf	fsr2l,c
  4699   001504  0E00               	movlw	0
  4700   001506  203B               	addwfc	(??_os_delay+6)^0,w,c
  4701   001508  6EDA               	movwf	fsr2h,c
  4702   00150A  50DF               	movf	indf2,w,c
  4703   00150C  6EFE               	movwf	254,c	;volatile
  4704   00150E  EE24  F0AE         	lfsr	2,_r_queue+469
  4705   001512  EE10 F074          	lfsr	1,116
  4706   001516  50DE               	movf	postinc2,w,c
  4707   001518  26E1               	addwf	fsr1l,f,c
  4708   00151A  50DD               	movf	postdec2,w,c
  4709   00151C  22E2               	addwfc	fsr1h,f,c
  4710   00151E  50E7               	movf	indf1,w,c
  4711   001520  6E35               	movwf	??_os_delay^0,c
  4712   001522  5035               	movf	??_os_delay^0,w,c
  4713   001524  0D03               	mullw	3
  4714   001526  CFF3 F036          	movff	prodl,??_os_delay+1
  4715   00152A  CFF4 F037          	movff	prodh,??_os_delay+2
  4716   00152E  EE24  F0AE         	lfsr	2,_r_queue+469
  4717   001532  CFDE F038          	movff	postinc2,??_os_delay+3
  4718   001536  CFDD F039          	movff	postdec2,??_os_delay+4
  4719   00153A  5036               	movf	(??_os_delay+1)^0,w,c
  4720   00153C  2438               	addwf	(??_os_delay+3)^0,w,c
  4721   00153E  6E3A               	movwf	(??_os_delay+5)^0,c
  4722   001540  5037               	movf	(??_os_delay+2)^0,w,c
  4723   001542  2039               	addwfc	(??_os_delay+4)^0,w,c
  4724   001544  6E3B               	movwf	(??_os_delay+6)^0,c
  4725   001546  0E19               	movlw	25
  4726   001548  243A               	addwf	(??_os_delay+5)^0,w,c
  4727   00154A  6ED9               	movwf	fsr2l,c
  4728   00154C  0E00               	movlw	0
  4729   00154E  203B               	addwfc	(??_os_delay+6)^0,w,c
  4730   001550  6EDA               	movwf	fsr2h,c
  4731   001552  50DF               	movf	indf2,w,c
  4732   001554  6EFF               	movwf	255,c	;volatile
  4733   001556  EE24  F0AE         	lfsr	2,_r_queue+469
  4734   00155A  EE10 F074          	lfsr	1,116
  4735   00155E  50DE               	movf	postinc2,w,c
  4736   001560  26E1               	addwf	fsr1l,f,c
  4737   001562  50DD               	movf	postdec2,w,c
  4738   001564  22E2               	addwfc	fsr1h,f,c
  4739   001566  50E7               	movf	indf1,w,c
  4740   001568  A4D8               	btfss	status,2,c
  4741   00156A  EFB9  F00A         	goto	i1u175_21
  4742   00156E  EFBB  F00A         	goto	i1u175_20
  4743   001572                     i1u175_21:
  4744   001572  EF35  F00A         	goto	i1l96
  4745   001576                     i1u175_20:
  4746   001576  EF00  F00B         	goto	i1l2698
  4747   00157A                     i1l95:
  4748   00157A  0005               	push		;# 
  4749   00157C  EE24  F0AE         	lfsr	2,_r_queue+469
  4750   001580  EE10 F002          	lfsr	1,2
  4751   001584  50DE               	movf	postinc2,w,c
  4752   001586  26E1               	addwf	fsr1l,f,c
  4753   001588  50DD               	movf	postdec2,w,c
  4754   00158A  22E2               	addwfc	fsr1h,f,c
  4755   00158C  50E7               	movf	indf1,w,c
  4756   00158E  6EFD               	movwf	253,c	;volatile
  4757   001590  EE24  F0AE         	lfsr	2,_r_queue+469
  4758   001594  EE10 F002          	lfsr	1,2
  4759   001598  50DE               	movf	postinc2,w,c
  4760   00159A  26E1               	addwf	fsr1l,f,c
  4761   00159C  50DD               	movf	postdec2,w,c
  4762   00159E  22E2               	addwfc	fsr1h,f,c
  4763   0015A0  CFE6 F035          	movff	postinc1,??_os_delay
  4764   0015A4  CFE5 F036          	movff	postdec1,??_os_delay+1
  4765   0015A8  C035  F037         	movff	??_os_delay,??_os_delay+2
  4766   0015AC  C036  F038         	movff	??_os_delay+1,??_os_delay+3
  4767   0015B0  6A39               	clrf	(??_os_delay+4)^0,c
  4768   0015B2  C038  F037         	movff	??_os_delay+3,??_os_delay+2
  4769   0015B6  C039  F038         	movff	??_os_delay+4,??_os_delay+3
  4770   0015BA  6A39               	clrf	(??_os_delay+4)^0,c
  4771   0015BC  5037               	movf	(??_os_delay+2)^0,w,c
  4772   0015BE  6EFE               	movwf	254,c	;volatile
  4773   0015C0  0E10               	movlw	16
  4774   0015C2  6E35               	movwf	??_os_delay^0,c
  4775   0015C4  EE24  F0AE         	lfsr	2,_r_queue+469
  4776   0015C8  EE10 F002          	lfsr	1,2
  4777   0015CC  50DE               	movf	postinc2,w,c
  4778   0015CE  26E1               	addwf	fsr1l,f,c
  4779   0015D0  50DD               	movf	postdec2,w,c
  4780   0015D2  22E2               	addwfc	fsr1h,f,c
  4781   0015D4  CFE6 F036          	movff	postinc1,??_os_delay+1
  4782   0015D8  CFE5 F037          	movff	postdec1,??_os_delay+2
  4783   0015DC  C036  F038         	movff	??_os_delay+1,??_os_delay+3
  4784   0015E0  C037  F039         	movff	??_os_delay+2,??_os_delay+4
  4785   0015E4  6A3A               	clrf	(??_os_delay+5)^0,c
  4786   0015E6  2835               	incf	??_os_delay^0,w,c
  4787   0015E8  6E3B               	movwf	(??_os_delay+6)^0,c
  4788   0015EA  EFFB  F00A         	goto	i1u176_20
  4789   0015EE                     i1u176_25:
  4790   0015EE  90D8               	bcf	status,0,c
  4791   0015F0  323A               	rrcf	(??_os_delay+5)^0,f,c
  4792   0015F2  3239               	rrcf	(??_os_delay+4)^0,f,c
  4793   0015F4  3238               	rrcf	(??_os_delay+3)^0,f,c
  4794   0015F6                     i1u176_20:
  4795   0015F6  2E3B               	decfsz	(??_os_delay+6)^0,f,c
  4796   0015F8  EFF7  F00A         	goto	i1u176_25
  4797   0015FC  5038               	movf	(??_os_delay+3)^0,w,c
  4798   0015FE  6EFF               	movwf	255,c	;volatile
  4799   001600                     i1l2698:
  4800   001600  0E14               	movlw	20
  4801   001602  6E44               	movwf	_rr_quantum^0,c
  4802   001604                     i1l2700:
  4803                           
  4804                           ;kernel.c: 20:     INTCONbits.GIE = 1;;
  4805   001604  8EF2               	bsf	242,7,c	;volatile
  4806   001606  0012               	return		;funcret
  4807   001608                     __end_of_os_delay:
  4808                           	callstack 0
  4809                           
  4810 ;; *************** function i1_scheduler *****************
  4811 ;; Defined at:
  4812 ;;		line 9 in file "scheduler.c"
  4813 ;; Parameters:    Size  Location     Type
  4814 ;;		None
  4815 ;; Auto vars:     Size  Location     Type
  4816 ;;		None
  4817 ;; Return value:  Size  Location     Type
  4818 ;;                  1    wreg      void 
  4819 ;; Registers used:
  4820 ;;		wreg, fsr2l, fsr2h, status,2, status,0, prodl, prodh, cstack
  4821 ;; Tracked objects:
  4822 ;;		On entry : 0/0
  4823 ;;		On exit  : 0/0
  4824 ;;		Unchanged: 0/0
  4825 ;; Data sizes:     COMRAM   BANK0   BANK1   BANK2   BANK3   BANK4   BANK5   BANK6   BANK7   BANK8   BANK9  BANK10  BANK1
      +1  BANK12  BANK13  BANK14  BANK15
  4826 ;;      Params:         0       0       0       0       0       0       0       0       0       0       0       0       
      +0       0       0       0       0
  4827 ;;      Locals:         0       0       0       0       0       0       0       0       0       0       0       0       
      +0       0       0       0       0
  4828 ;;      Temps:          3       0       0       0       0       0       0       0       0       0       0       0       
      +0       0       0       0       0
  4829 ;;      Totals:         3       0       0       0       0       0       0       0       0       0       0       0       
      +0       0       0       0       0
  4830 ;;Total ram usage:        3 bytes
  4831 ;; Hardware stack levels used: 1
  4832 ;; Hardware stack levels required when called: 6
  4833 ;; This function calls:
  4834 ;;		i1_priority_rr_scheduler
  4835 ;; This function is called by:
  4836 ;;		_os_delay
  4837 ;; This function uses a non-reentrant model
  4838 ;;
  4839                           
  4840                           	psect	text18
  4841   0021DC                     __ptext18:
  4842                           	callstack 0
  4843   0021DC                     i1_scheduler:
  4844                           	callstack 18
  4845   0021DC                     
  4846                           ;scheduler.c: 15:     r_queue.pos_task_running = priority_rr_scheduler();
  4847   0021DC  EC4A  F00D         	call	i1_priority_rr_scheduler	;wreg free
  4848   0021E0  6E32               	movwf	??i1_scheduler^0,c
  4849   0021E2  C032  F4B0         	movff	??i1_scheduler,_r_queue+471
  4850   0021E6                     
  4851                           ;scheduler.c: 17:     r_queue.task_running = &r_queue.TASKS[r_queue.pos_task_running];
  4852   0021E6  C4B0  F032         	movff	_r_queue+471,??i1_scheduler
  4853   0021EA  5032               	movf	??i1_scheduler^0,w,c
  4854   0021EC  0D75               	mullw	117
  4855   0021EE  0ED9               	movlw	low _r_queue
  4856   0021F0  24F3               	addwf	243,w,c
  4857   0021F2  6E33               	movwf	(??i1_scheduler+1)^0,c
  4858   0021F4  0E02               	movlw	high _r_queue
  4859   0021F6  20F4               	addwfc	prodh,w,c
  4860   0021F8  6E34               	movwf	(??i1_scheduler+2)^0,c
  4861   0021FA  C033  F4AE         	movff	??i1_scheduler+1,_r_queue+469
  4862   0021FE  C034  F4AF         	movff	??i1_scheduler+2,_r_queue+470
  4863   002202  0012               	return		;funcret
  4864   002204                     __end_ofi1_scheduler:
  4865                           	callstack 0
  4866                           
  4867 ;; *************** function i1_priority_rr_scheduler *****************
  4868 ;; Defined at:
  4869 ;;		line 52 in file "scheduler.c"
  4870 ;; Parameters:    Size  Location     Type
  4871 ;;		None
  4872 ;; Auto vars:     Size  Location     Type
  4873 ;;  i               1   12[COMRAM] unsigned char 
  4874 ;;  idx             1   11[COMRAM] unsigned char 
  4875 ;;  i               1   10[COMRAM] unsigned char 
  4876 ;;  found           1    9[COMRAM] unsigned char 
  4877 ;;  max_prio        1    8[COMRAM] unsigned char 
  4878 ;;  current         1    7[COMRAM] unsigned char 
  4879 ;; Return value:  Size  Location     Type
  4880 ;;                  1    wreg      unsigned char 
  4881 ;; Registers used:
  4882 ;;		wreg, fsr2l, fsr2h, status,2, status,0, prodl, prodh, cstack
  4883 ;; Tracked objects:
  4884 ;;		On entry : 0/0
  4885 ;;		On exit  : 0/0
  4886 ;;		Unchanged: 0/0
  4887 ;; Data sizes:     COMRAM   BANK0   BANK1   BANK2   BANK3   BANK4   BANK5   BANK6   BANK7   BANK8   BANK9  BANK10  BANK1
      +1  BANK12  BANK13  BANK14  BANK15
  4888 ;;      Params:         0       0       0       0       0       0       0       0       0       0       0       0       
      +0       0       0       0       0
  4889 ;;      Locals:         6       0       0       0       0       0       0       0       0       0       0       0       
      +0       0       0       0       0
  4890 ;;      Temps:          1       0       0       0       0       0       0       0       0       0       0       0       
      +0       0       0       0       0
  4891 ;;      Totals:         7       0       0       0       0       0       0       0       0       0       0       0       
      +0       0       0       0       0
  4892 ;;Total ram usage:        7 bytes
  4893 ;; Hardware stack levels used: 1
  4894 ;; Hardware stack levels required when called: 5
  4895 ;; This function calls:
  4896 ;;		i1___awmod
  4897 ;; This function is called by:
  4898 ;;		i1_scheduler
  4899 ;; This function uses a non-reentrant model
  4900 ;;
  4901                           
  4902                           	psect	text19
  4903   001A94                     __ptext19:
  4904                           	callstack 0
  4905   001A94                     i1_priority_rr_scheduler:
  4906                           	callstack 18
  4907   001A94                     
  4908                           ;scheduler.c: 53:     uint8_t max_prio = 0;
  4909   001A94  6A2D               	clrf	i1priority_rr_scheduler@max_prio^0,c
  4910                           
  4911                           ;scheduler.c: 54:     uint8_t found = 0;
  4912   001A96  6A2E               	clrf	i1priority_rr_scheduler@found^0,c
  4913                           
  4914                           ;scheduler.c: 57:     for (uint8_t i = 0; i < r_queue.size; i++) {
  4915   001A98  6A31               	clrf	i1priority_rr_scheduler@i^0,c
  4916   001A9A  EF85  F00D         	goto	i1l2456
  4917   001A9E                     i1l2444:
  4918                           
  4919                           ;scheduler.c: 58:         if (r_queue.TASKS[i].task_state == READY) {
  4920   001A9E  5031               	movf	i1priority_rr_scheduler@i^0,w,c
  4921   001AA0  0D75               	mullw	117
  4922   001AA2  0EDA               	movlw	low (_r_queue+1)
  4923   001AA4  24F3               	addwf	243,w,c
  4924   001AA6  6ED9               	movwf	fsr2l,c
  4925   001AA8  0E02               	movlw	high (_r_queue+1)
  4926   001AAA  20F4               	addwfc	prodh,w,c
  4927   001AAC  6EDA               	movwf	fsr2h,c
  4928   001AAE  50DF               	movf	indf2,w,c
  4929   001AB0  A4D8               	btfss	status,2,c
  4930   001AB2  EF5D  F00D         	goto	i1u144_21
  4931   001AB6  EF5F  F00D         	goto	i1u144_20
  4932   001ABA                     i1u144_21:
  4933   001ABA  EF84  F00D         	goto	i1l2454
  4934   001ABE                     i1u144_20:
  4935   001ABE                     
  4936                           ;scheduler.c: 59:             if (!found || r_queue.TASKS[i].task_priority > max_prio) {
  4937   001ABE  502E               	movf	i1priority_rr_scheduler@found^0,w,c
  4938   001AC0  B4D8               	btfsc	status,2,c
  4939   001AC2  EF65  F00D         	goto	i1u145_21
  4940   001AC6  EF67  F00D         	goto	i1u145_20
  4941   001ACA                     i1u145_21:
  4942   001ACA  EF78  F00D         	goto	i1l2450
  4943   001ACE                     i1u145_20:
  4944   001ACE  5031               	movf	i1priority_rr_scheduler@i^0,w,c
  4945   001AD0  0D75               	mullw	117
  4946   001AD2  0EDE               	movlw	low (_r_queue+5)
  4947   001AD4  24F3               	addwf	243,w,c
  4948   001AD6  6ED9               	movwf	fsr2l,c
  4949   001AD8  0E02               	movlw	high (_r_queue+5)
  4950   001ADA  20F4               	addwfc	prodh,w,c
  4951   001ADC  6EDA               	movwf	fsr2h,c
  4952   001ADE  50DE               	movf	postinc2,w,c
  4953   001AE0  5C2D               	subwf	i1priority_rr_scheduler@max_prio^0,w,c
  4954   001AE2  B0D8               	btfsc	status,0,c
  4955   001AE4  EF76  F00D         	goto	i1u146_21
  4956   001AE8  EF78  F00D         	goto	i1u146_20
  4957   001AEC                     i1u146_21:
  4958   001AEC  EF84  F00D         	goto	i1l2454
  4959   001AF0                     i1u146_20:
  4960   001AF0                     i1l2450:
  4961                           
  4962                           ;scheduler.c: 60:                 max_prio = r_queue.TASKS[i].task_priority;
  4963   001AF0  5031               	movf	i1priority_rr_scheduler@i^0,w,c
  4964   001AF2  0D75               	mullw	117
  4965   001AF4  0EDE               	movlw	low (_r_queue+5)
  4966   001AF6  24F3               	addwf	243,w,c
  4967   001AF8  6ED9               	movwf	fsr2l,c
  4968   001AFA  0E02               	movlw	high (_r_queue+5)
  4969   001AFC  20F4               	addwfc	prodh,w,c
  4970   001AFE  6EDA               	movwf	fsr2h,c
  4971   001B00  50DF               	movf	indf2,w,c
  4972   001B02  6E2D               	movwf	i1priority_rr_scheduler@max_prio^0,c
  4973   001B04                     
  4974                           ;scheduler.c: 61:                 found = 1;
  4975   001B04  0E01               	movlw	1
  4976   001B06  6E2E               	movwf	i1priority_rr_scheduler@found^0,c
  4977   001B08                     i1l2454:
  4978                           
  4979                           ;scheduler.c: 64:     }
  4980   001B08  2A31               	incf	i1priority_rr_scheduler@i^0,f,c
  4981   001B0A                     i1l2456:
  4982   001B0A  EE24  F0AD         	lfsr	2,_r_queue+468
  4983   001B0E  50DE               	movf	postinc2,w,c
  4984   001B10  5C31               	subwf	i1priority_rr_scheduler@i^0,w,c
  4985   001B12  A0D8               	btfss	status,0,c
  4986   001B14  EF8E  F00D         	goto	i1u147_21
  4987   001B18  EF90  F00D         	goto	i1u147_20
  4988   001B1C                     i1u147_21:
  4989   001B1C  EF4F  F00D         	goto	i1l2444
  4990   001B20                     i1u147_20:
  4991   001B20                     
  4992                           ;scheduler.c: 65:     if (!found)return 0;
  4993   001B20  502E               	movf	i1priority_rr_scheduler@found^0,w,c
  4994   001B22  A4D8               	btfss	status,2,c
  4995   001B24  EF96  F00D         	goto	i1u148_21
  4996   001B28  EF98  F00D         	goto	i1u148_20
  4997   001B2C                     i1u148_21:
  4998   001B2C  EF9B  F00D         	goto	i1l509
  4999   001B30                     i1u148_20:
  5000   001B30                     i1l2460:
  5001   001B30  0E00               	movlw	0
  5002   001B32  EFE0  F00D         	goto	i1l510
  5003   001B36                     i1l509:
  5004                           
  5005                           ;scheduler.c: 66:     uint8_t current = r_queue.pos_task_running;
  5006   001B36  C4B0  F02C         	movff	_r_queue+471,i1priority_rr_scheduler@current
  5007                           
  5008                           ;scheduler.c: 68:     for (uint8_t i = 0; i < r_queue.size; i++) {
  5009   001B3A  6A2F               	clrf	i1priority_rr_scheduler@i_1482^0,c
  5010   001B3C  EFD3  F00D         	goto	i1l2476
  5011   001B40                     i1l2464:
  5012                           
  5013                           ;scheduler.c: 69:         uint8_t idx = (current + i) % r_queue.size;
  5014   001B40  502C               	movf	i1priority_rr_scheduler@current^0,w,c
  5015   001B42  242F               	addwf	i1priority_rr_scheduler@i_1482^0,w,c
  5016   001B44  6E25               	movwf	i1___awmod@dividend^0,c
  5017   001B46  6A26               	clrf	(i1___awmod@dividend+1)^0,c
  5018   001B48  3626               	rlcf	(i1___awmod@dividend+1)^0,f,c
  5019   001B4A  C4AD  F02B         	movff	_r_queue+468,??i1_priority_rr_scheduler
  5020   001B4E  502B               	movf	??i1_priority_rr_scheduler^0,w,c
  5021   001B50  6E27               	movwf	i1___awmod@divisor^0,c
  5022   001B52  6A28               	clrf	(i1___awmod@divisor+1)^0,c
  5023   001B54  ECD0  F00E         	call	i1___awmod	;wreg free
  5024   001B58  5025               	movf	?i1___awmod^0,w,c
  5025   001B5A  6E30               	movwf	i1priority_rr_scheduler@idx^0,c
  5026   001B5C                     
  5027                           ;scheduler.c: 70:         if (r_queue.TASKS[idx].task_state == READY &&
  5028   001B5C  5030               	movf	i1priority_rr_scheduler@idx^0,w,c
  5029   001B5E  0D75               	mullw	117
  5030   001B60  0EDA               	movlw	low (_r_queue+1)
  5031   001B62  24F3               	addwf	243,w,c
  5032   001B64  6ED9               	movwf	fsr2l,c
  5033   001B66  0E02               	movlw	high (_r_queue+1)
  5034   001B68  20F4               	addwfc	prodh,w,c
  5035   001B6A  6EDA               	movwf	fsr2h,c
  5036   001B6C  50DF               	movf	indf2,w,c
  5037   001B6E  A4D8               	btfss	status,2,c
  5038   001B70  EFBC  F00D         	goto	i1u149_21
  5039   001B74  EFBE  F00D         	goto	i1u149_20
  5040   001B78                     i1u149_21:
  5041   001B78  EFD2  F00D         	goto	i1l2474
  5042   001B7C                     i1u149_20:
  5043   001B7C  5030               	movf	i1priority_rr_scheduler@idx^0,w,c
  5044   001B7E  0D75               	mullw	117
  5045   001B80  0EDE               	movlw	low (_r_queue+5)
  5046   001B82  24F3               	addwf	243,w,c
  5047   001B84  6ED9               	movwf	fsr2l,c
  5048   001B86  0E02               	movlw	high (_r_queue+5)
  5049   001B88  20F4               	addwfc	prodh,w,c
  5050   001B8A  6EDA               	movwf	fsr2h,c
  5051   001B8C  502D               	movf	i1priority_rr_scheduler@max_prio^0,w,c
  5052   001B8E  18DE               	xorwf	postinc2,w,c
  5053   001B90  A4D8               	btfss	status,2,c
  5054   001B92  EFCD  F00D         	goto	i1u150_21
  5055   001B96  EFCF  F00D         	goto	i1u150_20
  5056   001B9A                     i1u150_21:
  5057   001B9A  EFD2  F00D         	goto	i1l2474
  5058   001B9E                     i1u150_20:
  5059   001B9E                     
  5060                           ;scheduler.c: 71:             r_queue.TASKS[idx].task_priority == max_prio) {;scheduler.
      +                          c: 72:             return idx;
  5061   001B9E  5030               	movf	i1priority_rr_scheduler@idx^0,w,c
  5062   001BA0  EFE0  F00D         	goto	i1l510
  5063   001BA4                     i1l2474:
  5064                           
  5065                           ;scheduler.c: 74:     }
  5066   001BA4  2A2F               	incf	i1priority_rr_scheduler@i_1482^0,f,c
  5067   001BA6                     i1l2476:
  5068   001BA6  EE24  F0AD         	lfsr	2,_r_queue+468
  5069   001BAA  50DE               	movf	postinc2,w,c
  5070   001BAC  5C2F               	subwf	i1priority_rr_scheduler@i_1482^0,w,c
  5071   001BAE  A0D8               	btfss	status,0,c
  5072   001BB0  EFDC  F00D         	goto	i1u151_21
  5073   001BB4  EFDE  F00D         	goto	i1u151_20
  5074   001BB8                     i1u151_21:
  5075   001BB8  EFA0  F00D         	goto	i1l2464
  5076   001BBC                     i1u151_20:
  5077   001BBC  EF98  F00D         	goto	i1l2460
  5078   001BC0                     i1l510:
  5079   001BC0  0012               	return		;funcret
  5080   001BC2                     __end_ofi1_priority_rr_scheduler:
  5081                           	callstack 0
  5082                           
  5083 ;; *************** function i1___awmod *****************
  5084 ;; Defined at:
  5085 ;;		line 7 in file "C:\Program Files\Microchip\xc8\v3.10\pic\sources\c99\common\awmod.c"
  5086 ;; Parameters:    Size  Location     Type
  5087 ;;  dividend        2    0[COMRAM] int 
  5088 ;;  divisor         2    2[COMRAM] int 
  5089 ;; Auto vars:     Size  Location     Type
  5090 ;;  sign            1    5[COMRAM] unsigned char 
  5091 ;;  counter         1    4[COMRAM] unsigned char 
  5092 ;; Return value:  Size  Location     Type
  5093 ;;                  2    0[COMRAM] int 
  5094 ;; Registers used:
  5095 ;;		wreg, status,2, status,0
  5096 ;; Tracked objects:
  5097 ;;		On entry : 0/0
  5098 ;;		On exit  : 0/0
  5099 ;;		Unchanged: 0/0
  5100 ;; Data sizes:     COMRAM   BANK0   BANK1   BANK2   BANK3   BANK4   BANK5   BANK6   BANK7   BANK8   BANK9  BANK10  BANK1
      +1  BANK12  BANK13  BANK14  BANK15
  5101 ;;      Params:         4       0       0       0       0       0       0       0       0       0       0       0       
      +0       0       0       0       0
  5102 ;;      Locals:         2       0       0       0       0       0       0       0       0       0       0       0       
      +0       0       0       0       0
  5103 ;;      Temps:          0       0       0       0       0       0       0       0       0       0       0       0       
      +0       0       0       0       0
  5104 ;;      Totals:         6       0       0       0       0       0       0       0       0       0       0       0       
      +0       0       0       0       0
  5105 ;;Total ram usage:        6 bytes
  5106 ;; Hardware stack levels used: 1
  5107 ;; Hardware stack levels required when called: 4
  5108 ;; This function calls:
  5109 ;;		Nothing
  5110 ;; This function is called by:
  5111 ;;		i1_priority_rr_scheduler
  5112 ;; This function uses a non-reentrant model
  5113 ;;
  5114                           
  5115                           	psect	text20
  5116   001DA0                     __ptext20:
  5117                           	callstack 0
  5118   001DA0                     i1___awmod:
  5119                           	callstack 18
  5120   001DA0  6A2A               	clrf	i1___awmod@sign^0,c
  5121   001DA2  BE26               	btfsc	(i1___awmod@dividend+1)^0,7,c
  5122   001DA4  EFD8  F00E         	goto	i1u130_20
  5123   001DA8  EFD6  F00E         	goto	i1u130_21
  5124   001DAC                     i1u130_21:
  5125   001DAC  EFDE  F00E         	goto	i1l2358
  5126   001DB0                     i1u130_20:
  5127   001DB0  6C25               	negf	i1___awmod@dividend^0,c
  5128   001DB2  1E26               	comf	(i1___awmod@dividend+1)^0,f,c
  5129   001DB4  B0D8               	btfsc	status,0,c
  5130   001DB6  2A26               	incf	(i1___awmod@dividend+1)^0,f,c
  5131   001DB8  0E01               	movlw	1
  5132   001DBA  6E2A               	movwf	i1___awmod@sign^0,c
  5133   001DBC                     i1l2358:
  5134   001DBC  BE28               	btfsc	(i1___awmod@divisor+1)^0,7,c
  5135   001DBE  EFE5  F00E         	goto	i1u131_20
  5136   001DC2  EFE3  F00E         	goto	i1u131_21
  5137   001DC6                     i1u131_21:
  5138   001DC6  EFE9  F00E         	goto	i1l2362
  5139   001DCA                     i1u131_20:
  5140   001DCA  6C27               	negf	i1___awmod@divisor^0,c
  5141   001DCC  1E28               	comf	(i1___awmod@divisor+1)^0,f,c
  5142   001DCE  B0D8               	btfsc	status,0,c
  5143   001DD0  2A28               	incf	(i1___awmod@divisor+1)^0,f,c
  5144   001DD2                     i1l2362:
  5145   001DD2  5027               	movf	i1___awmod@divisor^0,w,c
  5146   001DD4  1028               	iorwf	(i1___awmod@divisor+1)^0,w,c
  5147   001DD6  B4D8               	btfsc	status,2,c
  5148   001DD8  EFF0  F00E         	goto	i1u132_21
  5149   001DDC  EFF2  F00E         	goto	i1u132_20
  5150   001DE0                     i1u132_21:
  5151   001DE0  EF16  F00F         	goto	i1l2378
  5152   001DE4                     i1u132_20:
  5153   001DE4  0E01               	movlw	1
  5154   001DE6  6E29               	movwf	i1___awmod@counter^0,c
  5155   001DE8  EFFA  F00E         	goto	i1l2368
  5156   001DEC                     i1l2366:
  5157   001DEC  90D8               	bcf	status,0,c
  5158   001DEE  3627               	rlcf	i1___awmod@divisor^0,f,c
  5159   001DF0  3628               	rlcf	(i1___awmod@divisor+1)^0,f,c
  5160   001DF2  2A29               	incf	i1___awmod@counter^0,f,c
  5161   001DF4                     i1l2368:
  5162   001DF4  AE28               	btfss	(i1___awmod@divisor+1)^0,7,c
  5163   001DF6  EFFF  F00E         	goto	i1u133_21
  5164   001DFA  EF01  F00F         	goto	i1u133_20
  5165   001DFE                     i1u133_21:
  5166   001DFE  EFF6  F00E         	goto	i1l2366
  5167   001E02                     i1u133_20:
  5168   001E02                     i1l2370:
  5169   001E02  5027               	movf	i1___awmod@divisor^0,w,c
  5170   001E04  5C25               	subwf	i1___awmod@dividend^0,w,c
  5171   001E06  5028               	movf	(i1___awmod@divisor+1)^0,w,c
  5172   001E08  5826               	subwfb	(i1___awmod@dividend+1)^0,w,c
  5173   001E0A  A0D8               	btfss	status,0,c
  5174   001E0C  EF0A  F00F         	goto	i1u134_21
  5175   001E10  EF0C  F00F         	goto	i1u134_20
  5176   001E14                     i1u134_21:
  5177   001E14  EF10  F00F         	goto	i1l2374
  5178   001E18                     i1u134_20:
  5179   001E18  5027               	movf	i1___awmod@divisor^0,w,c
  5180   001E1A  5E25               	subwf	i1___awmod@dividend^0,f,c
  5181   001E1C  5028               	movf	(i1___awmod@divisor+1)^0,w,c
  5182   001E1E  5A26               	subwfb	(i1___awmod@dividend+1)^0,f,c
  5183   001E20                     i1l2374:
  5184   001E20  90D8               	bcf	status,0,c
  5185   001E22  3228               	rrcf	(i1___awmod@divisor+1)^0,f,c
  5186   001E24  3227               	rrcf	i1___awmod@divisor^0,f,c
  5187   001E26  2E29               	decfsz	i1___awmod@counter^0,f,c
  5188   001E28  EF01  F00F         	goto	i1l2370
  5189   001E2C                     i1l2378:
  5190   001E2C  502A               	movf	i1___awmod@sign^0,w,c
  5191   001E2E  B4D8               	btfsc	status,2,c
  5192   001E30  EF1C  F00F         	goto	i1u135_21
  5193   001E34  EF1E  F00F         	goto	i1u135_20
  5194   001E38                     i1u135_21:
  5195   001E38  EF22  F00F         	goto	i1l2382
  5196   001E3C                     i1u135_20:
  5197   001E3C  6C25               	negf	i1___awmod@dividend^0,c
  5198   001E3E  1E26               	comf	(i1___awmod@dividend+1)^0,f,c
  5199   001E40  B0D8               	btfsc	status,0,c
  5200   001E42  2A26               	incf	(i1___awmod@dividend+1)^0,f,c
  5201   001E44                     i1l2382:
  5202   001E44  C025  F025         	movff	i1___awmod@dividend,?i1___awmod
  5203   001E48  C026  F026         	movff	i1___awmod@dividend+1,?i1___awmod+1
  5204   001E4C  0012               	return		;funcret
  5205   001E4E                     __end_ofi1___awmod:
  5206                           	callstack 0
  5207                           
  5208 ;; *************** function _adc_read *****************
  5209 ;; Defined at:
  5210 ;;		line 19 in file "io.c"
  5211 ;; Parameters:    Size  Location     Type
  5212 ;;  channel         1    wreg     unsigned char 
  5213 ;; Auto vars:     Size  Location     Type
  5214 ;;  channel         1    4[COMRAM] unsigned char 
  5215 ;; Return value:  Size  Location     Type
  5216 ;;                  2    0[COMRAM] unsigned short 
  5217 ;; Registers used:
  5218 ;;		wreg, status,2, status,0
  5219 ;; Tracked objects:
  5220 ;;		On entry : 0/0
  5221 ;;		On exit  : 0/0
  5222 ;;		Unchanged: 0/0
  5223 ;; Data sizes:     COMRAM   BANK0   BANK1   BANK2   BANK3   BANK4   BANK5   BANK6   BANK7   BANK8   BANK9  BANK10  BANK1
      +1  BANK12  BANK13  BANK14  BANK15
  5224 ;;      Params:         2       0       0       0       0       0       0       0       0       0       0       0       
      +0       0       0       0       0
  5225 ;;      Locals:         1       0       0       0       0       0       0       0       0       0       0       0       
      +0       0       0       0       0
  5226 ;;      Temps:          2       0       0       0       0       0       0       0       0       0       0       0       
      +0       0       0       0       0
  5227 ;;      Totals:         5       0       0       0       0       0       0       0       0       0       0       0       
      +0       0       0       0       0
  5228 ;;Total ram usage:        5 bytes
  5229 ;; Hardware stack levels used: 1
  5230 ;; Hardware stack levels required when called: 4
  5231 ;; This function calls:
  5232 ;;		Nothing
  5233 ;; This function is called by:
  5234 ;;		_tarefaLeituraADC_UART
  5235 ;; This function uses a non-reentrant model
  5236 ;;
  5237                           
  5238                           	psect	text21
  5239   002126                     __ptext21:
  5240                           	callstack 0
  5241   002126                     _adc_read:
  5242                           	callstack 21
  5243                           
  5244                           ;incstack = 0
  5245                           ;adc_read@channel stored from wreg
  5246   002126  6E29               	movwf	adc_read@channel^0,c
  5247   002128                     
  5248                           ;io.c: 20:     ADCON0bits.CHS = channel;
  5249   002128  C029  F027         	movff	adc_read@channel,??_adc_read
  5250   00212C  4627               	rlncf	??_adc_read^0,f,c
  5251   00212E  4627               	rlncf	??_adc_read^0,f,c
  5252   002130  50C2               	movf	194,w,c	;volatile
  5253   002132  1827               	xorwf	??_adc_read^0,w,c
  5254   002134  0B83               	andlw	-125
  5255   002136  1827               	xorwf	??_adc_read^0,w,c
  5256   002138  6EC2               	movwf	194,c	;volatile
  5257   00213A                     
  5258                           ;io.c: 21:     ADCON0bits.GO = 1;
  5259   00213A  82C2               	bsf	194,1,c	;volatile
  5260   00213C                     i1l302:
  5261   00213C  B2C2               	btfsc	194,1,c	;volatile
  5262   00213E  EFA3  F010         	goto	i1u177_21
  5263   002142  EFA5  F010         	goto	i1u177_20
  5264   002146                     i1u177_21:
  5265   002146  EF9E  F010         	goto	i1l302
  5266   00214A                     i1u177_20:
  5267   00214A                     
  5268                           ;io.c: 23:     return ((uint16_t) ADRESH << 8) | ADRESL;
  5269   00214A  50C4               	movf	196,w,c	;volatile
  5270   00214C  6E27               	movwf	??_adc_read^0,c
  5271   00214E  50C3               	movf	195,w,c	;volatile
  5272   002150  6E25               	movwf	?_adc_read^0,c
  5273   002152  C027  F026         	movff	??_adc_read,?_adc_read+1
  5274   002156  0012               	return		;funcret
  5275   002158                     __end_of_adc_read:
  5276                           	callstack 0
  5277                           
  5278 ;; *************** function _ISR *****************
  5279 ;; Defined at:
  5280 ;;		line 23 in file "hw.c"
  5281 ;; Parameters:    Size  Location     Type
  5282 ;;		None
  5283 ;; Auto vars:     Size  Location     Type
  5284 ;;  i               2   29[COMRAM] int 
  5285 ;; Return value:  Size  Location     Type
  5286 ;;                  1    wreg      void 
  5287 ;; Registers used:
  5288 ;;		wreg, fsr1l, fsr1h, fsr2l, fsr2h, status,2, status,0, prodl, prodh, cstack
  5289 ;; Tracked objects:
  5290 ;;		On entry : 0/0
  5291 ;;		On exit  : 0/0
  5292 ;;		Unchanged: 0/0
  5293 ;; Data sizes:     COMRAM   BANK0   BANK1   BANK2   BANK3   BANK4   BANK5   BANK6   BANK7   BANK8   BANK9  BANK10  BANK1
      +1  BANK12  BANK13  BANK14  BANK15
  5294 ;;      Params:         0       0       0       0       0       0       0       0       0       0       0       0       
      +0       0       0       0       0
  5295 ;;      Locals:         2       0       0       0       0       0       0       0       0       0       0       0       
      +0       0       0       0       0
  5296 ;;      Temps:         13       0       0       0       0       0       0       0       0       0       0       0       
      +0       0       0       0       0
  5297 ;;      Totals:        15       0       0       0       0       0       0       0       0       0       0       0       
      +0       0       0       0       0
  5298 ;;Total ram usage:       15 bytes
  5299 ;; Hardware stack levels used: 1
  5300 ;; Hardware stack levels required when called: 3
  5301 ;; This function calls:
  5302 ;;		i2_scheduler
  5303 ;; This function is called by:
  5304 ;;		Interrupt level 2
  5305 ;; This function uses a non-reentrant model
  5306 ;;
  5307                           
  5308                           	psect	intcode
  5309   000008                     __pintcode:
  5310                           	callstack 0
  5311   000008                     _ISR:
  5312                           	callstack 18
  5313                           
  5314                           ;incstack = 0
  5315   000008  8201               	bsf	int$flags,1,c	;set compiler interrupt flag (level 2)
  5316   00000A  CFE1 F03C          	movff	fsr1l,??_ISR+7
  5317   00000E  CFE2 F03D          	movff	fsr1h,??_ISR+8
  5318   000012  CFD9 F03E          	movff	fsr2l,??_ISR+9
  5319   000016  CFDA F03F          	movff	fsr2h,??_ISR+10
  5320   00001A  CFF3 F040          	movff	prodl,??_ISR+11
  5321   00001E  CFF4 F041          	movff	prodh,??_ISR+12
  5322   000022                     
  5323                           ;hw.c: 25:     if (INTCONbits.TMR0IF) {
  5324   000022  A4F2               	btfss	242,2,c	;volatile
  5325   000024  EF16  F000         	goto	i2u221_41
  5326   000028  EF18  F000         	goto	i2u221_40
  5327   00002C                     i2u221_41:
  5328   00002C  EF7F  F003         	goto	i2l596
  5329   000030                     i2u221_40:
  5330   000030                     
  5331                           ;hw.c: 26:         INTCONbits.TMR0IF = 0;
  5332   000030  94F2               	bcf	242,2,c	;volatile
  5333   000032                     
  5334                           ;hw.c: 29:         for (int i = 0; i < r_queue.size; i++) {
  5335   000032  6A43               	clrf	(ISR@i+1)^0,c
  5336   000034  0E00               	movlw	0
  5337   000036  6E42               	movwf	ISR@i^0,c
  5338   000038  EF6E  F000         	goto	i2l3050
  5339   00003C                     i2l3042:
  5340                           
  5341                           ;hw.c: 30:             if (r_queue.TASKS[i].task_delay > 0) {
  5342   00003C  0E75               	movlw	117
  5343   00003E  0242               	mulwf	ISR@i^0,c
  5344   000040  CFF3 F035          	movff	prodl,??_ISR
  5345   000044  CFF4 F036          	movff	prodh,??_ISR+1
  5346   000048  0243               	mulwf	(ISR@i+1)^0,c
  5347   00004A  50F3               	movf	prodl,w,c
  5348   00004C  2636               	addwf	(??_ISR+1)^0,f,c
  5349   00004E  0EDD               	movlw	low (_r_queue+4)
  5350   000050  2435               	addwf	??_ISR^0,w,c
  5351   000052  6ED9               	movwf	fsr2l,c
  5352   000054  0E02               	movlw	high (_r_queue+4)
  5353   000056  2036               	addwfc	(??_ISR+1)^0,w,c
  5354   000058  6EDA               	movwf	fsr2h,c
  5355   00005A  50DF               	movf	indf2,w,c
  5356   00005C  B4D8               	btfsc	status,2,c
  5357   00005E  EF33  F000         	goto	i2u222_41
  5358   000062  EF35  F000         	goto	i2u222_40
  5359   000066                     i2u222_41:
  5360   000066  EF6C  F000         	goto	i2l3048
  5361   00006A                     i2u222_40:
  5362   00006A                     
  5363                           ;hw.c: 31:                 r_queue.TASKS[i].task_delay--;
  5364   00006A  0E75               	movlw	117
  5365   00006C  0242               	mulwf	ISR@i^0,c
  5366   00006E  CFF3 F035          	movff	prodl,??_ISR
  5367   000072  CFF4 F036          	movff	prodh,??_ISR+1
  5368   000076  0243               	mulwf	(ISR@i+1)^0,c
  5369   000078  50F3               	movf	prodl,w,c
  5370   00007A  2636               	addwf	(??_ISR+1)^0,f,c
  5371   00007C  0EDD               	movlw	low (_r_queue+4)
  5372   00007E  2435               	addwf	??_ISR^0,w,c
  5373   000080  6ED9               	movwf	fsr2l,c
  5374   000082  0E02               	movlw	high (_r_queue+4)
  5375   000084  2036               	addwfc	(??_ISR+1)^0,w,c
  5376   000086  6EDA               	movwf	fsr2h,c
  5377   000088  06DF               	decf	indf2,f,c
  5378                           
  5379                           ;hw.c: 32:                 if (r_queue.TASKS[i].task_delay == 0) {
  5380   00008A  0E75               	movlw	117
  5381   00008C  0242               	mulwf	ISR@i^0,c
  5382   00008E  CFF3 F035          	movff	prodl,??_ISR
  5383   000092  CFF4 F036          	movff	prodh,??_ISR+1
  5384   000096  0243               	mulwf	(ISR@i+1)^0,c
  5385   000098  50F3               	movf	prodl,w,c
  5386   00009A  2636               	addwf	(??_ISR+1)^0,f,c
  5387   00009C  0EDD               	movlw	low (_r_queue+4)
  5388   00009E  2435               	addwf	??_ISR^0,w,c
  5389   0000A0  6ED9               	movwf	fsr2l,c
  5390   0000A2  0E02               	movlw	high (_r_queue+4)
  5391   0000A4  2036               	addwfc	(??_ISR+1)^0,w,c
  5392   0000A6  6EDA               	movwf	fsr2h,c
  5393   0000A8  50DF               	movf	indf2,w,c
  5394   0000AA  A4D8               	btfss	status,2,c
  5395   0000AC  EF5A  F000         	goto	i2u223_41
  5396   0000B0  EF5C  F000         	goto	i2u223_40
  5397   0000B4                     i2u223_41:
  5398   0000B4  EF6C  F000         	goto	i2l3048
  5399   0000B8                     i2u223_40:
  5400   0000B8                     
  5401                           ;hw.c: 33:                     r_queue.TASKS[i].task_state = READY;
  5402   0000B8  0E75               	movlw	117
  5403   0000BA  0242               	mulwf	ISR@i^0,c
  5404   0000BC  CFF3 F035          	movff	prodl,??_ISR
  5405   0000C0  CFF4 F036          	movff	prodh,??_ISR+1
  5406   0000C4  0243               	mulwf	(ISR@i+1)^0,c
  5407   0000C6  50F3               	movf	prodl,w,c
  5408   0000C8  2636               	addwf	(??_ISR+1)^0,f,c
  5409   0000CA  0EDA               	movlw	low (_r_queue+1)
  5410   0000CC  2435               	addwf	??_ISR^0,w,c
  5411   0000CE  6ED9               	movwf	fsr2l,c
  5412   0000D0  0E02               	movlw	high (_r_queue+1)
  5413   0000D2  2036               	addwfc	(??_ISR+1)^0,w,c
  5414   0000D4  6EDA               	movwf	fsr2h,c
  5415   0000D6  6ADF               	clrf	indf2,c
  5416   0000D8                     i2l3048:
  5417                           
  5418                           ;hw.c: 36:         }
  5419   0000D8  4A42               	infsnz	ISR@i^0,f,c
  5420   0000DA  2A43               	incf	(ISR@i+1)^0,f,c
  5421   0000DC                     i2l3050:
  5422   0000DC  EE24  F0AD         	lfsr	2,_r_queue+468
  5423   0000E0  50DF               	movf	indf2,w,c
  5424   0000E2  6E35               	movwf	??_ISR^0,c
  5425   0000E4  6A36               	clrf	(??_ISR+1)^0,c
  5426   0000E6  5035               	movf	??_ISR^0,w,c
  5427   0000E8  5C42               	subwf	ISR@i^0,w,c
  5428   0000EA  5043               	movf	(ISR@i+1)^0,w,c
  5429   0000EC  0A80               	xorlw	128
  5430   0000EE  6E37               	movwf	(??_ISR+2)^0,c
  5431   0000F0  5036               	movf	(??_ISR+1)^0,w,c
  5432   0000F2  0A80               	xorlw	128
  5433   0000F4  5837               	subwfb	(??_ISR+2)^0,w,c
  5434   0000F6  A0D8               	btfss	status,0,c
  5435   0000F8  EF80  F000         	goto	i2u224_41
  5436   0000FC  EF82  F000         	goto	i2u224_40
  5437   000100                     i2u224_41:
  5438   000100  EF1E  F000         	goto	i2l3042
  5439   000104                     i2u224_40:
  5440   000104                     
  5441                           ;hw.c: 40:         rr_quantum--;
  5442   000104  0644               	decf	_rr_quantum^0,f,c
  5443   000106                     
  5444                           ;hw.c: 41:         if (rr_quantum == 0) {
  5445   000106  5044               	movf	_rr_quantum^0,w,c
  5446   000108  A4D8               	btfss	status,2,c
  5447   00010A  EF89  F000         	goto	i2u225_41
  5448   00010E  EF8B  F000         	goto	i2u225_40
  5449   000112                     i2u225_41:
  5450   000112  EF7F  F003         	goto	i2l596
  5451   000116                     i2u225_40:
  5452   000116                     
  5453                           ;hw.c: 42:             rr_quantum = 20;
  5454   000116  0E14               	movlw	20
  5455   000118  6E44               	movwf	_rr_quantum^0,c
  5456   00011A  EE24  F0AE         	lfsr	2,_r_queue+469
  5457   00011E  EE10 F001          	lfsr	1,1
  5458   000122  50DE               	movf	postinc2,w,c
  5459   000124  26E1               	addwf	fsr1l,f,c
  5460   000126  50DD               	movf	postdec2,w,c
  5461   000128  22E2               	addwfc	fsr1h,f,c
  5462   00012A  0E02               	movlw	2
  5463   00012C  18E6               	xorwf	postinc1,w,c
  5464   00012E  A4D8               	btfss	status,2,c
  5465   000130  EF9C  F000         	goto	i2u226_41
  5466   000134  EF9E  F000         	goto	i2u226_40
  5467   000138                     i2u226_41:
  5468   000138  EFDA  F001         	goto	i2l3068
  5469   00013C                     i2u226_40:
  5470   00013C  EE24  F0AE         	lfsr	2,_r_queue+469
  5471   000140  EE10 F001          	lfsr	1,1
  5472   000144  50DE               	movf	postinc2,w,c
  5473   000146  26E1               	addwf	fsr1l,f,c
  5474   000148  50DD               	movf	postdec2,w,c
  5475   00014A  22E2               	addwfc	fsr1h,f,c
  5476   00014C  6AE7               	clrf	indf1,c
  5477   00014E  EE24  F0AE         	lfsr	2,_r_queue+469
  5478   000152  EE10 F008          	lfsr	1,8
  5479   000156  50DE               	movf	postinc2,w,c
  5480   000158  26E1               	addwf	fsr1l,f,c
  5481   00015A  50DD               	movf	postdec2,w,c
  5482   00015C  22E2               	addwfc	fsr1h,f,c
  5483   00015E  CFE0 FFE7          	movff	bsr,indf1	;volatile
  5484   000162  EE24  F0AE         	lfsr	2,_r_queue+469
  5485   000166  EE10 F00C          	lfsr	1,12
  5486   00016A  50DE               	movf	postinc2,w,c
  5487   00016C  26E1               	addwf	fsr1l,f,c
  5488   00016E  50DD               	movf	postdec2,w,c
  5489   000170  22E2               	addwfc	fsr1h,f,c
  5490   000172  CFEA FFE7          	movff	fsr0h,indf1	;volatile
  5491   000176  EE24  F0AE         	lfsr	2,_r_queue+469
  5492   00017A  EE10 F00B          	lfsr	1,11
  5493   00017E  50DE               	movf	postinc2,w,c
  5494   000180  26E1               	addwf	fsr1l,f,c
  5495   000182  50DD               	movf	postdec2,w,c
  5496   000184  22E2               	addwfc	fsr1h,f,c
  5497   000186  CFE9 FFE7          	movff	fsr0l,indf1	;volatile
  5498   00018A  EE24  F0AE         	lfsr	2,_r_queue+469
  5499   00018E  EE10 F00E          	lfsr	1,14
  5500   000192  50DE               	movf	postinc2,w,c
  5501   000194  26E1               	addwf	fsr1l,f,c
  5502   000196  50DD               	movf	postdec2,w,c
  5503   000198  22E2               	addwfc	fsr1h,f,c
  5504   00019A  CFE2 FFE7          	movff	fsr1h,indf1	;volatile
  5505   00019E  EE24  F0AE         	lfsr	2,_r_queue+469
  5506   0001A2  EE10 F00D          	lfsr	1,13
  5507   0001A6  50DE               	movf	postinc2,w,c
  5508   0001A8  26E1               	addwf	fsr1l,f,c
  5509   0001AA  50DD               	movf	postdec2,w,c
  5510   0001AC  22E2               	addwfc	fsr1h,f,c
  5511   0001AE  CFE1 FFE7          	movff	fsr1l,indf1	;volatile
  5512   0001B2  EE24  F0AE         	lfsr	2,_r_queue+469
  5513   0001B6  EE10 F010          	lfsr	1,16
  5514   0001BA  50DE               	movf	postinc2,w,c
  5515   0001BC  26E1               	addwf	fsr1l,f,c
  5516   0001BE  50DD               	movf	postdec2,w,c
  5517   0001C0  22E2               	addwfc	fsr1h,f,c
  5518   0001C2  CFDA FFE7          	movff	fsr2h,indf1	;volatile
  5519   0001C6  EE24  F0AE         	lfsr	2,_r_queue+469
  5520   0001CA  EE10 F00F          	lfsr	1,15
  5521   0001CE  50DE               	movf	postinc2,w,c
  5522   0001D0  26E1               	addwf	fsr1l,f,c
  5523   0001D2  50DD               	movf	postdec2,w,c
  5524   0001D4  22E2               	addwfc	fsr1h,f,c
  5525   0001D6  CFD9 FFE7          	movff	fsr2l,indf1	;volatile
  5526   0001DA  EE24  F0AE         	lfsr	2,_r_queue+469
  5527   0001DE  EE10 F015          	lfsr	1,21
  5528   0001E2  50DE               	movf	postinc2,w,c
  5529   0001E4  26E1               	addwf	fsr1l,f,c
  5530   0001E6  50DD               	movf	postdec2,w,c
  5531   0001E8  22E2               	addwfc	fsr1h,f,c
  5532   0001EA  CFFA FFE7          	movff	pclath,indf1	;volatile
  5533   0001EE  EE24  F0AE         	lfsr	2,_r_queue+469
  5534   0001F2  EE10 F016          	lfsr	1,22
  5535   0001F6  50DE               	movf	postinc2,w,c
  5536   0001F8  26E1               	addwf	fsr1l,f,c
  5537   0001FA  50DD               	movf	postdec2,w,c
  5538   0001FC  22E2               	addwfc	fsr1h,f,c
  5539   0001FE  CFFB FFE7          	movff	pclatu,indf1	;volatile
  5540   000202  EE24  F0AE         	lfsr	2,_r_queue+469
  5541   000206  EE10 F00A          	lfsr	1,10
  5542   00020A  50DE               	movf	postinc2,w,c
  5543   00020C  26E1               	addwf	fsr1l,f,c
  5544   00020E  50DD               	movf	postdec2,w,c
  5545   000210  22E2               	addwfc	fsr1h,f,c
  5546   000212  CFF4 FFE7          	movff	prodh,indf1	;volatile
  5547   000216  EE24  F0AE         	lfsr	2,_r_queue+469
  5548   00021A  EE10 F009          	lfsr	1,9
  5549   00021E  50DE               	movf	postinc2,w,c
  5550   000220  26E1               	addwf	fsr1l,f,c
  5551   000222  50DD               	movf	postdec2,w,c
  5552   000224  22E2               	addwfc	fsr1h,f,c
  5553   000226  CFF3 FFE7          	movff	prodl,indf1	;volatile
  5554   00022A  EE24  F0AE         	lfsr	2,_r_queue+469
  5555   00022E  EE10 F011          	lfsr	1,17
  5556   000232  50DE               	movf	postinc2,w,c
  5557   000234  26E1               	addwf	fsr1l,f,c
  5558   000236  50DD               	movf	postdec2,w,c
  5559   000238  22E2               	addwfc	fsr1h,f,c
  5560   00023A  CFF5 FFE7          	movff	tablat,indf1	;volatile
  5561   00023E  EE24  F0AE         	lfsr	2,_r_queue+469
  5562   000242  EE10 F013          	lfsr	1,19
  5563   000246  50DE               	movf	postinc2,w,c
  5564   000248  26E1               	addwf	fsr1l,f,c
  5565   00024A  50DD               	movf	postdec2,w,c
  5566   00024C  22E2               	addwfc	fsr1h,f,c
  5567   00024E  CFF7 FFE7          	movff	tblptrh,indf1	;volatile
  5568   000252  EE24  F0AE         	lfsr	2,_r_queue+469
  5569   000256  EE10 F012          	lfsr	1,18
  5570   00025A  50DE               	movf	postinc2,w,c
  5571   00025C  26E1               	addwf	fsr1l,f,c
  5572   00025E  50DD               	movf	postdec2,w,c
  5573   000260  22E2               	addwfc	fsr1h,f,c
  5574   000262  CFF6 FFE7          	movff	tblptrl,indf1	;volatile
  5575   000266  EE24  F0AE         	lfsr	2,_r_queue+469
  5576   00026A  EE10 F014          	lfsr	1,20
  5577   00026E  50DE               	movf	postinc2,w,c
  5578   000270  26E1               	addwf	fsr1l,f,c
  5579   000272  50DD               	movf	postdec2,w,c
  5580   000274  22E2               	addwfc	fsr1h,f,c
  5581   000276  CFF8 FFE7          	movff	tblptru,indf1	;volatile
  5582   00027A  EE24  F0AE         	lfsr	2,_r_queue+469
  5583   00027E  EE10 F006          	lfsr	1,6
  5584   000282  50DE               	movf	postinc2,w,c
  5585   000284  26E1               	addwf	fsr1l,f,c
  5586   000286  50DD               	movf	postdec2,w,c
  5587   000288  22E2               	addwfc	fsr1h,f,c
  5588   00028A  CFE8 FFE7          	movff	wreg,indf1	;volatile
  5589   00028E  EE24  F0AE         	lfsr	2,_r_queue+469
  5590   000292  EE10 F007          	lfsr	1,7
  5591   000296  50DE               	movf	postinc2,w,c
  5592   000298  26E1               	addwf	fsr1l,f,c
  5593   00029A  50DD               	movf	postdec2,w,c
  5594   00029C  22E2               	addwfc	fsr1h,f,c
  5595   00029E  CFD8 FFE7          	movff	status,indf1	;volatile
  5596   0002A2  EE24  F0AE         	lfsr	2,_r_queue+469
  5597   0002A6  EE10 F074          	lfsr	1,116
  5598   0002AA  50DE               	movf	postinc2,w,c
  5599   0002AC  26E1               	addwf	fsr1l,f,c
  5600   0002AE  50DD               	movf	postdec2,w,c
  5601   0002B0  22E2               	addwfc	fsr1h,f,c
  5602   0002B2  6AE7               	clrf	indf1,c
  5603   0002B4  EFD2  F001         	goto	i2l3066
  5604   0002B8                     i2l3062:
  5605   0002B8  EE24  F0AE         	lfsr	2,_r_queue+469
  5606   0002BC  EE10 F074          	lfsr	1,116
  5607   0002C0  50DE               	movf	postinc2,w,c
  5608   0002C2  26E1               	addwf	fsr1l,f,c
  5609   0002C4  50DD               	movf	postdec2,w,c
  5610   0002C6  22E2               	addwfc	fsr1h,f,c
  5611   0002C8  50E7               	movf	indf1,w,c
  5612   0002CA  6E35               	movwf	??_ISR^0,c
  5613   0002CC  5035               	movf	??_ISR^0,w,c
  5614   0002CE  0D03               	mullw	3
  5615   0002D0  CFF3 F036          	movff	prodl,??_ISR+1
  5616   0002D4  CFF4 F037          	movff	prodh,??_ISR+2
  5617   0002D8  EE24  F0AE         	lfsr	2,_r_queue+469
  5618   0002DC  CFDE F038          	movff	postinc2,??_ISR+3
  5619   0002E0  CFDD F039          	movff	postdec2,??_ISR+4
  5620   0002E4  5036               	movf	(??_ISR+1)^0,w,c
  5621   0002E6  2438               	addwf	(??_ISR+3)^0,w,c
  5622   0002E8  6E3A               	movwf	(??_ISR+5)^0,c
  5623   0002EA  5037               	movf	(??_ISR+2)^0,w,c
  5624   0002EC  2039               	addwfc	(??_ISR+4)^0,w,c
  5625   0002EE  6E3B               	movwf	(??_ISR+6)^0,c
  5626   0002F0  0E17               	movlw	23
  5627   0002F2  243A               	addwf	(??_ISR+5)^0,w,c
  5628   0002F4  6ED9               	movwf	fsr2l,c
  5629   0002F6  0E00               	movlw	0
  5630   0002F8  203B               	addwfc	(??_ISR+6)^0,w,c
  5631   0002FA  6EDA               	movwf	fsr2h,c
  5632   0002FC  CFFD FFDF          	movff	tosl,indf2	;volatile
  5633   000300  EE24  F0AE         	lfsr	2,_r_queue+469
  5634   000304  EE10 F074          	lfsr	1,116
  5635   000308  50DE               	movf	postinc2,w,c
  5636   00030A  26E1               	addwf	fsr1l,f,c
  5637   00030C  50DD               	movf	postdec2,w,c
  5638   00030E  22E2               	addwfc	fsr1h,f,c
  5639   000310  50E7               	movf	indf1,w,c
  5640   000312  6E35               	movwf	??_ISR^0,c
  5641   000314  5035               	movf	??_ISR^0,w,c
  5642   000316  0D03               	mullw	3
  5643   000318  CFF3 F036          	movff	prodl,??_ISR+1
  5644   00031C  CFF4 F037          	movff	prodh,??_ISR+2
  5645   000320  EE24  F0AE         	lfsr	2,_r_queue+469
  5646   000324  CFDE F038          	movff	postinc2,??_ISR+3
  5647   000328  CFDD F039          	movff	postdec2,??_ISR+4
  5648   00032C  5036               	movf	(??_ISR+1)^0,w,c
  5649   00032E  2438               	addwf	(??_ISR+3)^0,w,c
  5650   000330  6E3A               	movwf	(??_ISR+5)^0,c
  5651   000332  5037               	movf	(??_ISR+2)^0,w,c
  5652   000334  2039               	addwfc	(??_ISR+4)^0,w,c
  5653   000336  6E3B               	movwf	(??_ISR+6)^0,c
  5654   000338  0E18               	movlw	24
  5655   00033A  243A               	addwf	(??_ISR+5)^0,w,c
  5656   00033C  6ED9               	movwf	fsr2l,c
  5657   00033E  0E00               	movlw	0
  5658   000340  203B               	addwfc	(??_ISR+6)^0,w,c
  5659   000342  6EDA               	movwf	fsr2h,c
  5660   000344  CFFE FFDF          	movff	tosh,indf2	;volatile
  5661   000348  EE24  F0AE         	lfsr	2,_r_queue+469
  5662   00034C  EE10 F074          	lfsr	1,116
  5663   000350  50DE               	movf	postinc2,w,c
  5664   000352  26E1               	addwf	fsr1l,f,c
  5665   000354  50DD               	movf	postdec2,w,c
  5666   000356  22E2               	addwfc	fsr1h,f,c
  5667   000358  50E7               	movf	indf1,w,c
  5668   00035A  6E35               	movwf	??_ISR^0,c
  5669   00035C  5035               	movf	??_ISR^0,w,c
  5670   00035E  0D03               	mullw	3
  5671   000360  CFF3 F036          	movff	prodl,??_ISR+1
  5672   000364  CFF4 F037          	movff	prodh,??_ISR+2
  5673   000368  EE24  F0AE         	lfsr	2,_r_queue+469
  5674   00036C  CFDE F038          	movff	postinc2,??_ISR+3
  5675   000370  CFDD F039          	movff	postdec2,??_ISR+4
  5676   000374  5036               	movf	(??_ISR+1)^0,w,c
  5677   000376  2438               	addwf	(??_ISR+3)^0,w,c
  5678   000378  6E3A               	movwf	(??_ISR+5)^0,c
  5679   00037A  5037               	movf	(??_ISR+2)^0,w,c
  5680   00037C  2039               	addwfc	(??_ISR+4)^0,w,c
  5681   00037E  6E3B               	movwf	(??_ISR+6)^0,c
  5682   000380  0E19               	movlw	25
  5683   000382  243A               	addwf	(??_ISR+5)^0,w,c
  5684   000384  6ED9               	movwf	fsr2l,c
  5685   000386  0E00               	movlw	0
  5686   000388  203B               	addwfc	(??_ISR+6)^0,w,c
  5687   00038A  6EDA               	movwf	fsr2h,c
  5688   00038C  CFFF FFDF          	movff	tosu,indf2	;volatile
  5689   000390  EE24  F0AE         	lfsr	2,_r_queue+469
  5690   000394  EE10 F074          	lfsr	1,116
  5691   000398  50DE               	movf	postinc2,w,c
  5692   00039A  26E1               	addwf	fsr1l,f,c
  5693   00039C  50DD               	movf	postdec2,w,c
  5694   00039E  22E2               	addwfc	fsr1h,f,c
  5695   0003A0  2AE7               	incf	indf1,f,c
  5696   0003A2  0006               	pop		;# 
  5697   0003A4                     i2l3066:
  5698   0003A4  50FC               	movf	252,w,c	;volatile
  5699   0003A6  A4D8               	btfss	status,2,c
  5700   0003A8  EFD8  F001         	goto	i2u227_41
  5701   0003AC  EFDA  F001         	goto	i2u227_40
  5702   0003B0                     i2u227_41:
  5703   0003B0  EF5C  F001         	goto	i2l3062
  5704   0003B4                     i2u227_40:
  5705   0003B4                     i2l3068:
  5706                           
  5707                           ;hw.c: 44:             scheduler();
  5708   0003B4  EC02  F011         	call	i2_scheduler	;wreg free
  5709   0003B8  EE24  F0AE         	lfsr	2,_r_queue+469
  5710   0003BC  EE10 F001          	lfsr	1,1
  5711   0003C0  50DE               	movf	postinc2,w,c
  5712   0003C2  26E1               	addwf	fsr1l,f,c
  5713   0003C4  50DD               	movf	postdec2,w,c
  5714   0003C6  22E2               	addwfc	fsr1h,f,c
  5715   0003C8  50E7               	movf	indf1,w,c
  5716   0003CA  A4D8               	btfss	status,2,c
  5717   0003CC  EFEA  F001         	goto	i2u228_41
  5718   0003D0  EFEC  F001         	goto	i2u228_40
  5719   0003D4                     i2u228_41:
  5720   0003D4  EF7F  F003         	goto	i2l596
  5721   0003D8                     i2u228_40:
  5722   0003D8  EE24  F0AE         	lfsr	2,_r_queue+469
  5723   0003DC  EE10 F001          	lfsr	1,1
  5724   0003E0  50DE               	movf	postinc2,w,c
  5725   0003E2  26E1               	addwf	fsr1l,f,c
  5726   0003E4  50DD               	movf	postdec2,w,c
  5727   0003E6  22E2               	addwfc	fsr1h,f,c
  5728   0003E8  0E02               	movlw	2
  5729   0003EA  6EE7               	movwf	indf1,c
  5730   0003EC  EE24  F0AE         	lfsr	2,_r_queue+469
  5731   0003F0  EE10 F008          	lfsr	1,8
  5732   0003F4  50DE               	movf	postinc2,w,c
  5733   0003F6  26E1               	addwf	fsr1l,f,c
  5734   0003F8  50DD               	movf	postdec2,w,c
  5735   0003FA  22E2               	addwfc	fsr1h,f,c
  5736   0003FC  50E7               	movf	indf1,w,c
  5737   0003FE  6EE0               	movwf	224,c	;volatile
  5738   000400  EE24  F0AE         	lfsr	2,_r_queue+469
  5739   000404  EE10 F00C          	lfsr	1,12
  5740   000408  50DE               	movf	postinc2,w,c
  5741   00040A  26E1               	addwf	fsr1l,f,c
  5742   00040C  50DD               	movf	postdec2,w,c
  5743   00040E  22E2               	addwfc	fsr1h,f,c
  5744   000410  50E7               	movf	indf1,w,c
  5745   000412  6EEA               	movwf	234,c	;volatile
  5746   000414  EE24  F0AE         	lfsr	2,_r_queue+469
  5747   000418  EE10 F00B          	lfsr	1,11
  5748   00041C  50DE               	movf	postinc2,w,c
  5749   00041E  26E1               	addwf	fsr1l,f,c
  5750   000420  50DD               	movf	postdec2,w,c
  5751   000422  22E2               	addwfc	fsr1h,f,c
  5752   000424  50E7               	movf	indf1,w,c
  5753   000426  6EE9               	movwf	233,c	;volatile
  5754   000428  EE24  F0AE         	lfsr	2,_r_queue+469
  5755   00042C  EE10 F00E          	lfsr	1,14
  5756   000430  50DE               	movf	postinc2,w,c
  5757   000432  26E1               	addwf	fsr1l,f,c
  5758   000434  50DD               	movf	postdec2,w,c
  5759   000436  22E2               	addwfc	fsr1h,f,c
  5760   000438  50E7               	movf	indf1,w,c
  5761   00043A  6EE2               	movwf	226,c	;volatile
  5762   00043C  EE24  F0AE         	lfsr	2,_r_queue+469
  5763   000440  EE10 F00D          	lfsr	1,13
  5764   000444  50DE               	movf	postinc2,w,c
  5765   000446  26E1               	addwf	fsr1l,f,c
  5766   000448  50DD               	movf	postdec2,w,c
  5767   00044A  22E2               	addwfc	fsr1h,f,c
  5768   00044C  50E7               	movf	indf1,w,c
  5769   00044E  6EE1               	movwf	225,c	;volatile
  5770   000450  EE24  F0AE         	lfsr	2,_r_queue+469
  5771   000454  EE10 F010          	lfsr	1,16
  5772   000458  50DE               	movf	postinc2,w,c
  5773   00045A  26E1               	addwf	fsr1l,f,c
  5774   00045C  50DD               	movf	postdec2,w,c
  5775   00045E  22E2               	addwfc	fsr1h,f,c
  5776   000460  50E7               	movf	indf1,w,c
  5777   000462  6EDA               	movwf	218,c	;volatile
  5778   000464  EE24  F0AE         	lfsr	2,_r_queue+469
  5779   000468  EE10 F00F          	lfsr	1,15
  5780   00046C  50DE               	movf	postinc2,w,c
  5781   00046E  26E1               	addwf	fsr1l,f,c
  5782   000470  50DD               	movf	postdec2,w,c
  5783   000472  22E2               	addwfc	fsr1h,f,c
  5784   000474  50E7               	movf	indf1,w,c
  5785   000476  6ED9               	movwf	217,c	;volatile
  5786   000478  EE24  F0AE         	lfsr	2,_r_queue+469
  5787   00047C  EE10 F015          	lfsr	1,21
  5788   000480  50DE               	movf	postinc2,w,c
  5789   000482  26E1               	addwf	fsr1l,f,c
  5790   000484  50DD               	movf	postdec2,w,c
  5791   000486  22E2               	addwfc	fsr1h,f,c
  5792   000488  50E7               	movf	indf1,w,c
  5793   00048A  6EFA               	movwf	250,c	;volatile
  5794   00048C  EE24  F0AE         	lfsr	2,_r_queue+469
  5795   000490  EE10 F016          	lfsr	1,22
  5796   000494  50DE               	movf	postinc2,w,c
  5797   000496  26E1               	addwf	fsr1l,f,c
  5798   000498  50DD               	movf	postdec2,w,c
  5799   00049A  22E2               	addwfc	fsr1h,f,c
  5800   00049C  50E7               	movf	indf1,w,c
  5801   00049E  6EFB               	movwf	251,c	;volatile
  5802   0004A0  EE24  F0AE         	lfsr	2,_r_queue+469
  5803   0004A4  EE10 F00A          	lfsr	1,10
  5804   0004A8  50DE               	movf	postinc2,w,c
  5805   0004AA  26E1               	addwf	fsr1l,f,c
  5806   0004AC  50DD               	movf	postdec2,w,c
  5807   0004AE  22E2               	addwfc	fsr1h,f,c
  5808   0004B0  50E7               	movf	indf1,w,c
  5809   0004B2  6EF4               	movwf	244,c	;volatile
  5810   0004B4  EE24  F0AE         	lfsr	2,_r_queue+469
  5811   0004B8  EE10 F009          	lfsr	1,9
  5812   0004BC  50DE               	movf	postinc2,w,c
  5813   0004BE  26E1               	addwf	fsr1l,f,c
  5814   0004C0  50DD               	movf	postdec2,w,c
  5815   0004C2  22E2               	addwfc	fsr1h,f,c
  5816   0004C4  50E7               	movf	indf1,w,c
  5817   0004C6  6EF3               	movwf	243,c	;volatile
  5818   0004C8  EE24  F0AE         	lfsr	2,_r_queue+469
  5819   0004CC  EE10 F011          	lfsr	1,17
  5820   0004D0  50DE               	movf	postinc2,w,c
  5821   0004D2  26E1               	addwf	fsr1l,f,c
  5822   0004D4  50DD               	movf	postdec2,w,c
  5823   0004D6  22E2               	addwfc	fsr1h,f,c
  5824   0004D8  50E7               	movf	indf1,w,c
  5825   0004DA  6EF5               	movwf	245,c	;volatile
  5826   0004DC  EE24  F0AE         	lfsr	2,_r_queue+469
  5827   0004E0  EE10 F013          	lfsr	1,19
  5828   0004E4  50DE               	movf	postinc2,w,c
  5829   0004E6  26E1               	addwf	fsr1l,f,c
  5830   0004E8  50DD               	movf	postdec2,w,c
  5831   0004EA  22E2               	addwfc	fsr1h,f,c
  5832   0004EC  50E7               	movf	indf1,w,c
  5833   0004EE  6EF7               	movwf	247,c	;volatile
  5834   0004F0  EE24  F0AE         	lfsr	2,_r_queue+469
  5835   0004F4  EE10 F012          	lfsr	1,18
  5836   0004F8  50DE               	movf	postinc2,w,c
  5837   0004FA  26E1               	addwf	fsr1l,f,c
  5838   0004FC  50DD               	movf	postdec2,w,c
  5839   0004FE  22E2               	addwfc	fsr1h,f,c
  5840   000500  50E7               	movf	indf1,w,c
  5841   000502  6EF6               	movwf	246,c	;volatile
  5842   000504  EE24  F0AE         	lfsr	2,_r_queue+469
  5843   000508  EE10 F014          	lfsr	1,20
  5844   00050C  50DE               	movf	postinc2,w,c
  5845   00050E  26E1               	addwf	fsr1l,f,c
  5846   000510  50DD               	movf	postdec2,w,c
  5847   000512  22E2               	addwfc	fsr1h,f,c
  5848   000514  50E7               	movf	indf1,w,c
  5849   000516  6EF8               	movwf	248,c	;volatile
  5850   000518  EE24  F0AE         	lfsr	2,_r_queue+469
  5851   00051C  EE10 F007          	lfsr	1,7
  5852   000520  50DE               	movf	postinc2,w,c
  5853   000522  26E1               	addwf	fsr1l,f,c
  5854   000524  50DD               	movf	postdec2,w,c
  5855   000526  22E2               	addwfc	fsr1h,f,c
  5856   000528  50E7               	movf	indf1,w,c
  5857   00052A  6ED8               	movwf	216,c	;volatile
  5858   00052C  EE24  F0AE         	lfsr	2,_r_queue+469
  5859   000530  EE10 F006          	lfsr	1,6
  5860   000534  50DE               	movf	postinc2,w,c
  5861   000536  26E1               	addwf	fsr1l,f,c
  5862   000538  50DD               	movf	postdec2,w,c
  5863   00053A  22E2               	addwfc	fsr1h,f,c
  5864   00053C  50E7               	movf	indf1,w,c
  5865   00053E  6E35               	movwf	??_ISR^0,c
  5866   000540  5035               	movf	??_ISR^0,w,c
  5867   000542  6AFC               	clrf	252,c	;volatile
  5868   000544  EE24  F0AE         	lfsr	2,_r_queue+469
  5869   000548  EE10 F074          	lfsr	1,116
  5870   00054C  50DE               	movf	postinc2,w,c
  5871   00054E  26E1               	addwf	fsr1l,f,c
  5872   000550  50DD               	movf	postdec2,w,c
  5873   000552  22E2               	addwfc	fsr1h,f,c
  5874   000554  50E7               	movf	indf1,w,c
  5875   000556  B4D8               	btfsc	status,2,c
  5876   000558  EFB0  F002         	goto	i2u229_41
  5877   00055C  EFB2  F002         	goto	i2u229_40
  5878   000560                     i2u229_41:
  5879   000560  EF3A  F003         	goto	i2l591
  5880   000564                     i2u229_40:
  5881   000564                     i2l592:
  5882   000564  0005               	push		;# 
  5883   000566  EE24  F0AE         	lfsr	2,_r_queue+469
  5884   00056A  EE10 F074          	lfsr	1,116
  5885   00056E  50DE               	movf	postinc2,w,c
  5886   000570  26E1               	addwf	fsr1l,f,c
  5887   000572  50DD               	movf	postdec2,w,c
  5888   000574  22E2               	addwfc	fsr1h,f,c
  5889   000576  06E7               	decf	indf1,f,c
  5890   000578  EE24  F0AE         	lfsr	2,_r_queue+469
  5891   00057C  EE10 F074          	lfsr	1,116
  5892   000580  50DE               	movf	postinc2,w,c
  5893   000582  26E1               	addwf	fsr1l,f,c
  5894   000584  50DD               	movf	postdec2,w,c
  5895   000586  22E2               	addwfc	fsr1h,f,c
  5896   000588  50E7               	movf	indf1,w,c
  5897   00058A  6E35               	movwf	??_ISR^0,c
  5898   00058C  5035               	movf	??_ISR^0,w,c
  5899   00058E  0D03               	mullw	3
  5900   000590  CFF3 F036          	movff	prodl,??_ISR+1
  5901   000594  CFF4 F037          	movff	prodh,??_ISR+2
  5902   000598  EE24  F0AE         	lfsr	2,_r_queue+469
  5903   00059C  CFDE F038          	movff	postinc2,??_ISR+3
  5904   0005A0  CFDD F039          	movff	postdec2,??_ISR+4
  5905   0005A4  5036               	movf	(??_ISR+1)^0,w,c
  5906   0005A6  2438               	addwf	(??_ISR+3)^0,w,c
  5907   0005A8  6E3A               	movwf	(??_ISR+5)^0,c
  5908   0005AA  5037               	movf	(??_ISR+2)^0,w,c
  5909   0005AC  2039               	addwfc	(??_ISR+4)^0,w,c
  5910   0005AE  6E3B               	movwf	(??_ISR+6)^0,c
  5911   0005B0  0E17               	movlw	23
  5912   0005B2  243A               	addwf	(??_ISR+5)^0,w,c
  5913   0005B4  6ED9               	movwf	fsr2l,c
  5914   0005B6  0E00               	movlw	0
  5915   0005B8  203B               	addwfc	(??_ISR+6)^0,w,c
  5916   0005BA  6EDA               	movwf	fsr2h,c
  5917   0005BC  50DF               	movf	indf2,w,c
  5918   0005BE  6EFD               	movwf	253,c	;volatile
  5919   0005C0  EE24  F0AE         	lfsr	2,_r_queue+469
  5920   0005C4  EE10 F074          	lfsr	1,116
  5921   0005C8  50DE               	movf	postinc2,w,c
  5922   0005CA  26E1               	addwf	fsr1l,f,c
  5923   0005CC  50DD               	movf	postdec2,w,c
  5924   0005CE  22E2               	addwfc	fsr1h,f,c
  5925   0005D0  50E7               	movf	indf1,w,c
  5926   0005D2  6E35               	movwf	??_ISR^0,c
  5927   0005D4  5035               	movf	??_ISR^0,w,c
  5928   0005D6  0D03               	mullw	3
  5929   0005D8  CFF3 F036          	movff	prodl,??_ISR+1
  5930   0005DC  CFF4 F037          	movff	prodh,??_ISR+2
  5931   0005E0  EE24  F0AE         	lfsr	2,_r_queue+469
  5932   0005E4  CFDE F038          	movff	postinc2,??_ISR+3
  5933   0005E8  CFDD F039          	movff	postdec2,??_ISR+4
  5934   0005EC  5036               	movf	(??_ISR+1)^0,w,c
  5935   0005EE  2438               	addwf	(??_ISR+3)^0,w,c
  5936   0005F0  6E3A               	movwf	(??_ISR+5)^0,c
  5937   0005F2  5037               	movf	(??_ISR+2)^0,w,c
  5938   0005F4  2039               	addwfc	(??_ISR+4)^0,w,c
  5939   0005F6  6E3B               	movwf	(??_ISR+6)^0,c
  5940   0005F8  0E18               	movlw	24
  5941   0005FA  243A               	addwf	(??_ISR+5)^0,w,c
  5942   0005FC  6ED9               	movwf	fsr2l,c
  5943   0005FE  0E00               	movlw	0
  5944   000600  203B               	addwfc	(??_ISR+6)^0,w,c
  5945   000602  6EDA               	movwf	fsr2h,c
  5946   000604  50DF               	movf	indf2,w,c
  5947   000606  6EFE               	movwf	254,c	;volatile
  5948   000608  EE24  F0AE         	lfsr	2,_r_queue+469
  5949   00060C  EE10 F074          	lfsr	1,116
  5950   000610  50DE               	movf	postinc2,w,c
  5951   000612  26E1               	addwf	fsr1l,f,c
  5952   000614  50DD               	movf	postdec2,w,c
  5953   000616  22E2               	addwfc	fsr1h,f,c
  5954   000618  50E7               	movf	indf1,w,c
  5955   00061A  6E35               	movwf	??_ISR^0,c
  5956   00061C  5035               	movf	??_ISR^0,w,c
  5957   00061E  0D03               	mullw	3
  5958   000620  CFF3 F036          	movff	prodl,??_ISR+1
  5959   000624  CFF4 F037          	movff	prodh,??_ISR+2
  5960   000628  EE24  F0AE         	lfsr	2,_r_queue+469
  5961   00062C  CFDE F038          	movff	postinc2,??_ISR+3
  5962   000630  CFDD F039          	movff	postdec2,??_ISR+4
  5963   000634  5036               	movf	(??_ISR+1)^0,w,c
  5964   000636  2438               	addwf	(??_ISR+3)^0,w,c
  5965   000638  6E3A               	movwf	(??_ISR+5)^0,c
  5966   00063A  5037               	movf	(??_ISR+2)^0,w,c
  5967   00063C  2039               	addwfc	(??_ISR+4)^0,w,c
  5968   00063E  6E3B               	movwf	(??_ISR+6)^0,c
  5969   000640  0E19               	movlw	25
  5970   000642  243A               	addwf	(??_ISR+5)^0,w,c
  5971   000644  6ED9               	movwf	fsr2l,c
  5972   000646  0E00               	movlw	0
  5973   000648  203B               	addwfc	(??_ISR+6)^0,w,c
  5974   00064A  6EDA               	movwf	fsr2h,c
  5975   00064C  50DF               	movf	indf2,w,c
  5976   00064E  6EFF               	movwf	255,c	;volatile
  5977   000650  EE24  F0AE         	lfsr	2,_r_queue+469
  5978   000654  EE10 F074          	lfsr	1,116
  5979   000658  50DE               	movf	postinc2,w,c
  5980   00065A  26E1               	addwf	fsr1l,f,c
  5981   00065C  50DD               	movf	postdec2,w,c
  5982   00065E  22E2               	addwfc	fsr1h,f,c
  5983   000660  50E7               	movf	indf1,w,c
  5984   000662  A4D8               	btfss	status,2,c
  5985   000664  EF36  F003         	goto	i2u230_41
  5986   000668  EF38  F003         	goto	i2u230_40
  5987   00066C                     i2u230_41:
  5988   00066C  EFB2  F002         	goto	i2l592
  5989   000670                     i2u230_40:
  5990   000670  EF7D  F003         	goto	i2l3088
  5991   000674                     i2l591:
  5992   000674  0005               	push		;# 
  5993   000676  EE24  F0AE         	lfsr	2,_r_queue+469
  5994   00067A  EE10 F002          	lfsr	1,2
  5995   00067E  50DE               	movf	postinc2,w,c
  5996   000680  26E1               	addwf	fsr1l,f,c
  5997   000682  50DD               	movf	postdec2,w,c
  5998   000684  22E2               	addwfc	fsr1h,f,c
  5999   000686  50E7               	movf	indf1,w,c
  6000   000688  6EFD               	movwf	253,c	;volatile
  6001   00068A  EE24  F0AE         	lfsr	2,_r_queue+469
  6002   00068E  EE10 F002          	lfsr	1,2
  6003   000692  50DE               	movf	postinc2,w,c
  6004   000694  26E1               	addwf	fsr1l,f,c
  6005   000696  50DD               	movf	postdec2,w,c
  6006   000698  22E2               	addwfc	fsr1h,f,c
  6007   00069A  CFE6 F035          	movff	postinc1,??_ISR
  6008   00069E  CFE5 F036          	movff	postdec1,??_ISR+1
  6009   0006A2  C035  F037         	movff	??_ISR,??_ISR+2
  6010   0006A6  C036  F038         	movff	??_ISR+1,??_ISR+3
  6011   0006AA  6A39               	clrf	(??_ISR+4)^0,c
  6012   0006AC  C038  F037         	movff	??_ISR+3,??_ISR+2
  6013   0006B0  C039  F038         	movff	??_ISR+4,??_ISR+3
  6014   0006B4  6A39               	clrf	(??_ISR+4)^0,c
  6015   0006B6  5037               	movf	(??_ISR+2)^0,w,c
  6016   0006B8  6EFE               	movwf	254,c	;volatile
  6017   0006BA  0E10               	movlw	16
  6018   0006BC  6E35               	movwf	??_ISR^0,c
  6019   0006BE  EE24  F0AE         	lfsr	2,_r_queue+469
  6020   0006C2  EE10 F002          	lfsr	1,2
  6021   0006C6  50DE               	movf	postinc2,w,c
  6022   0006C8  26E1               	addwf	fsr1l,f,c
  6023   0006CA  50DD               	movf	postdec2,w,c
  6024   0006CC  22E2               	addwfc	fsr1h,f,c
  6025   0006CE  CFE6 F036          	movff	postinc1,??_ISR+1
  6026   0006D2  CFE5 F037          	movff	postdec1,??_ISR+2
  6027   0006D6  C036  F038         	movff	??_ISR+1,??_ISR+3
  6028   0006DA  C037  F039         	movff	??_ISR+2,??_ISR+4
  6029   0006DE  6A3A               	clrf	(??_ISR+5)^0,c
  6030   0006E0  2835               	incf	??_ISR^0,w,c
  6031   0006E2  6E3B               	movwf	(??_ISR+6)^0,c
  6032   0006E4  EF78  F003         	goto	i2u231_40
  6033   0006E8                     i2u231_45:
  6034   0006E8  90D8               	bcf	status,0,c
  6035   0006EA  323A               	rrcf	(??_ISR+5)^0,f,c
  6036   0006EC  3239               	rrcf	(??_ISR+4)^0,f,c
  6037   0006EE  3238               	rrcf	(??_ISR+3)^0,f,c
  6038   0006F0                     i2u231_40:
  6039   0006F0  2E3B               	decfsz	(??_ISR+6)^0,f,c
  6040   0006F2  EF74  F003         	goto	i2u231_45
  6041   0006F6  5038               	movf	(??_ISR+3)^0,w,c
  6042   0006F8  6EFF               	movwf	255,c	;volatile
  6043   0006FA                     i2l3088:
  6044   0006FA  0E14               	movlw	20
  6045   0006FC  6E44               	movwf	_rr_quantum^0,c
  6046   0006FE                     i2l596:
  6047   0006FE  C041  FFF4         	movff	??_ISR+12,prodh
  6048   000702  C040  FFF3         	movff	??_ISR+11,prodl
  6049   000706  C03F  FFDA         	movff	??_ISR+10,fsr2h
  6050   00070A  C03E  FFD9         	movff	??_ISR+9,fsr2l
  6051   00070E  C03D  FFE2         	movff	??_ISR+8,fsr1h
  6052   000712  C03C  FFE1         	movff	??_ISR+7,fsr1l
  6053   000716  9201               	bcf	int$flags,1,c	;clear compiler interrupt flag (level 2)
  6054   000718  0011               	retfie		f
  6055   00071A                     __end_of_ISR:
  6056                           	callstack 0
  6057                           
  6058 ;; *************** function i2_scheduler *****************
  6059 ;; Defined at:
  6060 ;;		line 9 in file "scheduler.c"
  6061 ;; Parameters:    Size  Location     Type
  6062 ;;		None
  6063 ;; Auto vars:     Size  Location     Type
  6064 ;;		None
  6065 ;; Return value:  Size  Location     Type
  6066 ;;                  1    wreg      void 
  6067 ;; Registers used:
  6068 ;;		wreg, fsr2l, fsr2h, status,2, status,0, prodl, prodh, cstack
  6069 ;; Tracked objects:
  6070 ;;		On entry : 0/0
  6071 ;;		On exit  : 0/0
  6072 ;;		Unchanged: 0/0
  6073 ;; Data sizes:     COMRAM   BANK0   BANK1   BANK2   BANK3   BANK4   BANK5   BANK6   BANK7   BANK8   BANK9  BANK10  BANK1
      +1  BANK12  BANK13  BANK14  BANK15
  6074 ;;      Params:         0       0       0       0       0       0       0       0       0       0       0       0       
      +0       0       0       0       0
  6075 ;;      Locals:         0       0       0       0       0       0       0       0       0       0       0       0       
      +0       0       0       0       0
  6076 ;;      Temps:          3       0       0       0       0       0       0       0       0       0       0       0       
      +0       0       0       0       0
  6077 ;;      Totals:         3       0       0       0       0       0       0       0       0       0       0       0       
      +0       0       0       0       0
  6078 ;;Total ram usage:        3 bytes
  6079 ;; Hardware stack levels used: 1
  6080 ;; Hardware stack levels required when called: 2
  6081 ;; This function calls:
  6082 ;;		i2_priority_rr_scheduler
  6083 ;; This function is called by:
  6084 ;;		_ISR
  6085 ;; This function uses a non-reentrant model
  6086 ;;
  6087                           
  6088                           	psect	text23
  6089   002204                     __ptext23:
  6090                           	callstack 0
  6091   002204                     i2_scheduler:
  6092                           	callstack 18
  6093   002204                     
  6094                           ;scheduler.c: 15:     r_queue.pos_task_running = priority_rr_scheduler();
  6095   002204  ECE1  F00D         	call	i2_priority_rr_scheduler	;wreg free
  6096   002208  6E32               	movwf	??i2_scheduler^0,c
  6097   00220A  C032  F4B0         	movff	??i2_scheduler,_r_queue+471
  6098   00220E                     
  6099                           ;scheduler.c: 17:     r_queue.task_running = &r_queue.TASKS[r_queue.pos_task_running];
  6100   00220E  C4B0  F032         	movff	_r_queue+471,??i2_scheduler
  6101   002212  5032               	movf	??i2_scheduler^0,w,c
  6102   002214  0D75               	mullw	117
  6103   002216  0ED9               	movlw	low _r_queue
  6104   002218  24F3               	addwf	243,w,c
  6105   00221A  6E33               	movwf	(??i2_scheduler+1)^0,c
  6106   00221C  0E02               	movlw	high _r_queue
  6107   00221E  20F4               	addwfc	prodh,w,c
  6108   002220  6E34               	movwf	(??i2_scheduler+2)^0,c
  6109   002222  C033  F4AE         	movff	??i2_scheduler+1,_r_queue+469
  6110   002226  C034  F4AF         	movff	??i2_scheduler+2,_r_queue+470
  6111   00222A  0012               	return		;funcret
  6112   00222C                     __end_ofi2_scheduler:
  6113                           	callstack 0
  6114                           
  6115 ;; *************** function i2_priority_rr_scheduler *****************
  6116 ;; Defined at:
  6117 ;;		line 52 in file "scheduler.c"
  6118 ;; Parameters:    Size  Location     Type
  6119 ;;		None
  6120 ;; Auto vars:     Size  Location     Type
  6121 ;;  i               1   12[COMRAM] unsigned char 
  6122 ;;  idx             1   11[COMRAM] unsigned char 
  6123 ;;  i               1   10[COMRAM] unsigned char 
  6124 ;;  found           1    9[COMRAM] unsigned char 
  6125 ;;  max_prio        1    8[COMRAM] unsigned char 
  6126 ;;  current         1    7[COMRAM] unsigned char 
  6127 ;; Return value:  Size  Location     Type
  6128 ;;                  1    wreg      unsigned char 
  6129 ;; Registers used:
  6130 ;;		wreg, fsr2l, fsr2h, status,2, status,0, prodl, prodh, cstack
  6131 ;; Tracked objects:
  6132 ;;		On entry : 0/0
  6133 ;;		On exit  : 0/0
  6134 ;;		Unchanged: 0/0
  6135 ;; Data sizes:     COMRAM   BANK0   BANK1   BANK2   BANK3   BANK4   BANK5   BANK6   BANK7   BANK8   BANK9  BANK10  BANK1
      +1  BANK12  BANK13  BANK14  BANK15
  6136 ;;      Params:         0       0       0       0       0       0       0       0       0       0       0       0       
      +0       0       0       0       0
  6137 ;;      Locals:         6       0       0       0       0       0       0       0       0       0       0       0       
      +0       0       0       0       0
  6138 ;;      Temps:          1       0       0       0       0       0       0       0       0       0       0       0       
      +0       0       0       0       0
  6139 ;;      Totals:         7       0       0       0       0       0       0       0       0       0       0       0       
      +0       0       0       0       0
  6140 ;;Total ram usage:        7 bytes
  6141 ;; Hardware stack levels used: 1
  6142 ;; Hardware stack levels required when called: 1
  6143 ;; This function calls:
  6144 ;;		i2___awmod
  6145 ;; This function is called by:
  6146 ;;		i2_scheduler
  6147 ;; This function uses a non-reentrant model
  6148 ;;
  6149                           
  6150                           	psect	text24
  6151   001BC2                     __ptext24:
  6152                           	callstack 0
  6153   001BC2                     i2_priority_rr_scheduler:
  6154                           	callstack 18
  6155   001BC2                     
  6156                           ;scheduler.c: 53:     uint8_t max_prio = 0;
  6157   001BC2  6A2D               	clrf	i2priority_rr_scheduler@max_prio^0,c
  6158                           
  6159                           ;scheduler.c: 54:     uint8_t found = 0;
  6160   001BC4  6A2E               	clrf	i2priority_rr_scheduler@found^0,c
  6161                           
  6162                           ;scheduler.c: 57:     for (uint8_t i = 0; i < r_queue.size; i++) {
  6163   001BC6  6A31               	clrf	i2priority_rr_scheduler@i^0,c
  6164   001BC8  EF1C  F00E         	goto	i2l2604
  6165   001BCC                     i2l2592:
  6166                           
  6167                           ;scheduler.c: 58:         if (r_queue.TASKS[i].task_state == READY) {
  6168   001BCC  5031               	movf	i2priority_rr_scheduler@i^0,w,c
  6169   001BCE  0D75               	mullw	117
  6170   001BD0  0EDA               	movlw	low (_r_queue+1)
  6171   001BD2  24F3               	addwf	243,w,c
  6172   001BD4  6ED9               	movwf	fsr2l,c
  6173   001BD6  0E02               	movlw	high (_r_queue+1)
  6174   001BD8  20F4               	addwfc	prodh,w,c
  6175   001BDA  6EDA               	movwf	fsr2h,c
  6176   001BDC  50DF               	movf	indf2,w,c
  6177   001BDE  A4D8               	btfss	status,2,c
  6178   001BE0  EFF4  F00D         	goto	i2u159_41
  6179   001BE4  EFF6  F00D         	goto	i2u159_40
  6180   001BE8                     i2u159_41:
  6181   001BE8  EF1B  F00E         	goto	i2l2602
  6182   001BEC                     i2u159_40:
  6183   001BEC                     
  6184                           ;scheduler.c: 59:             if (!found || r_queue.TASKS[i].task_priority > max_prio) {
  6185   001BEC  502E               	movf	i2priority_rr_scheduler@found^0,w,c
  6186   001BEE  B4D8               	btfsc	status,2,c
  6187   001BF0  EFFC  F00D         	goto	i2u160_41
  6188   001BF4  EFFE  F00D         	goto	i2u160_40
  6189   001BF8                     i2u160_41:
  6190   001BF8  EF0F  F00E         	goto	i2l2598
  6191   001BFC                     i2u160_40:
  6192   001BFC  5031               	movf	i2priority_rr_scheduler@i^0,w,c
  6193   001BFE  0D75               	mullw	117
  6194   001C00  0EDE               	movlw	low (_r_queue+5)
  6195   001C02  24F3               	addwf	243,w,c
  6196   001C04  6ED9               	movwf	fsr2l,c
  6197   001C06  0E02               	movlw	high (_r_queue+5)
  6198   001C08  20F4               	addwfc	prodh,w,c
  6199   001C0A  6EDA               	movwf	fsr2h,c
  6200   001C0C  50DE               	movf	postinc2,w,c
  6201   001C0E  5C2D               	subwf	i2priority_rr_scheduler@max_prio^0,w,c
  6202   001C10  B0D8               	btfsc	status,0,c
  6203   001C12  EF0D  F00E         	goto	i2u161_41
  6204   001C16  EF0F  F00E         	goto	i2u161_40
  6205   001C1A                     i2u161_41:
  6206   001C1A  EF1B  F00E         	goto	i2l2602
  6207   001C1E                     i2u161_40:
  6208   001C1E                     i2l2598:
  6209                           
  6210                           ;scheduler.c: 60:                 max_prio = r_queue.TASKS[i].task_priority;
  6211   001C1E  5031               	movf	i2priority_rr_scheduler@i^0,w,c
  6212   001C20  0D75               	mullw	117
  6213   001C22  0EDE               	movlw	low (_r_queue+5)
  6214   001C24  24F3               	addwf	243,w,c
  6215   001C26  6ED9               	movwf	fsr2l,c
  6216   001C28  0E02               	movlw	high (_r_queue+5)
  6217   001C2A  20F4               	addwfc	prodh,w,c
  6218   001C2C  6EDA               	movwf	fsr2h,c
  6219   001C2E  50DF               	movf	indf2,w,c
  6220   001C30  6E2D               	movwf	i2priority_rr_scheduler@max_prio^0,c
  6221   001C32                     
  6222                           ;scheduler.c: 61:                 found = 1;
  6223   001C32  0E01               	movlw	1
  6224   001C34  6E2E               	movwf	i2priority_rr_scheduler@found^0,c
  6225   001C36                     i2l2602:
  6226                           
  6227                           ;scheduler.c: 64:     }
  6228   001C36  2A31               	incf	i2priority_rr_scheduler@i^0,f,c
  6229   001C38                     i2l2604:
  6230   001C38  EE24  F0AD         	lfsr	2,_r_queue+468
  6231   001C3C  50DE               	movf	postinc2,w,c
  6232   001C3E  5C31               	subwf	i2priority_rr_scheduler@i^0,w,c
  6233   001C40  A0D8               	btfss	status,0,c
  6234   001C42  EF25  F00E         	goto	i2u162_41
  6235   001C46  EF27  F00E         	goto	i2u162_40
  6236   001C4A                     i2u162_41:
  6237   001C4A  EFE6  F00D         	goto	i2l2592
  6238   001C4E                     i2u162_40:
  6239   001C4E                     
  6240                           ;scheduler.c: 65:     if (!found)return 0;
  6241   001C4E  502E               	movf	i2priority_rr_scheduler@found^0,w,c
  6242   001C50  A4D8               	btfss	status,2,c
  6243   001C52  EF2D  F00E         	goto	i2u163_41
  6244   001C56  EF2F  F00E         	goto	i2u163_40
  6245   001C5A                     i2u163_41:
  6246   001C5A  EF32  F00E         	goto	i2l509
  6247   001C5E                     i2u163_40:
  6248   001C5E                     i2l2608:
  6249   001C5E  0E00               	movlw	0
  6250   001C60  EF77  F00E         	goto	i2l510
  6251   001C64                     i2l509:
  6252                           
  6253                           ;scheduler.c: 66:     uint8_t current = r_queue.pos_task_running;
  6254   001C64  C4B0  F02C         	movff	_r_queue+471,i2priority_rr_scheduler@current
  6255                           
  6256                           ;scheduler.c: 68:     for (uint8_t i = 0; i < r_queue.size; i++) {
  6257   001C68  6A2F               	clrf	i2priority_rr_scheduler@i_1482^0,c
  6258   001C6A  EF6A  F00E         	goto	i2l2624
  6259   001C6E                     i2l2612:
  6260                           
  6261                           ;scheduler.c: 69:         uint8_t idx = (current + i) % r_queue.size;
  6262   001C6E  502C               	movf	i2priority_rr_scheduler@current^0,w,c
  6263   001C70  242F               	addwf	i2priority_rr_scheduler@i_1482^0,w,c
  6264   001C72  6E25               	movwf	i2___awmod@dividend^0,c
  6265   001C74  6A26               	clrf	(i2___awmod@dividend+1)^0,c
  6266   001C76  3626               	rlcf	(i2___awmod@dividend+1)^0,f,c
  6267   001C78  C4AD  F02B         	movff	_r_queue+468,??i2_priority_rr_scheduler
  6268   001C7C  502B               	movf	??i2_priority_rr_scheduler^0,w,c
  6269   001C7E  6E27               	movwf	i2___awmod@divisor^0,c
  6270   001C80  6A28               	clrf	(i2___awmod@divisor+1)^0,c
  6271   001C82  EC27  F00F         	call	i2___awmod	;wreg free
  6272   001C86  5025               	movf	?i2___awmod^0,w,c
  6273   001C88  6E30               	movwf	i2priority_rr_scheduler@idx^0,c
  6274   001C8A                     
  6275                           ;scheduler.c: 70:         if (r_queue.TASKS[idx].task_state == READY &&
  6276   001C8A  5030               	movf	i2priority_rr_scheduler@idx^0,w,c
  6277   001C8C  0D75               	mullw	117
  6278   001C8E  0EDA               	movlw	low (_r_queue+1)
  6279   001C90  24F3               	addwf	243,w,c
  6280   001C92  6ED9               	movwf	fsr2l,c
  6281   001C94  0E02               	movlw	high (_r_queue+1)
  6282   001C96  20F4               	addwfc	prodh,w,c
  6283   001C98  6EDA               	movwf	fsr2h,c
  6284   001C9A  50DF               	movf	indf2,w,c
  6285   001C9C  A4D8               	btfss	status,2,c
  6286   001C9E  EF53  F00E         	goto	i2u164_41
  6287   001CA2  EF55  F00E         	goto	i2u164_40
  6288   001CA6                     i2u164_41:
  6289   001CA6  EF69  F00E         	goto	i2l2622
  6290   001CAA                     i2u164_40:
  6291   001CAA  5030               	movf	i2priority_rr_scheduler@idx^0,w,c
  6292   001CAC  0D75               	mullw	117
  6293   001CAE  0EDE               	movlw	low (_r_queue+5)
  6294   001CB0  24F3               	addwf	243,w,c
  6295   001CB2  6ED9               	movwf	fsr2l,c
  6296   001CB4  0E02               	movlw	high (_r_queue+5)
  6297   001CB6  20F4               	addwfc	prodh,w,c
  6298   001CB8  6EDA               	movwf	fsr2h,c
  6299   001CBA  502D               	movf	i2priority_rr_scheduler@max_prio^0,w,c
  6300   001CBC  18DE               	xorwf	postinc2,w,c
  6301   001CBE  A4D8               	btfss	status,2,c
  6302   001CC0  EF64  F00E         	goto	i2u165_41
  6303   001CC4  EF66  F00E         	goto	i2u165_40
  6304   001CC8                     i2u165_41:
  6305   001CC8  EF69  F00E         	goto	i2l2622
  6306   001CCC                     i2u165_40:
  6307   001CCC                     
  6308                           ;scheduler.c: 71:             r_queue.TASKS[idx].task_priority == max_prio) {;scheduler.
      +                          c: 72:             return idx;
  6309   001CCC  5030               	movf	i2priority_rr_scheduler@idx^0,w,c
  6310   001CCE  EF77  F00E         	goto	i2l510
  6311   001CD2                     i2l2622:
  6312                           
  6313                           ;scheduler.c: 74:     }
  6314   001CD2  2A2F               	incf	i2priority_rr_scheduler@i_1482^0,f,c
  6315   001CD4                     i2l2624:
  6316   001CD4  EE24  F0AD         	lfsr	2,_r_queue+468
  6317   001CD8  50DE               	movf	postinc2,w,c
  6318   001CDA  5C2F               	subwf	i2priority_rr_scheduler@i_1482^0,w,c
  6319   001CDC  A0D8               	btfss	status,0,c
  6320   001CDE  EF73  F00E         	goto	i2u166_41
  6321   001CE2  EF75  F00E         	goto	i2u166_40
  6322   001CE6                     i2u166_41:
  6323   001CE6  EF37  F00E         	goto	i2l2612
  6324   001CEA                     i2u166_40:
  6325   001CEA  EF2F  F00E         	goto	i2l2608
  6326   001CEE                     i2l510:
  6327   001CEE  0012               	return		;funcret
  6328   001CF0                     __end_ofi2_priority_rr_scheduler:
  6329                           	callstack 0
  6330                           
  6331 ;; *************** function i2___awmod *****************
  6332 ;; Defined at:
  6333 ;;		line 7 in file "C:\Program Files\Microchip\xc8\v3.10\pic\sources\c99\common\awmod.c"
  6334 ;; Parameters:    Size  Location     Type
  6335 ;;  dividend        2    0[COMRAM] int 
  6336 ;;  divisor         2    2[COMRAM] int 
  6337 ;; Auto vars:     Size  Location     Type
  6338 ;;  sign            1    5[COMRAM] unsigned char 
  6339 ;;  counter         1    4[COMRAM] unsigned char 
  6340 ;; Return value:  Size  Location     Type
  6341 ;;                  2    0[COMRAM] int 
  6342 ;; Registers used:
  6343 ;;		wreg, status,2, status,0
  6344 ;; Tracked objects:
  6345 ;;		On entry : 0/0
  6346 ;;		On exit  : 0/0
  6347 ;;		Unchanged: 0/0
  6348 ;; Data sizes:     COMRAM   BANK0   BANK1   BANK2   BANK3   BANK4   BANK5   BANK6   BANK7   BANK8   BANK9  BANK10  BANK1
      +1  BANK12  BANK13  BANK14  BANK15
  6349 ;;      Params:         4       0       0       0       0       0       0       0       0       0       0       0       
      +0       0       0       0       0
  6350 ;;      Locals:         2       0       0       0       0       0       0       0       0       0       0       0       
      +0       0       0       0       0
  6351 ;;      Temps:          0       0       0       0       0       0       0       0       0       0       0       0       
      +0       0       0       0       0
  6352 ;;      Totals:         6       0       0       0       0       0       0       0       0       0       0       0       
      +0       0       0       0       0
  6353 ;;Total ram usage:        6 bytes
  6354 ;; Hardware stack levels used: 1
  6355 ;; This function calls:
  6356 ;;		Nothing
  6357 ;; This function is called by:
  6358 ;;		i2_priority_rr_scheduler
  6359 ;; This function uses a non-reentrant model
  6360 ;;
  6361                           
  6362                           	psect	text25
  6363   001E4E                     __ptext25:
  6364                           	callstack 0
  6365   001E4E                     i2___awmod:
  6366                           	callstack 18
  6367   001E4E  6A2A               	clrf	i2___awmod@sign^0,c
  6368   001E50  BE26               	btfsc	(i2___awmod@dividend+1)^0,7,c
  6369   001E52  EF2F  F00F         	goto	i2u152_40
  6370   001E56  EF2D  F00F         	goto	i2u152_41
  6371   001E5A                     i2u152_41:
  6372   001E5A  EF35  F00F         	goto	i2l2490
  6373   001E5E                     i2u152_40:
  6374   001E5E  6C25               	negf	i2___awmod@dividend^0,c
  6375   001E60  1E26               	comf	(i2___awmod@dividend+1)^0,f,c
  6376   001E62  B0D8               	btfsc	status,0,c
  6377   001E64  2A26               	incf	(i2___awmod@dividend+1)^0,f,c
  6378   001E66  0E01               	movlw	1
  6379   001E68  6E2A               	movwf	i2___awmod@sign^0,c
  6380   001E6A                     i2l2490:
  6381   001E6A  BE28               	btfsc	(i2___awmod@divisor+1)^0,7,c
  6382   001E6C  EF3C  F00F         	goto	i2u153_40
  6383   001E70  EF3A  F00F         	goto	i2u153_41
  6384   001E74                     i2u153_41:
  6385   001E74  EF40  F00F         	goto	i2l2494
  6386   001E78                     i2u153_40:
  6387   001E78  6C27               	negf	i2___awmod@divisor^0,c
  6388   001E7A  1E28               	comf	(i2___awmod@divisor+1)^0,f,c
  6389   001E7C  B0D8               	btfsc	status,0,c
  6390   001E7E  2A28               	incf	(i2___awmod@divisor+1)^0,f,c
  6391   001E80                     i2l2494:
  6392   001E80  5027               	movf	i2___awmod@divisor^0,w,c
  6393   001E82  1028               	iorwf	(i2___awmod@divisor+1)^0,w,c
  6394   001E84  B4D8               	btfsc	status,2,c
  6395   001E86  EF47  F00F         	goto	i2u154_41
  6396   001E8A  EF49  F00F         	goto	i2u154_40
  6397   001E8E                     i2u154_41:
  6398   001E8E  EF6D  F00F         	goto	i2l2510
  6399   001E92                     i2u154_40:
  6400   001E92  0E01               	movlw	1
  6401   001E94  6E29               	movwf	i2___awmod@counter^0,c
  6402   001E96  EF51  F00F         	goto	i2l2500
  6403   001E9A                     i2l2498:
  6404   001E9A  90D8               	bcf	status,0,c
  6405   001E9C  3627               	rlcf	i2___awmod@divisor^0,f,c
  6406   001E9E  3628               	rlcf	(i2___awmod@divisor+1)^0,f,c
  6407   001EA0  2A29               	incf	i2___awmod@counter^0,f,c
  6408   001EA2                     i2l2500:
  6409   001EA2  AE28               	btfss	(i2___awmod@divisor+1)^0,7,c
  6410   001EA4  EF56  F00F         	goto	i2u155_41
  6411   001EA8  EF58  F00F         	goto	i2u155_40
  6412   001EAC                     i2u155_41:
  6413   001EAC  EF4D  F00F         	goto	i2l2498
  6414   001EB0                     i2u155_40:
  6415   001EB0                     i2l2502:
  6416   001EB0  5027               	movf	i2___awmod@divisor^0,w,c
  6417   001EB2  5C25               	subwf	i2___awmod@dividend^0,w,c
  6418   001EB4  5028               	movf	(i2___awmod@divisor+1)^0,w,c
  6419   001EB6  5826               	subwfb	(i2___awmod@dividend+1)^0,w,c
  6420   001EB8  A0D8               	btfss	status,0,c
  6421   001EBA  EF61  F00F         	goto	i2u156_41
  6422   001EBE  EF63  F00F         	goto	i2u156_40
  6423   001EC2                     i2u156_41:
  6424   001EC2  EF67  F00F         	goto	i2l2506
  6425   001EC6                     i2u156_40:
  6426   001EC6  5027               	movf	i2___awmod@divisor^0,w,c
  6427   001EC8  5E25               	subwf	i2___awmod@dividend^0,f,c
  6428   001ECA  5028               	movf	(i2___awmod@divisor+1)^0,w,c
  6429   001ECC  5A26               	subwfb	(i2___awmod@dividend+1)^0,f,c
  6430   001ECE                     i2l2506:
  6431   001ECE  90D8               	bcf	status,0,c
  6432   001ED0  3228               	rrcf	(i2___awmod@divisor+1)^0,f,c
  6433   001ED2  3227               	rrcf	i2___awmod@divisor^0,f,c
  6434   001ED4  2E29               	decfsz	i2___awmod@counter^0,f,c
  6435   001ED6  EF58  F00F         	goto	i2l2502
  6436   001EDA                     i2l2510:
  6437   001EDA  502A               	movf	i2___awmod@sign^0,w,c
  6438   001EDC  B4D8               	btfsc	status,2,c
  6439   001EDE  EF73  F00F         	goto	i2u157_41
  6440   001EE2  EF75  F00F         	goto	i2u157_40
  6441   001EE6                     i2u157_41:
  6442   001EE6  EF79  F00F         	goto	i2l2514
  6443   001EEA                     i2u157_40:
  6444   001EEA  6C25               	negf	i2___awmod@dividend^0,c
  6445   001EEC  1E26               	comf	(i2___awmod@dividend+1)^0,f,c
  6446   001EEE  B0D8               	btfsc	status,0,c
  6447   001EF0  2A26               	incf	(i2___awmod@dividend+1)^0,f,c
  6448   001EF2                     i2l2514:
  6449   001EF2  C025  F025         	movff	i2___awmod@dividend,?i2___awmod
  6450   001EF6  C026  F026         	movff	i2___awmod@dividend+1,?i2___awmod+1
  6451   001EFA  0012               	return		;funcret
  6452   001EFC                     __end_ofi2___awmod:
  6453                           	callstack 0
  6454                           
  6455                           	psect	smallconst
  6456   001000                     __psmallconst:
  6457                           	callstack 0
  6458   001000  00                 	db	0
  6459   001001  00                 	db	0	; dummy byte at the end
  6460   001000                     __smallconst    set	__psmallconst
  6461   001000                     __mediumconst   set	__psmallconst
  6462   000002                     __activetblptr  equ	2
  6463                           
  6464                           	psect	rparam
  6465   000001                     ___rparam_used  equ	1
  6466   000000                     ___param_bank   equ	0
  6467   000000                     __Lparam        equ	__Lrparam
  6468   000000                     __Hparam        equ	__Hrparam
  6469   000001                     btemp           set	1	;btemp
  6470   000001                     int$flags       set	1
  6471   000001                     btemp0          set	1
  6472   000002                     btemp1          set	2
  6473                           tosu	equ	0xFFF
  6474                           tosh	equ	0xFFE
  6475                           tosl	equ	0xFFD
  6476                           stkptr	equ	0xFFC
  6477                           pclatu	equ	0xFFB
  6478                           pclath	equ	0xFFA
  6479                           pcl	equ	0xFF9
  6480                           tblptru	equ	0xFF8
  6481                           tblptrh	equ	0xFF7
  6482                           tblptrl	equ	0xFF6
  6483                           tablat	equ	0xFF5
  6484                           prodh	equ	0xFF4
  6485                           prodl	equ	0xFF3
  6486                           indf0	equ	0xFEF
  6487                           postinc0	equ	0xFEE
  6488                           postdec0	equ	0xFED
  6489                           preinc0	equ	0xFEC
  6490                           plusw0	equ	0xFEB
  6491                           fsr0h	equ	0xFEA
  6492                           fsr0l	equ	0xFE9
  6493                           wreg	equ	0xFE8
  6494                           indf1	equ	0xFE7
  6495                           postinc1	equ	0xFE6
  6496                           postdec1	equ	0xFE5
  6497                           preinc1	equ	0xFE4
  6498                           plusw1	equ	0xFE3
  6499                           fsr1h	equ	0xFE2
  6500                           fsr1l	equ	0xFE1
  6501                           bsr	equ	0xFE0
  6502                           indf2	equ	0xFDF
  6503                           postinc2	equ	0xFDE
  6504                           postdec2	equ	0xFDD
  6505                           preinc2	equ	0xFDC
  6506                           plusw2	equ	0xFDB
  6507                           fsr2h	equ	0xFDA
  6508                           fsr2l	equ	0xFD9
  6509                           status	equ	0xFD8

Data Sizes:
    Strings     0
    Constant    0
    Data        1
    BSS         1019
    Persistent  0
    Stack       0

Auto Spaces:
    Space          Size  Autos    Used
    COMRAM           94     31      67
    BANK0           160    121     121
    BANK1           256      0       0
    BANK2           256      0       0
    BANK3           256      0       0
    BANK4           256      0       0
    BANK5           256      0       0
    BANK6           256      0       0
    BANK7           256      0       0
    BANK8           256      0       0
    BANK9           256      0       0
    BANK10          256      0       0
    BANK11          256      0       0
    BANK12          256      0       0
    BANK13          256      0       0
    BANK14          256      0       0
    BANK15           56      0       0

Pointer List with Targets:

    mutex_init@m	PTR struct mutex size(1) Largest target is 8
		 -> m_led(COMRAM[8]), 

    new_task$task_ptr	PTR FTN()void  size(2) Largest target is 1
		 -> idle(), tarefaLeituraADC_UART(), 

    os_create_task@func	PTR FTN()void  size(2) Largest target is 1
		 -> idle(), tarefaLeituraADC_UART(), 

    os_task_change_state@task_handle$task_ptr	PTR FTN()void  size(2) Largest target is 1
		 -> idle(), tarefaLeituraADC_UART(), 

    pipe_init@p	PTR struct pipe size(1) Largest target is 20
		 -> p(COMRAM[20]), 

    r_queue$task_ptr	PTR FTN()void  size(2) Largest target is 1
		 -> idle(), tarefaLeituraADC_UART(), 

    r_queue$task_running	PTR struct tcb size(2) Largest target is 472
		 -> r_queue(BIGRAM[472]), r_queue$TASKS(BIGRAM[468]), 

    r_queue$task_running$task_ptr	PTR FTN()void  size(2) Largest target is 1
		 -> idle(), tarefaLeituraADC_UART(), 

    r_queue$TASKS$task_ptr	PTR FTN()void  size(2) Largest target is 1
		 -> idle(), tarefaLeituraADC_UART(), 

    S62tcb$task_ptr	PTR FTN()void  size(2) Largest target is 1
		 -> idle(), tarefaLeituraADC_UART(), 

    S86ready_queue$task_running	PTR struct tcb size(2) Largest target is 472
		 -> r_queue(BIGRAM[472]), 

    sem_init@sem	PTR struct sem size(1) Largest target is 20
		 -> p(COMRAM[20]), s(COMRAM[7]), 

    sp__os_malloc	PTR void  size(2) Largest target is 512
		 -> _uDynamicHeap(BIGRAM[512]), NULL(NULL[0]), 

    sp__SRAMalloc	PTR unsigned char  size(2) Largest target is 512
		 -> _uDynamicHeap(BIGRAM[512]), NULL(NULL[0]), 

    SRAMInitHeap@pHeap	PTR unsigned char  size(2) Largest target is 512
		 -> _uDynamicHeap(BIGRAM[512]), 


Critical Paths under _main in COMRAM

    _main->_os_create_task
    _scheduler->_priority_rr_scheduler
    _os_config->_os_create_task
    _config_user->_mutex_init
    _config_user->_pipe_init

Critical Paths under _idle in COMRAM

    None.

Critical Paths under _idle in COMRAM

    None.

Critical Paths under _tarefaLeituraADC_UART in COMRAM

    _tarefaLeituraADC_UART->_os_delay
    _os_delay->i1_scheduler
    i1_scheduler->i1_priority_rr_scheduler
    i1_priority_rr_scheduler->i1___awmod

Critical Paths under _tarefaLeituraADC_UART in COMRAM

    _tarefaLeituraADC_UART->_os_delay
    _os_delay->i1_scheduler
    i1_scheduler->i1_priority_rr_scheduler
    i1_priority_rr_scheduler->i1___awmod

Critical Paths under _ISR in COMRAM

    _ISR->i2_scheduler
    i2_scheduler->i2_priority_rr_scheduler
    i2_priority_rr_scheduler->i2___awmod

Critical Paths under _main in BANK0

    _main->_os_create_task
    _os_start->_scheduler
    _scheduler->_priority_rr_scheduler
    _priority_rr_scheduler->___awmod
    _os_config->_os_create_task
    _config_user->_sem_init
    _pipe_init->_sem_init

Critical Paths under _idle in BANK0

    None.

Critical Paths under _idle in BANK0

    None.

Critical Paths under _tarefaLeituraADC_UART in BANK0

    None.

Critical Paths under _tarefaLeituraADC_UART in BANK0

    None.

Critical Paths under _ISR in BANK0

    None.

Critical Paths under _main in BANK1

    None.

Critical Paths under _idle in BANK1

    None.

Critical Paths under _idle in BANK1

    None.

Critical Paths under _tarefaLeituraADC_UART in BANK1

    None.

Critical Paths under _tarefaLeituraADC_UART in BANK1

    None.

Critical Paths under _ISR in BANK1

    None.

Critical Paths under _main in BANK2

    None.

Critical Paths under _idle in BANK2

    None.

Critical Paths under _idle in BANK2

    None.

Critical Paths under _tarefaLeituraADC_UART in BANK2

    None.

Critical Paths under _tarefaLeituraADC_UART in BANK2

    None.

Critical Paths under _ISR in BANK2

    None.

Critical Paths under _main in BANK3

    None.

Critical Paths under _idle in BANK3

    None.

Critical Paths under _idle in BANK3

    None.

Critical Paths under _tarefaLeituraADC_UART in BANK3

    None.

Critical Paths under _tarefaLeituraADC_UART in BANK3

    None.

Critical Paths under _ISR in BANK3

    None.

Critical Paths under _main in BANK4

    None.

Critical Paths under _idle in BANK4

    None.

Critical Paths under _idle in BANK4

    None.

Critical Paths under _tarefaLeituraADC_UART in BANK4

    None.

Critical Paths under _tarefaLeituraADC_UART in BANK4

    None.

Critical Paths under _ISR in BANK4

    None.

Critical Paths under _main in BANK5

    None.

Critical Paths under _idle in BANK5

    None.

Critical Paths under _idle in BANK5

    None.

Critical Paths under _tarefaLeituraADC_UART in BANK5

    None.

Critical Paths under _tarefaLeituraADC_UART in BANK5

    None.

Critical Paths under _ISR in BANK5

    None.

Critical Paths under _main in BANK6

    None.

Critical Paths under _idle in BANK6

    None.

Critical Paths under _idle in BANK6

    None.

Critical Paths under _tarefaLeituraADC_UART in BANK6

    None.

Critical Paths under _tarefaLeituraADC_UART in BANK6

    None.

Critical Paths under _ISR in BANK6

    None.

Critical Paths under _main in BANK7

    None.

Critical Paths under _idle in BANK7

    None.

Critical Paths under _idle in BANK7

    None.

Critical Paths under _tarefaLeituraADC_UART in BANK7

    None.

Critical Paths under _tarefaLeituraADC_UART in BANK7

    None.

Critical Paths under _ISR in BANK7

    None.

Critical Paths under _main in BANK8

    None.

Critical Paths under _idle in BANK8

    None.

Critical Paths under _idle in BANK8

    None.

Critical Paths under _tarefaLeituraADC_UART in BANK8

    None.

Critical Paths under _tarefaLeituraADC_UART in BANK8

    None.

Critical Paths under _ISR in BANK8

    None.

Critical Paths under _main in BANK9

    None.

Critical Paths under _idle in BANK9

    None.

Critical Paths under _idle in BANK9

    None.

Critical Paths under _tarefaLeituraADC_UART in BANK9

    None.

Critical Paths under _tarefaLeituraADC_UART in BANK9

    None.

Critical Paths under _ISR in BANK9

    None.

Critical Paths under _main in BANK10

    None.

Critical Paths under _idle in BANK10

    None.

Critical Paths under _idle in BANK10

    None.

Critical Paths under _tarefaLeituraADC_UART in BANK10

    None.

Critical Paths under _tarefaLeituraADC_UART in BANK10

    None.

Critical Paths under _ISR in BANK10

    None.

Critical Paths under _main in BANK11

    None.

Critical Paths under _idle in BANK11

    None.

Critical Paths under _idle in BANK11

    None.

Critical Paths under _tarefaLeituraADC_UART in BANK11

    None.

Critical Paths under _tarefaLeituraADC_UART in BANK11

    None.

Critical Paths under _ISR in BANK11

    None.

Critical Paths under _main in BANK12

    None.

Critical Paths under _idle in BANK12

    None.

Critical Paths under _idle in BANK12

    None.

Critical Paths under _tarefaLeituraADC_UART in BANK12

    None.

Critical Paths under _tarefaLeituraADC_UART in BANK12

    None.

Critical Paths under _ISR in BANK12

    None.

Critical Paths under _main in BANK13

    None.

Critical Paths under _idle in BANK13

    None.

Critical Paths under _idle in BANK13

    None.

Critical Paths under _tarefaLeituraADC_UART in BANK13

    None.

Critical Paths under _tarefaLeituraADC_UART in BANK13

    None.

Critical Paths under _ISR in BANK13

    None.

Critical Paths under _main in BANK14

    None.

Critical Paths under _idle in BANK14

    None.

Critical Paths under _idle in BANK14

    None.

Critical Paths under _tarefaLeituraADC_UART in BANK14

    None.

Critical Paths under _tarefaLeituraADC_UART in BANK14

    None.

Critical Paths under _ISR in BANK14

    None.

Critical Paths under _main in BANK15

    None.

Critical Paths under _idle in BANK15

    None.

Critical Paths under _idle in BANK15

    None.

Critical Paths under _tarefaLeituraADC_UART in BANK15

    None.

Critical Paths under _tarefaLeituraADC_UART in BANK15

    None.

Critical Paths under _ISR in BANK15

    None.

Call Graph Tables:

 ---------------------------------------------------------------------------------
 (Depth) Function   	        Calls       Base Space   Used Autos Params    Refs
 ---------------------------------------------------------------------------------
 (0) _main                                                 0     0      0    3563
                          _os_config
                     _os_create_task
                           _os_start
 ---------------------------------------------------------------------------------
 (1) _os_start                                             7     7      0     945
                                             15 BANK0      7     7      0
                          _scheduler
                     _setup_hardware
 ---------------------------------------------------------------------------------
 (2) _setup_hardware                                       0     0      0       0
 ---------------------------------------------------------------------------------
 (2) _scheduler                                            3     3      0     945
                                             12 BANK0      3     3      0
              _priority_rr_scheduler
 ---------------------------------------------------------------------------------
 (3) _priority_rr_scheduler                                7     7      0     945
                                             26 COMRAM     1     1      0
                                              6 BANK0      6     6      0
                            ___awmod
 ---------------------------------------------------------------------------------
 (4) ___awmod                                              6     2      4     481
                                              0 BANK0      6     2      4
 ---------------------------------------------------------------------------------
 (1) _os_config                                            0     0      0    1649
                       _SRAMInitHeap
                        _config_user
                     _os_create_task
 ---------------------------------------------------------------------------------
 (2) _os_create_task                                     122   119      3     969
                                             26 COMRAM     1     1      0
                                              0 BANK0    121   118      3
 ---------------------------------------------------------------------------------
 (2) _config_user                                          0     0      0     522
                         _adc_config
                             _adc_on
                         _mutex_init
                          _pipe_init
                           _sem_init
 ---------------------------------------------------------------------------------
 (3) _pipe_init                                            1     0      1     269
                                             26 COMRAM     1     0      1
                           _sem_init
 ---------------------------------------------------------------------------------
 (4) _sem_init                                             4     2      2     142
                                              0 BANK0      4     2      2
 ---------------------------------------------------------------------------------
 (3) _mutex_init                                           1     0      1     111
                                             26 COMRAM     1     0      1
 ---------------------------------------------------------------------------------
 (3) _adc_on                                               0     0      0       0
 ---------------------------------------------------------------------------------
 (3) _adc_config                                           0     0      0       0
 ---------------------------------------------------------------------------------
 (2) _SRAMInitHeap                                         4     4      0     158
                                              0 BANK0      4     4      0
 ---------------------------------------------------------------------------------
 Estimated maximum stack depth 4
 ---------------------------------------------------------------------------------
 (Depth) Function   	        Calls       Base Space   Used Autos Params    Refs
 ---------------------------------------------------------------------------------
 (5) _idle                                                 1     1      0       0
                                              0 BANK0      1     1      0
 ---------------------------------------------------------------------------------
 Estimated maximum stack depth 5
 ---------------------------------------------------------------------------------
 (Depth) Function   	        Calls       Base Space   Used Autos Params    Refs
 ---------------------------------------------------------------------------------
 (5) _idle                                                 1     1      0       0
                                              0 BANK0      1     1      0
 ---------------------------------------------------------------------------------
 Estimated maximum stack depth 5
 ---------------------------------------------------------------------------------
 (Depth) Function   	        Calls       Base Space   Used Autos Params    Refs
 ---------------------------------------------------------------------------------
 (5) _tarefaLeituraADC_UART                                2     2      0     697
                                             24 COMRAM     2     2      0
                           _adc_read
                           _os_delay
 ---------------------------------------------------------------------------------
 (6) _os_delay                                             8     8      0     645
                                             16 COMRAM     8     8      0
                        i1_scheduler
 ---------------------------------------------------------------------------------
 (7) i1_scheduler                                          3     3      0     616
                                             13 COMRAM     3     3      0
            i1_priority_rr_scheduler
 ---------------------------------------------------------------------------------
 (8) i1_priority_rr_scheduler                              7     7      0     616
                                              6 COMRAM     7     7      0
                          i1___awmod
 ---------------------------------------------------------------------------------
 (9) i1___awmod                                            6     2      4     298
                                              0 COMRAM     6     2      4
 ---------------------------------------------------------------------------------
 (6) _adc_read                                             5     3      2      29
                                              0 COMRAM     5     3      2
 ---------------------------------------------------------------------------------
 Estimated maximum stack depth 9
 ---------------------------------------------------------------------------------
 (Depth) Function   	        Calls       Base Space   Used Autos Params    Refs
 ---------------------------------------------------------------------------------
 (5) _tarefaLeituraADC_UART                                2     2      0     697
                                             24 COMRAM     2     2      0
                           _adc_read
                           _os_delay
 ---------------------------------------------------------------------------------
 (6) _os_delay                                             8     8      0     645
                                             16 COMRAM     8     8      0
                        i1_scheduler
 ---------------------------------------------------------------------------------
 (7) i1_scheduler                                          3     3      0     616
                                             13 COMRAM     3     3      0
            i1_priority_rr_scheduler
 ---------------------------------------------------------------------------------
 (8) i1_priority_rr_scheduler                              7     7      0     616
                                              6 COMRAM     7     7      0
                          i1___awmod
 ---------------------------------------------------------------------------------
 (9) i1___awmod                                            6     2      4     298
                                              0 COMRAM     6     2      4
 ---------------------------------------------------------------------------------
 (6) _adc_read                                             5     3      2      29
                                              0 COMRAM     5     3      2
 ---------------------------------------------------------------------------------
 Estimated maximum stack depth 9
 ---------------------------------------------------------------------------------
 (Depth) Function   	        Calls       Base Space   Used Autos Params    Refs
 ---------------------------------------------------------------------------------
 (10) _ISR                                                15    15      0     728
                                             16 COMRAM    15    15      0
                        i2_scheduler
 ---------------------------------------------------------------------------------
 (11) i2_scheduler                                         3     3      0     616
                                             13 COMRAM     3     3      0
            i2_priority_rr_scheduler
 ---------------------------------------------------------------------------------
 (12) i2_priority_rr_scheduler                             7     7      0     616
                                              6 COMRAM     7     7      0
                          i2___awmod
 ---------------------------------------------------------------------------------
 (13) i2___awmod                                           6     2      4     298
                                              0 COMRAM     6     2      4
 ---------------------------------------------------------------------------------
 Estimated maximum stack depth 13
 ---------------------------------------------------------------------------------

 Call Graph Graphs:

 _main (ROOT)
   _os_config
     _SRAMInitHeap
     _config_user
       _adc_config
       _adc_on
       _mutex_init
       _pipe_init
         _sem_init
       _sem_init
     _os_create_task
   _os_create_task
   _os_start
     _scheduler
       _priority_rr_scheduler
         ___awmod
     _setup_hardware

 _idle (ROOT)

 _idle (ROOT)

 _tarefaLeituraADC_UART (ROOT)
   _adc_read
   _os_delay
     i1_scheduler
       i1_priority_rr_scheduler
         i1___awmod

 _tarefaLeituraADC_UART (ROOT)
   _adc_read
   _os_delay
     i1_scheduler
       i1_priority_rr_scheduler
         i1___awmod

 _ISR (ROOT)
   i2_scheduler
     i2_priority_rr_scheduler
       i2___awmod

Address spaces:
Name               Size   Autos  Total    Usage
BIGRAM            3895      0     984     25.3%
BITBANK14          256      0       0      0.0%
BANK14             256      0       0      0.0%
BITBANK13          256      0       0      0.0%
BANK13             256      0       0      0.0%
BITBANK12          256      0       0      0.0%
BANK12             256      0       0      0.0%
BITBANK11          256      0       0      0.0%
BANK11             256      0       0      0.0%
BITBANK10          256      0       0      0.0%
BANK10             256      0       0      0.0%
BITBANK9           256      0       0      0.0%
BANK9              256      0       0      0.0%
BITBANK8           256      0       0      0.0%
BANK8              256      0       0      0.0%
BITBANK7           256      0       0      0.0%
BANK7              256      0       0      0.0%
BITBANK6           256      0       0      0.0%
BANK6              256      0       0      0.0%
BITBANK5           256      0       0      0.0%
BANK5              256      0       0      0.0%
BITBANK4           256      0       0      0.0%
BANK4              256      0       0      0.0%
BITBANK3           256      0       0      0.0%
BANK3              256      0       0      0.0%
BITBANK2           256      0       0      0.0%
BANK2              256      0       0      0.0%
BITBANK1           256      0       0      0.0%
BANK1              256      0       0      0.0%
BITBANK0           160      0       0      0.0%
BANK0              160    121     121     75.6%
BITCOMRAM           94      0       0      0.0%
COMRAM              94     31      67     71.3%
BITBIGSFRllh        88      0       0      0.0%
BITBIGSFRh          61      0       0      0.0%
BITBANK15           56      0       0      0.0%
BANK15              56      0       0      0.0%
BITBIGSFRlh         45      0       0      0.0%
BITBIGSFRlll         1      0       0      0.0%
STACK                0      0       0      0.0%
DATA                 0      0    1187      0.0%


Microchip Technology PIC18 Macro Assembler V3.10 build 20250813170317 
Symbol Table                                                                                   Wed Apr 29 15:11:24 2026

            __end_ofi2_scheduler 222C                                _p 0002                                _s 001E  
                             l13 226E                               l14 226E                              l103 1F66  
                            l122 20EE                              l134 18D0                              l135 17BE  
                            l240 2080                              l216 2186                              l139 1960  
                            l430 20AC                              l510 1A92                              l352 2124  
                            l273 2046                              l429 2082                              l509 1A06  
                            l462 1FCC                              l296 2250                              l299 2290  
                            l483 21B0                              l571 228C                              l953 1D9E  
                            _BSR 0FE0                              _ISR 0008         priority_rr_scheduler@idx 006A  
                   ___awmod@sign 0065                              prod 0FF3                              wreg 0FE8  
              SRAMInitHeap@pHeap 0060                             ?_ISR 0025                SRAMInitHeap@count 0062  
                           ISR@i 0042                             l3100 1D02                             l3110 1D36  
                           l3102 1D0A                             l3200 1F22                             l3120 1D72  
                           l3112 1D3E                             l3104 1D0E                             l3210 1F2C  
                           l3202 1F24                             l3122 1D78                             l3114 1D46  
                           l3106 1D1C                             l3132 200E                             l3220 1F36  
                           l3212 1F2E                             l3204 1F26                             l3116 1D54  
                           l3124 1D7E                             l3108 1D24                             l3140 196E  
                           l3134 2026                             l3222 1F38                             l3214 1F30  
                           l3206 1F28                             l3126 1D8E                             l3118 1D6A  
                           l3142 198E                             l3150 19D8                             l3230 2194  
                           l3240 1F9A                             l3232 1F68                             l1480 224A  
                           l3136 2036                             l3224 1F3A                             l3216 1F32  
                           l3208 1F2A                             l3128 1D96                             l3160 1A10  
                           l3144 199E                             l3152 19DA                             l3242 1FA2  
                           l3234 1F72                             l1482 224C                             l3090 2158  
                           l3250 20F0                             l3226 1F5C                             l3218 1F34  
                           l3170 1A76                             l3162 1A2E                             l3154 19F0  
                           l3146 19C0                             l3138 1962                             l3244 1FB2  
                           l3236 1F78                             l1476 222C                             l1484 228E  
                           l3092 216E                             l3252 20FE                             l3180 1F04  
                           l3164 1A4E                             l3172 1A78                             l3156 1A00  
                           l3148 19D4                             l3228 2188                             l3246 1FBE  
                           l3238 1F8E                             l1478 2238                             l2390 205C  
                           l3094 217A                             l3254 211C                             l3190 1F18  
                           l3182 1F08                             l3166 1A70                             l3270 1610  
                           l2392 2068                             l3256 2120                             l3192 1F1A  
                           l3184 1F0C                             l3096 1CF0                             l3280 181C  
                           l3272 1630                             l2394 2074                             l2386 2048  
                           l3194 1F1C                             l3186 1F14                             l3178 1F00  
                           l3098 1CF4                             l3282 1864                             l3274 179C  
                           l3290 195E                             l3266 1608                             l2388 2050  
                           l3196 1F1E                             l3188 1F16                             l2580 2276  
                           l3284 18AC                             l3276 17C0                             l3268 160C  
                           l3198 1F20                             l2582 2280                             l3286 18D2  
                           l3278 17D2                             l2584 2284                             l3288 195A  
                           l3660 20EA                             l3654 20BA                             l3662 2252  
                           l3664 21B2                             l3656 20D2                             l3666 21B4  
                           l3658 20D6                             l2992 2082                             l2994 2090  
                           l2996 20A6                             l2998 20AE                             u2320 1D02  
                           u2400 19C0                             u2321 1CFE                             u2401 19BC  
                           u2330 1D1C                             u2410 19F0                             u2331 1D18  
                           u2411 19EC                             u2340 1D36                             u2420 1A00  
                           u2500 18CC                             u2341 1D32                             u2421 19FC  
                           u2501 18C8                             u2350 1D54                             u2430 1A4E  
                           u2510 194E                             u2351 1D50                             u2431 1A4A  
                           u2360 1D6A                             u2440 1A70                             u2361 1D66  
                           u2441 1A6C                             u2370 1D8E                             u2450 1A8E  
                           u2371 1D8A                             u2451 1A8A                             u2515 1946  
                           u2380 198E                             u2461 1F54                             u2381 198A  
                           u2470 1F8E                             u2390 199E                             u2471 1F8A  
                           u2391 199A                             u2480 1630                             u2481 162C  
                           u2490 17BE                             u2491 17BA                             i1l95 157A  
                           i1l96 146A                             _TMR0 0FD6                             _TOSH 0FFE  
                           _TOSL 0FFD                             _WREG 0FE8                             _TOSU 0FFF  
                           _idle 21B2                             _main 2252                             fsr1h 0FE2  
                           fsr2h 0FDA                             indf1 0FE7                             indf2 0FDF  
                           fsr1l 0FE1                             fsr2l 0FD9                             btemp 0001  
                           prodh 0FF4                             prodl 0FF3                             start 071A  
                   ___param_bank 0000     i1priority_rr_scheduler@found 002E                            ??_ISR 0035  
     i1priority_rr_scheduler@idx 0030          ??_tarefaLeituraADC_UART 003D                            ?_idle 0025  
                          ?_main 0025                  __end_of___awmod 1DA0                            _FSR0H 0FEA  
                          _FSR1H 0FE2                            _FSR0L 0FE9                            _FSR2H 0FDA  
                          _FSR1L 0FE1                            _FSR2L 0FD9                            i1l100 1606  
                          i1l302 213C                            i1l305 2156                            i1l510 1BC0  
                          i1l509 1B36                            i1l483 2202                            i2l510 1CEE  
                          i2l509 1C64                            i1l953 1E4C                            i2l483 222A  
                          i2l591 0674                            i2l592 0564                            i2l596 06FE  
                          i2l953 1EFA                            _PRODH 0FF4                            _PRODL 0FF3  
                 i1___awmod@sign 002A     priority_rr_scheduler@current 0066                      i1_scheduler 21DC  
                          _m_led 0016                            btemp0 0001                            btemp1 0002  
                          tablat 0FF5                            plusw1 0FE3                            plusw2 0FDB  
                          status 0FD8                      i2_scheduler 2204                  __initialization 1FCE  
                   __end_of_idle 21DC                     __end_of_main 2276    __end_of_priority_rr_scheduler 1A94  
                         ??_idle 0060                           ??_main 0040                    __activetblptr 0002  
                         _ADRESH 0FC4                           _ADRESL 0FC3                 __end_of_adc_read 2158  
                         i1l2350 1DA0                           i1l2360 1DCA                           i1l2352 1DA2  
                         i1l2370 1E02                           i1l2362 1DD2                           i1l2354 1DB0  
                         i1l2450 1AF0                           i1l2442 1A94                           i1l2380 1E3C  
                         i1l2372 1E18                           i1l2364 1DE4                           i1l2356 1DB8  
                         i1l2460 1B30                           i1l2452 1B04                           i1l2444 1A9E  
                         i1l2700 1604                           i1l2702 2128                           i1l2382 1E44  
                         i1l2374 1E20                           i1l2366 1DEC                           i1l2358 1DBC  
                         i1l2470 1B9E                           i1l2446 1ABE                           i1l2454 1B08  
                         i1l2704 213A                           i1l2376 1E26                           i1l2368 1DF4  
                         i1l2464 1B40                           i1l2448 1ACE                           i1l2456 1B0A  
                         i1l2706 214A                           i1l2378 1E2C                           i1l2474 1BA4  
                         i1l2466 1B5C                           i1l2458 1B20                           i1l2468 1B7C  
                         i1l2476 1BA6                           i1l2670 11A6                           i1l2680 12BE  
                         i1l2672 127E                           i1l2664 1004                           i1l2586 21DC  
                         i1l2690 14C6                           i1l2682 12DE                           i1l2674 1292  
                         i1l2666 1006                           i1l2588 21E6                           i1l2692 150E  
                         i1l2684 1448                           i1l2668 1028                           i1l2676 12A2  
                         i1l2694 1556                           i1l2686 146C                           i1l2678 12BA  
                         i2l3040 0032                           i1l2696 157C                           i1l2688 147E  
                         i2l3042 003C                           i2l3050 00DC                           i1l2698 1600  
                         i2l2500 1EA2                           i2l3060 013C                           i2l3052 0104  
                         i2l3044 006A                           i2l3036 0022                           i2l2502 1EB0  
                         i2l2510 1EDA                           i2l3070 03B8                           i2l3062 02B8  
                         i2l3054 0106                           i2l3046 00B8                           i2l3038 0030  
                         i2l2512 1EEA                           i2l2504 1EC6                           i2l2600 1C32  
                         i2l3080 05C0                           i2l3072 03D8                           i2l3064 0390  
                         i2l3056 0116                           i2l3048 00D8                           u213_20 20A6  
                         u213_21 20A2                           i2l2514 1EF2                           i2l2506 1ECE  
                         i2l2602 1C36                           i2l3082 0608                           i2l3074 0542  
                         i2l3066 03A4                           i2l3058 011A                           i2l2508 1ED4  
                         i2l2612 1C6E                           i2l2604 1C38                           i2l3084 0650  
                         i2l3076 0566                           i2l3068 03B4                           i2l2622 1CD2  
                         i2l2614 1C8A                           i2l2606 1C4E                           i2l2710 2204  
                         i2l3086 0676                           i2l3078 0578                           i2l2616 1CAA  
                         i2l2624 1CD4                           i2l2608 1C5E                           i2l2712 220E  
                         i2l3088 06FA                           i2l2490 1E6A                           i2l2482 1E4E  
                         i2l2618 1CCC                           i2l2492 1E78                           i2l2484 1E50  
                         _PCLATH 0FFA                           i2l2494 1E80                           i2l2486 1E5E  
                         i2l2590 1BC2                           i2l2496 1E92                           i2l2488 1E66  
                         i2l2592 1BCC                           u303_20 21C4                           u303_21 21BE  
                         i2l2498 1E9A                           i2l2594 1BEC                           i2l2596 1BFC  
                         i2l2598 1C1E                           u303_26 21C6                           _PCLATU 0FFB  
  i2priority_rr_scheduler@i_1482 002F                           _TABLAT 0FF5                           _STATUS 0FD8  
                         _STKPTR 0FFC         ?i2_priority_rr_scheduler 0025                           _adc_on 228E  
                      ??___awmod 003F                           clear_0 1FE8                           clear_1 1FFA  
                ___awmod@divisor 0062               os_create_task@func 0060                 ??_setup_hardware 003F  
                         isa$std 0001                  ___awmod@counter 0064                 __end_of_os_delay 1608  
               __end_of_sem_init 2188                __end_ofi1___awmod 1E4E                     __pdataCOMRAM 0044  
              __end_ofi2___awmod 1EFC                 __end_of_os_start 1962                     __mediumconst 1000  
                         tblptrh 0FF7                           tblptrl 0FF6                           tblptru 0FF8  
                 i2___awmod@sign 002A                       __accesstop 0060          __end_of__initialization 2000  
         priority_rr_scheduler@i 006B                    ___rparam_used 0001                   _os_create_task 1EFC  
                 __pcstackCOMRAM 0025                       _adc_config 222C                 os_create_task@id 0063  
__end_ofi2_priority_rr_scheduler 1CF0                    __uDynamicHeap 00D9           __end_of_os_create_task 1F68  
                        ?_adc_on 0025    __end_of_tarefaLeituraADC_UART 20BA                        ?_adc_read 0025  
        i1_priority_rr_scheduler 1A94                          _TBLPTRH 0FF7                          _TBLPTRL 0FF6  
                        _TBLPTRU 0FF8                     ?i1_scheduler 0025                      sem_init@sem 0060  
                   ?i2_scheduler 0025                  ?_os_create_task 0060                        ?_os_delay 0025  
                        __Hparam 0000                        ?_sem_init 0060   i2priority_rr_scheduler@current 002C  
                        __Lparam 0000                        ?_os_start 0025                      ?_adc_config 0025  
                        ___awmod 1CF0                     __psmallconst 1000                          __pcinit 1FCE  
                        __ramtop 1000                    ?_SRAMInitHeap 0025                       ??_adc_read 0027  
                        __ptext0 2252                          __ptext1 1608                          __ptext2 2276  
                        __ptext3 2188                          __ptext4 1962                          __ptext5 1CF0  
                        __ptext6 20BA                          __ptext7 1EFC                          __ptext8 20F0  
                        __ptext9 200E                        _T0CONbits 0FD5                 ___awmod@dividend 0060  
                        _r_queue 02D9              os_create_task@prior 0062                __end_of_scheduler 21B2  
           end_of_initialization 2000                __end_of_pipe_init 2048                __end_of_os_config 20F0  
                  __Lmediumconst 0000           os_create_task@new_task 0064                       ??_os_delay 0035  
                     ??_sem_init 0062                       ??_os_start 006F   i1priority_rr_scheduler@current 002C  
                        postdec1 0FE5                          postdec2 0FDD                          postinc0 0FEE  
                        postinc1 0FE6                          postinc2 0FDE        ??i1_priority_rr_scheduler 002B  
                 ??_SRAMInitHeap 003F                        _PORTCbits 0F82                        _PORTDbits 0F83  
                     _rr_quantum 0044            _priority_rr_scheduler 1962                       _mutex_init 2048  
                      _TRISAbits 0F92                        _TRISCbits 0F94                        _TRISDbits 0F95  
                  sem_init@valor 0061                        i1___awmod 1DA0                        i2___awmod 1E4E  
                  ??_config_user 0040                   __end_of_adc_on 2292                      mutex_init@m 003F  
                  __pidataCOMRAM 2292              start_initialization 1FCE                      __end_of_ISR 071A  
                     ?i1___awmod 0025                       ?i2___awmod 0025       tarefaLeituraADC_UART@valor 003D  
                       ??_adc_on 003F               i1___awmod@dividend 0025              __end_of_config_user 2126  
         ?_priority_rr_scheduler 0025                      __pbssBIGRAM 00D9                      ?_mutex_init 003F  
                    __pbssCOMRAM 0002                  adc_read@channel 0029                    __pcstackBANK0 0060  
       i2priority_rr_scheduler@i 0031                 ??_os_create_task 003F             __end_of_SRAMInitHeap 1FCE  
                      __pintcode 0008                     ??_adc_config 003F                         ?___awmod 0060  
                     pipe_init@p 003F          i2_priority_rr_scheduler 1BC2                      __smallconst 1000  
          _tarefaLeituraADC_UART 2082                      ??i1___awmod 0029                      ??i2___awmod 0029  
             __end_of_adc_config 2252    i1priority_rr_scheduler@i_1482 002F                        _scheduler 2188  
                      _pipe_init 200E                        _os_config 20BA                         i1u130_20 1DB0  
                       i1u130_21 1DAC                         i1u131_20 1DCA                         i1u131_21 1DC6  
                       i1u132_20 1DE4                         i1u132_21 1DE0                         i1u133_20 1E02  
                       i1u133_21 1DFE                         i1u134_20 1E18                         i1u150_20 1B9E  
                       i1u134_21 1E14                         i1u150_21 1B9A                         i1u135_20 1E3C  
                       i1u151_20 1BBC                         i1u135_21 1E38                         i1u151_21 1BB8  
                       i1u144_20 1ABE                         i1u144_21 1ABA                         i1u145_20 1ACE  
                       i1u145_21 1ACA                         i1u146_20 1AF0                         i1u146_21 1AEC  
                       i1u147_20 1B20                         i1u171_20 1028                         i1u147_21 1B1C  
                       i1u171_21 1024                         i1u148_20 1B30                         i1u172_20 12A2  
                       i1u148_21 1B2C                         i1u172_21 129E                         i1u149_20 1B7C  
                       i1u173_20 12DE                         i1u149_21 1B78                         i1u173_21 12DA  
                       i1u174_20 146A                         i1u174_21 1466                         i1u175_20 1576  
                       i1u175_21 1572                         i1u176_20 15F6                         i1u176_25 15EE  
                       i1u177_20 214A                         i1u177_21 2146                         i2u221_40 0030  
                       i2u221_41 002C                         i2u230_40 0670                         i2u222_40 006A  
                       i2u230_41 066C                         i2u222_41 0066                         i2u231_40 06F0  
                       i2u223_40 00B8                         i2u223_41 00B4                         i2u231_45 06E8  
                       i2u152_40 1E5E                         i2u160_40 1BFC                         i2u224_40 0104  
                       i2u152_41 1E5A                         i2u160_41 1BF8                         i2u224_41 0100  
                       i2u153_40 1E78                         i2u161_40 1C1E                         i2u225_40 0116  
                       i2u153_41 1E74                         i2u161_41 1C1A                         i2u225_41 0112  
                       i2u154_40 1E92                         i2u162_40 1C4E                         i2u226_40 013C  
                       i2u154_41 1E8E                         i2u162_41 1C4A                         i2u226_41 0138  
                       i2u155_40 1EB0                         i2u163_40 1C5E                         i2u227_40 03B4  
                       i2u155_41 1EAC                         i2u163_41 1C5A                         i2u227_41 03B0  
                       i2u156_40 1EC6                         i2u164_40 1CAA                         i2u228_40 03D8  
                       i2u156_41 1EC2                         i2u164_41 1CA6                         i2u228_41 03D4  
                       i2u157_40 1EEA                         i2u165_40 1CCC                         i2u229_40 0564  
                       i2u157_41 1EE6                         i2u165_41 1CC8                         i2u229_41 0560  
                       i2u166_40 1CEA                         i2u166_41 1CE6                         i2u159_40 1BEC  
                       i2u159_41 1BE8                     os_delay@time 003C                      _config_user 20F0  
    priority_rr_scheduler@i_1482 0069                       _ADCON0bits 0FC2                       _ADCON1bits 0FC1  
                     _ADCON2bits 0FC0       i2priority_rr_scheduler@idx 0030               i2___awmod@dividend 0025  
                     ?_scheduler 0025                       ?_pipe_init 003F                       ?_os_config 0025  
i2priority_rr_scheduler@max_prio 002D    priority_rr_scheduler@max_prio 0067                         __Hrparam 0000  
                       __Lrparam 0000     i2priority_rr_scheduler@found 002E                i1___awmod@divisor 0027  
              i1___awmod@counter 0029        ??i2_priority_rr_scheduler 002B                         _adc_read 2126  
         ?_tarefaLeituraADC_UART 0025                       _ANSELAbits 0F38                       _ANSELCbits 0F3A  
                     _ANSELDbits 0F3B                         __ptext10 2158                         __ptext11 2048  
                       __ptext20 1DA0                         __ptext12 228E                         __ptext21 2126  
                       __ptext13 222C                         __ptext14 1F68                         __ptext23 2204  
                       __ptext15 21B2                         __ptext24 1BC2                         __ptext16 2082  
                       __ptext25 1E4E                         __ptext17 1002                         __ptext18 21DC  
                       __ptext19 1A94                   _setup_hardware 2276                         _os_delay 1002  
                       _sem_init 2158         ?i1_priority_rr_scheduler 0025                         _os_start 1608  
                       isa$xinst 0000                         int$flags 0001          ??_priority_rr_scheduler 003F  
     priority_rr_scheduler@found 0068                     _SRAMInitHeap 1F68                i2___awmod@divisor 0027  
              i2___awmod@counter 0029                     ??_mutex_init 0040                       _INTCONbits 0FF2  
         __end_of_setup_hardware 228E                    ??i1_scheduler 0032                         intlevel1 0000  
                       intlevel2 0000                    ??i2_scheduler 0032                      ??_scheduler 006C  
                    ??_pipe_init 0040                      ??_os_config 0040               __end_of_mutex_init 2082  
i1priority_rr_scheduler@max_prio 002D                  ?_setup_hardware 0025         i1priority_rr_scheduler@i 0031  
__end_ofi1_priority_rr_scheduler 1BC2              __end_ofi1_scheduler 2204                     ?_config_user 0025  
