

Microchip MPLAB XC8 Assembler V3.10 build 20250813170317 
                                                                                               Sun Apr 26 18:16:05 2026

Microchip MPLAB XC8 C Compiler v3.10 (Free license) build 20250813170317 Og1 
     1                           	processor	18F46K22
     2                           	fnconf	rparam,??,?,0
     3                           	pagewidth 120
     4                           	opt	flic
     5                           	psect	idataCOMRAM,global,class=CODE,space=0,delta=1,noexec
     6                           	psect	cinit,global,reloc=2,class=CODE,space=0,delta=1
     7                           	psect	bssCOMRAM,global,class=COMRAM,space=1,delta=1,lowdata,noexec
     8                           	psect	dataCOMRAM,global,class=COMRAM,space=1,delta=1,lowdata,noexec
     9                           	psect	bssBIGRAM,global,class=BIGRAM,space=1,delta=1,noexec
    10                           	psect	cstackBANK1,global,class=BANK1,space=1,delta=1,lowdata,noexec
    11                           	psect	cstackBANK0,global,class=BANK0,space=1,delta=1,lowdata,noexec
    12                           	psect	cstackCOMRAM,global,class=COMRAM,space=1,delta=1,lowdata,noexec
    13                           	psect	text0,global,reloc=2,class=CODE,space=0,delta=1
    14                           	psect	text1,global,reloc=2,class=CODE,space=0,delta=1
    15                           	psect	text2,global,reloc=2,class=CODE,space=0,delta=1
    16                           	psect	text3,global,reloc=2,class=CODE,space=0,delta=1
    17                           	psect	text4,global,reloc=2,class=CODE,space=0,delta=1
    18                           	psect	text5,global,reloc=2,class=CODE,space=0,delta=1,group=1
    19                           	psect	text6,global,reloc=2,class=CODE,space=0,delta=1
    20                           	psect	text7,global,reloc=2,class=CODE,space=0,delta=1
    21                           	psect	text8,global,reloc=2,class=CODE,space=0,delta=1
    22                           	psect	text9,global,reloc=2,class=CODE,space=0,delta=1
    23                           	psect	text10,global,reloc=2,class=CODE,space=0,delta=1
    24                           	psect	text11,global,reloc=2,class=CODE,space=0,delta=1
    25                           	psect	text12,global,reloc=2,class=CODE,space=0,delta=1
    26                           	psect	text13,global,reloc=2,class=CODE,space=0,delta=1
    27                           	psect	text14,global,reloc=2,class=CODE,space=0,delta=1
    28                           	psect	text15,global,reloc=2,class=CODE,space=0,delta=1
    29                           	psect	text16,global,reloc=2,class=CODE,space=0,delta=1
    30                           	psect	text17,global,reloc=2,class=CODE,space=0,delta=1
    31                           	psect	text18,global,reloc=2,class=CODE,space=0,delta=1
    32                           	psect	text19,global,reloc=2,class=CODE,space=0,delta=1
    33                           	psect	text20,global,reloc=2,class=CODE,space=0,delta=1
    34                           	psect	intcode,global,reloc=2,class=CODE,space=0,delta=1
    35                           	psect	text22,global,reloc=2,class=CODE,space=0,delta=1
    36                           	psect	text23,global,reloc=2,class=CODE,space=0,delta=1
    37                           	psect	text24,global,reloc=2,class=CODE,space=0,delta=1
    38                           	psect	smallconst,global,reloc=2,class=SMALLCONST,space=0,delta=1,noexec
    39                           	psect	intsave_regs,global,class=BIGRAM,space=1,delta=1,noexec
    40                           	psect	rparam,global,class=COMRAM,space=1,delta=1,noexec
    41                           	dabs	1,0x1,1
    42   000000                     
    43                           ; Generated 24/03/2025 GMT
    44                           ; 
    45                           ; Copyright © 2025, Microchip Technology Inc. and its subsidiaries ("Microchip")
    46                           ; All rights reserved.
    47                           ; 
    48                           ; This software is developed by Microchip Technology Inc. and its subsidiaries ("Microch
      +                          ip").
    49                           ; 
    50                           ; Redistribution and use in source and binary forms, with or without modification, are
    51                           ; permitted provided that the following conditions are met:
    52                           ; 
    53                           ;     1. Redistributions of source code must retain the above copyright notice, this lis
      +                          t of
    54                           ;        conditions and the following disclaimer.
    55                           ; 
    56                           ;     2. Redistributions in binary form must reproduce the above copyright notice, this 
      +                          list
    57                           ;        of conditions and the following disclaimer in the documentation and/or other
    58                           ;        materials provided with the distribution. Publication is not required when
    59                           ;        this file is used in an embedded application.
    60                           ; 
    61                           ;     3. Microchip's name may not be used to endorse or promote products derived from th
      +                          is
    62                           ;        software without specific prior written permission.
    63                           ; 
    64                           ; THIS SOFTWARE IS PROVIDED BY MICROCHIP "AS IS" AND ANY EXPRESS OR IMPLIED WARRANTIES,
    65                           ; INCLUDING, BUT NOT LIMITED TO, THE IMPLIED WARRANTIES OF MERCHANTABILITY AND FITNESS F
      +                          OR
    66                           ; PURPOSE ARE DISCLAIMED.  IN NO EVENT SHALL MICROCHIP BE LIABLE FOR ANY DIRECT, INDIREC
      +                          T,
    67                           ; INCIDENTAL, SPECIAL, EXEMPLARY, OR CONSEQUENTIAL DAMAGES (INCLUDING BUT NOT LIMITED TO
    68                           ; PROCUREMENT OF SUBSTITUTE GOODS OR SERVICES; LOSS OF USE, DATA OR PROFITS; OR BUSINESS
    69                           ; INTERRUPTION) HOWSOEVER CAUSED AND ON ANY THEORY OF LIABILITY, WHETHER IN CONTRACT, ST
      +                          RICT
    70                           ; LIABILITY, OR TORT (INCLUDING NEGLIGENCE OR OTHERWISE) ARISING IN ANY WAY OUT OF THE U
      +                          SE OF
    71                           ; THIS SOFTWARE, EVEN IF ADVISED OF THE POSSIBILITY OF SUCH DAMAGE.
    72                           ; 
    73                           ; 
    74                           ; Code-generator required, PIC18F46K22 Definitions
    75                           ; 
    76                           ; SFR Addresses
    77   000FE0                     bsr             equ	4064
    78   000FE9                     fsr0            equ	4073
    79   000FEA                     fsr0h           equ	4074
    80   000FE9                     fsr0l           equ	4073
    81   000FE1                     fsr1            equ	4065
    82   000FE2                     fsr1h           equ	4066
    83   000FE1                     fsr1l           equ	4065
    84   000FD9                     fsr2            equ	4057
    85   000FDA                     fsr2h           equ	4058
    86   000FD9                     fsr2l           equ	4057
    87   000FEF                     indf0           equ	4079
    88   000FE7                     indf1           equ	4071
    89   000FDF                     indf2           equ	4063
    90   000FF2                     intcon          equ	4082
    91   000000                     nvmcon          equ	0
    92   000FF9                     pcl             equ	4089
    93   000FFA                     pclath          equ	4090
    94   000FFB                     pclatu          equ	4091
    95   000FEB                     plusw0          equ	4075
    96   000FE3                     plusw1          equ	4067
    97   000FDB                     plusw2          equ	4059
    98   000FED                     postdec0        equ	4077
    99   000FE5                     postdec1        equ	4069
   100   000FDD                     postdec2        equ	4061
   101   000FEE                     postinc0        equ	4078
   102   000FE6                     postinc1        equ	4070
   103   000FDE                     postinc2        equ	4062
   104   000FEC                     preinc0         equ	4076
   105   000FE4                     preinc1         equ	4068
   106   000FDC                     preinc2         equ	4060
   107   000FF3                     prod            equ	4083
   108   000FF4                     prodh           equ	4084
   109   000FF3                     prodl           equ	4083
   110   000FD8                     status          equ	4056
   111   000FF5                     tablat          equ	4085
   112   000FF6                     tblptr          equ	4086
   113   000FF7                     tblptrh         equ	4087
   114   000FF6                     tblptrl         equ	4086
   115   000FF8                     tblptru         equ	4088
   116   000FFD                     tosl            equ	4093
   117   000FE8                     wreg            equ	4072
   118   000F38                     ANSELA          equ	3896	;# 
   119   000F39                     ANSELB          equ	3897	;# 
   120   000F3A                     ANSELC          equ	3898	;# 
   121   000F3B                     ANSELD          equ	3899	;# 
   122   000F3C                     ANSELE          equ	3900	;# 
   123   000F3D                     PMD2            equ	3901	;# 
   124   000F3E                     PMD1            equ	3902	;# 
   125   000F3F                     PMD0            equ	3903	;# 
   126   000F40                     VREFCON2        equ	3904	;# 
   127   000F40                     DACCON1         equ	3904	;# 
   128   000F41                     VREFCON1        equ	3905	;# 
   129   000F41                     DACCON0         equ	3905	;# 
   130   000F42                     VREFCON0        equ	3906	;# 
   131   000F42                     FVRCON          equ	3906	;# 
   132   000F43                     CTMUICON        equ	3907	;# 
   133   000F43                     CTMUICONH       equ	3907	;# 
   134   000F44                     CTMUCONL        equ	3908	;# 
   135   000F44                     CTMUCON1        equ	3908	;# 
   136   000F45                     CTMUCONH        equ	3909	;# 
   137   000F45                     CTMUCON0        equ	3909	;# 
   138   000F46                     SRCON1          equ	3910	;# 
   139   000F47                     SRCON0          equ	3911	;# 
   140   000F48                     CCPTMRS1        equ	3912	;# 
   141   000F49                     CCPTMRS0        equ	3913	;# 
   142   000F4A                     T6CON           equ	3914	;# 
   143   000F4B                     PR6             equ	3915	;# 
   144   000F4C                     TMR6            equ	3916	;# 
   145   000F4D                     T5GCON          equ	3917	;# 
   146   000F4E                     T5CON           equ	3918	;# 
   147   000F4F                     TMR5            equ	3919	;# 
   148   000F4F                     TMR5L           equ	3919	;# 
   149   000F50                     TMR5H           equ	3920	;# 
   150   000F51                     T4CON           equ	3921	;# 
   151   000F52                     PR4             equ	3922	;# 
   152   000F53                     TMR4            equ	3923	;# 
   153   000F54                     CCP5CON         equ	3924	;# 
   154   000F55                     CCPR5           equ	3925	;# 
   155   000F55                     CCPR5L          equ	3925	;# 
   156   000F56                     CCPR5H          equ	3926	;# 
   157   000F57                     CCP4CON         equ	3927	;# 
   158   000F58                     CCPR4           equ	3928	;# 
   159   000F58                     CCPR4L          equ	3928	;# 
   160   000F59                     CCPR4H          equ	3929	;# 
   161   000F5A                     PSTR3CON        equ	3930	;# 
   162   000F5B                     ECCP3AS         equ	3931	;# 
   163   000F5B                     CCP3AS          equ	3931	;# 
   164   000F5C                     PWM3CON         equ	3932	;# 
   165   000F5D                     CCP3CON         equ	3933	;# 
   166   000F5E                     CCPR3           equ	3934	;# 
   167   000F5E                     CCPR3L          equ	3934	;# 
   168   000F5F                     CCPR3H          equ	3935	;# 
   169   000F60                     SLRCON          equ	3936	;# 
   170   000F61                     WPUB            equ	3937	;# 
   171   000F62                     IOCB            equ	3938	;# 
   172   000F63                     PSTR2CON        equ	3939	;# 
   173   000F64                     ECCP2AS         equ	3940	;# 
   174   000F64                     CCP2AS          equ	3940	;# 
   175   000F65                     PWM2CON         equ	3941	;# 
   176   000F66                     CCP2CON         equ	3942	;# 
   177   000F67                     CCPR2           equ	3943	;# 
   178   000F67                     CCPR2L          equ	3943	;# 
   179   000F68                     CCPR2H          equ	3944	;# 
   180   000F69                     SSP2CON3        equ	3945	;# 
   181   000F6A                     SSP2MSK         equ	3946	;# 
   182   000F6B                     SSP2CON2        equ	3947	;# 
   183   000F6C                     SSP2CON1        equ	3948	;# 
   184   000F6D                     SSP2STAT        equ	3949	;# 
   185   000F6E                     SSP2ADD         equ	3950	;# 
   186   000F6F                     SSP2BUF         equ	3951	;# 
   187   000F70                     BAUDCON2        equ	3952	;# 
   188   000F70                     BAUD2CON        equ	3952	;# 
   189   000F71                     RCSTA2          equ	3953	;# 
   190   000F71                     RC2STA          equ	3953	;# 
   191   000F72                     TXSTA2          equ	3954	;# 
   192   000F72                     TX2STA          equ	3954	;# 
   193   000F73                     TXREG2          equ	3955	;# 
   194   000F73                     TX2REG          equ	3955	;# 
   195   000F74                     RCREG2          equ	3956	;# 
   196   000F74                     RC2REG          equ	3956	;# 
   197   000F75                     SPBRG2          equ	3957	;# 
   198   000F75                     SP2BRG          equ	3957	;# 
   199   000F76                     SPBRGH2         equ	3958	;# 
   200   000F76                     SP2BRGH         equ	3958	;# 
   201   000F77                     CM2CON1         equ	3959	;# 
   202   000F77                     CM12CON         equ	3959	;# 
   203   000F78                     CM2CON0         equ	3960	;# 
   204   000F78                     CM2CON          equ	3960	;# 
   205   000F79                     CM1CON0         equ	3961	;# 
   206   000F79                     CM1CON          equ	3961	;# 
   207   000F7A                     PIE4            equ	3962	;# 
   208   000F7B                     PIR4            equ	3963	;# 
   209   000F7C                     IPR4            equ	3964	;# 
   210   000F7D                     PIE5            equ	3965	;# 
   211   000F7E                     PIR5            equ	3966	;# 
   212   000F7F                     IPR5            equ	3967	;# 
   213   000F80                     PORTA           equ	3968	;# 
   214   000F81                     PORTB           equ	3969	;# 
   215   000F82                     PORTC           equ	3970	;# 
   216   000F83                     PORTD           equ	3971	;# 
   217   000F84                     PORTE           equ	3972	;# 
   218   000F89                     LATA            equ	3977	;# 
   219   000F8A                     LATB            equ	3978	;# 
   220   000F8B                     LATC            equ	3979	;# 
   221   000F8C                     LATD            equ	3980	;# 
   222   000F8D                     LATE            equ	3981	;# 
   223   000F92                     TRISA           equ	3986	;# 
   224   000F92                     DDRA            equ	3986	;# 
   225   000F93                     TRISB           equ	3987	;# 
   226   000F93                     DDRB            equ	3987	;# 
   227   000F94                     TRISC           equ	3988	;# 
   228   000F94                     DDRC            equ	3988	;# 
   229   000F95                     TRISD           equ	3989	;# 
   230   000F95                     DDRD            equ	3989	;# 
   231   000F96                     TRISE           equ	3990	;# 
   232   000F96                     DDRE            equ	3990	;# 
   233   000F9B                     OSCTUNE         equ	3995	;# 
   234   000F9C                     HLVDCON         equ	3996	;# 
   235   000F9C                     LVDCON          equ	3996	;# 
   236   000F9D                     PIE1            equ	3997	;# 
   237   000F9E                     PIR1            equ	3998	;# 
   238   000F9F                     IPR1            equ	3999	;# 
   239   000FA0                     PIE2            equ	4000	;# 
   240   000FA1                     PIR2            equ	4001	;# 
   241   000FA2                     IPR2            equ	4002	;# 
   242   000FA3                     PIE3            equ	4003	;# 
   243   000FA4                     PIR3            equ	4004	;# 
   244   000FA5                     IPR3            equ	4005	;# 
   245   000FA6                     EECON1          equ	4006	;# 
   246   000FA7                     EECON2          equ	4007	;# 
   247   000FA8                     EEDATA          equ	4008	;# 
   248   000FA9                     EEADR           equ	4009	;# 
   249   000FAA                     EEADRH          equ	4010	;# 
   250   000FAB                     RCSTA1          equ	4011	;# 
   251   000FAB                     RCSTA           equ	4011	;# 
   252   000FAB                     RC1STA          equ	4011	;# 
   253   000FAC                     TXSTA1          equ	4012	;# 
   254   000FAC                     TXSTA           equ	4012	;# 
   255   000FAC                     TX1STA          equ	4012	;# 
   256   000FAD                     TXREG1          equ	4013	;# 
   257   000FAD                     TXREG           equ	4013	;# 
   258   000FAD                     TX1REG          equ	4013	;# 
   259   000FAE                     RCREG1          equ	4014	;# 
   260   000FAE                     RCREG           equ	4014	;# 
   261   000FAE                     RC1REG          equ	4014	;# 
   262   000FAF                     SPBRG1          equ	4015	;# 
   263   000FAF                     SPBRG           equ	4015	;# 
   264   000FAF                     SP1BRG          equ	4015	;# 
   265   000FB0                     SPBRGH1         equ	4016	;# 
   266   000FB0                     SPBRGH          equ	4016	;# 
   267   000FB0                     SP1BRGH         equ	4016	;# 
   268   000FB1                     T3CON           equ	4017	;# 
   269   000FB2                     TMR3            equ	4018	;# 
   270   000FB2                     TMR3L           equ	4018	;# 
   271   000FB3                     TMR3H           equ	4019	;# 
   272   000FB4                     T3GCON          equ	4020	;# 
   273   000FB6                     ECCP1AS         equ	4022	;# 
   274   000FB6                     ECCPAS          equ	4022	;# 
   275   000FB7                     PWM1CON         equ	4023	;# 
   276   000FB7                     PWMCON          equ	4023	;# 
   277   000FB8                     BAUDCON1        equ	4024	;# 
   278   000FB8                     BAUDCON         equ	4024	;# 
   279   000FB8                     BAUDCTL         equ	4024	;# 
   280   000FB8                     BAUD1CON        equ	4024	;# 
   281   000FB9                     PSTR1CON        equ	4025	;# 
   282   000FB9                     PSTRCON         equ	4025	;# 
   283   000FBA                     T2CON           equ	4026	;# 
   284   000FBB                     PR2             equ	4027	;# 
   285   000FBC                     TMR2            equ	4028	;# 
   286   000FBD                     CCP1CON         equ	4029	;# 
   287   000FBE                     CCPR1           equ	4030	;# 
   288   000FBE                     CCPR1L          equ	4030	;# 
   289   000FBF                     CCPR1H          equ	4031	;# 
   290   000FC0                     ADCON2          equ	4032	;# 
   291   000FC1                     ADCON1          equ	4033	;# 
   292   000FC2                     ADCON0          equ	4034	;# 
   293   000FC3                     ADRES           equ	4035	;# 
   294   000FC3                     ADRESL          equ	4035	;# 
   295   000FC4                     ADRESH          equ	4036	;# 
   296   000FC5                     SSP1CON2        equ	4037	;# 
   297   000FC5                     SSPCON2         equ	4037	;# 
   298   000FC6                     SSP1CON1        equ	4038	;# 
   299   000FC6                     SSPCON1         equ	4038	;# 
   300   000FC7                     SSP1STAT        equ	4039	;# 
   301   000FC7                     SSPSTAT         equ	4039	;# 
   302   000FC8                     SSP1ADD         equ	4040	;# 
   303   000FC8                     SSPADD          equ	4040	;# 
   304   000FC9                     SSP1BUF         equ	4041	;# 
   305   000FC9                     SSPBUF          equ	4041	;# 
   306   000FCA                     SSP1MSK         equ	4042	;# 
   307   000FCA                     SSPMSK          equ	4042	;# 
   308   000FCB                     SSP1CON3        equ	4043	;# 
   309   000FCB                     SSPCON3         equ	4043	;# 
   310   000FCC                     T1GCON          equ	4044	;# 
   311   000FCD                     T1CON           equ	4045	;# 
   312   000FCE                     TMR1            equ	4046	;# 
   313   000FCE                     TMR1L           equ	4046	;# 
   314   000FCF                     TMR1H           equ	4047	;# 
   315   000FD0                     RCON            equ	4048	;# 
   316   000FD1                     WDTCON          equ	4049	;# 
   317   000FD2                     OSCCON2         equ	4050	;# 
   318   000FD3                     OSCCON          equ	4051	;# 
   319   000FD5                     T0CON           equ	4053	;# 
   320   000FD6                     TMR0            equ	4054	;# 
   321   000FD6                     TMR0L           equ	4054	;# 
   322   000FD7                     TMR0H           equ	4055	;# 
   323   000FD8                     STATUS          equ	4056	;# 
   324   000FD9                     FSR2            equ	4057	;# 
   325   000FD9                     FSR2L           equ	4057	;# 
   326   000FDA                     FSR2H           equ	4058	;# 
   327   000FDB                     PLUSW2          equ	4059	;# 
   328   000FDC                     PREINC2         equ	4060	;# 
   329   000FDD                     POSTDEC2        equ	4061	;# 
   330   000FDE                     POSTINC2        equ	4062	;# 
   331   000FDF                     INDF2           equ	4063	;# 
   332   000FE0                     BSR             equ	4064	;# 
   333   000FE1                     FSR1            equ	4065	;# 
   334   000FE1                     FSR1L           equ	4065	;# 
   335   000FE2                     FSR1H           equ	4066	;# 
   336   000FE3                     PLUSW1          equ	4067	;# 
   337   000FE4                     PREINC1         equ	4068	;# 
   338   000FE5                     POSTDEC1        equ	4069	;# 
   339   000FE6                     POSTINC1        equ	4070	;# 
   340   000FE7                     INDF1           equ	4071	;# 
   341   000FE8                     WREG            equ	4072	;# 
   342   000FE9                     FSR0            equ	4073	;# 
   343   000FE9                     FSR0L           equ	4073	;# 
   344   000FEA                     FSR0H           equ	4074	;# 
   345   000FEB                     PLUSW0          equ	4075	;# 
   346   000FEC                     PREINC0         equ	4076	;# 
   347   000FED                     POSTDEC0        equ	4077	;# 
   348   000FEE                     POSTINC0        equ	4078	;# 
   349   000FEF                     INDF0           equ	4079	;# 
   350   000FF0                     INTCON3         equ	4080	;# 
   351   000FF1                     INTCON2         equ	4081	;# 
   352   000FF2                     INTCON          equ	4082	;# 
   353   000FF3                     PROD            equ	4083	;# 
   354   000FF3                     PRODL           equ	4083	;# 
   355   000FF4                     PRODH           equ	4084	;# 
   356   000FF5                     TABLAT          equ	4085	;# 
   357   000FF6                     TBLPTR          equ	4086	;# 
   358   000FF6                     TBLPTRL         equ	4086	;# 
   359   000FF7                     TBLPTRH         equ	4087	;# 
   360   000FF8                     TBLPTRU         equ	4088	;# 
   361   000FF9                     PCLAT           equ	4089	;# 
   362   000FF9                     PC              equ	4089	;# 
   363   000FF9                     PCL             equ	4089	;# 
   364   000FFA                     PCLATH          equ	4090	;# 
   365   000FFB                     PCLATU          equ	4091	;# 
   366   000FFC                     STKPTR          equ	4092	;# 
   367   000FFD                     TOS             equ	4093	;# 
   368   000FFD                     TOSL            equ	4093	;# 
   369   000FFE                     TOSH            equ	4094	;# 
   370   000FFF                     TOSU            equ	4095	;# 
   371   000F38                     ANSELA          equ	3896	;# 
   372   000F39                     ANSELB          equ	3897	;# 
   373   000F3A                     ANSELC          equ	3898	;# 
   374   000F3B                     ANSELD          equ	3899	;# 
   375   000F3C                     ANSELE          equ	3900	;# 
   376   000F3D                     PMD2            equ	3901	;# 
   377   000F3E                     PMD1            equ	3902	;# 
   378   000F3F                     PMD0            equ	3903	;# 
   379   000F40                     VREFCON2        equ	3904	;# 
   380   000F40                     DACCON1         equ	3904	;# 
   381   000F41                     VREFCON1        equ	3905	;# 
   382   000F41                     DACCON0         equ	3905	;# 
   383   000F42                     VREFCON0        equ	3906	;# 
   384   000F42                     FVRCON          equ	3906	;# 
   385   000F43                     CTMUICON        equ	3907	;# 
   386   000F43                     CTMUICONH       equ	3907	;# 
   387   000F44                     CTMUCONL        equ	3908	;# 
   388   000F44                     CTMUCON1        equ	3908	;# 
   389   000F45                     CTMUCONH        equ	3909	;# 
   390   000F45                     CTMUCON0        equ	3909	;# 
   391   000F46                     SRCON1          equ	3910	;# 
   392   000F47                     SRCON0          equ	3911	;# 
   393   000F48                     CCPTMRS1        equ	3912	;# 
   394   000F49                     CCPTMRS0        equ	3913	;# 
   395   000F4A                     T6CON           equ	3914	;# 
   396   000F4B                     PR6             equ	3915	;# 
   397   000F4C                     TMR6            equ	3916	;# 
   398   000F4D                     T5GCON          equ	3917	;# 
   399   000F4E                     T5CON           equ	3918	;# 
   400   000F4F                     TMR5            equ	3919	;# 
   401   000F4F                     TMR5L           equ	3919	;# 
   402   000F50                     TMR5H           equ	3920	;# 
   403   000F51                     T4CON           equ	3921	;# 
   404   000F52                     PR4             equ	3922	;# 
   405   000F53                     TMR4            equ	3923	;# 
   406   000F54                     CCP5CON         equ	3924	;# 
   407   000F55                     CCPR5           equ	3925	;# 
   408   000F55                     CCPR5L          equ	3925	;# 
   409   000F56                     CCPR5H          equ	3926	;# 
   410   000F57                     CCP4CON         equ	3927	;# 
   411   000F58                     CCPR4           equ	3928	;# 
   412   000F58                     CCPR4L          equ	3928	;# 
   413   000F59                     CCPR4H          equ	3929	;# 
   414   000F5A                     PSTR3CON        equ	3930	;# 
   415   000F5B                     ECCP3AS         equ	3931	;# 
   416   000F5B                     CCP3AS          equ	3931	;# 
   417   000F5C                     PWM3CON         equ	3932	;# 
   418   000F5D                     CCP3CON         equ	3933	;# 
   419   000F5E                     CCPR3           equ	3934	;# 
   420   000F5E                     CCPR3L          equ	3934	;# 
   421   000F5F                     CCPR3H          equ	3935	;# 
   422   000F60                     SLRCON          equ	3936	;# 
   423   000F61                     WPUB            equ	3937	;# 
   424   000F62                     IOCB            equ	3938	;# 
   425   000F63                     PSTR2CON        equ	3939	;# 
   426   000F64                     ECCP2AS         equ	3940	;# 
   427   000F64                     CCP2AS          equ	3940	;# 
   428   000F65                     PWM2CON         equ	3941	;# 
   429   000F66                     CCP2CON         equ	3942	;# 
   430   000F67                     CCPR2           equ	3943	;# 
   431   000F67                     CCPR2L          equ	3943	;# 
   432   000F68                     CCPR2H          equ	3944	;# 
   433   000F69                     SSP2CON3        equ	3945	;# 
   434   000F6A                     SSP2MSK         equ	3946	;# 
   435   000F6B                     SSP2CON2        equ	3947	;# 
   436   000F6C                     SSP2CON1        equ	3948	;# 
   437   000F6D                     SSP2STAT        equ	3949	;# 
   438   000F6E                     SSP2ADD         equ	3950	;# 
   439   000F6F                     SSP2BUF         equ	3951	;# 
   440   000F70                     BAUDCON2        equ	3952	;# 
   441   000F70                     BAUD2CON        equ	3952	;# 
   442   000F71                     RCSTA2          equ	3953	;# 
   443   000F71                     RC2STA          equ	3953	;# 
   444   000F72                     TXSTA2          equ	3954	;# 
   445   000F72                     TX2STA          equ	3954	;# 
   446   000F73                     TXREG2          equ	3955	;# 
   447   000F73                     TX2REG          equ	3955	;# 
   448   000F74                     RCREG2          equ	3956	;# 
   449   000F74                     RC2REG          equ	3956	;# 
   450   000F75                     SPBRG2          equ	3957	;# 
   451   000F75                     SP2BRG          equ	3957	;# 
   452   000F76                     SPBRGH2         equ	3958	;# 
   453   000F76                     SP2BRGH         equ	3958	;# 
   454   000F77                     CM2CON1         equ	3959	;# 
   455   000F77                     CM12CON         equ	3959	;# 
   456   000F78                     CM2CON0         equ	3960	;# 
   457   000F78                     CM2CON          equ	3960	;# 
   458   000F79                     CM1CON0         equ	3961	;# 
   459   000F79                     CM1CON          equ	3961	;# 
   460   000F7A                     PIE4            equ	3962	;# 
   461   000F7B                     PIR4            equ	3963	;# 
   462   000F7C                     IPR4            equ	3964	;# 
   463   000F7D                     PIE5            equ	3965	;# 
   464   000F7E                     PIR5            equ	3966	;# 
   465   000F7F                     IPR5            equ	3967	;# 
   466   000F80                     PORTA           equ	3968	;# 
   467   000F81                     PORTB           equ	3969	;# 
   468   000F82                     PORTC           equ	3970	;# 
   469   000F83                     PORTD           equ	3971	;# 
   470   000F84                     PORTE           equ	3972	;# 
   471   000F89                     LATA            equ	3977	;# 
   472   000F8A                     LATB            equ	3978	;# 
   473   000F8B                     LATC            equ	3979	;# 
   474   000F8C                     LATD            equ	3980	;# 
   475   000F8D                     LATE            equ	3981	;# 
   476   000F92                     TRISA           equ	3986	;# 
   477   000F92                     DDRA            equ	3986	;# 
   478   000F93                     TRISB           equ	3987	;# 
   479   000F93                     DDRB            equ	3987	;# 
   480   000F94                     TRISC           equ	3988	;# 
   481   000F94                     DDRC            equ	3988	;# 
   482   000F95                     TRISD           equ	3989	;# 
   483   000F95                     DDRD            equ	3989	;# 
   484   000F96                     TRISE           equ	3990	;# 
   485   000F96                     DDRE            equ	3990	;# 
   486   000F9B                     OSCTUNE         equ	3995	;# 
   487   000F9C                     HLVDCON         equ	3996	;# 
   488   000F9C                     LVDCON          equ	3996	;# 
   489   000F9D                     PIE1            equ	3997	;# 
   490   000F9E                     PIR1            equ	3998	;# 
   491   000F9F                     IPR1            equ	3999	;# 
   492   000FA0                     PIE2            equ	4000	;# 
   493   000FA1                     PIR2            equ	4001	;# 
   494   000FA2                     IPR2            equ	4002	;# 
   495   000FA3                     PIE3            equ	4003	;# 
   496   000FA4                     PIR3            equ	4004	;# 
   497   000FA5                     IPR3            equ	4005	;# 
   498   000FA6                     EECON1          equ	4006	;# 
   499   000FA7                     EECON2          equ	4007	;# 
   500   000FA8                     EEDATA          equ	4008	;# 
   501   000FA9                     EEADR           equ	4009	;# 
   502   000FAA                     EEADRH          equ	4010	;# 
   503   000FAB                     RCSTA1          equ	4011	;# 
   504   000FAB                     RCSTA           equ	4011	;# 
   505   000FAB                     RC1STA          equ	4011	;# 
   506   000FAC                     TXSTA1          equ	4012	;# 
   507   000FAC                     TXSTA           equ	4012	;# 
   508   000FAC                     TX1STA          equ	4012	;# 
   509   000FAD                     TXREG1          equ	4013	;# 
   510   000FAD                     TXREG           equ	4013	;# 
   511   000FAD                     TX1REG          equ	4013	;# 
   512   000FAE                     RCREG1          equ	4014	;# 
   513   000FAE                     RCREG           equ	4014	;# 
   514   000FAE                     RC1REG          equ	4014	;# 
   515   000FAF                     SPBRG1          equ	4015	;# 
   516   000FAF                     SPBRG           equ	4015	;# 
   517   000FAF                     SP1BRG          equ	4015	;# 
   518   000FB0                     SPBRGH1         equ	4016	;# 
   519   000FB0                     SPBRGH          equ	4016	;# 
   520   000FB0                     SP1BRGH         equ	4016	;# 
   521   000FB1                     T3CON           equ	4017	;# 
   522   000FB2                     TMR3            equ	4018	;# 
   523   000FB2                     TMR3L           equ	4018	;# 
   524   000FB3                     TMR3H           equ	4019	;# 
   525   000FB4                     T3GCON          equ	4020	;# 
   526   000FB6                     ECCP1AS         equ	4022	;# 
   527   000FB6                     ECCPAS          equ	4022	;# 
   528   000FB7                     PWM1CON         equ	4023	;# 
   529   000FB7                     PWMCON          equ	4023	;# 
   530   000FB8                     BAUDCON1        equ	4024	;# 
   531   000FB8                     BAUDCON         equ	4024	;# 
   532   000FB8                     BAUDCTL         equ	4024	;# 
   533   000FB8                     BAUD1CON        equ	4024	;# 
   534   000FB9                     PSTR1CON        equ	4025	;# 
   535   000FB9                     PSTRCON         equ	4025	;# 
   536   000FBA                     T2CON           equ	4026	;# 
   537   000FBB                     PR2             equ	4027	;# 
   538   000FBC                     TMR2            equ	4028	;# 
   539   000FBD                     CCP1CON         equ	4029	;# 
   540   000FBE                     CCPR1           equ	4030	;# 
   541   000FBE                     CCPR1L          equ	4030	;# 
   542   000FBF                     CCPR1H          equ	4031	;# 
   543   000FC0                     ADCON2          equ	4032	;# 
   544   000FC1                     ADCON1          equ	4033	;# 
   545   000FC2                     ADCON0          equ	4034	;# 
   546   000FC3                     ADRES           equ	4035	;# 
   547   000FC3                     ADRESL          equ	4035	;# 
   548   000FC4                     ADRESH          equ	4036	;# 
   549   000FC5                     SSP1CON2        equ	4037	;# 
   550   000FC5                     SSPCON2         equ	4037	;# 
   551   000FC6                     SSP1CON1        equ	4038	;# 
   552   000FC6                     SSPCON1         equ	4038	;# 
   553   000FC7                     SSP1STAT        equ	4039	;# 
   554   000FC7                     SSPSTAT         equ	4039	;# 
   555   000FC8                     SSP1ADD         equ	4040	;# 
   556   000FC8                     SSPADD          equ	4040	;# 
   557   000FC9                     SSP1BUF         equ	4041	;# 
   558   000FC9                     SSPBUF          equ	4041	;# 
   559   000FCA                     SSP1MSK         equ	4042	;# 
   560   000FCA                     SSPMSK          equ	4042	;# 
   561   000FCB                     SSP1CON3        equ	4043	;# 
   562   000FCB                     SSPCON3         equ	4043	;# 
   563   000FCC                     T1GCON          equ	4044	;# 
   564   000FCD                     T1CON           equ	4045	;# 
   565   000FCE                     TMR1            equ	4046	;# 
   566   000FCE                     TMR1L           equ	4046	;# 
   567   000FCF                     TMR1H           equ	4047	;# 
   568   000FD0                     RCON            equ	4048	;# 
   569   000FD1                     WDTCON          equ	4049	;# 
   570   000FD2                     OSCCON2         equ	4050	;# 
   571   000FD3                     OSCCON          equ	4051	;# 
   572   000FD5                     T0CON           equ	4053	;# 
   573   000FD6                     TMR0            equ	4054	;# 
   574   000FD6                     TMR0L           equ	4054	;# 
   575   000FD7                     TMR0H           equ	4055	;# 
   576   000FD8                     STATUS          equ	4056	;# 
   577   000FD9                     FSR2            equ	4057	;# 
   578   000FD9                     FSR2L           equ	4057	;# 
   579   000FDA                     FSR2H           equ	4058	;# 
   580   000FDB                     PLUSW2          equ	4059	;# 
   581   000FDC                     PREINC2         equ	4060	;# 
   582   000FDD                     POSTDEC2        equ	4061	;# 
   583   000FDE                     POSTINC2        equ	4062	;# 
   584   000FDF                     INDF2           equ	4063	;# 
   585   000FE0                     BSR             equ	4064	;# 
   586   000FE1                     FSR1            equ	4065	;# 
   587   000FE1                     FSR1L           equ	4065	;# 
   588   000FE2                     FSR1H           equ	4066	;# 
   589   000FE3                     PLUSW1          equ	4067	;# 
   590   000FE4                     PREINC1         equ	4068	;# 
   591   000FE5                     POSTDEC1        equ	4069	;# 
   592   000FE6                     POSTINC1        equ	4070	;# 
   593   000FE7                     INDF1           equ	4071	;# 
   594   000FE8                     WREG            equ	4072	;# 
   595   000FE9                     FSR0            equ	4073	;# 
   596   000FE9                     FSR0L           equ	4073	;# 
   597   000FEA                     FSR0H           equ	4074	;# 
   598   000FEB                     PLUSW0          equ	4075	;# 
   599   000FEC                     PREINC0         equ	4076	;# 
   600   000FED                     POSTDEC0        equ	4077	;# 
   601   000FEE                     POSTINC0        equ	4078	;# 
   602   000FEF                     INDF0           equ	4079	;# 
   603   000FF0                     INTCON3         equ	4080	;# 
   604   000FF1                     INTCON2         equ	4081	;# 
   605   000FF2                     INTCON          equ	4082	;# 
   606   000FF3                     PROD            equ	4083	;# 
   607   000FF3                     PRODL           equ	4083	;# 
   608   000FF4                     PRODH           equ	4084	;# 
   609   000FF5                     TABLAT          equ	4085	;# 
   610   000FF6                     TBLPTR          equ	4086	;# 
   611   000FF6                     TBLPTRL         equ	4086	;# 
   612   000FF7                     TBLPTRH         equ	4087	;# 
   613   000FF8                     TBLPTRU         equ	4088	;# 
   614   000FF9                     PCLAT           equ	4089	;# 
   615   000FF9                     PC              equ	4089	;# 
   616   000FF9                     PCL             equ	4089	;# 
   617   000FFA                     PCLATH          equ	4090	;# 
   618   000FFB                     PCLATU          equ	4091	;# 
   619   000FFC                     STKPTR          equ	4092	;# 
   620   000FFD                     TOS             equ	4093	;# 
   621   000FFD                     TOSL            equ	4093	;# 
   622   000FFE                     TOSH            equ	4094	;# 
   623   000FFF                     TOSU            equ	4095	;# 
   624   000F38                     ANSELA          equ	3896	;# 
   625   000F39                     ANSELB          equ	3897	;# 
   626   000F3A                     ANSELC          equ	3898	;# 
   627   000F3B                     ANSELD          equ	3899	;# 
   628   000F3C                     ANSELE          equ	3900	;# 
   629   000F3D                     PMD2            equ	3901	;# 
   630   000F3E                     PMD1            equ	3902	;# 
   631   000F3F                     PMD0            equ	3903	;# 
   632   000F40                     VREFCON2        equ	3904	;# 
   633   000F40                     DACCON1         equ	3904	;# 
   634   000F41                     VREFCON1        equ	3905	;# 
   635   000F41                     DACCON0         equ	3905	;# 
   636   000F42                     VREFCON0        equ	3906	;# 
   637   000F42                     FVRCON          equ	3906	;# 
   638   000F43                     CTMUICON        equ	3907	;# 
   639   000F43                     CTMUICONH       equ	3907	;# 
   640   000F44                     CTMUCONL        equ	3908	;# 
   641   000F44                     CTMUCON1        equ	3908	;# 
   642   000F45                     CTMUCONH        equ	3909	;# 
   643   000F45                     CTMUCON0        equ	3909	;# 
   644   000F46                     SRCON1          equ	3910	;# 
   645   000F47                     SRCON0          equ	3911	;# 
   646   000F48                     CCPTMRS1        equ	3912	;# 
   647   000F49                     CCPTMRS0        equ	3913	;# 
   648   000F4A                     T6CON           equ	3914	;# 
   649   000F4B                     PR6             equ	3915	;# 
   650   000F4C                     TMR6            equ	3916	;# 
   651   000F4D                     T5GCON          equ	3917	;# 
   652   000F4E                     T5CON           equ	3918	;# 
   653   000F4F                     TMR5            equ	3919	;# 
   654   000F4F                     TMR5L           equ	3919	;# 
   655   000F50                     TMR5H           equ	3920	;# 
   656   000F51                     T4CON           equ	3921	;# 
   657   000F52                     PR4             equ	3922	;# 
   658   000F53                     TMR4            equ	3923	;# 
   659   000F54                     CCP5CON         equ	3924	;# 
   660   000F55                     CCPR5           equ	3925	;# 
   661   000F55                     CCPR5L          equ	3925	;# 
   662   000F56                     CCPR5H          equ	3926	;# 
   663   000F57                     CCP4CON         equ	3927	;# 
   664   000F58                     CCPR4           equ	3928	;# 
   665   000F58                     CCPR4L          equ	3928	;# 
   666   000F59                     CCPR4H          equ	3929	;# 
   667   000F5A                     PSTR3CON        equ	3930	;# 
   668   000F5B                     ECCP3AS         equ	3931	;# 
   669   000F5B                     CCP3AS          equ	3931	;# 
   670   000F5C                     PWM3CON         equ	3932	;# 
   671   000F5D                     CCP3CON         equ	3933	;# 
   672   000F5E                     CCPR3           equ	3934	;# 
   673   000F5E                     CCPR3L          equ	3934	;# 
   674   000F5F                     CCPR3H          equ	3935	;# 
   675   000F60                     SLRCON          equ	3936	;# 
   676   000F61                     WPUB            equ	3937	;# 
   677   000F62                     IOCB            equ	3938	;# 
   678   000F63                     PSTR2CON        equ	3939	;# 
   679   000F64                     ECCP2AS         equ	3940	;# 
   680   000F64                     CCP2AS          equ	3940	;# 
   681   000F65                     PWM2CON         equ	3941	;# 
   682   000F66                     CCP2CON         equ	3942	;# 
   683   000F67                     CCPR2           equ	3943	;# 
   684   000F67                     CCPR2L          equ	3943	;# 
   685   000F68                     CCPR2H          equ	3944	;# 
   686   000F69                     SSP2CON3        equ	3945	;# 
   687   000F6A                     SSP2MSK         equ	3946	;# 
   688   000F6B                     SSP2CON2        equ	3947	;# 
   689   000F6C                     SSP2CON1        equ	3948	;# 
   690   000F6D                     SSP2STAT        equ	3949	;# 
   691   000F6E                     SSP2ADD         equ	3950	;# 
   692   000F6F                     SSP2BUF         equ	3951	;# 
   693   000F70                     BAUDCON2        equ	3952	;# 
   694   000F70                     BAUD2CON        equ	3952	;# 
   695   000F71                     RCSTA2          equ	3953	;# 
   696   000F71                     RC2STA          equ	3953	;# 
   697   000F72                     TXSTA2          equ	3954	;# 
   698   000F72                     TX2STA          equ	3954	;# 
   699   000F73                     TXREG2          equ	3955	;# 
   700   000F73                     TX2REG          equ	3955	;# 
   701   000F74                     RCREG2          equ	3956	;# 
   702   000F74                     RC2REG          equ	3956	;# 
   703   000F75                     SPBRG2          equ	3957	;# 
   704   000F75                     SP2BRG          equ	3957	;# 
   705   000F76                     SPBRGH2         equ	3958	;# 
   706   000F76                     SP2BRGH         equ	3958	;# 
   707   000F77                     CM2CON1         equ	3959	;# 
   708   000F77                     CM12CON         equ	3959	;# 
   709   000F78                     CM2CON0         equ	3960	;# 
   710   000F78                     CM2CON          equ	3960	;# 
   711   000F79                     CM1CON0         equ	3961	;# 
   712   000F79                     CM1CON          equ	3961	;# 
   713   000F7A                     PIE4            equ	3962	;# 
   714   000F7B                     PIR4            equ	3963	;# 
   715   000F7C                     IPR4            equ	3964	;# 
   716   000F7D                     PIE5            equ	3965	;# 
   717   000F7E                     PIR5            equ	3966	;# 
   718   000F7F                     IPR5            equ	3967	;# 
   719   000F80                     PORTA           equ	3968	;# 
   720   000F81                     PORTB           equ	3969	;# 
   721   000F82                     PORTC           equ	3970	;# 
   722   000F83                     PORTD           equ	3971	;# 
   723   000F84                     PORTE           equ	3972	;# 
   724   000F89                     LATA            equ	3977	;# 
   725   000F8A                     LATB            equ	3978	;# 
   726   000F8B                     LATC            equ	3979	;# 
   727   000F8C                     LATD            equ	3980	;# 
   728   000F8D                     LATE            equ	3981	;# 
   729   000F92                     TRISA           equ	3986	;# 
   730   000F92                     DDRA            equ	3986	;# 
   731   000F93                     TRISB           equ	3987	;# 
   732   000F93                     DDRB            equ	3987	;# 
   733   000F94                     TRISC           equ	3988	;# 
   734   000F94                     DDRC            equ	3988	;# 
   735   000F95                     TRISD           equ	3989	;# 
   736   000F95                     DDRD            equ	3989	;# 
   737   000F96                     TRISE           equ	3990	;# 
   738   000F96                     DDRE            equ	3990	;# 
   739   000F9B                     OSCTUNE         equ	3995	;# 
   740   000F9C                     HLVDCON         equ	3996	;# 
   741   000F9C                     LVDCON          equ	3996	;# 
   742   000F9D                     PIE1            equ	3997	;# 
   743   000F9E                     PIR1            equ	3998	;# 
   744   000F9F                     IPR1            equ	3999	;# 
   745   000FA0                     PIE2            equ	4000	;# 
   746   000FA1                     PIR2            equ	4001	;# 
   747   000FA2                     IPR2            equ	4002	;# 
   748   000FA3                     PIE3            equ	4003	;# 
   749   000FA4                     PIR3            equ	4004	;# 
   750   000FA5                     IPR3            equ	4005	;# 
   751   000FA6                     EECON1          equ	4006	;# 
   752   000FA7                     EECON2          equ	4007	;# 
   753   000FA8                     EEDATA          equ	4008	;# 
   754   000FA9                     EEADR           equ	4009	;# 
   755   000FAA                     EEADRH          equ	4010	;# 
   756   000FAB                     RCSTA1          equ	4011	;# 
   757   000FAB                     RCSTA           equ	4011	;# 
   758   000FAB                     RC1STA          equ	4011	;# 
   759   000FAC                     TXSTA1          equ	4012	;# 
   760   000FAC                     TXSTA           equ	4012	;# 
   761   000FAC                     TX1STA          equ	4012	;# 
   762   000FAD                     TXREG1          equ	4013	;# 
   763   000FAD                     TXREG           equ	4013	;# 
   764   000FAD                     TX1REG          equ	4013	;# 
   765   000FAE                     RCREG1          equ	4014	;# 
   766   000FAE                     RCREG           equ	4014	;# 
   767   000FAE                     RC1REG          equ	4014	;# 
   768   000FAF                     SPBRG1          equ	4015	;# 
   769   000FAF                     SPBRG           equ	4015	;# 
   770   000FAF                     SP1BRG          equ	4015	;# 
   771   000FB0                     SPBRGH1         equ	4016	;# 
   772   000FB0                     SPBRGH          equ	4016	;# 
   773   000FB0                     SP1BRGH         equ	4016	;# 
   774   000FB1                     T3CON           equ	4017	;# 
   775   000FB2                     TMR3            equ	4018	;# 
   776   000FB2                     TMR3L           equ	4018	;# 
   777   000FB3                     TMR3H           equ	4019	;# 
   778   000FB4                     T3GCON          equ	4020	;# 
   779   000FB6                     ECCP1AS         equ	4022	;# 
   780   000FB6                     ECCPAS          equ	4022	;# 
   781   000FB7                     PWM1CON         equ	4023	;# 
   782   000FB7                     PWMCON          equ	4023	;# 
   783   000FB8                     BAUDCON1        equ	4024	;# 
   784   000FB8                     BAUDCON         equ	4024	;# 
   785   000FB8                     BAUDCTL         equ	4024	;# 
   786   000FB8                     BAUD1CON        equ	4024	;# 
   787   000FB9                     PSTR1CON        equ	4025	;# 
   788   000FB9                     PSTRCON         equ	4025	;# 
   789   000FBA                     T2CON           equ	4026	;# 
   790   000FBB                     PR2             equ	4027	;# 
   791   000FBC                     TMR2            equ	4028	;# 
   792   000FBD                     CCP1CON         equ	4029	;# 
   793   000FBE                     CCPR1           equ	4030	;# 
   794   000FBE                     CCPR1L          equ	4030	;# 
   795   000FBF                     CCPR1H          equ	4031	;# 
   796   000FC0                     ADCON2          equ	4032	;# 
   797   000FC1                     ADCON1          equ	4033	;# 
   798   000FC2                     ADCON0          equ	4034	;# 
   799   000FC3                     ADRES           equ	4035	;# 
   800   000FC3                     ADRESL          equ	4035	;# 
   801   000FC4                     ADRESH          equ	4036	;# 
   802   000FC5                     SSP1CON2        equ	4037	;# 
   803   000FC5                     SSPCON2         equ	4037	;# 
   804   000FC6                     SSP1CON1        equ	4038	;# 
   805   000FC6                     SSPCON1         equ	4038	;# 
   806   000FC7                     SSP1STAT        equ	4039	;# 
   807   000FC7                     SSPSTAT         equ	4039	;# 
   808   000FC8                     SSP1ADD         equ	4040	;# 
   809   000FC8                     SSPADD          equ	4040	;# 
   810   000FC9                     SSP1BUF         equ	4041	;# 
   811   000FC9                     SSPBUF          equ	4041	;# 
   812   000FCA                     SSP1MSK         equ	4042	;# 
   813   000FCA                     SSPMSK          equ	4042	;# 
   814   000FCB                     SSP1CON3        equ	4043	;# 
   815   000FCB                     SSPCON3         equ	4043	;# 
   816   000FCC                     T1GCON          equ	4044	;# 
   817   000FCD                     T1CON           equ	4045	;# 
   818   000FCE                     TMR1            equ	4046	;# 
   819   000FCE                     TMR1L           equ	4046	;# 
   820   000FCF                     TMR1H           equ	4047	;# 
   821   000FD0                     RCON            equ	4048	;# 
   822   000FD1                     WDTCON          equ	4049	;# 
   823   000FD2                     OSCCON2         equ	4050	;# 
   824   000FD3                     OSCCON          equ	4051	;# 
   825   000FD5                     T0CON           equ	4053	;# 
   826   000FD6                     TMR0            equ	4054	;# 
   827   000FD6                     TMR0L           equ	4054	;# 
   828   000FD7                     TMR0H           equ	4055	;# 
   829   000FD8                     STATUS          equ	4056	;# 
   830   000FD9                     FSR2            equ	4057	;# 
   831   000FD9                     FSR2L           equ	4057	;# 
   832   000FDA                     FSR2H           equ	4058	;# 
   833   000FDB                     PLUSW2          equ	4059	;# 
   834   000FDC                     PREINC2         equ	4060	;# 
   835   000FDD                     POSTDEC2        equ	4061	;# 
   836   000FDE                     POSTINC2        equ	4062	;# 
   837   000FDF                     INDF2           equ	4063	;# 
   838   000FE0                     BSR             equ	4064	;# 
   839   000FE1                     FSR1            equ	4065	;# 
   840   000FE1                     FSR1L           equ	4065	;# 
   841   000FE2                     FSR1H           equ	4066	;# 
   842   000FE3                     PLUSW1          equ	4067	;# 
   843   000FE4                     PREINC1         equ	4068	;# 
   844   000FE5                     POSTDEC1        equ	4069	;# 
   845   000FE6                     POSTINC1        equ	4070	;# 
   846   000FE7                     INDF1           equ	4071	;# 
   847   000FE8                     WREG            equ	4072	;# 
   848   000FE9                     FSR0            equ	4073	;# 
   849   000FE9                     FSR0L           equ	4073	;# 
   850   000FEA                     FSR0H           equ	4074	;# 
   851   000FEB                     PLUSW0          equ	4075	;# 
   852   000FEC                     PREINC0         equ	4076	;# 
   853   000FED                     POSTDEC0        equ	4077	;# 
   854   000FEE                     POSTINC0        equ	4078	;# 
   855   000FEF                     INDF0           equ	4079	;# 
   856   000FF0                     INTCON3         equ	4080	;# 
   857   000FF1                     INTCON2         equ	4081	;# 
   858   000FF2                     INTCON          equ	4082	;# 
   859   000FF3                     PROD            equ	4083	;# 
   860   000FF3                     PRODL           equ	4083	;# 
   861   000FF4                     PRODH           equ	4084	;# 
   862   000FF5                     TABLAT          equ	4085	;# 
   863   000FF6                     TBLPTR          equ	4086	;# 
   864   000FF6                     TBLPTRL         equ	4086	;# 
   865   000FF7                     TBLPTRH         equ	4087	;# 
   866   000FF8                     TBLPTRU         equ	4088	;# 
   867   000FF9                     PCLAT           equ	4089	;# 
   868   000FF9                     PC              equ	4089	;# 
   869   000FF9                     PCL             equ	4089	;# 
   870   000FFA                     PCLATH          equ	4090	;# 
   871   000FFB                     PCLATU          equ	4091	;# 
   872   000FFC                     STKPTR          equ	4092	;# 
   873   000FFD                     TOS             equ	4093	;# 
   874   000FFD                     TOSL            equ	4093	;# 
   875   000FFE                     TOSH            equ	4094	;# 
   876   000FFF                     TOSU            equ	4095	;# 
   877   000F38                     ANSELA          equ	3896	;# 
   878   000F39                     ANSELB          equ	3897	;# 
   879   000F3A                     ANSELC          equ	3898	;# 
   880   000F3B                     ANSELD          equ	3899	;# 
   881   000F3C                     ANSELE          equ	3900	;# 
   882   000F3D                     PMD2            equ	3901	;# 
   883   000F3E                     PMD1            equ	3902	;# 
   884   000F3F                     PMD0            equ	3903	;# 
   885   000F40                     VREFCON2        equ	3904	;# 
   886   000F40                     DACCON1         equ	3904	;# 
   887   000F41                     VREFCON1        equ	3905	;# 
   888   000F41                     DACCON0         equ	3905	;# 
   889   000F42                     VREFCON0        equ	3906	;# 
   890   000F42                     FVRCON          equ	3906	;# 
   891   000F43                     CTMUICON        equ	3907	;# 
   892   000F43                     CTMUICONH       equ	3907	;# 
   893   000F44                     CTMUCONL        equ	3908	;# 
   894   000F44                     CTMUCON1        equ	3908	;# 
   895   000F45                     CTMUCONH        equ	3909	;# 
   896   000F45                     CTMUCON0        equ	3909	;# 
   897   000F46                     SRCON1          equ	3910	;# 
   898   000F47                     SRCON0          equ	3911	;# 
   899   000F48                     CCPTMRS1        equ	3912	;# 
   900   000F49                     CCPTMRS0        equ	3913	;# 
   901   000F4A                     T6CON           equ	3914	;# 
   902   000F4B                     PR6             equ	3915	;# 
   903   000F4C                     TMR6            equ	3916	;# 
   904   000F4D                     T5GCON          equ	3917	;# 
   905   000F4E                     T5CON           equ	3918	;# 
   906   000F4F                     TMR5            equ	3919	;# 
   907   000F4F                     TMR5L           equ	3919	;# 
   908   000F50                     TMR5H           equ	3920	;# 
   909   000F51                     T4CON           equ	3921	;# 
   910   000F52                     PR4             equ	3922	;# 
   911   000F53                     TMR4            equ	3923	;# 
   912   000F54                     CCP5CON         equ	3924	;# 
   913   000F55                     CCPR5           equ	3925	;# 
   914   000F55                     CCPR5L          equ	3925	;# 
   915   000F56                     CCPR5H          equ	3926	;# 
   916   000F57                     CCP4CON         equ	3927	;# 
   917   000F58                     CCPR4           equ	3928	;# 
   918   000F58                     CCPR4L          equ	3928	;# 
   919   000F59                     CCPR4H          equ	3929	;# 
   920   000F5A                     PSTR3CON        equ	3930	;# 
   921   000F5B                     ECCP3AS         equ	3931	;# 
   922   000F5B                     CCP3AS          equ	3931	;# 
   923   000F5C                     PWM3CON         equ	3932	;# 
   924   000F5D                     CCP3CON         equ	3933	;# 
   925   000F5E                     CCPR3           equ	3934	;# 
   926   000F5E                     CCPR3L          equ	3934	;# 
   927   000F5F                     CCPR3H          equ	3935	;# 
   928   000F60                     SLRCON          equ	3936	;# 
   929   000F61                     WPUB            equ	3937	;# 
   930   000F62                     IOCB            equ	3938	;# 
   931   000F63                     PSTR2CON        equ	3939	;# 
   932   000F64                     ECCP2AS         equ	3940	;# 
   933   000F64                     CCP2AS          equ	3940	;# 
   934   000F65                     PWM2CON         equ	3941	;# 
   935   000F66                     CCP2CON         equ	3942	;# 
   936   000F67                     CCPR2           equ	3943	;# 
   937   000F67                     CCPR2L          equ	3943	;# 
   938   000F68                     CCPR2H          equ	3944	;# 
   939   000F69                     SSP2CON3        equ	3945	;# 
   940   000F6A                     SSP2MSK         equ	3946	;# 
   941   000F6B                     SSP2CON2        equ	3947	;# 
   942   000F6C                     SSP2CON1        equ	3948	;# 
   943   000F6D                     SSP2STAT        equ	3949	;# 
   944   000F6E                     SSP2ADD         equ	3950	;# 
   945   000F6F                     SSP2BUF         equ	3951	;# 
   946   000F70                     BAUDCON2        equ	3952	;# 
   947   000F70                     BAUD2CON        equ	3952	;# 
   948   000F71                     RCSTA2          equ	3953	;# 
   949   000F71                     RC2STA          equ	3953	;# 
   950   000F72                     TXSTA2          equ	3954	;# 
   951   000F72                     TX2STA          equ	3954	;# 
   952   000F73                     TXREG2          equ	3955	;# 
   953   000F73                     TX2REG          equ	3955	;# 
   954   000F74                     RCREG2          equ	3956	;# 
   955   000F74                     RC2REG          equ	3956	;# 
   956   000F75                     SPBRG2          equ	3957	;# 
   957   000F75                     SP2BRG          equ	3957	;# 
   958   000F76                     SPBRGH2         equ	3958	;# 
   959   000F76                     SP2BRGH         equ	3958	;# 
   960   000F77                     CM2CON1         equ	3959	;# 
   961   000F77                     CM12CON         equ	3959	;# 
   962   000F78                     CM2CON0         equ	3960	;# 
   963   000F78                     CM2CON          equ	3960	;# 
   964   000F79                     CM1CON0         equ	3961	;# 
   965   000F79                     CM1CON          equ	3961	;# 
   966   000F7A                     PIE4            equ	3962	;# 
   967   000F7B                     PIR4            equ	3963	;# 
   968   000F7C                     IPR4            equ	3964	;# 
   969   000F7D                     PIE5            equ	3965	;# 
   970   000F7E                     PIR5            equ	3966	;# 
   971   000F7F                     IPR5            equ	3967	;# 
   972   000F80                     PORTA           equ	3968	;# 
   973   000F81                     PORTB           equ	3969	;# 
   974   000F82                     PORTC           equ	3970	;# 
   975   000F83                     PORTD           equ	3971	;# 
   976   000F84                     PORTE           equ	3972	;# 
   977   000F89                     LATA            equ	3977	;# 
   978   000F8A                     LATB            equ	3978	;# 
   979   000F8B                     LATC            equ	3979	;# 
   980   000F8C                     LATD            equ	3980	;# 
   981   000F8D                     LATE            equ	3981	;# 
   982   000F92                     TRISA           equ	3986	;# 
   983   000F92                     DDRA            equ	3986	;# 
   984   000F93                     TRISB           equ	3987	;# 
   985   000F93                     DDRB            equ	3987	;# 
   986   000F94                     TRISC           equ	3988	;# 
   987   000F94                     DDRC            equ	3988	;# 
   988   000F95                     TRISD           equ	3989	;# 
   989   000F95                     DDRD            equ	3989	;# 
   990   000F96                     TRISE           equ	3990	;# 
   991   000F96                     DDRE            equ	3990	;# 
   992   000F9B                     OSCTUNE         equ	3995	;# 
   993   000F9C                     HLVDCON         equ	3996	;# 
   994   000F9C                     LVDCON          equ	3996	;# 
   995   000F9D                     PIE1            equ	3997	;# 
   996   000F9E                     PIR1            equ	3998	;# 
   997   000F9F                     IPR1            equ	3999	;# 
   998   000FA0                     PIE2            equ	4000	;# 
   999   000FA1                     PIR2            equ	4001	;# 
  1000   000FA2                     IPR2            equ	4002	;# 
  1001   000FA3                     PIE3            equ	4003	;# 
  1002   000FA4                     PIR3            equ	4004	;# 
  1003   000FA5                     IPR3            equ	4005	;# 
  1004   000FA6                     EECON1          equ	4006	;# 
  1005   000FA7                     EECON2          equ	4007	;# 
  1006   000FA8                     EEDATA          equ	4008	;# 
  1007   000FA9                     EEADR           equ	4009	;# 
  1008   000FAA                     EEADRH          equ	4010	;# 
  1009   000FAB                     RCSTA1          equ	4011	;# 
  1010   000FAB                     RCSTA           equ	4011	;# 
  1011   000FAB                     RC1STA          equ	4011	;# 
  1012   000FAC                     TXSTA1          equ	4012	;# 
  1013   000FAC                     TXSTA           equ	4012	;# 
  1014   000FAC                     TX1STA          equ	4012	;# 
  1015   000FAD                     TXREG1          equ	4013	;# 
  1016   000FAD                     TXREG           equ	4013	;# 
  1017   000FAD                     TX1REG          equ	4013	;# 
  1018   000FAE                     RCREG1          equ	4014	;# 
  1019   000FAE                     RCREG           equ	4014	;# 
  1020   000FAE                     RC1REG          equ	4014	;# 
  1021   000FAF                     SPBRG1          equ	4015	;# 
  1022   000FAF                     SPBRG           equ	4015	;# 
  1023   000FAF                     SP1BRG          equ	4015	;# 
  1024   000FB0                     SPBRGH1         equ	4016	;# 
  1025   000FB0                     SPBRGH          equ	4016	;# 
  1026   000FB0                     SP1BRGH         equ	4016	;# 
  1027   000FB1                     T3CON           equ	4017	;# 
  1028   000FB2                     TMR3            equ	4018	;# 
  1029   000FB2                     TMR3L           equ	4018	;# 
  1030   000FB3                     TMR3H           equ	4019	;# 
  1031   000FB4                     T3GCON          equ	4020	;# 
  1032   000FB6                     ECCP1AS         equ	4022	;# 
  1033   000FB6                     ECCPAS          equ	4022	;# 
  1034   000FB7                     PWM1CON         equ	4023	;# 
  1035   000FB7                     PWMCON          equ	4023	;# 
  1036   000FB8                     BAUDCON1        equ	4024	;# 
  1037   000FB8                     BAUDCON         equ	4024	;# 
  1038   000FB8                     BAUDCTL         equ	4024	;# 
  1039   000FB8                     BAUD1CON        equ	4024	;# 
  1040   000FB9                     PSTR1CON        equ	4025	;# 
  1041   000FB9                     PSTRCON         equ	4025	;# 
  1042   000FBA                     T2CON           equ	4026	;# 
  1043   000FBB                     PR2             equ	4027	;# 
  1044   000FBC                     TMR2            equ	4028	;# 
  1045   000FBD                     CCP1CON         equ	4029	;# 
  1046   000FBE                     CCPR1           equ	4030	;# 
  1047   000FBE                     CCPR1L          equ	4030	;# 
  1048   000FBF                     CCPR1H          equ	4031	;# 
  1049   000FC0                     ADCON2          equ	4032	;# 
  1050   000FC1                     ADCON1          equ	4033	;# 
  1051   000FC2                     ADCON0          equ	4034	;# 
  1052   000FC3                     ADRES           equ	4035	;# 
  1053   000FC3                     ADRESL          equ	4035	;# 
  1054   000FC4                     ADRESH          equ	4036	;# 
  1055   000FC5                     SSP1CON2        equ	4037	;# 
  1056   000FC5                     SSPCON2         equ	4037	;# 
  1057   000FC6                     SSP1CON1        equ	4038	;# 
  1058   000FC6                     SSPCON1         equ	4038	;# 
  1059   000FC7                     SSP1STAT        equ	4039	;# 
  1060   000FC7                     SSPSTAT         equ	4039	;# 
  1061   000FC8                     SSP1ADD         equ	4040	;# 
  1062   000FC8                     SSPADD          equ	4040	;# 
  1063   000FC9                     SSP1BUF         equ	4041	;# 
  1064   000FC9                     SSPBUF          equ	4041	;# 
  1065   000FCA                     SSP1MSK         equ	4042	;# 
  1066   000FCA                     SSPMSK          equ	4042	;# 
  1067   000FCB                     SSP1CON3        equ	4043	;# 
  1068   000FCB                     SSPCON3         equ	4043	;# 
  1069   000FCC                     T1GCON          equ	4044	;# 
  1070   000FCD                     T1CON           equ	4045	;# 
  1071   000FCE                     TMR1            equ	4046	;# 
  1072   000FCE                     TMR1L           equ	4046	;# 
  1073   000FCF                     TMR1H           equ	4047	;# 
  1074   000FD0                     RCON            equ	4048	;# 
  1075   000FD1                     WDTCON          equ	4049	;# 
  1076   000FD2                     OSCCON2         equ	4050	;# 
  1077   000FD3                     OSCCON          equ	4051	;# 
  1078   000FD5                     T0CON           equ	4053	;# 
  1079   000FD6                     TMR0            equ	4054	;# 
  1080   000FD6                     TMR0L           equ	4054	;# 
  1081   000FD7                     TMR0H           equ	4055	;# 
  1082   000FD8                     STATUS          equ	4056	;# 
  1083   000FD9                     FSR2            equ	4057	;# 
  1084   000FD9                     FSR2L           equ	4057	;# 
  1085   000FDA                     FSR2H           equ	4058	;# 
  1086   000FDB                     PLUSW2          equ	4059	;# 
  1087   000FDC                     PREINC2         equ	4060	;# 
  1088   000FDD                     POSTDEC2        equ	4061	;# 
  1089   000FDE                     POSTINC2        equ	4062	;# 
  1090   000FDF                     INDF2           equ	4063	;# 
  1091   000FE0                     BSR             equ	4064	;# 
  1092   000FE1                     FSR1            equ	4065	;# 
  1093   000FE1                     FSR1L           equ	4065	;# 
  1094   000FE2                     FSR1H           equ	4066	;# 
  1095   000FE3                     PLUSW1          equ	4067	;# 
  1096   000FE4                     PREINC1         equ	4068	;# 
  1097   000FE5                     POSTDEC1        equ	4069	;# 
  1098   000FE6                     POSTINC1        equ	4070	;# 
  1099   000FE7                     INDF1           equ	4071	;# 
  1100   000FE8                     WREG            equ	4072	;# 
  1101   000FE9                     FSR0            equ	4073	;# 
  1102   000FE9                     FSR0L           equ	4073	;# 
  1103   000FEA                     FSR0H           equ	4074	;# 
  1104   000FEB                     PLUSW0          equ	4075	;# 
  1105   000FEC                     PREINC0         equ	4076	;# 
  1106   000FED                     POSTDEC0        equ	4077	;# 
  1107   000FEE                     POSTINC0        equ	4078	;# 
  1108   000FEF                     INDF0           equ	4079	;# 
  1109   000FF0                     INTCON3         equ	4080	;# 
  1110   000FF1                     INTCON2         equ	4081	;# 
  1111   000FF2                     INTCON          equ	4082	;# 
  1112   000FF3                     PROD            equ	4083	;# 
  1113   000FF3                     PRODL           equ	4083	;# 
  1114   000FF4                     PRODH           equ	4084	;# 
  1115   000FF5                     TABLAT          equ	4085	;# 
  1116   000FF6                     TBLPTR          equ	4086	;# 
  1117   000FF6                     TBLPTRL         equ	4086	;# 
  1118   000FF7                     TBLPTRH         equ	4087	;# 
  1119   000FF8                     TBLPTRU         equ	4088	;# 
  1120   000FF9                     PCLAT           equ	4089	;# 
  1121   000FF9                     PC              equ	4089	;# 
  1122   000FF9                     PCL             equ	4089	;# 
  1123   000FFA                     PCLATH          equ	4090	;# 
  1124   000FFB                     PCLATU          equ	4091	;# 
  1125   000FFC                     STKPTR          equ	4092	;# 
  1126   000FFD                     TOS             equ	4093	;# 
  1127   000FFD                     TOSL            equ	4093	;# 
  1128   000FFE                     TOSH            equ	4094	;# 
  1129   000FFF                     TOSU            equ	4095	;# 
  1130   000F38                     ANSELA          equ	3896	;# 
  1131   000F39                     ANSELB          equ	3897	;# 
  1132   000F3A                     ANSELC          equ	3898	;# 
  1133   000F3B                     ANSELD          equ	3899	;# 
  1134   000F3C                     ANSELE          equ	3900	;# 
  1135   000F3D                     PMD2            equ	3901	;# 
  1136   000F3E                     PMD1            equ	3902	;# 
  1137   000F3F                     PMD0            equ	3903	;# 
  1138   000F40                     VREFCON2        equ	3904	;# 
  1139   000F40                     DACCON1         equ	3904	;# 
  1140   000F41                     VREFCON1        equ	3905	;# 
  1141   000F41                     DACCON0         equ	3905	;# 
  1142   000F42                     VREFCON0        equ	3906	;# 
  1143   000F42                     FVRCON          equ	3906	;# 
  1144   000F43                     CTMUICON        equ	3907	;# 
  1145   000F43                     CTMUICONH       equ	3907	;# 
  1146   000F44                     CTMUCONL        equ	3908	;# 
  1147   000F44                     CTMUCON1        equ	3908	;# 
  1148   000F45                     CTMUCONH        equ	3909	;# 
  1149   000F45                     CTMUCON0        equ	3909	;# 
  1150   000F46                     SRCON1          equ	3910	;# 
  1151   000F47                     SRCON0          equ	3911	;# 
  1152   000F48                     CCPTMRS1        equ	3912	;# 
  1153   000F49                     CCPTMRS0        equ	3913	;# 
  1154   000F4A                     T6CON           equ	3914	;# 
  1155   000F4B                     PR6             equ	3915	;# 
  1156   000F4C                     TMR6            equ	3916	;# 
  1157   000F4D                     T5GCON          equ	3917	;# 
  1158   000F4E                     T5CON           equ	3918	;# 
  1159   000F4F                     TMR5            equ	3919	;# 
  1160   000F4F                     TMR5L           equ	3919	;# 
  1161   000F50                     TMR5H           equ	3920	;# 
  1162   000F51                     T4CON           equ	3921	;# 
  1163   000F52                     PR4             equ	3922	;# 
  1164   000F53                     TMR4            equ	3923	;# 
  1165   000F54                     CCP5CON         equ	3924	;# 
  1166   000F55                     CCPR5           equ	3925	;# 
  1167   000F55                     CCPR5L          equ	3925	;# 
  1168   000F56                     CCPR5H          equ	3926	;# 
  1169   000F57                     CCP4CON         equ	3927	;# 
  1170   000F58                     CCPR4           equ	3928	;# 
  1171   000F58                     CCPR4L          equ	3928	;# 
  1172   000F59                     CCPR4H          equ	3929	;# 
  1173   000F5A                     PSTR3CON        equ	3930	;# 
  1174   000F5B                     ECCP3AS         equ	3931	;# 
  1175   000F5B                     CCP3AS          equ	3931	;# 
  1176   000F5C                     PWM3CON         equ	3932	;# 
  1177   000F5D                     CCP3CON         equ	3933	;# 
  1178   000F5E                     CCPR3           equ	3934	;# 
  1179   000F5E                     CCPR3L          equ	3934	;# 
  1180   000F5F                     CCPR3H          equ	3935	;# 
  1181   000F60                     SLRCON          equ	3936	;# 
  1182   000F61                     WPUB            equ	3937	;# 
  1183   000F62                     IOCB            equ	3938	;# 
  1184   000F63                     PSTR2CON        equ	3939	;# 
  1185   000F64                     ECCP2AS         equ	3940	;# 
  1186   000F64                     CCP2AS          equ	3940	;# 
  1187   000F65                     PWM2CON         equ	3941	;# 
  1188   000F66                     CCP2CON         equ	3942	;# 
  1189   000F67                     CCPR2           equ	3943	;# 
  1190   000F67                     CCPR2L          equ	3943	;# 
  1191   000F68                     CCPR2H          equ	3944	;# 
  1192   000F69                     SSP2CON3        equ	3945	;# 
  1193   000F6A                     SSP2MSK         equ	3946	;# 
  1194   000F6B                     SSP2CON2        equ	3947	;# 
  1195   000F6C                     SSP2CON1        equ	3948	;# 
  1196   000F6D                     SSP2STAT        equ	3949	;# 
  1197   000F6E                     SSP2ADD         equ	3950	;# 
  1198   000F6F                     SSP2BUF         equ	3951	;# 
  1199   000F70                     BAUDCON2        equ	3952	;# 
  1200   000F70                     BAUD2CON        equ	3952	;# 
  1201   000F71                     RCSTA2          equ	3953	;# 
  1202   000F71                     RC2STA          equ	3953	;# 
  1203   000F72                     TXSTA2          equ	3954	;# 
  1204   000F72                     TX2STA          equ	3954	;# 
  1205   000F73                     TXREG2          equ	3955	;# 
  1206   000F73                     TX2REG          equ	3955	;# 
  1207   000F74                     RCREG2          equ	3956	;# 
  1208   000F74                     RC2REG          equ	3956	;# 
  1209   000F75                     SPBRG2          equ	3957	;# 
  1210   000F75                     SP2BRG          equ	3957	;# 
  1211   000F76                     SPBRGH2         equ	3958	;# 
  1212   000F76                     SP2BRGH         equ	3958	;# 
  1213   000F77                     CM2CON1         equ	3959	;# 
  1214   000F77                     CM12CON         equ	3959	;# 
  1215   000F78                     CM2CON0         equ	3960	;# 
  1216   000F78                     CM2CON          equ	3960	;# 
  1217   000F79                     CM1CON0         equ	3961	;# 
  1218   000F79                     CM1CON          equ	3961	;# 
  1219   000F7A                     PIE4            equ	3962	;# 
  1220   000F7B                     PIR4            equ	3963	;# 
  1221   000F7C                     IPR4            equ	3964	;# 
  1222   000F7D                     PIE5            equ	3965	;# 
  1223   000F7E                     PIR5            equ	3966	;# 
  1224   000F7F                     IPR5            equ	3967	;# 
  1225   000F80                     PORTA           equ	3968	;# 
  1226   000F81                     PORTB           equ	3969	;# 
  1227   000F82                     PORTC           equ	3970	;# 
  1228   000F83                     PORTD           equ	3971	;# 
  1229   000F84                     PORTE           equ	3972	;# 
  1230   000F89                     LATA            equ	3977	;# 
  1231   000F8A                     LATB            equ	3978	;# 
  1232   000F8B                     LATC            equ	3979	;# 
  1233   000F8C                     LATD            equ	3980	;# 
  1234   000F8D                     LATE            equ	3981	;# 
  1235   000F92                     TRISA           equ	3986	;# 
  1236   000F92                     DDRA            equ	3986	;# 
  1237   000F93                     TRISB           equ	3987	;# 
  1238   000F93                     DDRB            equ	3987	;# 
  1239   000F94                     TRISC           equ	3988	;# 
  1240   000F94                     DDRC            equ	3988	;# 
  1241   000F95                     TRISD           equ	3989	;# 
  1242   000F95                     DDRD            equ	3989	;# 
  1243   000F96                     TRISE           equ	3990	;# 
  1244   000F96                     DDRE            equ	3990	;# 
  1245   000F9B                     OSCTUNE         equ	3995	;# 
  1246   000F9C                     HLVDCON         equ	3996	;# 
  1247   000F9C                     LVDCON          equ	3996	;# 
  1248   000F9D                     PIE1            equ	3997	;# 
  1249   000F9E                     PIR1            equ	3998	;# 
  1250   000F9F                     IPR1            equ	3999	;# 
  1251   000FA0                     PIE2            equ	4000	;# 
  1252   000FA1                     PIR2            equ	4001	;# 
  1253   000FA2                     IPR2            equ	4002	;# 
  1254   000FA3                     PIE3            equ	4003	;# 
  1255   000FA4                     PIR3            equ	4004	;# 
  1256   000FA5                     IPR3            equ	4005	;# 
  1257   000FA6                     EECON1          equ	4006	;# 
  1258   000FA7                     EECON2          equ	4007	;# 
  1259   000FA8                     EEDATA          equ	4008	;# 
  1260   000FA9                     EEADR           equ	4009	;# 
  1261   000FAA                     EEADRH          equ	4010	;# 
  1262   000FAB                     RCSTA1          equ	4011	;# 
  1263   000FAB                     RCSTA           equ	4011	;# 
  1264   000FAB                     RC1STA          equ	4011	;# 
  1265   000FAC                     TXSTA1          equ	4012	;# 
  1266   000FAC                     TXSTA           equ	4012	;# 
  1267   000FAC                     TX1STA          equ	4012	;# 
  1268   000FAD                     TXREG1          equ	4013	;# 
  1269   000FAD                     TXREG           equ	4013	;# 
  1270   000FAD                     TX1REG          equ	4013	;# 
  1271   000FAE                     RCREG1          equ	4014	;# 
  1272   000FAE                     RCREG           equ	4014	;# 
  1273   000FAE                     RC1REG          equ	4014	;# 
  1274   000FAF                     SPBRG1          equ	4015	;# 
  1275   000FAF                     SPBRG           equ	4015	;# 
  1276   000FAF                     SP1BRG          equ	4015	;# 
  1277   000FB0                     SPBRGH1         equ	4016	;# 
  1278   000FB0                     SPBRGH          equ	4016	;# 
  1279   000FB0                     SP1BRGH         equ	4016	;# 
  1280   000FB1                     T3CON           equ	4017	;# 
  1281   000FB2                     TMR3            equ	4018	;# 
  1282   000FB2                     TMR3L           equ	4018	;# 
  1283   000FB3                     TMR3H           equ	4019	;# 
  1284   000FB4                     T3GCON          equ	4020	;# 
  1285   000FB6                     ECCP1AS         equ	4022	;# 
  1286   000FB6                     ECCPAS          equ	4022	;# 
  1287   000FB7                     PWM1CON         equ	4023	;# 
  1288   000FB7                     PWMCON          equ	4023	;# 
  1289   000FB8                     BAUDCON1        equ	4024	;# 
  1290   000FB8                     BAUDCON         equ	4024	;# 
  1291   000FB8                     BAUDCTL         equ	4024	;# 
  1292   000FB8                     BAUD1CON        equ	4024	;# 
  1293   000FB9                     PSTR1CON        equ	4025	;# 
  1294   000FB9                     PSTRCON         equ	4025	;# 
  1295   000FBA                     T2CON           equ	4026	;# 
  1296   000FBB                     PR2             equ	4027	;# 
  1297   000FBC                     TMR2            equ	4028	;# 
  1298   000FBD                     CCP1CON         equ	4029	;# 
  1299   000FBE                     CCPR1           equ	4030	;# 
  1300   000FBE                     CCPR1L          equ	4030	;# 
  1301   000FBF                     CCPR1H          equ	4031	;# 
  1302   000FC0                     ADCON2          equ	4032	;# 
  1303   000FC1                     ADCON1          equ	4033	;# 
  1304   000FC2                     ADCON0          equ	4034	;# 
  1305   000FC3                     ADRES           equ	4035	;# 
  1306   000FC3                     ADRESL          equ	4035	;# 
  1307   000FC4                     ADRESH          equ	4036	;# 
  1308   000FC5                     SSP1CON2        equ	4037	;# 
  1309   000FC5                     SSPCON2         equ	4037	;# 
  1310   000FC6                     SSP1CON1        equ	4038	;# 
  1311   000FC6                     SSPCON1         equ	4038	;# 
  1312   000FC7                     SSP1STAT        equ	4039	;# 
  1313   000FC7                     SSPSTAT         equ	4039	;# 
  1314   000FC8                     SSP1ADD         equ	4040	;# 
  1315   000FC8                     SSPADD          equ	4040	;# 
  1316   000FC9                     SSP1BUF         equ	4041	;# 
  1317   000FC9                     SSPBUF          equ	4041	;# 
  1318   000FCA                     SSP1MSK         equ	4042	;# 
  1319   000FCA                     SSPMSK          equ	4042	;# 
  1320   000FCB                     SSP1CON3        equ	4043	;# 
  1321   000FCB                     SSPCON3         equ	4043	;# 
  1322   000FCC                     T1GCON          equ	4044	;# 
  1323   000FCD                     T1CON           equ	4045	;# 
  1324   000FCE                     TMR1            equ	4046	;# 
  1325   000FCE                     TMR1L           equ	4046	;# 
  1326   000FCF                     TMR1H           equ	4047	;# 
  1327   000FD0                     RCON            equ	4048	;# 
  1328   000FD1                     WDTCON          equ	4049	;# 
  1329   000FD2                     OSCCON2         equ	4050	;# 
  1330   000FD3                     OSCCON          equ	4051	;# 
  1331   000FD5                     T0CON           equ	4053	;# 
  1332   000FD6                     TMR0            equ	4054	;# 
  1333   000FD6                     TMR0L           equ	4054	;# 
  1334   000FD7                     TMR0H           equ	4055	;# 
  1335   000FD8                     STATUS          equ	4056	;# 
  1336   000FD9                     FSR2            equ	4057	;# 
  1337   000FD9                     FSR2L           equ	4057	;# 
  1338   000FDA                     FSR2H           equ	4058	;# 
  1339   000FDB                     PLUSW2          equ	4059	;# 
  1340   000FDC                     PREINC2         equ	4060	;# 
  1341   000FDD                     POSTDEC2        equ	4061	;# 
  1342   000FDE                     POSTINC2        equ	4062	;# 
  1343   000FDF                     INDF2           equ	4063	;# 
  1344   000FE0                     BSR             equ	4064	;# 
  1345   000FE1                     FSR1            equ	4065	;# 
  1346   000FE1                     FSR1L           equ	4065	;# 
  1347   000FE2                     FSR1H           equ	4066	;# 
  1348   000FE3                     PLUSW1          equ	4067	;# 
  1349   000FE4                     PREINC1         equ	4068	;# 
  1350   000FE5                     POSTDEC1        equ	4069	;# 
  1351   000FE6                     POSTINC1        equ	4070	;# 
  1352   000FE7                     INDF1           equ	4071	;# 
  1353   000FE8                     WREG            equ	4072	;# 
  1354   000FE9                     FSR0            equ	4073	;# 
  1355   000FE9                     FSR0L           equ	4073	;# 
  1356   000FEA                     FSR0H           equ	4074	;# 
  1357   000FEB                     PLUSW0          equ	4075	;# 
  1358   000FEC                     PREINC0         equ	4076	;# 
  1359   000FED                     POSTDEC0        equ	4077	;# 
  1360   000FEE                     POSTINC0        equ	4078	;# 
  1361   000FEF                     INDF0           equ	4079	;# 
  1362   000FF0                     INTCON3         equ	4080	;# 
  1363   000FF1                     INTCON2         equ	4081	;# 
  1364   000FF2                     INTCON          equ	4082	;# 
  1365   000FF3                     PROD            equ	4083	;# 
  1366   000FF3                     PRODL           equ	4083	;# 
  1367   000FF4                     PRODH           equ	4084	;# 
  1368   000FF5                     TABLAT          equ	4085	;# 
  1369   000FF6                     TBLPTR          equ	4086	;# 
  1370   000FF6                     TBLPTRL         equ	4086	;# 
  1371   000FF7                     TBLPTRH         equ	4087	;# 
  1372   000FF8                     TBLPTRU         equ	4088	;# 
  1373   000FF9                     PCLAT           equ	4089	;# 
  1374   000FF9                     PC              equ	4089	;# 
  1375   000FF9                     PCL             equ	4089	;# 
  1376   000FFA                     PCLATH          equ	4090	;# 
  1377   000FFB                     PCLATU          equ	4091	;# 
  1378   000FFC                     STKPTR          equ	4092	;# 
  1379   000FFD                     TOS             equ	4093	;# 
  1380   000FFD                     TOSL            equ	4093	;# 
  1381   000FFE                     TOSH            equ	4094	;# 
  1382   000FFF                     TOSU            equ	4095	;# 
  1383   000F38                     ANSELA          equ	3896	;# 
  1384   000F39                     ANSELB          equ	3897	;# 
  1385   000F3A                     ANSELC          equ	3898	;# 
  1386   000F3B                     ANSELD          equ	3899	;# 
  1387   000F3C                     ANSELE          equ	3900	;# 
  1388   000F3D                     PMD2            equ	3901	;# 
  1389   000F3E                     PMD1            equ	3902	;# 
  1390   000F3F                     PMD0            equ	3903	;# 
  1391   000F40                     VREFCON2        equ	3904	;# 
  1392   000F40                     DACCON1         equ	3904	;# 
  1393   000F41                     VREFCON1        equ	3905	;# 
  1394   000F41                     DACCON0         equ	3905	;# 
  1395   000F42                     VREFCON0        equ	3906	;# 
  1396   000F42                     FVRCON          equ	3906	;# 
  1397   000F43                     CTMUICON        equ	3907	;# 
  1398   000F43                     CTMUICONH       equ	3907	;# 
  1399   000F44                     CTMUCONL        equ	3908	;# 
  1400   000F44                     CTMUCON1        equ	3908	;# 
  1401   000F45                     CTMUCONH        equ	3909	;# 
  1402   000F45                     CTMUCON0        equ	3909	;# 
  1403   000F46                     SRCON1          equ	3910	;# 
  1404   000F47                     SRCON0          equ	3911	;# 
  1405   000F48                     CCPTMRS1        equ	3912	;# 
  1406   000F49                     CCPTMRS0        equ	3913	;# 
  1407   000F4A                     T6CON           equ	3914	;# 
  1408   000F4B                     PR6             equ	3915	;# 
  1409   000F4C                     TMR6            equ	3916	;# 
  1410   000F4D                     T5GCON          equ	3917	;# 
  1411   000F4E                     T5CON           equ	3918	;# 
  1412   000F4F                     TMR5            equ	3919	;# 
  1413   000F4F                     TMR5L           equ	3919	;# 
  1414   000F50                     TMR5H           equ	3920	;# 
  1415   000F51                     T4CON           equ	3921	;# 
  1416   000F52                     PR4             equ	3922	;# 
  1417   000F53                     TMR4            equ	3923	;# 
  1418   000F54                     CCP5CON         equ	3924	;# 
  1419   000F55                     CCPR5           equ	3925	;# 
  1420   000F55                     CCPR5L          equ	3925	;# 
  1421   000F56                     CCPR5H          equ	3926	;# 
  1422   000F57                     CCP4CON         equ	3927	;# 
  1423   000F58                     CCPR4           equ	3928	;# 
  1424   000F58                     CCPR4L          equ	3928	;# 
  1425   000F59                     CCPR4H          equ	3929	;# 
  1426   000F5A                     PSTR3CON        equ	3930	;# 
  1427   000F5B                     ECCP3AS         equ	3931	;# 
  1428   000F5B                     CCP3AS          equ	3931	;# 
  1429   000F5C                     PWM3CON         equ	3932	;# 
  1430   000F5D                     CCP3CON         equ	3933	;# 
  1431   000F5E                     CCPR3           equ	3934	;# 
  1432   000F5E                     CCPR3L          equ	3934	;# 
  1433   000F5F                     CCPR3H          equ	3935	;# 
  1434   000F60                     SLRCON          equ	3936	;# 
  1435   000F61                     WPUB            equ	3937	;# 
  1436   000F62                     IOCB            equ	3938	;# 
  1437   000F63                     PSTR2CON        equ	3939	;# 
  1438   000F64                     ECCP2AS         equ	3940	;# 
  1439   000F64                     CCP2AS          equ	3940	;# 
  1440   000F65                     PWM2CON         equ	3941	;# 
  1441   000F66                     CCP2CON         equ	3942	;# 
  1442   000F67                     CCPR2           equ	3943	;# 
  1443   000F67                     CCPR2L          equ	3943	;# 
  1444   000F68                     CCPR2H          equ	3944	;# 
  1445   000F69                     SSP2CON3        equ	3945	;# 
  1446   000F6A                     SSP2MSK         equ	3946	;# 
  1447   000F6B                     SSP2CON2        equ	3947	;# 
  1448   000F6C                     SSP2CON1        equ	3948	;# 
  1449   000F6D                     SSP2STAT        equ	3949	;# 
  1450   000F6E                     SSP2ADD         equ	3950	;# 
  1451   000F6F                     SSP2BUF         equ	3951	;# 
  1452   000F70                     BAUDCON2        equ	3952	;# 
  1453   000F70                     BAUD2CON        equ	3952	;# 
  1454   000F71                     RCSTA2          equ	3953	;# 
  1455   000F71                     RC2STA          equ	3953	;# 
  1456   000F72                     TXSTA2          equ	3954	;# 
  1457   000F72                     TX2STA          equ	3954	;# 
  1458   000F73                     TXREG2          equ	3955	;# 
  1459   000F73                     TX2REG          equ	3955	;# 
  1460   000F74                     RCREG2          equ	3956	;# 
  1461   000F74                     RC2REG          equ	3956	;# 
  1462   000F75                     SPBRG2          equ	3957	;# 
  1463   000F75                     SP2BRG          equ	3957	;# 
  1464   000F76                     SPBRGH2         equ	3958	;# 
  1465   000F76                     SP2BRGH         equ	3958	;# 
  1466   000F77                     CM2CON1         equ	3959	;# 
  1467   000F77                     CM12CON         equ	3959	;# 
  1468   000F78                     CM2CON0         equ	3960	;# 
  1469   000F78                     CM2CON          equ	3960	;# 
  1470   000F79                     CM1CON0         equ	3961	;# 
  1471   000F79                     CM1CON          equ	3961	;# 
  1472   000F7A                     PIE4            equ	3962	;# 
  1473   000F7B                     PIR4            equ	3963	;# 
  1474   000F7C                     IPR4            equ	3964	;# 
  1475   000F7D                     PIE5            equ	3965	;# 
  1476   000F7E                     PIR5            equ	3966	;# 
  1477   000F7F                     IPR5            equ	3967	;# 
  1478   000F80                     PORTA           equ	3968	;# 
  1479   000F81                     PORTB           equ	3969	;# 
  1480   000F82                     PORTC           equ	3970	;# 
  1481   000F83                     PORTD           equ	3971	;# 
  1482   000F84                     PORTE           equ	3972	;# 
  1483   000F89                     LATA            equ	3977	;# 
  1484   000F8A                     LATB            equ	3978	;# 
  1485   000F8B                     LATC            equ	3979	;# 
  1486   000F8C                     LATD            equ	3980	;# 
  1487   000F8D                     LATE            equ	3981	;# 
  1488   000F92                     TRISA           equ	3986	;# 
  1489   000F92                     DDRA            equ	3986	;# 
  1490   000F93                     TRISB           equ	3987	;# 
  1491   000F93                     DDRB            equ	3987	;# 
  1492   000F94                     TRISC           equ	3988	;# 
  1493   000F94                     DDRC            equ	3988	;# 
  1494   000F95                     TRISD           equ	3989	;# 
  1495   000F95                     DDRD            equ	3989	;# 
  1496   000F96                     TRISE           equ	3990	;# 
  1497   000F96                     DDRE            equ	3990	;# 
  1498   000F9B                     OSCTUNE         equ	3995	;# 
  1499   000F9C                     HLVDCON         equ	3996	;# 
  1500   000F9C                     LVDCON          equ	3996	;# 
  1501   000F9D                     PIE1            equ	3997	;# 
  1502   000F9E                     PIR1            equ	3998	;# 
  1503   000F9F                     IPR1            equ	3999	;# 
  1504   000FA0                     PIE2            equ	4000	;# 
  1505   000FA1                     PIR2            equ	4001	;# 
  1506   000FA2                     IPR2            equ	4002	;# 
  1507   000FA3                     PIE3            equ	4003	;# 
  1508   000FA4                     PIR3            equ	4004	;# 
  1509   000FA5                     IPR3            equ	4005	;# 
  1510   000FA6                     EECON1          equ	4006	;# 
  1511   000FA7                     EECON2          equ	4007	;# 
  1512   000FA8                     EEDATA          equ	4008	;# 
  1513   000FA9                     EEADR           equ	4009	;# 
  1514   000FAA                     EEADRH          equ	4010	;# 
  1515   000FAB                     RCSTA1          equ	4011	;# 
  1516   000FAB                     RCSTA           equ	4011	;# 
  1517   000FAB                     RC1STA          equ	4011	;# 
  1518   000FAC                     TXSTA1          equ	4012	;# 
  1519   000FAC                     TXSTA           equ	4012	;# 
  1520   000FAC                     TX1STA          equ	4012	;# 
  1521   000FAD                     TXREG1          equ	4013	;# 
  1522   000FAD                     TXREG           equ	4013	;# 
  1523   000FAD                     TX1REG          equ	4013	;# 
  1524   000FAE                     RCREG1          equ	4014	;# 
  1525   000FAE                     RCREG           equ	4014	;# 
  1526   000FAE                     RC1REG          equ	4014	;# 
  1527   000FAF                     SPBRG1          equ	4015	;# 
  1528   000FAF                     SPBRG           equ	4015	;# 
  1529   000FAF                     SP1BRG          equ	4015	;# 
  1530   000FB0                     SPBRGH1         equ	4016	;# 
  1531   000FB0                     SPBRGH          equ	4016	;# 
  1532   000FB0                     SP1BRGH         equ	4016	;# 
  1533   000FB1                     T3CON           equ	4017	;# 
  1534   000FB2                     TMR3            equ	4018	;# 
  1535   000FB2                     TMR3L           equ	4018	;# 
  1536   000FB3                     TMR3H           equ	4019	;# 
  1537   000FB4                     T3GCON          equ	4020	;# 
  1538   000FB6                     ECCP1AS         equ	4022	;# 
  1539   000FB6                     ECCPAS          equ	4022	;# 
  1540   000FB7                     PWM1CON         equ	4023	;# 
  1541   000FB7                     PWMCON          equ	4023	;# 
  1542   000FB8                     BAUDCON1        equ	4024	;# 
  1543   000FB8                     BAUDCON         equ	4024	;# 
  1544   000FB8                     BAUDCTL         equ	4024	;# 
  1545   000FB8                     BAUD1CON        equ	4024	;# 
  1546   000FB9                     PSTR1CON        equ	4025	;# 
  1547   000FB9                     PSTRCON         equ	4025	;# 
  1548   000FBA                     T2CON           equ	4026	;# 
  1549   000FBB                     PR2             equ	4027	;# 
  1550   000FBC                     TMR2            equ	4028	;# 
  1551   000FBD                     CCP1CON         equ	4029	;# 
  1552   000FBE                     CCPR1           equ	4030	;# 
  1553   000FBE                     CCPR1L          equ	4030	;# 
  1554   000FBF                     CCPR1H          equ	4031	;# 
  1555   000FC0                     ADCON2          equ	4032	;# 
  1556   000FC1                     ADCON1          equ	4033	;# 
  1557   000FC2                     ADCON0          equ	4034	;# 
  1558   000FC3                     ADRES           equ	4035	;# 
  1559   000FC3                     ADRESL          equ	4035	;# 
  1560   000FC4                     ADRESH          equ	4036	;# 
  1561   000FC5                     SSP1CON2        equ	4037	;# 
  1562   000FC5                     SSPCON2         equ	4037	;# 
  1563   000FC6                     SSP1CON1        equ	4038	;# 
  1564   000FC6                     SSPCON1         equ	4038	;# 
  1565   000FC7                     SSP1STAT        equ	4039	;# 
  1566   000FC7                     SSPSTAT         equ	4039	;# 
  1567   000FC8                     SSP1ADD         equ	4040	;# 
  1568   000FC8                     SSPADD          equ	4040	;# 
  1569   000FC9                     SSP1BUF         equ	4041	;# 
  1570   000FC9                     SSPBUF          equ	4041	;# 
  1571   000FCA                     SSP1MSK         equ	4042	;# 
  1572   000FCA                     SSPMSK          equ	4042	;# 
  1573   000FCB                     SSP1CON3        equ	4043	;# 
  1574   000FCB                     SSPCON3         equ	4043	;# 
  1575   000FCC                     T1GCON          equ	4044	;# 
  1576   000FCD                     T1CON           equ	4045	;# 
  1577   000FCE                     TMR1            equ	4046	;# 
  1578   000FCE                     TMR1L           equ	4046	;# 
  1579   000FCF                     TMR1H           equ	4047	;# 
  1580   000FD0                     RCON            equ	4048	;# 
  1581   000FD1                     WDTCON          equ	4049	;# 
  1582   000FD2                     OSCCON2         equ	4050	;# 
  1583   000FD3                     OSCCON          equ	4051	;# 
  1584   000FD5                     T0CON           equ	4053	;# 
  1585   000FD6                     TMR0            equ	4054	;# 
  1586   000FD6                     TMR0L           equ	4054	;# 
  1587   000FD7                     TMR0H           equ	4055	;# 
  1588   000FD8                     STATUS          equ	4056	;# 
  1589   000FD9                     FSR2            equ	4057	;# 
  1590   000FD9                     FSR2L           equ	4057	;# 
  1591   000FDA                     FSR2H           equ	4058	;# 
  1592   000FDB                     PLUSW2          equ	4059	;# 
  1593   000FDC                     PREINC2         equ	4060	;# 
  1594   000FDD                     POSTDEC2        equ	4061	;# 
  1595   000FDE                     POSTINC2        equ	4062	;# 
  1596   000FDF                     INDF2           equ	4063	;# 
  1597   000FE0                     BSR             equ	4064	;# 
  1598   000FE1                     FSR1            equ	4065	;# 
  1599   000FE1                     FSR1L           equ	4065	;# 
  1600   000FE2                     FSR1H           equ	4066	;# 
  1601   000FE3                     PLUSW1          equ	4067	;# 
  1602   000FE4                     PREINC1         equ	4068	;# 
  1603   000FE5                     POSTDEC1        equ	4069	;# 
  1604   000FE6                     POSTINC1        equ	4070	;# 
  1605   000FE7                     INDF1           equ	4071	;# 
  1606   000FE8                     WREG            equ	4072	;# 
  1607   000FE9                     FSR0            equ	4073	;# 
  1608   000FE9                     FSR0L           equ	4073	;# 
  1609   000FEA                     FSR0H           equ	4074	;# 
  1610   000FEB                     PLUSW0          equ	4075	;# 
  1611   000FEC                     PREINC0         equ	4076	;# 
  1612   000FED                     POSTDEC0        equ	4077	;# 
  1613   000FEE                     POSTINC0        equ	4078	;# 
  1614   000FEF                     INDF0           equ	4079	;# 
  1615   000FF0                     INTCON3         equ	4080	;# 
  1616   000FF1                     INTCON2         equ	4081	;# 
  1617   000FF2                     INTCON          equ	4082	;# 
  1618   000FF3                     PROD            equ	4083	;# 
  1619   000FF3                     PRODL           equ	4083	;# 
  1620   000FF4                     PRODH           equ	4084	;# 
  1621   000FF5                     TABLAT          equ	4085	;# 
  1622   000FF6                     TBLPTR          equ	4086	;# 
  1623   000FF6                     TBLPTRL         equ	4086	;# 
  1624   000FF7                     TBLPTRH         equ	4087	;# 
  1625   000FF8                     TBLPTRU         equ	4088	;# 
  1626   000FF9                     PCLAT           equ	4089	;# 
  1627   000FF9                     PC              equ	4089	;# 
  1628   000FF9                     PCL             equ	4089	;# 
  1629   000FFA                     PCLATH          equ	4090	;# 
  1630   000FFB                     PCLATU          equ	4091	;# 
  1631   000FFC                     STKPTR          equ	4092	;# 
  1632   000FFD                     TOS             equ	4093	;# 
  1633   000FFD                     TOSL            equ	4093	;# 
  1634   000FFE                     TOSH            equ	4094	;# 
  1635   000FFF                     TOSU            equ	4095	;# 
  1636   000F38                     ANSELA          equ	3896	;# 
  1637   000F39                     ANSELB          equ	3897	;# 
  1638   000F3A                     ANSELC          equ	3898	;# 
  1639   000F3B                     ANSELD          equ	3899	;# 
  1640   000F3C                     ANSELE          equ	3900	;# 
  1641   000F3D                     PMD2            equ	3901	;# 
  1642   000F3E                     PMD1            equ	3902	;# 
  1643   000F3F                     PMD0            equ	3903	;# 
  1644   000F40                     VREFCON2        equ	3904	;# 
  1645   000F40                     DACCON1         equ	3904	;# 
  1646   000F41                     VREFCON1        equ	3905	;# 
  1647   000F41                     DACCON0         equ	3905	;# 
  1648   000F42                     VREFCON0        equ	3906	;# 
  1649   000F42                     FVRCON          equ	3906	;# 
  1650   000F43                     CTMUICON        equ	3907	;# 
  1651   000F43                     CTMUICONH       equ	3907	;# 
  1652   000F44                     CTMUCONL        equ	3908	;# 
  1653   000F44                     CTMUCON1        equ	3908	;# 
  1654   000F45                     CTMUCONH        equ	3909	;# 
  1655   000F45                     CTMUCON0        equ	3909	;# 
  1656   000F46                     SRCON1          equ	3910	;# 
  1657   000F47                     SRCON0          equ	3911	;# 
  1658   000F48                     CCPTMRS1        equ	3912	;# 
  1659   000F49                     CCPTMRS0        equ	3913	;# 
  1660   000F4A                     T6CON           equ	3914	;# 
  1661   000F4B                     PR6             equ	3915	;# 
  1662   000F4C                     TMR6            equ	3916	;# 
  1663   000F4D                     T5GCON          equ	3917	;# 
  1664   000F4E                     T5CON           equ	3918	;# 
  1665   000F4F                     TMR5            equ	3919	;# 
  1666   000F4F                     TMR5L           equ	3919	;# 
  1667   000F50                     TMR5H           equ	3920	;# 
  1668   000F51                     T4CON           equ	3921	;# 
  1669   000F52                     PR4             equ	3922	;# 
  1670   000F53                     TMR4            equ	3923	;# 
  1671   000F54                     CCP5CON         equ	3924	;# 
  1672   000F55                     CCPR5           equ	3925	;# 
  1673   000F55                     CCPR5L          equ	3925	;# 
  1674   000F56                     CCPR5H          equ	3926	;# 
  1675   000F57                     CCP4CON         equ	3927	;# 
  1676   000F58                     CCPR4           equ	3928	;# 
  1677   000F58                     CCPR4L          equ	3928	;# 
  1678   000F59                     CCPR4H          equ	3929	;# 
  1679   000F5A                     PSTR3CON        equ	3930	;# 
  1680   000F5B                     ECCP3AS         equ	3931	;# 
  1681   000F5B                     CCP3AS          equ	3931	;# 
  1682   000F5C                     PWM3CON         equ	3932	;# 
  1683   000F5D                     CCP3CON         equ	3933	;# 
  1684   000F5E                     CCPR3           equ	3934	;# 
  1685   000F5E                     CCPR3L          equ	3934	;# 
  1686   000F5F                     CCPR3H          equ	3935	;# 
  1687   000F60                     SLRCON          equ	3936	;# 
  1688   000F61                     WPUB            equ	3937	;# 
  1689   000F62                     IOCB            equ	3938	;# 
  1690   000F63                     PSTR2CON        equ	3939	;# 
  1691   000F64                     ECCP2AS         equ	3940	;# 
  1692   000F64                     CCP2AS          equ	3940	;# 
  1693   000F65                     PWM2CON         equ	3941	;# 
  1694   000F66                     CCP2CON         equ	3942	;# 
  1695   000F67                     CCPR2           equ	3943	;# 
  1696   000F67                     CCPR2L          equ	3943	;# 
  1697   000F68                     CCPR2H          equ	3944	;# 
  1698   000F69                     SSP2CON3        equ	3945	;# 
  1699   000F6A                     SSP2MSK         equ	3946	;# 
  1700   000F6B                     SSP2CON2        equ	3947	;# 
  1701   000F6C                     SSP2CON1        equ	3948	;# 
  1702   000F6D                     SSP2STAT        equ	3949	;# 
  1703   000F6E                     SSP2ADD         equ	3950	;# 
  1704   000F6F                     SSP2BUF         equ	3951	;# 
  1705   000F70                     BAUDCON2        equ	3952	;# 
  1706   000F70                     BAUD2CON        equ	3952	;# 
  1707   000F71                     RCSTA2          equ	3953	;# 
  1708   000F71                     RC2STA          equ	3953	;# 
  1709   000F72                     TXSTA2          equ	3954	;# 
  1710   000F72                     TX2STA          equ	3954	;# 
  1711   000F73                     TXREG2          equ	3955	;# 
  1712   000F73                     TX2REG          equ	3955	;# 
  1713   000F74                     RCREG2          equ	3956	;# 
  1714   000F74                     RC2REG          equ	3956	;# 
  1715   000F75                     SPBRG2          equ	3957	;# 
  1716   000F75                     SP2BRG          equ	3957	;# 
  1717   000F76                     SPBRGH2         equ	3958	;# 
  1718   000F76                     SP2BRGH         equ	3958	;# 
  1719   000F77                     CM2CON1         equ	3959	;# 
  1720   000F77                     CM12CON         equ	3959	;# 
  1721   000F78                     CM2CON0         equ	3960	;# 
  1722   000F78                     CM2CON          equ	3960	;# 
  1723   000F79                     CM1CON0         equ	3961	;# 
  1724   000F79                     CM1CON          equ	3961	;# 
  1725   000F7A                     PIE4            equ	3962	;# 
  1726   000F7B                     PIR4            equ	3963	;# 
  1727   000F7C                     IPR4            equ	3964	;# 
  1728   000F7D                     PIE5            equ	3965	;# 
  1729   000F7E                     PIR5            equ	3966	;# 
  1730   000F7F                     IPR5            equ	3967	;# 
  1731   000F80                     PORTA           equ	3968	;# 
  1732   000F81                     PORTB           equ	3969	;# 
  1733   000F82                     PORTC           equ	3970	;# 
  1734   000F83                     PORTD           equ	3971	;# 
  1735   000F84                     PORTE           equ	3972	;# 
  1736   000F89                     LATA            equ	3977	;# 
  1737   000F8A                     LATB            equ	3978	;# 
  1738   000F8B                     LATC            equ	3979	;# 
  1739   000F8C                     LATD            equ	3980	;# 
  1740   000F8D                     LATE            equ	3981	;# 
  1741   000F92                     TRISA           equ	3986	;# 
  1742   000F92                     DDRA            equ	3986	;# 
  1743   000F93                     TRISB           equ	3987	;# 
  1744   000F93                     DDRB            equ	3987	;# 
  1745   000F94                     TRISC           equ	3988	;# 
  1746   000F94                     DDRC            equ	3988	;# 
  1747   000F95                     TRISD           equ	3989	;# 
  1748   000F95                     DDRD            equ	3989	;# 
  1749   000F96                     TRISE           equ	3990	;# 
  1750   000F96                     DDRE            equ	3990	;# 
  1751   000F9B                     OSCTUNE         equ	3995	;# 
  1752   000F9C                     HLVDCON         equ	3996	;# 
  1753   000F9C                     LVDCON          equ	3996	;# 
  1754   000F9D                     PIE1            equ	3997	;# 
  1755   000F9E                     PIR1            equ	3998	;# 
  1756   000F9F                     IPR1            equ	3999	;# 
  1757   000FA0                     PIE2            equ	4000	;# 
  1758   000FA1                     PIR2            equ	4001	;# 
  1759   000FA2                     IPR2            equ	4002	;# 
  1760   000FA3                     PIE3            equ	4003	;# 
  1761   000FA4                     PIR3            equ	4004	;# 
  1762   000FA5                     IPR3            equ	4005	;# 
  1763   000FA6                     EECON1          equ	4006	;# 
  1764   000FA7                     EECON2          equ	4007	;# 
  1765   000FA8                     EEDATA          equ	4008	;# 
  1766   000FA9                     EEADR           equ	4009	;# 
  1767   000FAA                     EEADRH          equ	4010	;# 
  1768   000FAB                     RCSTA1          equ	4011	;# 
  1769   000FAB                     RCSTA           equ	4011	;# 
  1770   000FAB                     RC1STA          equ	4011	;# 
  1771   000FAC                     TXSTA1          equ	4012	;# 
  1772   000FAC                     TXSTA           equ	4012	;# 
  1773   000FAC                     TX1STA          equ	4012	;# 
  1774   000FAD                     TXREG1          equ	4013	;# 
  1775   000FAD                     TXREG           equ	4013	;# 
  1776   000FAD                     TX1REG          equ	4013	;# 
  1777   000FAE                     RCREG1          equ	4014	;# 
  1778   000FAE                     RCREG           equ	4014	;# 
  1779   000FAE                     RC1REG          equ	4014	;# 
  1780   000FAF                     SPBRG1          equ	4015	;# 
  1781   000FAF                     SPBRG           equ	4015	;# 
  1782   000FAF                     SP1BRG          equ	4015	;# 
  1783   000FB0                     SPBRGH1         equ	4016	;# 
  1784   000FB0                     SPBRGH          equ	4016	;# 
  1785   000FB0                     SP1BRGH         equ	4016	;# 
  1786   000FB1                     T3CON           equ	4017	;# 
  1787   000FB2                     TMR3            equ	4018	;# 
  1788   000FB2                     TMR3L           equ	4018	;# 
  1789   000FB3                     TMR3H           equ	4019	;# 
  1790   000FB4                     T3GCON          equ	4020	;# 
  1791   000FB6                     ECCP1AS         equ	4022	;# 
  1792   000FB6                     ECCPAS          equ	4022	;# 
  1793   000FB7                     PWM1CON         equ	4023	;# 
  1794   000FB7                     PWMCON          equ	4023	;# 
  1795   000FB8                     BAUDCON1        equ	4024	;# 
  1796   000FB8                     BAUDCON         equ	4024	;# 
  1797   000FB8                     BAUDCTL         equ	4024	;# 
  1798   000FB8                     BAUD1CON        equ	4024	;# 
  1799   000FB9                     PSTR1CON        equ	4025	;# 
  1800   000FB9                     PSTRCON         equ	4025	;# 
  1801   000FBA                     T2CON           equ	4026	;# 
  1802   000FBB                     PR2             equ	4027	;# 
  1803   000FBC                     TMR2            equ	4028	;# 
  1804   000FBD                     CCP1CON         equ	4029	;# 
  1805   000FBE                     CCPR1           equ	4030	;# 
  1806   000FBE                     CCPR1L          equ	4030	;# 
  1807   000FBF                     CCPR1H          equ	4031	;# 
  1808   000FC0                     ADCON2          equ	4032	;# 
  1809   000FC1                     ADCON1          equ	4033	;# 
  1810   000FC2                     ADCON0          equ	4034	;# 
  1811   000FC3                     ADRES           equ	4035	;# 
  1812   000FC3                     ADRESL          equ	4035	;# 
  1813   000FC4                     ADRESH          equ	4036	;# 
  1814   000FC5                     SSP1CON2        equ	4037	;# 
  1815   000FC5                     SSPCON2         equ	4037	;# 
  1816   000FC6                     SSP1CON1        equ	4038	;# 
  1817   000FC6                     SSPCON1         equ	4038	;# 
  1818   000FC7                     SSP1STAT        equ	4039	;# 
  1819   000FC7                     SSPSTAT         equ	4039	;# 
  1820   000FC8                     SSP1ADD         equ	4040	;# 
  1821   000FC8                     SSPADD          equ	4040	;# 
  1822   000FC9                     SSP1BUF         equ	4041	;# 
  1823   000FC9                     SSPBUF          equ	4041	;# 
  1824   000FCA                     SSP1MSK         equ	4042	;# 
  1825   000FCA                     SSPMSK          equ	4042	;# 
  1826   000FCB                     SSP1CON3        equ	4043	;# 
  1827   000FCB                     SSPCON3         equ	4043	;# 
  1828   000FCC                     T1GCON          equ	4044	;# 
  1829   000FCD                     T1CON           equ	4045	;# 
  1830   000FCE                     TMR1            equ	4046	;# 
  1831   000FCE                     TMR1L           equ	4046	;# 
  1832   000FCF                     TMR1H           equ	4047	;# 
  1833   000FD0                     RCON            equ	4048	;# 
  1834   000FD1                     WDTCON          equ	4049	;# 
  1835   000FD2                     OSCCON2         equ	4050	;# 
  1836   000FD3                     OSCCON          equ	4051	;# 
  1837   000FD5                     T0CON           equ	4053	;# 
  1838   000FD6                     TMR0            equ	4054	;# 
  1839   000FD6                     TMR0L           equ	4054	;# 
  1840   000FD7                     TMR0H           equ	4055	;# 
  1841   000FD8                     STATUS          equ	4056	;# 
  1842   000FD9                     FSR2            equ	4057	;# 
  1843   000FD9                     FSR2L           equ	4057	;# 
  1844   000FDA                     FSR2H           equ	4058	;# 
  1845   000FDB                     PLUSW2          equ	4059	;# 
  1846   000FDC                     PREINC2         equ	4060	;# 
  1847   000FDD                     POSTDEC2        equ	4061	;# 
  1848   000FDE                     POSTINC2        equ	4062	;# 
  1849   000FDF                     INDF2           equ	4063	;# 
  1850   000FE0                     BSR             equ	4064	;# 
  1851   000FE1                     FSR1            equ	4065	;# 
  1852   000FE1                     FSR1L           equ	4065	;# 
  1853   000FE2                     FSR1H           equ	4066	;# 
  1854   000FE3                     PLUSW1          equ	4067	;# 
  1855   000FE4                     PREINC1         equ	4068	;# 
  1856   000FE5                     POSTDEC1        equ	4069	;# 
  1857   000FE6                     POSTINC1        equ	4070	;# 
  1858   000FE7                     INDF1           equ	4071	;# 
  1859   000FE8                     WREG            equ	4072	;# 
  1860   000FE9                     FSR0            equ	4073	;# 
  1861   000FE9                     FSR0L           equ	4073	;# 
  1862   000FEA                     FSR0H           equ	4074	;# 
  1863   000FEB                     PLUSW0          equ	4075	;# 
  1864   000FEC                     PREINC0         equ	4076	;# 
  1865   000FED                     POSTDEC0        equ	4077	;# 
  1866   000FEE                     POSTINC0        equ	4078	;# 
  1867   000FEF                     INDF0           equ	4079	;# 
  1868   000FF0                     INTCON3         equ	4080	;# 
  1869   000FF1                     INTCON2         equ	4081	;# 
  1870   000FF2                     INTCON          equ	4082	;# 
  1871   000FF3                     PROD            equ	4083	;# 
  1872   000FF3                     PRODL           equ	4083	;# 
  1873   000FF4                     PRODH           equ	4084	;# 
  1874   000FF5                     TABLAT          equ	4085	;# 
  1875   000FF6                     TBLPTR          equ	4086	;# 
  1876   000FF6                     TBLPTRL         equ	4086	;# 
  1877   000FF7                     TBLPTRH         equ	4087	;# 
  1878   000FF8                     TBLPTRU         equ	4088	;# 
  1879   000FF9                     PCLAT           equ	4089	;# 
  1880   000FF9                     PC              equ	4089	;# 
  1881   000FF9                     PCL             equ	4089	;# 
  1882   000FFA                     PCLATH          equ	4090	;# 
  1883   000FFB                     PCLATU          equ	4091	;# 
  1884   000FFC                     STKPTR          equ	4092	;# 
  1885   000FFD                     TOS             equ	4093	;# 
  1886   000FFD                     TOSL            equ	4093	;# 
  1887   000FFE                     TOSH            equ	4094	;# 
  1888   000FFF                     TOSU            equ	4095	;# 
  1889                           
  1890 ;; Function _LED_1 is unused but had its address taken
  1891   000000                     _LED_1          equ	0
  1892                           
  1893 ;; Function _LED_2 is unused but had its address taken
  1894   000000                     _LED_2          equ	0
  1895                           
  1896 ;; Function _LED_3 is unused but had its address taken
  1897   000000                     _LED_3          equ	0
  1898                           
  1899 ;; Function _LED_1_prio is unused but had its address taken
  1900   000000                     _LED_1_prio     equ	0
  1901                           
  1902 ;; Function _LED_2_prio is unused but had its address taken
  1903   000000                     _LED_2_prio     equ	0
  1904                           
  1905 ;; Function _LED_3_prio is unused but had its address taken
  1906   000000                     _LED_3_prio     equ	0
  1907                           
  1908                           	psect	idataCOMRAM
  1909   0029FA                     __pidataCOMRAM:
  1910                           	callstack 0
  1911                           
  1912                           ;initializer for LED_1@F6269
  1913   0029FA  4C                 	db	76
  1914   0029FB  4C                 	db	76
  1915   0029FC  44                 	db	68
  1916   0029FD  4C                 	db	76
  1917   0029FE  44                 	db	68
  1918   0029FF  44                 	db	68
  1919                           
  1920                           ;initializer for _rr_quantum
  1921   002A00  14                 	db	20
  1922   000F3A                     _ANSELCbits     set	3898
  1923   000F3B                     _ANSELDbits     set	3899
  1924   000F38                     _ANSELAbits     set	3896
  1925   000FD6                     _TMR0           set	4054
  1926   000FC3                     _ADRES          set	4035
  1927   000FD5                     _T0CONbits      set	4053
  1928   000F83                     _PORTDbits      set	3971
  1929   000F95                     _TRISDbits      set	3989
  1930   000F92                     _TRISAbits      set	3986
  1931   000FC0                     _ADCON2bits     set	4032
  1932   000FC1                     _ADCON1bits     set	4033
  1933   000FC2                     _ADCON0bits     set	4034
  1934   000F82                     _PORTCbits      set	3970
  1935   000F94                     _TRISCbits      set	3988
  1936   000FFC                     _STKPTR         set	4092
  1937   000FFF                     _TOSU           set	4095
  1938   000FFE                     _TOSH           set	4094
  1939   000FFD                     _TOSL           set	4093
  1940   000FD8                     _STATUS         set	4056
  1941   000FE8                     _WREG           set	4072
  1942   000FF8                     _TBLPTRU        set	4088
  1943   000FF6                     _TBLPTRL        set	4086
  1944   000FF7                     _TBLPTRH        set	4087
  1945   000FF5                     _TABLAT         set	4085
  1946   000FF3                     _PRODL          set	4083
  1947   000FF4                     _PRODH          set	4084
  1948   000FFB                     _PCLATU         set	4091
  1949   000FFA                     _PCLATH         set	4090
  1950   000FD9                     _FSR2L          set	4057
  1951   000FDA                     _FSR2H          set	4058
  1952   000FE1                     _FSR1L          set	4065
  1953   000FE2                     _FSR1H          set	4066
  1954   000FE9                     _FSR0L          set	4073
  1955   000FEA                     _FSR0H          set	4074
  1956   000FE0                     _BSR            set	4064
  1957   000FF2                     _INTCONbits     set	4082
  1958                           
  1959                           ; #config settings
  1960                           
  1961                           	psect	cinit
  1962   00279C                     __pcinit:
  1963                           	callstack 0
  1964   00279C                     start_initialization:
  1965                           	callstack 0
  1966   00279C                     __initialization:
  1967                           	callstack 0
  1968                           
  1969                           ; Initialize objects allocated to COMRAM (7 bytes)
  1970                           ; load TBLPTR registers with __pidataCOMRAM
  1971   00279C  0EFA               	movlw	low __pidataCOMRAM
  1972   00279E  6EF6               	movwf	tblptrl,c
  1973   0027A0  0E29               	movlw	high __pidataCOMRAM
  1974   0027A2  6EF7               	movwf	tblptrh,c
  1975   0027A4  0E00               	movlw	low (__pidataCOMRAM shr (0+16))
  1976   0027A6  6EF8               	movwf	tblptru,c
  1977   0027A8  EE00  F044         	lfsr	0,__pdataCOMRAM
  1978   0027AC  EE10 F007          	lfsr	1,7
  1979   0027B0                     copy_data0:
  1980   0027B0  0009               	tblrd		*+
  1981   0027B2  CFF5 FFEE          	movff	tablat,postinc0
  1982   0027B6  50E5               	movf	postdec1,w,c
  1983   0027B8  50E1               	movf	fsr1l,w,c
  1984   0027BA  E1FA               	bnz	copy_data0
  1985                           
  1986                           ; Clear objects allocated to BIGRAM (984 bytes)
  1987   0027BC  EE01  F076         	lfsr	0,__pbssBIGRAM
  1988   0027C0  EE13 F0D8          	lfsr	1,984
  1989   0027C4                     clear_0:
  1990   0027C4  6AEE               	clrf	postinc0,c
  1991   0027C6  50E5               	movf	postdec1,w,c
  1992   0027C8  50E1               	movf	fsr1l,w,c
  1993   0027CA  E1FC               	bnz	clear_0
  1994   0027CC  50E2               	movf	fsr1h,w,c
  1995   0027CE  E1FA               	bnz	clear_0
  1996                           
  1997                           ; Clear objects allocated to COMRAM (35 bytes)
  1998   0027D0  EE00  F002         	lfsr	0,__pbssCOMRAM
  1999   0027D4  0E23               	movlw	35
  2000   0027D6                     clear_1:
  2001   0027D6  6AEE               	clrf	postinc0,c
  2002   0027D8  06E8               	decf	wreg,f,c
  2003   0027DA  E1FD               	bnz	clear_1
  2004   0027DC                     end_of_initialization:
  2005                           	callstack 0
  2006   0027DC                     __end_of__initialization:
  2007                           	callstack 0
  2008   0027DC  9001               	bcf	int$flags,0,c	;clear compiler interrupt flag (level 1)
  2009   0027DE  9201               	bcf	int$flags,1,c	;clear compiler interrupt flag (level 2)
  2010   0027E0  0E00               	movlw	low (__Lmediumconst shr (0+16))
  2011   0027E2  6EF8               	movwf	tblptru,c
  2012   0027E4  0100               	movlb	0
  2013   0027E6  EF53  F013         	goto	_main	;jump to C main() function
  2014                           
  2015                           	psect	bssCOMRAM
  2016   000002                     __pbssCOMRAM:
  2017                           	callstack 0
  2018   000002                     _p:
  2019                           	callstack 0
  2020   000002                     	ds	20
  2021   000016                     _m_led:
  2022                           	callstack 0
  2023   000016                     	ds	8
  2024   00001E                     _s:
  2025                           	callstack 0
  2026   00001E                     	ds	7
  2027                           
  2028                           	psect	dataCOMRAM
  2029   000044                     __pdataCOMRAM:
  2030                           	callstack 0
  2031   000044                     LED_1@F6269:
  2032                           	callstack 0
  2033   000044                     	ds	6
  2034   00004A                     _rr_quantum:
  2035                           	callstack 0
  2036   00004A                     	ds	1
  2037                           
  2038                           	psect	bssBIGRAM
  2039   000176                     __pbssBIGRAM:
  2040                           	callstack 0
  2041   000176                     __uDynamicHeap:
  2042                           	callstack 0
  2043   000176                     	ds	512
  2044   000376                     _r_queue:
  2045                           	callstack 0
  2046   000376                     	ds	472
  2047                           
  2048                           	psect	cstackBANK1
  2049   000100                     __pcstackBANK1:
  2050                           	callstack 0
  2051   000100                     os_create_task@id:
  2052                           	callstack 0
  2053                           
  2054                           ; 1 bytes @ 0x0
  2055   000100                     	ds	1
  2056   000101                     os_create_task@new_task:
  2057                           	callstack 0
  2058                           
  2059                           ; 117 bytes @ 0x1
  2060   000101                     	ds	117
  2061                           
  2062                           	psect	cstackBANK0
  2063   000060                     __pcstackBANK0:
  2064                           	callstack 0
  2065   000060                     ??_idle:
  2066                           
  2067                           ; 1 bytes @ 0x0
  2068   000060                     	ds	25
  2069   000079                     ?i1___awmod:
  2070                           	callstack 0
  2071   000079                     i1___awmod@dividend:
  2072                           	callstack 0
  2073                           
  2074                           ; 2 bytes @ 0x19
  2075   000079                     	ds	2
  2076   00007B                     i1___awmod@divisor:
  2077                           	callstack 0
  2078                           
  2079                           ; 2 bytes @ 0x1B
  2080   00007B                     	ds	2
  2081   00007D                     i1___awmod@counter:
  2082                           	callstack 0
  2083                           
  2084                           ; 1 bytes @ 0x1D
  2085   00007D                     	ds	1
  2086   00007E                     i1___awmod@sign:
  2087                           	callstack 0
  2088                           
  2089                           ; 1 bytes @ 0x1E
  2090   00007E                     	ds	1
  2091   00007F                     mutex_unlock@m:
  2092                           	callstack 0
  2093   00007F                     ??i1_priority_rr_scheduler:
  2094                           
  2095                           ; 1 bytes @ 0x1F
  2096   00007F                     	ds	1
  2097   000080                     i1priority_rr_scheduler@current:
  2098                           	callstack 0
  2099   000080                     ??_mutex_unlock:
  2100                           
  2101                           ; 1 bytes @ 0x20
  2102   000080                     	ds	1
  2103   000081                     i1priority_rr_scheduler@max_prio:
  2104                           	callstack 0
  2105                           
  2106                           ; 1 bytes @ 0x21
  2107   000081                     	ds	1
  2108   000082                     mutex_unlock@task_idx:
  2109                           	callstack 0
  2110   000082                     i1priority_rr_scheduler@found:
  2111                           	callstack 0
  2112                           
  2113                           ; 1 bytes @ 0x22
  2114   000082                     	ds	1
  2115   000083                     i1priority_rr_scheduler@i_1476:
  2116                           	callstack 0
  2117                           
  2118                           ; 1 bytes @ 0x23
  2119   000083                     	ds	1
  2120   000084                     i1priority_rr_scheduler@idx:
  2121                           	callstack 0
  2122                           
  2123                           ; 1 bytes @ 0x24
  2124   000084                     	ds	1
  2125   000085                     i1priority_rr_scheduler@i:
  2126                           	callstack 0
  2127                           
  2128                           ; 1 bytes @ 0x25
  2129   000085                     	ds	1
  2130   000086                     ??i1_scheduler:
  2131                           
  2132                           ; 1 bytes @ 0x26
  2133   000086                     	ds	3
  2134   000089                     mutex_lock@m:
  2135                           	callstack 0
  2136   000089                     ??_os_delay:
  2137                           
  2138                           ; 1 bytes @ 0x29
  2139   000089                     	ds	1
  2140   00008A                     ??_mutex_lock:
  2141                           
  2142                           ; 1 bytes @ 0x2A
  2143   00008A                     	ds	6
  2144   000090                     os_delay@time:
  2145                           	callstack 0
  2146                           
  2147                           ; 1 bytes @ 0x30
  2148   000090                     	ds	1
  2149   000091                     ?___awmod:
  2150                           	callstack 0
  2151   000091                     sem_init@sem:
  2152                           	callstack 0
  2153   000091                     mutex_init@m:
  2154                           	callstack 0
  2155   000091                     os_create_task@func:
  2156                           	callstack 0
  2157   000091                     ___awmod@dividend:
  2158                           	callstack 0
  2159                           
  2160                           ; 2 bytes @ 0x31
  2161   000091                     	ds	1
  2162   000092                     sem_init@valor:
  2163                           	callstack 0
  2164                           
  2165                           ; 1 bytes @ 0x32
  2166   000092                     	ds	1
  2167   000093                     os_create_task@prior:
  2168                           	callstack 0
  2169   000093                     ___awmod@divisor:
  2170                           	callstack 0
  2171   000093                     ??_sem_init:
  2172                           
  2173                           ; 1 bytes @ 0x33
  2174   000093                     	ds	1
  2175   000094                     ??_os_create_task:
  2176                           
  2177                           ; 1 bytes @ 0x34
  2178   000094                     	ds	1
  2179   000095                     pipe_init@p:
  2180                           	callstack 0
  2181   000095                     ___awmod@counter:
  2182                           	callstack 0
  2183                           
  2184                           ; 1 bytes @ 0x35
  2185   000095                     	ds	1
  2186   000096                     ___awmod@sign:
  2187                           	callstack 0
  2188                           
  2189                           ; 1 bytes @ 0x36
  2190   000096                     	ds	1
  2191   000097                     ??_priority_rr_scheduler:
  2192                           
  2193                           ; 1 bytes @ 0x37
  2194   000097                     	ds	1
  2195   000098                     priority_rr_scheduler@current:
  2196                           	callstack 0
  2197                           
  2198                           ; 1 bytes @ 0x38
  2199   000098                     	ds	1
  2200   000099                     priority_rr_scheduler@max_prio:
  2201                           	callstack 0
  2202                           
  2203                           ; 1 bytes @ 0x39
  2204   000099                     	ds	1
  2205   00009A                     priority_rr_scheduler@found:
  2206                           	callstack 0
  2207                           
  2208                           ; 1 bytes @ 0x3A
  2209   00009A                     	ds	1
  2210   00009B                     priority_rr_scheduler@i_1476:
  2211                           	callstack 0
  2212                           
  2213                           ; 1 bytes @ 0x3B
  2214   00009B                     	ds	1
  2215   00009C                     priority_rr_scheduler@idx:
  2216                           	callstack 0
  2217                           
  2218                           ; 1 bytes @ 0x3C
  2219   00009C                     	ds	1
  2220   00009D                     priority_rr_scheduler@i:
  2221                           	callstack 0
  2222                           
  2223                           ; 1 bytes @ 0x3D
  2224   00009D                     	ds	1
  2225   00009E                     ??_scheduler:
  2226                           
  2227                           ; 1 bytes @ 0x3E
  2228   00009E                     	ds	3
  2229   0000A1                     ??_os_start:
  2230                           
  2231                           ; 1 bytes @ 0x41
  2232   0000A1                     	ds	7
  2233                           
  2234                           	psect	cstackCOMRAM
  2235   000025                     __pcstackCOMRAM:
  2236                           	callstack 0
  2237   000025                     ?i2___awmod:
  2238                           	callstack 0
  2239   000025                     i2___awmod@dividend:
  2240                           	callstack 0
  2241   000025                     
  2242                           ; 1 bytes @ 0x0
  2243   000025                     	ds	2
  2244   000027                     i2___awmod@divisor:
  2245                           	callstack 0
  2246                           
  2247                           ; 2 bytes @ 0x2
  2248   000027                     	ds	2
  2249   000029                     i2___awmod@counter:
  2250                           	callstack 0
  2251   000029                     
  2252                           ; 1 bytes @ 0x4
  2253   000029                     	ds	1
  2254   00002A                     i2___awmod@sign:
  2255                           	callstack 0
  2256                           
  2257                           ; 1 bytes @ 0x5
  2258   00002A                     	ds	1
  2259   00002B                     ??i2_priority_rr_scheduler:
  2260                           
  2261                           ; 1 bytes @ 0x6
  2262   00002B                     	ds	1
  2263   00002C                     i2priority_rr_scheduler@current:
  2264                           	callstack 0
  2265                           
  2266                           ; 1 bytes @ 0x7
  2267   00002C                     	ds	1
  2268   00002D                     i2priority_rr_scheduler@max_prio:
  2269                           	callstack 0
  2270                           
  2271                           ; 1 bytes @ 0x8
  2272   00002D                     	ds	1
  2273   00002E                     i2priority_rr_scheduler@found:
  2274                           	callstack 0
  2275                           
  2276                           ; 1 bytes @ 0x9
  2277   00002E                     	ds	1
  2278   00002F                     i2priority_rr_scheduler@i_1476:
  2279                           	callstack 0
  2280                           
  2281                           ; 1 bytes @ 0xA
  2282   00002F                     	ds	1
  2283   000030                     i2priority_rr_scheduler@idx:
  2284                           	callstack 0
  2285                           
  2286                           ; 1 bytes @ 0xB
  2287   000030                     	ds	1
  2288   000031                     i2priority_rr_scheduler@i:
  2289                           	callstack 0
  2290                           
  2291                           ; 1 bytes @ 0xC
  2292   000031                     	ds	1
  2293   000032                     ??i2_scheduler:
  2294                           
  2295                           ; 1 bytes @ 0xD
  2296   000032                     	ds	3
  2297   000035                     ??_ISR:
  2298                           
  2299                           ; 1 bytes @ 0x10
  2300   000035                     	ds	13
  2301   000042                     ISR@i:
  2302                           	callstack 0
  2303                           
  2304                           ; 2 bytes @ 0x1D
  2305   000042                     	ds	2
  2306                           
  2307 ;;
  2308 ;;Main: autosize = 0, tempsize = 0, incstack = 0, save=0
  2309 ;;
  2310 ;; *************** function _main *****************
  2311 ;; Defined at:
  2312 ;;		line 8 in file "main.c"
  2313 ;; Parameters:    Size  Location     Type
  2314 ;;		None
  2315 ;; Auto vars:     Size  Location     Type
  2316 ;;		None
  2317 ;; Return value:  Size  Location     Type
  2318 ;;                  2   22[None  ] int 
  2319 ;; Registers used:
  2320 ;;		wreg, fsr1l, fsr1h, fsr2l, fsr2h, status,2, status,0, prodl, prodh, cstack
  2321 ;; Tracked objects:
  2322 ;;		On entry : 0/0
  2323 ;;		On exit  : 0/0
  2324 ;;		Unchanged: 0/0
  2325 ;; Data sizes:     COMRAM   BANK0   BANK1   BANK2   BANK3   BANK4   BANK5   BANK6   BANK7   BANK8   BANK9  BANK10  BANK1
      +1  BANK12  BANK13  BANK14  BANK15
  2326 ;;      Params:         0       0       0       0       0       0       0       0       0       0       0       0       
      +0       0       0       0       0
  2327 ;;      Locals:         0       0       0       0       0       0       0       0       0       0       0       0       
      +0       0       0       0       0
  2328 ;;      Temps:          0       0       0       0       0       0       0       0       0       0       0       0       
      +0       0       0       0       0
  2329 ;;      Totals:         0       0       0       0       0       0       0       0       0       0       0       0       
      +0       0       0       0       0
  2330 ;;Total ram usage:        0 bytes
  2331 ;; Hardware stack levels required when called: 13
  2332 ;; This function calls:
  2333 ;;		_os_config
  2334 ;;		_os_create_task
  2335 ;;		_os_start
  2336 ;; This function is called by:
  2337 ;;		Startup code after reset
  2338 ;; This function uses a non-reentrant model
  2339 ;;
  2340                           
  2341                           	psect	text0
  2342   0026A6                     __ptext0:
  2343                           	callstack 0
  2344   0026A6                     _main:
  2345                           	callstack 18
  2346   0026A6                     
  2347                           ;main.c: 9:     os_config();
  2348   0026A6  EC30  F014         	call	_os_config	;wreg free
  2349                           
  2350                           ;main.c: 15:     os_create_task(2, LED_1, 5);
  2351   0026AA  0E00               	movlw	0
  2352   0026AC  0100               	movlb	0	; () banked
  2353   0026AE  6F91               	movwf	os_create_task@func& (0+255),b
  2354   0026B0  0E00               	movlw	0
  2355   0026B2  6F92               	movwf	(os_create_task@func+1)& (0+255),b
  2356   0026B4  0E05               	movlw	5
  2357   0026B6  6F93               	movwf	os_create_task@prior& (0+255),b
  2358   0026B8  0E02               	movlw	2
  2359   0026BA  EC97  F013         	call	_os_create_task
  2360                           
  2361                           ;main.c: 16:     os_create_task(3, LED_2, 5);
  2362   0026BE  0E00               	movlw	0
  2363   0026C0  0100               	movlb	0	; () banked
  2364   0026C2  6F91               	movwf	os_create_task@func& (0+255),b
  2365   0026C4  0E00               	movlw	0
  2366   0026C6  6F92               	movwf	(os_create_task@func+1)& (0+255),b
  2367   0026C8  0E05               	movlw	5
  2368   0026CA  6F93               	movwf	os_create_task@prior& (0+255),b
  2369   0026CC  0E03               	movlw	3
  2370   0026CE  EC97  F013         	call	_os_create_task
  2371                           
  2372                           ;main.c: 17:     os_create_task(4, LED_3, 5);
  2373   0026D2  0E00               	movlw	0
  2374   0026D4  0100               	movlb	0	; () banked
  2375   0026D6  6F91               	movwf	os_create_task@func& (0+255),b
  2376   0026D8  0E00               	movlw	0
  2377   0026DA  6F92               	movwf	(os_create_task@func+1)& (0+255),b
  2378   0026DC  0E05               	movlw	5
  2379   0026DE  6F93               	movwf	os_create_task@prior& (0+255),b
  2380   0026E0  0E04               	movlw	4
  2381   0026E2  EC97  F013         	call	_os_create_task
  2382                           
  2383                           ;main.c: 25:         os_create_task(2, LED_1_prio, 3);
  2384   0026E6  0E00               	movlw	0
  2385   0026E8  0100               	movlb	0	; () banked
  2386   0026EA  6F91               	movwf	os_create_task@func& (0+255),b
  2387   0026EC  0E00               	movlw	0
  2388   0026EE  6F92               	movwf	(os_create_task@func+1)& (0+255),b
  2389   0026F0  0E03               	movlw	3
  2390   0026F2  6F93               	movwf	os_create_task@prior& (0+255),b
  2391   0026F4  0E02               	movlw	2
  2392   0026F6  EC97  F013         	call	_os_create_task
  2393                           
  2394                           ;main.c: 26:         os_create_task(3, LED_2_prio, 3);
  2395   0026FA  0E00               	movlw	0
  2396   0026FC  0100               	movlb	0	; () banked
  2397   0026FE  6F91               	movwf	os_create_task@func& (0+255),b
  2398   002700  0E00               	movlw	0
  2399   002702  6F92               	movwf	(os_create_task@func+1)& (0+255),b
  2400   002704  0E03               	movlw	3
  2401   002706  6F93               	movwf	os_create_task@prior& (0+255),b
  2402   002708  0E03               	movlw	3
  2403   00270A  EC97  F013         	call	_os_create_task
  2404                           
  2405                           ;main.c: 27:         os_create_task(4, LED_3_prio, 3);
  2406   00270E  0E00               	movlw	0
  2407   002710  0100               	movlb	0	; () banked
  2408   002712  6F91               	movwf	os_create_task@func& (0+255),b
  2409   002714  0E00               	movlw	0
  2410   002716  6F92               	movwf	(os_create_task@func+1)& (0+255),b
  2411   002718  0E03               	movlw	3
  2412   00271A  6F93               	movwf	os_create_task@prior& (0+255),b
  2413   00271C  0E04               	movlw	4
  2414   00271E  EC97  F013         	call	_os_create_task
  2415                           
  2416                           ;main.c: 29:     os_start();
  2417   002722  EC55  F00E         	call	_os_start	;wreg free
  2418   002726                     l23:
  2419   002726  EF93  F013         	goto	l23
  2420   00272A  EF8D  F003         	goto	start
  2421   00272E                     __end_of_main:
  2422                           	callstack 0
  2423                           
  2424 ;; *************** function _os_start *****************
  2425 ;; Defined at:
  2426 ;;		line 79 in file "kernel.c"
  2427 ;; Parameters:    Size  Location     Type
  2428 ;;		None
  2429 ;; Auto vars:     Size  Location     Type
  2430 ;;		None
  2431 ;; Return value:  Size  Location     Type
  2432 ;;                  1    wreg      void 
  2433 ;; Registers used:
  2434 ;;		wreg, fsr1l, fsr1h, fsr2l, fsr2h, status,2, status,0, prodl, prodh, cstack
  2435 ;; Tracked objects:
  2436 ;;		On entry : 0/0
  2437 ;;		On exit  : 0/0
  2438 ;;		Unchanged: 0/0
  2439 ;; Data sizes:     COMRAM   BANK0   BANK1   BANK2   BANK3   BANK4   BANK5   BANK6   BANK7   BANK8   BANK9  BANK10  BANK1
      +1  BANK12  BANK13  BANK14  BANK15
  2440 ;;      Params:         0       0       0       0       0       0       0       0       0       0       0       0       
      +0       0       0       0       0
  2441 ;;      Locals:         0       0       0       0       0       0       0       0       0       0       0       0       
      +0       0       0       0       0
  2442 ;;      Temps:          0       7       0       0       0       0       0       0       0       0       0       0       
      +0       0       0       0       0
  2443 ;;      Totals:         0       7       0       0       0       0       0       0       0       0       0       0       
      +0       0       0       0       0
  2444 ;;Total ram usage:        7 bytes
  2445 ;; Hardware stack levels used: 1
  2446 ;; Hardware stack levels required when called: 12
  2447 ;; This function calls:
  2448 ;;		_scheduler
  2449 ;;		_setup_hardware
  2450 ;; This function is called by:
  2451 ;;		_main
  2452 ;; This function uses a non-reentrant model
  2453 ;;
  2454                           
  2455                           	psect	text1
  2456   001CAA                     __ptext1:
  2457                           	callstack 0
  2458   001CAA                     _os_start:
  2459                           	callstack 18
  2460   001CAA                     
  2461                           ;kernel.c: 81:     setup_hardware();
  2462   001CAA  ECF1  F014         	call	_setup_hardware	;wreg free
  2463   001CAE                     
  2464                           ;kernel.c: 82:     scheduler();
  2465   001CAE  EC7A  F014         	call	_scheduler	;wreg free
  2466   001CB2  EE25  F04B         	lfsr	2,_r_queue+469
  2467   001CB6  EE10 F001          	lfsr	1,1
  2468   001CBA  50DE               	movf	postinc2,w,c
  2469   001CBC  26E1               	addwf	fsr1l,f,c
  2470   001CBE  50DD               	movf	postdec2,w,c
  2471   001CC0  22E2               	addwfc	fsr1h,f,c
  2472   001CC2  50E7               	movf	indf1,w,c
  2473   001CC4  A4D8               	btfss	status,2,c
  2474   001CC6  EF67  F00E         	goto	u1651
  2475   001CCA  EF69  F00E         	goto	u1650
  2476   001CCE                     u1651:
  2477   001CCE  EF00  F010         	goto	l2564
  2478   001CD2                     u1650:
  2479   001CD2  EE25  F04B         	lfsr	2,_r_queue+469
  2480   001CD6  EE10 F001          	lfsr	1,1
  2481   001CDA  50DE               	movf	postinc2,w,c
  2482   001CDC  26E1               	addwf	fsr1l,f,c
  2483   001CDE  50DD               	movf	postdec2,w,c
  2484   001CE0  22E2               	addwfc	fsr1h,f,c
  2485   001CE2  0E02               	movlw	2
  2486   001CE4  6EE7               	movwf	indf1,c
  2487   001CE6  EE25  F04B         	lfsr	2,_r_queue+469
  2488   001CEA  EE10 F008          	lfsr	1,8
  2489   001CEE  50DE               	movf	postinc2,w,c
  2490   001CF0  26E1               	addwf	fsr1l,f,c
  2491   001CF2  50DD               	movf	postdec2,w,c
  2492   001CF4  22E2               	addwfc	fsr1h,f,c
  2493   001CF6  50E7               	movf	indf1,w,c
  2494   001CF8  6EE0               	movwf	224,c	;volatile
  2495   001CFA  EE25  F04B         	lfsr	2,_r_queue+469
  2496   001CFE  EE10 F00C          	lfsr	1,12
  2497   001D02  50DE               	movf	postinc2,w,c
  2498   001D04  26E1               	addwf	fsr1l,f,c
  2499   001D06  50DD               	movf	postdec2,w,c
  2500   001D08  22E2               	addwfc	fsr1h,f,c
  2501   001D0A  50E7               	movf	indf1,w,c
  2502   001D0C  6EEA               	movwf	234,c	;volatile
  2503   001D0E  EE25  F04B         	lfsr	2,_r_queue+469
  2504   001D12  EE10 F00B          	lfsr	1,11
  2505   001D16  50DE               	movf	postinc2,w,c
  2506   001D18  26E1               	addwf	fsr1l,f,c
  2507   001D1A  50DD               	movf	postdec2,w,c
  2508   001D1C  22E2               	addwfc	fsr1h,f,c
  2509   001D1E  50E7               	movf	indf1,w,c
  2510   001D20  6EE9               	movwf	233,c	;volatile
  2511   001D22  EE25  F04B         	lfsr	2,_r_queue+469
  2512   001D26  EE10 F00E          	lfsr	1,14
  2513   001D2A  50DE               	movf	postinc2,w,c
  2514   001D2C  26E1               	addwf	fsr1l,f,c
  2515   001D2E  50DD               	movf	postdec2,w,c
  2516   001D30  22E2               	addwfc	fsr1h,f,c
  2517   001D32  50E7               	movf	indf1,w,c
  2518   001D34  6EE2               	movwf	226,c	;volatile
  2519   001D36  EE25  F04B         	lfsr	2,_r_queue+469
  2520   001D3A  EE10 F00D          	lfsr	1,13
  2521   001D3E  50DE               	movf	postinc2,w,c
  2522   001D40  26E1               	addwf	fsr1l,f,c
  2523   001D42  50DD               	movf	postdec2,w,c
  2524   001D44  22E2               	addwfc	fsr1h,f,c
  2525   001D46  50E7               	movf	indf1,w,c
  2526   001D48  6EE1               	movwf	225,c	;volatile
  2527   001D4A  EE25  F04B         	lfsr	2,_r_queue+469
  2528   001D4E  EE10 F010          	lfsr	1,16
  2529   001D52  50DE               	movf	postinc2,w,c
  2530   001D54  26E1               	addwf	fsr1l,f,c
  2531   001D56  50DD               	movf	postdec2,w,c
  2532   001D58  22E2               	addwfc	fsr1h,f,c
  2533   001D5A  50E7               	movf	indf1,w,c
  2534   001D5C  6EDA               	movwf	218,c	;volatile
  2535   001D5E  EE25  F04B         	lfsr	2,_r_queue+469
  2536   001D62  EE10 F00F          	lfsr	1,15
  2537   001D66  50DE               	movf	postinc2,w,c
  2538   001D68  26E1               	addwf	fsr1l,f,c
  2539   001D6A  50DD               	movf	postdec2,w,c
  2540   001D6C  22E2               	addwfc	fsr1h,f,c
  2541   001D6E  50E7               	movf	indf1,w,c
  2542   001D70  6ED9               	movwf	217,c	;volatile
  2543   001D72  EE25  F04B         	lfsr	2,_r_queue+469
  2544   001D76  EE10 F015          	lfsr	1,21
  2545   001D7A  50DE               	movf	postinc2,w,c
  2546   001D7C  26E1               	addwf	fsr1l,f,c
  2547   001D7E  50DD               	movf	postdec2,w,c
  2548   001D80  22E2               	addwfc	fsr1h,f,c
  2549   001D82  50E7               	movf	indf1,w,c
  2550   001D84  6EFA               	movwf	250,c	;volatile
  2551   001D86  EE25  F04B         	lfsr	2,_r_queue+469
  2552   001D8A  EE10 F016          	lfsr	1,22
  2553   001D8E  50DE               	movf	postinc2,w,c
  2554   001D90  26E1               	addwf	fsr1l,f,c
  2555   001D92  50DD               	movf	postdec2,w,c
  2556   001D94  22E2               	addwfc	fsr1h,f,c
  2557   001D96  50E7               	movf	indf1,w,c
  2558   001D98  6EFB               	movwf	251,c	;volatile
  2559   001D9A  EE25  F04B         	lfsr	2,_r_queue+469
  2560   001D9E  EE10 F00A          	lfsr	1,10
  2561   001DA2  50DE               	movf	postinc2,w,c
  2562   001DA4  26E1               	addwf	fsr1l,f,c
  2563   001DA6  50DD               	movf	postdec2,w,c
  2564   001DA8  22E2               	addwfc	fsr1h,f,c
  2565   001DAA  50E7               	movf	indf1,w,c
  2566   001DAC  6EF4               	movwf	244,c	;volatile
  2567   001DAE  EE25  F04B         	lfsr	2,_r_queue+469
  2568   001DB2  EE10 F009          	lfsr	1,9
  2569   001DB6  50DE               	movf	postinc2,w,c
  2570   001DB8  26E1               	addwf	fsr1l,f,c
  2571   001DBA  50DD               	movf	postdec2,w,c
  2572   001DBC  22E2               	addwfc	fsr1h,f,c
  2573   001DBE  50E7               	movf	indf1,w,c
  2574   001DC0  6EF3               	movwf	243,c	;volatile
  2575   001DC2  EE25  F04B         	lfsr	2,_r_queue+469
  2576   001DC6  EE10 F011          	lfsr	1,17
  2577   001DCA  50DE               	movf	postinc2,w,c
  2578   001DCC  26E1               	addwf	fsr1l,f,c
  2579   001DCE  50DD               	movf	postdec2,w,c
  2580   001DD0  22E2               	addwfc	fsr1h,f,c
  2581   001DD2  50E7               	movf	indf1,w,c
  2582   001DD4  6EF5               	movwf	245,c	;volatile
  2583   001DD6  EE25  F04B         	lfsr	2,_r_queue+469
  2584   001DDA  EE10 F013          	lfsr	1,19
  2585   001DDE  50DE               	movf	postinc2,w,c
  2586   001DE0  26E1               	addwf	fsr1l,f,c
  2587   001DE2  50DD               	movf	postdec2,w,c
  2588   001DE4  22E2               	addwfc	fsr1h,f,c
  2589   001DE6  50E7               	movf	indf1,w,c
  2590   001DE8  6EF7               	movwf	247,c	;volatile
  2591   001DEA  EE25  F04B         	lfsr	2,_r_queue+469
  2592   001DEE  EE10 F012          	lfsr	1,18
  2593   001DF2  50DE               	movf	postinc2,w,c
  2594   001DF4  26E1               	addwf	fsr1l,f,c
  2595   001DF6  50DD               	movf	postdec2,w,c
  2596   001DF8  22E2               	addwfc	fsr1h,f,c
  2597   001DFA  50E7               	movf	indf1,w,c
  2598   001DFC  6EF6               	movwf	246,c	;volatile
  2599   001DFE  EE25  F04B         	lfsr	2,_r_queue+469
  2600   001E02  EE10 F014          	lfsr	1,20
  2601   001E06  50DE               	movf	postinc2,w,c
  2602   001E08  26E1               	addwf	fsr1l,f,c
  2603   001E0A  50DD               	movf	postdec2,w,c
  2604   001E0C  22E2               	addwfc	fsr1h,f,c
  2605   001E0E  50E7               	movf	indf1,w,c
  2606   001E10  6EF8               	movwf	248,c	;volatile
  2607   001E12  EE25  F04B         	lfsr	2,_r_queue+469
  2608   001E16  EE10 F007          	lfsr	1,7
  2609   001E1A  50DE               	movf	postinc2,w,c
  2610   001E1C  26E1               	addwf	fsr1l,f,c
  2611   001E1E  50DD               	movf	postdec2,w,c
  2612   001E20  22E2               	addwfc	fsr1h,f,c
  2613   001E22  50E7               	movf	indf1,w,c
  2614   001E24  6ED8               	movwf	216,c	;volatile
  2615   001E26  EE25  F04B         	lfsr	2,_r_queue+469
  2616   001E2A  EE10 F006          	lfsr	1,6
  2617   001E2E  50DE               	movf	postinc2,w,c
  2618   001E30  26E1               	addwf	fsr1l,f,c
  2619   001E32  50DD               	movf	postdec2,w,c
  2620   001E34  22E2               	addwfc	fsr1h,f,c
  2621   001E36  50E7               	movf	indf1,w,c
  2622   001E38  0100               	movlb	0	; () banked
  2623   001E3A  6FA1               	movwf	??_os_start& (0+255),b
  2624   001E3C  51A1               	movf	??_os_start& (0+255),w,b
  2625   001E3E                     
  2626                           ; BSR set to: 0
  2627   001E3E  6AFC               	clrf	252,c	;volatile
  2628   001E40  EE25  F04B         	lfsr	2,_r_queue+469
  2629   001E44  EE10 F074          	lfsr	1,116
  2630   001E48  50DE               	movf	postinc2,w,c
  2631   001E4A  26E1               	addwf	fsr1l,f,c
  2632   001E4C  50DD               	movf	postdec2,w,c
  2633   001E4E  22E2               	addwfc	fsr1h,f,c
  2634   001E50  50E7               	movf	indf1,w,c
  2635   001E52  B4D8               	btfsc	status,2,c
  2636   001E54  EF2E  F00F         	goto	u1661
  2637   001E58  EF30  F00F         	goto	u1660
  2638   001E5C                     u1661:
  2639   001E5C  EFB9  F00F         	goto	l129
  2640   001E60                     u1660:
  2641   001E60                     l130:
  2642                           
  2643                           ; BSR set to: 0
  2644   001E60  0005               	push		;# 
  2645   001E62  EE25  F04B         	lfsr	2,_r_queue+469
  2646   001E66  EE10 F074          	lfsr	1,116
  2647   001E6A  50DE               	movf	postinc2,w,c
  2648   001E6C  26E1               	addwf	fsr1l,f,c
  2649   001E6E  50DD               	movf	postdec2,w,c
  2650   001E70  22E2               	addwfc	fsr1h,f,c
  2651   001E72  06E7               	decf	indf1,f,c
  2652   001E74  EE25  F04B         	lfsr	2,_r_queue+469
  2653   001E78  EE10 F074          	lfsr	1,116
  2654   001E7C  50DE               	movf	postinc2,w,c
  2655   001E7E  26E1               	addwf	fsr1l,f,c
  2656   001E80  50DD               	movf	postdec2,w,c
  2657   001E82  22E2               	addwfc	fsr1h,f,c
  2658   001E84  50E7               	movf	indf1,w,c
  2659   001E86  0100               	movlb	0	; () banked
  2660   001E88  6FA1               	movwf	??_os_start& (0+255),b
  2661   001E8A  51A1               	movf	??_os_start& (0+255),w,b
  2662   001E8C  0D03               	mullw	3
  2663   001E8E  CFF3 F0A2          	movff	prodl,??_os_start+1
  2664   001E92  CFF4 F0A3          	movff	prodh,??_os_start+2
  2665   001E96  EE25  F04B         	lfsr	2,_r_queue+469
  2666   001E9A  CFDE F0A4          	movff	postinc2,??_os_start+3
  2667   001E9E  CFDD F0A5          	movff	postdec2,??_os_start+4
  2668   001EA2  51A2               	movf	(??_os_start+1)& (0+255),w,b
  2669   001EA4  25A4               	addwf	(??_os_start+3)& (0+255),w,b
  2670   001EA6  6FA6               	movwf	(??_os_start+5)& (0+255),b
  2671   001EA8  51A3               	movf	(??_os_start+2)& (0+255),w,b
  2672   001EAA  21A5               	addwfc	(??_os_start+4)& (0+255),w,b
  2673   001EAC  6FA7               	movwf	(??_os_start+6)& (0+255),b
  2674   001EAE  0E17               	movlw	23
  2675   001EB0  25A6               	addwf	(??_os_start+5)& (0+255),w,b
  2676   001EB2  6ED9               	movwf	fsr2l,c
  2677   001EB4  0E00               	movlw	0
  2678   001EB6  21A7               	addwfc	(??_os_start+6)& (0+255),w,b
  2679   001EB8  6EDA               	movwf	fsr2h,c
  2680   001EBA  50DF               	movf	indf2,w,c
  2681   001EBC  6EFD               	movwf	253,c	;volatile
  2682   001EBE                     
  2683                           ; BSR set to: 0
  2684   001EBE  EE25  F04B         	lfsr	2,_r_queue+469
  2685   001EC2  EE10 F074          	lfsr	1,116
  2686   001EC6  50DE               	movf	postinc2,w,c
  2687   001EC8  26E1               	addwf	fsr1l,f,c
  2688   001ECA  50DD               	movf	postdec2,w,c
  2689   001ECC  22E2               	addwfc	fsr1h,f,c
  2690   001ECE  50E7               	movf	indf1,w,c
  2691   001ED0  6FA1               	movwf	??_os_start& (0+255),b
  2692   001ED2  51A1               	movf	??_os_start& (0+255),w,b
  2693   001ED4  0D03               	mullw	3
  2694   001ED6  CFF3 F0A2          	movff	prodl,??_os_start+1
  2695   001EDA  CFF4 F0A3          	movff	prodh,??_os_start+2
  2696   001EDE  EE25  F04B         	lfsr	2,_r_queue+469
  2697   001EE2  CFDE F0A4          	movff	postinc2,??_os_start+3
  2698   001EE6  CFDD F0A5          	movff	postdec2,??_os_start+4
  2699   001EEA  51A2               	movf	(??_os_start+1)& (0+255),w,b
  2700   001EEC  25A4               	addwf	(??_os_start+3)& (0+255),w,b
  2701   001EEE  6FA6               	movwf	(??_os_start+5)& (0+255),b
  2702   001EF0  51A3               	movf	(??_os_start+2)& (0+255),w,b
  2703   001EF2  21A5               	addwfc	(??_os_start+4)& (0+255),w,b
  2704   001EF4  6FA7               	movwf	(??_os_start+6)& (0+255),b
  2705   001EF6  0E18               	movlw	24
  2706   001EF8  25A6               	addwf	(??_os_start+5)& (0+255),w,b
  2707   001EFA  6ED9               	movwf	fsr2l,c
  2708   001EFC  0E00               	movlw	0
  2709   001EFE  21A7               	addwfc	(??_os_start+6)& (0+255),w,b
  2710   001F00  6EDA               	movwf	fsr2h,c
  2711   001F02  50DF               	movf	indf2,w,c
  2712   001F04  6EFE               	movwf	254,c	;volatile
  2713   001F06                     
  2714                           ; BSR set to: 0
  2715   001F06  EE25  F04B         	lfsr	2,_r_queue+469
  2716   001F0A  EE10 F074          	lfsr	1,116
  2717   001F0E  50DE               	movf	postinc2,w,c
  2718   001F10  26E1               	addwf	fsr1l,f,c
  2719   001F12  50DD               	movf	postdec2,w,c
  2720   001F14  22E2               	addwfc	fsr1h,f,c
  2721   001F16  50E7               	movf	indf1,w,c
  2722   001F18  6FA1               	movwf	??_os_start& (0+255),b
  2723   001F1A  51A1               	movf	??_os_start& (0+255),w,b
  2724   001F1C  0D03               	mullw	3
  2725   001F1E  CFF3 F0A2          	movff	prodl,??_os_start+1
  2726   001F22  CFF4 F0A3          	movff	prodh,??_os_start+2
  2727   001F26  EE25  F04B         	lfsr	2,_r_queue+469
  2728   001F2A  CFDE F0A4          	movff	postinc2,??_os_start+3
  2729   001F2E  CFDD F0A5          	movff	postdec2,??_os_start+4
  2730   001F32  51A2               	movf	(??_os_start+1)& (0+255),w,b
  2731   001F34  25A4               	addwf	(??_os_start+3)& (0+255),w,b
  2732   001F36  6FA6               	movwf	(??_os_start+5)& (0+255),b
  2733   001F38  51A3               	movf	(??_os_start+2)& (0+255),w,b
  2734   001F3A  21A5               	addwfc	(??_os_start+4)& (0+255),w,b
  2735   001F3C  6FA7               	movwf	(??_os_start+6)& (0+255),b
  2736   001F3E  0E19               	movlw	25
  2737   001F40  25A6               	addwf	(??_os_start+5)& (0+255),w,b
  2738   001F42  6ED9               	movwf	fsr2l,c
  2739   001F44  0E00               	movlw	0
  2740   001F46  21A7               	addwfc	(??_os_start+6)& (0+255),w,b
  2741   001F48  6EDA               	movwf	fsr2h,c
  2742   001F4A  50DF               	movf	indf2,w,c
  2743   001F4C  6EFF               	movwf	255,c	;volatile
  2744   001F4E                     
  2745                           ; BSR set to: 0
  2746   001F4E  EE25  F04B         	lfsr	2,_r_queue+469
  2747   001F52  EE10 F074          	lfsr	1,116
  2748   001F56  50DE               	movf	postinc2,w,c
  2749   001F58  26E1               	addwf	fsr1l,f,c
  2750   001F5A  50DD               	movf	postdec2,w,c
  2751   001F5C  22E2               	addwfc	fsr1h,f,c
  2752   001F5E  50E7               	movf	indf1,w,c
  2753   001F60  A4D8               	btfss	status,2,c
  2754   001F62  EFB5  F00F         	goto	u1671
  2755   001F66  EFB7  F00F         	goto	u1670
  2756   001F6A                     u1671:
  2757   001F6A  EF30  F00F         	goto	l130
  2758   001F6E                     u1670:
  2759   001F6E  EFFE  F00F         	goto	l2562
  2760   001F72                     l129:
  2761                           
  2762                           ; BSR set to: 0
  2763   001F72  0005               	push		;# 
  2764   001F74  EE25  F04B         	lfsr	2,_r_queue+469
  2765   001F78  EE10 F002          	lfsr	1,2
  2766   001F7C  50DE               	movf	postinc2,w,c
  2767   001F7E  26E1               	addwf	fsr1l,f,c
  2768   001F80  50DD               	movf	postdec2,w,c
  2769   001F82  22E2               	addwfc	fsr1h,f,c
  2770   001F84  50E7               	movf	indf1,w,c
  2771   001F86  6EFD               	movwf	253,c	;volatile
  2772   001F88  EE25  F04B         	lfsr	2,_r_queue+469
  2773   001F8C  EE10 F002          	lfsr	1,2
  2774   001F90  50DE               	movf	postinc2,w,c
  2775   001F92  26E1               	addwf	fsr1l,f,c
  2776   001F94  50DD               	movf	postdec2,w,c
  2777   001F96  22E2               	addwfc	fsr1h,f,c
  2778   001F98  CFE6 F0A1          	movff	postinc1,??_os_start
  2779   001F9C  CFE5 F0A2          	movff	postdec1,??_os_start+1
  2780   001FA0  C0A1  F0A3         	movff	??_os_start,??_os_start+2
  2781   001FA4  C0A2  F0A4         	movff	??_os_start+1,??_os_start+3
  2782   001FA8  0100               	movlb	0	; () banked
  2783   001FAA  6BA5               	clrf	(??_os_start+4)& (0+255),b
  2784   001FAC  C0A4  F0A3         	movff	??_os_start+3,??_os_start+2
  2785   001FB0  C0A5  F0A4         	movff	??_os_start+4,??_os_start+3
  2786   001FB4  6BA5               	clrf	(??_os_start+4)& (0+255),b
  2787   001FB6  51A3               	movf	(??_os_start+2)& (0+255),w,b
  2788   001FB8  6EFE               	movwf	254,c	;volatile
  2789   001FBA  0E10               	movlw	16
  2790   001FBC  6FA1               	movwf	??_os_start& (0+255),b
  2791   001FBE  EE25  F04B         	lfsr	2,_r_queue+469
  2792   001FC2  EE10 F002          	lfsr	1,2
  2793   001FC6  50DE               	movf	postinc2,w,c
  2794   001FC8  26E1               	addwf	fsr1l,f,c
  2795   001FCA  50DD               	movf	postdec2,w,c
  2796   001FCC  22E2               	addwfc	fsr1h,f,c
  2797   001FCE  CFE6 F0A2          	movff	postinc1,??_os_start+1
  2798   001FD2  CFE5 F0A3          	movff	postdec1,??_os_start+2
  2799   001FD6  C0A2  F0A4         	movff	??_os_start+1,??_os_start+3
  2800   001FDA  C0A3  F0A5         	movff	??_os_start+2,??_os_start+4
  2801   001FDE  6BA6               	clrf	(??_os_start+5)& (0+255),b
  2802   001FE0  29A1               	incf	??_os_start& (0+255),w,b
  2803   001FE2  6FA7               	movwf	(??_os_start+6)& (0+255),b
  2804   001FE4  EFF8  F00F         	goto	u1680
  2805   001FE8                     u1685:
  2806   001FE8  90D8               	bcf	status,0,c
  2807   001FEA  33A6               	rrcf	(??_os_start+5)& (0+255),f,b
  2808   001FEC  33A5               	rrcf	(??_os_start+4)& (0+255),f,b
  2809   001FEE  33A4               	rrcf	(??_os_start+3)& (0+255),f,b
  2810   001FF0                     u1680:
  2811   001FF0  2FA7               	decfsz	(??_os_start+6)& (0+255),f,b
  2812   001FF2  EFF4  F00F         	goto	u1685
  2813   001FF6  0100               	movlb	0	; () banked
  2814   001FF8  51A4               	movf	(??_os_start+3)& (0+255),w,b
  2815   001FFA  6EFF               	movwf	255,c	;volatile
  2816   001FFC                     l2562:
  2817                           
  2818                           ; BSR set to: 0
  2819   001FFC  0E14               	movlw	20
  2820   001FFE  6E4A               	movwf	_rr_quantum^0,c
  2821   002000                     l2564:
  2822                           
  2823                           ;kernel.c: 84:     INTCONbits.GIE = 1;;
  2824   002000  8EF2               	bsf	242,7,c	;volatile
  2825   002002  0012               	return		;funcret
  2826   002004                     __end_of_os_start:
  2827                           	callstack 0
  2828                           
  2829 ;; *************** function _setup_hardware *****************
  2830 ;; Defined at:
  2831 ;;		line 10 in file "hw.c"
  2832 ;; Parameters:    Size  Location     Type
  2833 ;;		None
  2834 ;; Auto vars:     Size  Location     Type
  2835 ;;		None
  2836 ;; Return value:  Size  Location     Type
  2837 ;;                  1    wreg      void 
  2838 ;; Registers used:
  2839 ;;		wreg, status,2
  2840 ;; Tracked objects:
  2841 ;;		On entry : 0/0
  2842 ;;		On exit  : 0/0
  2843 ;;		Unchanged: 0/0
  2844 ;; Data sizes:     COMRAM   BANK0   BANK1   BANK2   BANK3   BANK4   BANK5   BANK6   BANK7   BANK8   BANK9  BANK10  BANK1
      +1  BANK12  BANK13  BANK14  BANK15
  2845 ;;      Params:         0       0       0       0       0       0       0       0       0       0       0       0       
      +0       0       0       0       0
  2846 ;;      Locals:         0       0       0       0       0       0       0       0       0       0       0       0       
      +0       0       0       0       0
  2847 ;;      Temps:          0       0       0       0       0       0       0       0       0       0       0       0       
      +0       0       0       0       0
  2848 ;;      Totals:         0       0       0       0       0       0       0       0       0       0       0       0       
      +0       0       0       0       0
  2849 ;;Total ram usage:        0 bytes
  2850 ;; Hardware stack levels used: 1
  2851 ;; Hardware stack levels required when called: 9
  2852 ;; This function calls:
  2853 ;;		Nothing
  2854 ;; This function is called by:
  2855 ;;		_os_start
  2856 ;; This function uses a non-reentrant model
  2857 ;;
  2858                           
  2859                           	psect	text2
  2860   0029E2                     __ptext2:
  2861                           	callstack 0
  2862   0029E2                     _setup_hardware:
  2863                           	callstack 20
  2864   0029E2                     
  2865                           ;hw.c: 13:     INTCONbits.TMR0IE = 1;
  2866   0029E2  8AF2               	bsf	242,5,c	;volatile
  2867                           
  2868                           ;hw.c: 14:     INTCONbits.TMR0IF = 0;
  2869   0029E4  94F2               	bcf	242,2,c	;volatile
  2870                           
  2871                           ;hw.c: 15:     T0CONbits.T08BIT = 1;
  2872   0029E6  8CD5               	bsf	213,6,c	;volatile
  2873                           
  2874                           ;hw.c: 16:     T0CONbits.T0CS = 0;
  2875   0029E8  9AD5               	bcf	213,5,c	;volatile
  2876                           
  2877                           ;hw.c: 17:     T0CONbits.PSA = 0;
  2878   0029EA  96D5               	bcf	213,3,c	;volatile
  2879   0029EC                     
  2880                           ;hw.c: 18:     T0CONbits.T0PS = 0b111;
  2881   0029EC  0E07               	movlw	7
  2882   0029EE  12D5               	iorwf	213,f,c	;volatile
  2883   0029F0                     
  2884                           ;hw.c: 19:     T0CONbits.TMR0ON = 1;
  2885   0029F0  8ED5               	bsf	213,7,c	;volatile
  2886                           
  2887                           ;hw.c: 20:     TMR0 = 0;
  2888   0029F2  6AD7               	clrf	215,c	;volatile
  2889   0029F4  0E00               	movlw	0
  2890   0029F6  6ED6               	movwf	214,c	;volatile
  2891   0029F8  0012               	return		;funcret
  2892   0029FA                     __end_of_setup_hardware:
  2893                           	callstack 0
  2894                           
  2895 ;; *************** function _scheduler *****************
  2896 ;; Defined at:
  2897 ;;		line 9 in file "scheduler.c"
  2898 ;; Parameters:    Size  Location     Type
  2899 ;;		None
  2900 ;; Auto vars:     Size  Location     Type
  2901 ;;		None
  2902 ;; Return value:  Size  Location     Type
  2903 ;;                  1    wreg      void 
  2904 ;; Registers used:
  2905 ;;		wreg, fsr2l, fsr2h, status,2, status,0, prodl, prodh, cstack
  2906 ;; Tracked objects:
  2907 ;;		On entry : 0/0
  2908 ;;		On exit  : 0/0
  2909 ;;		Unchanged: 0/0
  2910 ;; Data sizes:     COMRAM   BANK0   BANK1   BANK2   BANK3   BANK4   BANK5   BANK6   BANK7   BANK8   BANK9  BANK10  BANK1
      +1  BANK12  BANK13  BANK14  BANK15
  2911 ;;      Params:         0       0       0       0       0       0       0       0       0       0       0       0       
      +0       0       0       0       0
  2912 ;;      Locals:         0       0       0       0       0       0       0       0       0       0       0       0       
      +0       0       0       0       0
  2913 ;;      Temps:          0       3       0       0       0       0       0       0       0       0       0       0       
      +0       0       0       0       0
  2914 ;;      Totals:         0       3       0       0       0       0       0       0       0       0       0       0       
      +0       0       0       0       0
  2915 ;;Total ram usage:        3 bytes
  2916 ;; Hardware stack levels used: 1
  2917 ;; Hardware stack levels required when called: 11
  2918 ;; This function calls:
  2919 ;;		_priority_rr_scheduler
  2920 ;; This function is called by:
  2921 ;;		_os_start
  2922 ;;		_os_yield
  2923 ;;		_os_task_change_state
  2924 ;;		_sem_wait
  2925 ;; This function uses a non-reentrant model
  2926 ;;
  2927                           
  2928                           	psect	text3
  2929   0028F4                     __ptext3:
  2930                           	callstack 0
  2931   0028F4                     _scheduler:
  2932                           	callstack 18
  2933   0028F4                     
  2934                           ;scheduler.c: 15:     r_queue.pos_task_running = priority_rr_scheduler();
  2935   0028F4  EC02  F010         	call	_priority_rr_scheduler	;wreg free
  2936   0028F8  0100               	movlb	0	; () banked
  2937   0028FA  6F9E               	movwf	??_scheduler& (0+255),b
  2938   0028FC  C09E  F54D         	movff	??_scheduler,_r_queue+471
  2939   002900                     
  2940                           ; BSR set to: 0
  2941                           ;scheduler.c: 17:     r_queue.task_running = &r_queue.TASKS[r_queue.pos_task_running];
  2942   002900  C54D  F09E         	movff	_r_queue+471,??_scheduler
  2943   002904  519E               	movf	??_scheduler& (0+255),w,b
  2944   002906  0D75               	mullw	117
  2945   002908  0E76               	movlw	low _r_queue
  2946   00290A  24F3               	addwf	243,w,c
  2947   00290C  6F9F               	movwf	(??_scheduler+1)& (0+255),b
  2948   00290E  0E03               	movlw	high _r_queue
  2949   002910  20F4               	addwfc	prodh,w,c
  2950   002912  6FA0               	movwf	(??_scheduler+2)& (0+255),b
  2951   002914  C09F  F54B         	movff	??_scheduler+1,_r_queue+469
  2952   002918  C0A0  F54C         	movff	??_scheduler+2,_r_queue+470
  2953   00291C                     
  2954                           ; BSR set to: 0
  2955   00291C  0012               	return		;funcret
  2956   00291E                     __end_of_scheduler:
  2957                           	callstack 0
  2958                           
  2959 ;; *************** function _priority_rr_scheduler *****************
  2960 ;; Defined at:
  2961 ;;		line 52 in file "scheduler.c"
  2962 ;; Parameters:    Size  Location     Type
  2963 ;;		None
  2964 ;; Auto vars:     Size  Location     Type
  2965 ;;  idx             1   60[BANK0 ] unsigned char 
  2966 ;;  i               1   59[BANK0 ] unsigned char 
  2967 ;;  i               1   61[BANK0 ] unsigned char 
  2968 ;;  found           1   58[BANK0 ] unsigned char 
  2969 ;;  max_prio        1   57[BANK0 ] unsigned char 
  2970 ;;  current         1   56[BANK0 ] unsigned char 
  2971 ;; Return value:  Size  Location     Type
  2972 ;;                  1    wreg      unsigned char 
  2973 ;; Registers used:
  2974 ;;		wreg, fsr2l, fsr2h, status,2, status,0, prodl, prodh, cstack
  2975 ;; Tracked objects:
  2976 ;;		On entry : 0/0
  2977 ;;		On exit  : 0/0
  2978 ;;		Unchanged: 0/0
  2979 ;; Data sizes:     COMRAM   BANK0   BANK1   BANK2   BANK3   BANK4   BANK5   BANK6   BANK7   BANK8   BANK9  BANK10  BANK1
      +1  BANK12  BANK13  BANK14  BANK15
  2980 ;;      Params:         0       0       0       0       0       0       0       0       0       0       0       0       
      +0       0       0       0       0
  2981 ;;      Locals:         0       6       0       0       0       0       0       0       0       0       0       0       
      +0       0       0       0       0
  2982 ;;      Temps:          0       1       0       0       0       0       0       0       0       0       0       0       
      +0       0       0       0       0
  2983 ;;      Totals:         0       7       0       0       0       0       0       0       0       0       0       0       
      +0       0       0       0       0
  2984 ;;Total ram usage:        7 bytes
  2985 ;; Hardware stack levels used: 1
  2986 ;; Hardware stack levels required when called: 10
  2987 ;; This function calls:
  2988 ;;		___awmod
  2989 ;; This function is called by:
  2990 ;;		_scheduler
  2991 ;; This function uses a non-reentrant model
  2992 ;;
  2993                           
  2994                           	psect	text4
  2995   002004                     __ptext4:
  2996                           	callstack 0
  2997   002004                     _priority_rr_scheduler:
  2998                           	callstack 18
  2999   002004                     
  3000                           ;scheduler.c: 53:     uint8_t max_prio = 0;
  3001   002004  0100               	movlb	0	; () banked
  3002   002006  6B99               	clrf	priority_rr_scheduler@max_prio& (0+255),b
  3003                           
  3004                           ;scheduler.c: 54:     uint8_t found = 0;
  3005   002008  6B9A               	clrf	priority_rr_scheduler@found& (0+255),b
  3006                           
  3007                           ;scheduler.c: 57:     for (uint8_t i = 0; i < r_queue.size; i++) {
  3008   00200A  6B9D               	clrf	priority_rr_scheduler@i& (0+255),b
  3009   00200C  EF3E  F010         	goto	l2324
  3010   002010                     l2312:
  3011                           
  3012                           ; BSR set to: 0
  3013                           ;scheduler.c: 58:         if (r_queue.TASKS[i].task_state == READY) {
  3014   002010  519D               	movf	priority_rr_scheduler@i& (0+255),w,b
  3015   002012  0D75               	mullw	117
  3016   002014  0E77               	movlw	low (_r_queue+1)
  3017   002016  24F3               	addwf	243,w,c
  3018   002018  6ED9               	movwf	fsr2l,c
  3019   00201A  0E03               	movlw	high (_r_queue+1)
  3020   00201C  20F4               	addwfc	prodh,w,c
  3021   00201E  6EDA               	movwf	fsr2h,c
  3022   002020  50DF               	movf	indf2,w,c
  3023   002022  A4D8               	btfss	status,2,c
  3024   002024  EF16  F010         	goto	u1341
  3025   002028  EF18  F010         	goto	u1340
  3026   00202C                     u1341:
  3027   00202C  EF3D  F010         	goto	l2322
  3028   002030                     u1340:
  3029   002030                     
  3030                           ; BSR set to: 0
  3031                           ;scheduler.c: 59:             if (!found || r_queue.TASKS[i].task_priority > max_prio) {
  3032   002030  519A               	movf	priority_rr_scheduler@found& (0+255),w,b
  3033   002032  B4D8               	btfsc	status,2,c
  3034   002034  EF1E  F010         	goto	u1351
  3035   002038  EF20  F010         	goto	u1350
  3036   00203C                     u1351:
  3037   00203C  EF31  F010         	goto	l2318
  3038   002040                     u1350:
  3039   002040                     
  3040                           ; BSR set to: 0
  3041   002040  519D               	movf	priority_rr_scheduler@i& (0+255),w,b
  3042   002042  0D75               	mullw	117
  3043   002044  0E7B               	movlw	low (_r_queue+5)
  3044   002046  24F3               	addwf	243,w,c
  3045   002048  6ED9               	movwf	fsr2l,c
  3046   00204A  0E03               	movlw	high (_r_queue+5)
  3047   00204C  20F4               	addwfc	prodh,w,c
  3048   00204E  6EDA               	movwf	fsr2h,c
  3049   002050  50DE               	movf	postinc2,w,c
  3050   002052  5D99               	subwf	priority_rr_scheduler@max_prio& (0+255),w,b
  3051   002054  B0D8               	btfsc	status,0,c
  3052   002056  EF2F  F010         	goto	u1361
  3053   00205A  EF31  F010         	goto	u1360
  3054   00205E                     u1361:
  3055   00205E  EF3D  F010         	goto	l2322
  3056   002062                     u1360:
  3057   002062                     l2318:
  3058                           
  3059                           ; BSR set to: 0
  3060                           ;scheduler.c: 60:                 max_prio = r_queue.TASKS[i].task_priority;
  3061   002062  519D               	movf	priority_rr_scheduler@i& (0+255),w,b
  3062   002064  0D75               	mullw	117
  3063   002066  0E7B               	movlw	low (_r_queue+5)
  3064   002068  24F3               	addwf	243,w,c
  3065   00206A  6ED9               	movwf	fsr2l,c
  3066   00206C  0E03               	movlw	high (_r_queue+5)
  3067   00206E  20F4               	addwfc	prodh,w,c
  3068   002070  6EDA               	movwf	fsr2h,c
  3069   002072  50DF               	movf	indf2,w,c
  3070   002074  6F99               	movwf	priority_rr_scheduler@max_prio& (0+255),b
  3071   002076                     
  3072                           ; BSR set to: 0
  3073                           ;scheduler.c: 61:                 found = 1;
  3074   002076  0E01               	movlw	1
  3075   002078  6F9A               	movwf	priority_rr_scheduler@found& (0+255),b
  3076   00207A                     l2322:
  3077                           
  3078                           ; BSR set to: 0
  3079                           ;scheduler.c: 64:     }
  3080   00207A  2B9D               	incf	priority_rr_scheduler@i& (0+255),f,b
  3081   00207C                     l2324:
  3082                           
  3083                           ; BSR set to: 0
  3084   00207C  EE25  F04A         	lfsr	2,_r_queue+468
  3085   002080  50DE               	movf	postinc2,w,c
  3086   002082  5D9D               	subwf	priority_rr_scheduler@i& (0+255),w,b
  3087   002084  A0D8               	btfss	status,0,c
  3088   002086  EF47  F010         	goto	u1371
  3089   00208A  EF49  F010         	goto	u1370
  3090   00208E                     u1371:
  3091   00208E  EF08  F010         	goto	l2312
  3092   002092                     u1370:
  3093   002092                     
  3094                           ; BSR set to: 0
  3095                           ;scheduler.c: 65:     if (!found)return 0;
  3096   002092  519A               	movf	priority_rr_scheduler@found& (0+255),w,b
  3097   002094  A4D8               	btfss	status,2,c
  3098   002096  EF4F  F010         	goto	u1381
  3099   00209A  EF51  F010         	goto	u1380
  3100   00209E                     u1381:
  3101   00209E  EF54  F010         	goto	l481
  3102   0020A2                     u1380:
  3103   0020A2                     l2328:
  3104                           
  3105                           ; BSR set to: 0
  3106   0020A2  0E00               	movlw	0
  3107   0020A4  EF9A  F010         	goto	l482
  3108   0020A8                     l481:
  3109                           
  3110                           ; BSR set to: 0
  3111                           ;scheduler.c: 66:     uint8_t current = r_queue.pos_task_running;
  3112   0020A8  C54D  F098         	movff	_r_queue+471,priority_rr_scheduler@current
  3113                           
  3114                           ;scheduler.c: 68:     for (uint8_t i = 0; i < r_queue.size; i++) {
  3115   0020AC  6B9B               	clrf	priority_rr_scheduler@i_1476& (0+255),b
  3116   0020AE  EF8D  F010         	goto	l2344
  3117   0020B2                     l2332:
  3118                           
  3119                           ; BSR set to: 0
  3120                           ;scheduler.c: 69:         uint8_t idx = (current + i) % r_queue.size;
  3121   0020B2  5198               	movf	priority_rr_scheduler@current& (0+255),w,b
  3122   0020B4  259B               	addwf	priority_rr_scheduler@i_1476& (0+255),w,b
  3123   0020B6  6F91               	movwf	___awmod@dividend& (0+255),b
  3124   0020B8  6B92               	clrf	(___awmod@dividend+1)& (0+255),b
  3125   0020BA  3792               	rlcf	(___awmod@dividend+1)& (0+255),f,b
  3126   0020BC  C54A  F097         	movff	_r_queue+468,??_priority_rr_scheduler
  3127   0020C0  5197               	movf	??_priority_rr_scheduler& (0+255),w,b
  3128   0020C2  6F93               	movwf	___awmod@divisor& (0+255),b
  3129   0020C4  6B94               	clrf	(___awmod@divisor+1)& (0+255),b
  3130   0020C6  EC4C  F012         	call	___awmod	;wreg free
  3131   0020CA  0100               	movlb	0	; () banked
  3132   0020CC  5191               	movf	?___awmod& (0+255),w,b
  3133   0020CE  6F9C               	movwf	priority_rr_scheduler@idx& (0+255),b
  3134   0020D0                     
  3135                           ; BSR set to: 0
  3136                           ;scheduler.c: 70:         if (r_queue.TASKS[idx].task_state == READY &&
  3137   0020D0  519C               	movf	priority_rr_scheduler@idx& (0+255),w,b
  3138   0020D2  0D75               	mullw	117
  3139   0020D4  0E77               	movlw	low (_r_queue+1)
  3140   0020D6  24F3               	addwf	243,w,c
  3141   0020D8  6ED9               	movwf	fsr2l,c
  3142   0020DA  0E03               	movlw	high (_r_queue+1)
  3143   0020DC  20F4               	addwfc	prodh,w,c
  3144   0020DE  6EDA               	movwf	fsr2h,c
  3145   0020E0  50DF               	movf	indf2,w,c
  3146   0020E2  A4D8               	btfss	status,2,c
  3147   0020E4  EF76  F010         	goto	u1391
  3148   0020E8  EF78  F010         	goto	u1390
  3149   0020EC                     u1391:
  3150   0020EC  EF8C  F010         	goto	l2342
  3151   0020F0                     u1390:
  3152   0020F0                     
  3153                           ; BSR set to: 0
  3154   0020F0  519C               	movf	priority_rr_scheduler@idx& (0+255),w,b
  3155   0020F2  0D75               	mullw	117
  3156   0020F4  0E7B               	movlw	low (_r_queue+5)
  3157   0020F6  24F3               	addwf	243,w,c
  3158   0020F8  6ED9               	movwf	fsr2l,c
  3159   0020FA  0E03               	movlw	high (_r_queue+5)
  3160   0020FC  20F4               	addwfc	prodh,w,c
  3161   0020FE  6EDA               	movwf	fsr2h,c
  3162   002100  5199               	movf	priority_rr_scheduler@max_prio& (0+255),w,b
  3163   002102  18DE               	xorwf	postinc2,w,c
  3164   002104  A4D8               	btfss	status,2,c
  3165   002106  EF87  F010         	goto	u1401
  3166   00210A  EF89  F010         	goto	u1400
  3167   00210E                     u1401:
  3168   00210E  EF8C  F010         	goto	l2342
  3169   002112                     u1400:
  3170   002112                     
  3171                           ; BSR set to: 0
  3172                           ;scheduler.c: 71:             r_queue.TASKS[idx].task_priority == max_prio) {;scheduler.
      +                          c: 72:             return idx;
  3173   002112  519C               	movf	priority_rr_scheduler@idx& (0+255),w,b
  3174   002114  EF9A  F010         	goto	l482
  3175   002118                     l2342:
  3176                           
  3177                           ; BSR set to: 0
  3178                           ;scheduler.c: 74:     }
  3179   002118  2B9B               	incf	priority_rr_scheduler@i_1476& (0+255),f,b
  3180   00211A                     l2344:
  3181                           
  3182                           ; BSR set to: 0
  3183   00211A  EE25  F04A         	lfsr	2,_r_queue+468
  3184   00211E  50DE               	movf	postinc2,w,c
  3185   002120  5D9B               	subwf	priority_rr_scheduler@i_1476& (0+255),w,b
  3186   002122  A0D8               	btfss	status,0,c
  3187   002124  EF96  F010         	goto	u1411
  3188   002128  EF98  F010         	goto	u1410
  3189   00212C                     u1411:
  3190   00212C  EF59  F010         	goto	l2332
  3191   002130                     u1410:
  3192   002130  EF51  F010         	goto	l2328
  3193   002134                     l482:
  3194                           
  3195                           ; BSR set to: 0
  3196   002134  0012               	return		;funcret
  3197   002136                     __end_of_priority_rr_scheduler:
  3198                           	callstack 0
  3199                           
  3200 ;; *************** function ___awmod *****************
  3201 ;; Defined at:
  3202 ;;		line 7 in file "C:\Program Files\Microchip\xc8\v3.10\pic\sources\c99\common\awmod.c"
  3203 ;; Parameters:    Size  Location     Type
  3204 ;;  dividend        2   49[BANK0 ] int 
  3205 ;;  divisor         2   51[BANK0 ] int 
  3206 ;; Auto vars:     Size  Location     Type
  3207 ;;  sign            1   54[BANK0 ] unsigned char 
  3208 ;;  counter         1   53[BANK0 ] unsigned char 
  3209 ;; Return value:  Size  Location     Type
  3210 ;;                  2   49[BANK0 ] int 
  3211 ;; Registers used:
  3212 ;;		wreg, status,2, status,0
  3213 ;; Tracked objects:
  3214 ;;		On entry : 0/0
  3215 ;;		On exit  : 0/0
  3216 ;;		Unchanged: 0/0
  3217 ;; Data sizes:     COMRAM   BANK0   BANK1   BANK2   BANK3   BANK4   BANK5   BANK6   BANK7   BANK8   BANK9  BANK10  BANK1
      +1  BANK12  BANK13  BANK14  BANK15
  3218 ;;      Params:         0       4       0       0       0       0       0       0       0       0       0       0       
      +0       0       0       0       0
  3219 ;;      Locals:         0       2       0       0       0       0       0       0       0       0       0       0       
      +0       0       0       0       0
  3220 ;;      Temps:          0       0       0       0       0       0       0       0       0       0       0       0       
      +0       0       0       0       0
  3221 ;;      Totals:         0       6       0       0       0       0       0       0       0       0       0       0       
      +0       0       0       0       0
  3222 ;;Total ram usage:        6 bytes
  3223 ;; Hardware stack levels used: 1
  3224 ;; Hardware stack levels required when called: 9
  3225 ;; This function calls:
  3226 ;;		Nothing
  3227 ;; This function is called by:
  3228 ;;		_LED_1
  3229 ;;		_priority_rr_scheduler
  3230 ;;		_sem_wait
  3231 ;;		_sem_post
  3232 ;;		_RR_scheduler
  3233 ;;		_priority_scheduler
  3234 ;; This function uses a non-reentrant model
  3235 ;;
  3236                           
  3237                           	psect	text5
  3238   002498                     __ptext5:
  3239                           	callstack 0
  3240   002498                     ___awmod:
  3241                           	callstack 18
  3242   002498  0100               	movlb	0	; () banked
  3243   00249A  6B96               	clrf	___awmod@sign& (0+255),b
  3244   00249C                     
  3245                           ; BSR set to: 0
  3246   00249C  BF92               	btfsc	(___awmod@dividend+1)& (0+255),7,b
  3247   00249E  EF55  F012         	goto	u1220
  3248   0024A2  EF53  F012         	goto	u1221
  3249   0024A6                     u1221:
  3250   0024A6  EF5B  F012         	goto	l2230
  3251   0024AA                     u1220:
  3252   0024AA                     
  3253                           ; BSR set to: 0
  3254   0024AA  6D91               	negf	___awmod@dividend& (0+255),b
  3255   0024AC  1F92               	comf	(___awmod@dividend+1)& (0+255),f,b
  3256   0024AE  B0D8               	btfsc	status,0,c
  3257   0024B0  2B92               	incf	(___awmod@dividend+1)& (0+255),f,b
  3258   0024B2                     
  3259                           ; BSR set to: 0
  3260   0024B2  0E01               	movlw	1
  3261   0024B4  6F96               	movwf	___awmod@sign& (0+255),b
  3262   0024B6                     l2230:
  3263                           
  3264                           ; BSR set to: 0
  3265   0024B6  BF94               	btfsc	(___awmod@divisor+1)& (0+255),7,b
  3266   0024B8  EF62  F012         	goto	u1230
  3267   0024BC  EF60  F012         	goto	u1231
  3268   0024C0                     u1231:
  3269   0024C0  EF66  F012         	goto	l2234
  3270   0024C4                     u1230:
  3271   0024C4                     
  3272                           ; BSR set to: 0
  3273   0024C4  6D93               	negf	___awmod@divisor& (0+255),b
  3274   0024C6  1F94               	comf	(___awmod@divisor+1)& (0+255),f,b
  3275   0024C8  B0D8               	btfsc	status,0,c
  3276   0024CA  2B94               	incf	(___awmod@divisor+1)& (0+255),f,b
  3277   0024CC                     l2234:
  3278                           
  3279                           ; BSR set to: 0
  3280   0024CC  5193               	movf	___awmod@divisor& (0+255),w,b
  3281   0024CE  1194               	iorwf	(___awmod@divisor+1)& (0+255),w,b
  3282   0024D0  B4D8               	btfsc	status,2,c
  3283   0024D2  EF6D  F012         	goto	u1241
  3284   0024D6  EF6F  F012         	goto	u1240
  3285   0024DA                     u1241:
  3286   0024DA  EF93  F012         	goto	l2250
  3287   0024DE                     u1240:
  3288   0024DE                     
  3289                           ; BSR set to: 0
  3290   0024DE  0E01               	movlw	1
  3291   0024E0  6F95               	movwf	___awmod@counter& (0+255),b
  3292   0024E2  EF77  F012         	goto	l2240
  3293   0024E6                     l2238:
  3294                           
  3295                           ; BSR set to: 0
  3296   0024E6  90D8               	bcf	status,0,c
  3297   0024E8  3793               	rlcf	___awmod@divisor& (0+255),f,b
  3298   0024EA  3794               	rlcf	(___awmod@divisor+1)& (0+255),f,b
  3299   0024EC  2B95               	incf	___awmod@counter& (0+255),f,b
  3300   0024EE                     l2240:
  3301                           
  3302                           ; BSR set to: 0
  3303   0024EE  AF94               	btfss	(___awmod@divisor+1)& (0+255),7,b
  3304   0024F0  EF7C  F012         	goto	u1251
  3305   0024F4  EF7E  F012         	goto	u1250
  3306   0024F8                     u1251:
  3307   0024F8  EF73  F012         	goto	l2238
  3308   0024FC                     u1250:
  3309   0024FC                     l2242:
  3310                           
  3311                           ; BSR set to: 0
  3312   0024FC  5193               	movf	___awmod@divisor& (0+255),w,b
  3313   0024FE  5D91               	subwf	___awmod@dividend& (0+255),w,b
  3314   002500  5194               	movf	(___awmod@divisor+1)& (0+255),w,b
  3315   002502  5992               	subwfb	(___awmod@dividend+1)& (0+255),w,b
  3316   002504  A0D8               	btfss	status,0,c
  3317   002506  EF87  F012         	goto	u1261
  3318   00250A  EF89  F012         	goto	u1260
  3319   00250E                     u1261:
  3320   00250E  EF8D  F012         	goto	l2246
  3321   002512                     u1260:
  3322   002512                     
  3323                           ; BSR set to: 0
  3324   002512  5193               	movf	___awmod@divisor& (0+255),w,b
  3325   002514  5F91               	subwf	___awmod@dividend& (0+255),f,b
  3326   002516  5194               	movf	(___awmod@divisor+1)& (0+255),w,b
  3327   002518  5B92               	subwfb	(___awmod@dividend+1)& (0+255),f,b
  3328   00251A                     l2246:
  3329                           
  3330                           ; BSR set to: 0
  3331   00251A  90D8               	bcf	status,0,c
  3332   00251C  3394               	rrcf	(___awmod@divisor+1)& (0+255),f,b
  3333   00251E  3393               	rrcf	___awmod@divisor& (0+255),f,b
  3334   002520                     
  3335                           ; BSR set to: 0
  3336   002520  2F95               	decfsz	___awmod@counter& (0+255),f,b
  3337   002522  EF7E  F012         	goto	l2242
  3338   002526                     l2250:
  3339                           
  3340                           ; BSR set to: 0
  3341   002526  5196               	movf	___awmod@sign& (0+255),w,b
  3342   002528  B4D8               	btfsc	status,2,c
  3343   00252A  EF99  F012         	goto	u1271
  3344   00252E  EF9B  F012         	goto	u1270
  3345   002532                     u1271:
  3346   002532  EF9F  F012         	goto	l2254
  3347   002536                     u1270:
  3348   002536                     
  3349                           ; BSR set to: 0
  3350   002536  6D91               	negf	___awmod@dividend& (0+255),b
  3351   002538  1F92               	comf	(___awmod@dividend+1)& (0+255),f,b
  3352   00253A  B0D8               	btfsc	status,0,c
  3353   00253C  2B92               	incf	(___awmod@dividend+1)& (0+255),f,b
  3354   00253E                     l2254:
  3355                           
  3356                           ; BSR set to: 0
  3357   00253E  C091  F091         	movff	___awmod@dividend,?___awmod
  3358   002542  C092  F092         	movff	___awmod@dividend+1,?___awmod+1
  3359   002546                     
  3360                           ; BSR set to: 0
  3361   002546  0012               	return		;funcret
  3362   002548                     __end_of___awmod:
  3363                           	callstack 0
  3364                           
  3365 ;; *************** function _os_config *****************
  3366 ;; Defined at:
  3367 ;;		line 66 in file "kernel.c"
  3368 ;; Parameters:    Size  Location     Type
  3369 ;;		None
  3370 ;; Auto vars:     Size  Location     Type
  3371 ;;		None
  3372 ;; Return value:  Size  Location     Type
  3373 ;;                  1    wreg      void 
  3374 ;; Registers used:
  3375 ;;		wreg, fsr1l, fsr1h, fsr2l, fsr2h, status,2, status,0, prodl, prodh, cstack
  3376 ;; Tracked objects:
  3377 ;;		On entry : 0/0
  3378 ;;		On exit  : 0/0
  3379 ;;		Unchanged: 0/0
  3380 ;; Data sizes:     COMRAM   BANK0   BANK1   BANK2   BANK3   BANK4   BANK5   BANK6   BANK7   BANK8   BANK9  BANK10  BANK1
      +1  BANK12  BANK13  BANK14  BANK15
  3381 ;;      Params:         0       0       0       0       0       0       0       0       0       0       0       0       
      +0       0       0       0       0
  3382 ;;      Locals:         0       0       0       0       0       0       0       0       0       0       0       0       
      +0       0       0       0       0
  3383 ;;      Temps:          0       0       0       0       0       0       0       0       0       0       0       0       
      +0       0       0       0       0
  3384 ;;      Totals:         0       0       0       0       0       0       0       0       0       0       0       0       
      +0       0       0       0       0
  3385 ;;Total ram usage:        0 bytes
  3386 ;; Hardware stack levels used: 1
  3387 ;; Hardware stack levels required when called: 12
  3388 ;; This function calls:
  3389 ;;		_config_user
  3390 ;;		_os_create_task
  3391 ;; This function is called by:
  3392 ;;		_main
  3393 ;; This function uses a non-reentrant model
  3394 ;;
  3395                           
  3396                           	psect	text6
  3397   002860                     __ptext6:
  3398                           	callstack 0
  3399   002860                     _os_config:
  3400                           	callstack 18
  3401   002860                     
  3402                           ;kernel.c: 68:     r_queue.size = 0;
  3403   002860  0E00               	movlw	0
  3404   002862  CFE8 F54A          	movff	wreg,_r_queue+468
  3405                           
  3406                           ;kernel.c: 69:     r_queue.task_running = &r_queue.TASKS[0];
  3407   002866  0E76               	movlw	low _r_queue
  3408   002868  CFE8 F54B          	movff	wreg,_r_queue+469
  3409   00286C  0E03               	movlw	high _r_queue
  3410   00286E  CFE8 F54C          	movff	wreg,_r_queue+470
  3411                           
  3412                           ;kernel.c: 70:     r_queue.pos_task_running = 0;
  3413   002872  0E00               	movlw	0
  3414   002874  CFE8 F54D          	movff	wreg,_r_queue+471
  3415   002878                     
  3416                           ;kernel.c: 73:     os_create_task(1, idle, 0);
  3417   002878  0E1E               	movlw	low _idle
  3418   00287A  0100               	movlb	0	; () banked
  3419   00287C  6F91               	movwf	os_create_task@func& (0+255),b
  3420   00287E  0E29               	movlw	high _idle
  3421   002880  6F92               	movwf	(os_create_task@func+1)& (0+255),b
  3422   002882  0E00               	movlw	0
  3423   002884  6F93               	movwf	os_create_task@prior& (0+255),b
  3424   002886  0E01               	movlw	1
  3425   002888  EC97  F013         	call	_os_create_task	;# 
  3426   00288C                     
  3427                           ;kernel.c: 76:     config_user();
  3428   00288C  EC49  F014         	call	_config_user	;wreg free
  3429   002890  0012               	return		;funcret
  3430   002892                     __end_of_os_config:
  3431                           	callstack 0
  3432                           
  3433 ;; *************** function _os_create_task *****************
  3434 ;; Defined at:
  3435 ;;		line 22 in file "kernel.c"
  3436 ;; Parameters:    Size  Location     Type
  3437 ;;  id              1    wreg     unsigned char 
  3438 ;;  func            2   49[BANK0 ] PTR FTN()void 
  3439 ;;		 -> idle(1), LED_3_prio(1), LED_2_prio(1), LED_1_prio(1), 
  3440 ;;		 -> LED_3(1), LED_2(1), LED_1(1), 
  3441 ;;  prior           1   51[BANK0 ] unsigned char 
  3442 ;; Auto vars:     Size  Location     Type
  3443 ;;  id              1    0[BANK1 ] unsigned char 
  3444 ;;  new_task      117    1[BANK1 ] struct tcb
  3445 ;; Return value:  Size  Location     Type
  3446 ;;                  1    wreg      void 
  3447 ;; Registers used:
  3448 ;;		wreg, fsr1l, fsr1h, fsr2l, fsr2h, status,2, status,0, prodl, prodh
  3449 ;; Tracked objects:
  3450 ;;		On entry : 0/0
  3451 ;;		On exit  : 0/0
  3452 ;;		Unchanged: 0/0
  3453 ;; Data sizes:     COMRAM   BANK0   BANK1   BANK2   BANK3   BANK4   BANK5   BANK6   BANK7   BANK8   BANK9  BANK10  BANK1
      +1  BANK12  BANK13  BANK14  BANK15
  3454 ;;      Params:         0       3       0       0       0       0       0       0       0       0       0       0       
      +0       0       0       0       0
  3455 ;;      Locals:         0       0     118       0       0       0       0       0       0       0       0       0       
      +0       0       0       0       0
  3456 ;;      Temps:          0       1       0       0       0       0       0       0       0       0       0       0       
      +0       0       0       0       0
  3457 ;;      Totals:         0       4     118       0       0       0       0       0       0       0       0       0       
      +0       0       0       0       0
  3458 ;;Total ram usage:      122 bytes
  3459 ;; Hardware stack levels used: 1
  3460 ;; Hardware stack levels required when called: 9
  3461 ;; This function calls:
  3462 ;;		Nothing
  3463 ;; This function is called by:
  3464 ;;		_main
  3465 ;;		_os_config
  3466 ;; This function uses a non-reentrant model
  3467 ;;
  3468                           
  3469                           	psect	text7
  3470   00272E                     __ptext7:
  3471                           	callstack 0
  3472   00272E                     _os_create_task:
  3473                           	callstack 20
  3474                           
  3475                           ;incstack = 0
  3476                           ;os_create_task@id stored from wreg
  3477   00272E  0101               	movlb	1	; () banked
  3478   002730  6F00               	movwf	os_create_task@id& (0+255),b
  3479   002732                     
  3480                           ;kernel.c: 22: void os_create_task(uint8_t id, f_ptr func, uint8_t prior);kernel.c: 23: 
      +                          {;kernel.c: 24:     tcb_t new_task;;kernel.c: 26:     new_task.task_id = id;
  3481   002732  C100  F101         	movff	os_create_task@id,os_create_task@new_task
  3482   002736                     
  3483                           ;kernel.c: 27:     new_task.task_delay = 0;
  3484   002736  0101               	movlb	1	; () banked
  3485   002738  6B05               	clrf	(os_create_task@new_task+4)& (0+255),b
  3486   00273A                     
  3487                           ; BSR set to: 1
  3488                           ;kernel.c: 28:     new_task.task_priority = prior;
  3489   00273A  C093  F106         	movff	os_create_task@prior,os_create_task@new_task+5
  3490   00273E                     
  3491                           ; BSR set to: 1
  3492                           ;kernel.c: 29:     new_task.task_ptr = func;
  3493   00273E  C091  F103         	movff	os_create_task@func,os_create_task@new_task+2
  3494   002742  C092  F104         	movff	os_create_task@func+1,os_create_task@new_task+3
  3495   002746                     
  3496                           ; BSR set to: 1
  3497                           ;kernel.c: 30:     new_task.task_state = READY;
  3498   002746  6B02               	clrf	(os_create_task@new_task+1)& (0+255),b
  3499   002748                     
  3500                           ; BSR set to: 1
  3501                           ;kernel.c: 32:     new_task.BSR_REG = 0;
  3502   002748  6B09               	clrf	(os_create_task@new_task+8)& (0+255),b
  3503   00274A                     
  3504                           ; BSR set to: 1
  3505                           ;kernel.c: 33:     new_task.FSR0H_REG = 0;
  3506   00274A  6B0D               	clrf	(os_create_task@new_task+12)& (0+255),b
  3507   00274C                     
  3508                           ; BSR set to: 1
  3509                           ;kernel.c: 34:     new_task.FSR0L_REG = 0;
  3510   00274C  6B0C               	clrf	(os_create_task@new_task+11)& (0+255),b
  3511   00274E                     
  3512                           ; BSR set to: 1
  3513                           ;kernel.c: 35:     new_task.FSR1H_REG = 0;
  3514   00274E  6B0F               	clrf	(os_create_task@new_task+14)& (0+255),b
  3515   002750                     
  3516                           ; BSR set to: 1
  3517                           ;kernel.c: 36:     new_task.FSR1L_REG = 0;
  3518   002750  6B0E               	clrf	(os_create_task@new_task+13)& (0+255),b
  3519   002752                     
  3520                           ; BSR set to: 1
  3521                           ;kernel.c: 37:     new_task.FSR2H_REG = 0;
  3522   002752  6B11               	clrf	(os_create_task@new_task+16)& (0+255),b
  3523   002754                     
  3524                           ; BSR set to: 1
  3525                           ;kernel.c: 38:     new_task.FSR2L_REG = 0;
  3526   002754  6B10               	clrf	(os_create_task@new_task+15)& (0+255),b
  3527   002756                     
  3528                           ; BSR set to: 1
  3529                           ;kernel.c: 39:     new_task.PCLATH_REG = 0;
  3530   002756  6B16               	clrf	(os_create_task@new_task+21)& (0+255),b
  3531   002758                     
  3532                           ; BSR set to: 1
  3533                           ;kernel.c: 40:     new_task.PCLATU_REG = 0;
  3534   002758  6B17               	clrf	(os_create_task@new_task+22)& (0+255),b
  3535   00275A                     
  3536                           ; BSR set to: 1
  3537                           ;kernel.c: 41:     new_task.PRODH_REG = 0;
  3538   00275A  6B0B               	clrf	(os_create_task@new_task+10)& (0+255),b
  3539   00275C                     
  3540                           ; BSR set to: 1
  3541                           ;kernel.c: 42:     new_task.PRODL_REG = 0;
  3542   00275C  6B0A               	clrf	(os_create_task@new_task+9)& (0+255),b
  3543   00275E                     
  3544                           ; BSR set to: 1
  3545                           ;kernel.c: 43:     new_task.STATUS_REG = 0;
  3546   00275E  6B08               	clrf	(os_create_task@new_task+7)& (0+255),b
  3547   002760                     
  3548                           ; BSR set to: 1
  3549                           ;kernel.c: 44:     new_task.TABLAT_REG = 0;
  3550   002760  6B12               	clrf	(os_create_task@new_task+17)& (0+255),b
  3551   002762                     
  3552                           ; BSR set to: 1
  3553                           ;kernel.c: 45:     new_task.TBLPTRH_REG = 0;
  3554   002762  6B14               	clrf	(os_create_task@new_task+19)& (0+255),b
  3555   002764                     
  3556                           ; BSR set to: 1
  3557                           ;kernel.c: 46:     new_task.TBLPTRL_REG = 0;
  3558   002764  6B13               	clrf	(os_create_task@new_task+18)& (0+255),b
  3559   002766                     
  3560                           ; BSR set to: 1
  3561                           ;kernel.c: 47:     new_task.TBLPTRU_REG = 0;
  3562   002766  6B15               	clrf	(os_create_task@new_task+20)& (0+255),b
  3563   002768                     
  3564                           ; BSR set to: 1
  3565                           ;kernel.c: 48:     new_task.W_REG = 0;
  3566   002768  6B07               	clrf	(os_create_task@new_task+6)& (0+255),b
  3567   00276A                     
  3568                           ; BSR set to: 1
  3569                           ;kernel.c: 49:     new_task.task_stack.stack_size = 0;
  3570   00276A  6B75               	clrf	(os_create_task@new_task+116)& (0+255),b
  3571   00276C                     
  3572                           ; BSR set to: 1
  3573                           ;kernel.c: 52:     r_queue.TASKS[r_queue.size++] = new_task;
  3574   00276C  EE21  F001         	lfsr	2,os_create_task@new_task
  3575   002770  C54A  F094         	movff	_r_queue+468,??_os_create_task
  3576   002774  0100               	movlb	0	; () banked
  3577   002776  5194               	movf	??_os_create_task& (0+255),w,b
  3578   002778  0D75               	mullw	117
  3579   00277A  0E76               	movlw	low _r_queue
  3580   00277C  24F3               	addwf	243,w,c
  3581   00277E  6EE1               	movwf	fsr1l,c
  3582   002780  0E03               	movlw	high _r_queue
  3583   002782  20F4               	addwfc	prodh,w,c
  3584   002784  6EE2               	movwf	fsr1h,c
  3585   002786  0E74               	movlw	116
  3586   002788                     u2421:
  3587   002788  CFDB FFE3          	movff	plusw2,plusw1
  3588   00278C  06E8               	decf	wreg,f,c
  3589   00278E  E2FC               	bc	u2421
  3590   002790                     
  3591                           ; BSR set to: 0
  3592   002790  C54A  FFE8         	movff	_r_queue+468,wreg
  3593   002794  0F01               	addlw	1
  3594   002796  CFE8 F54A          	movff	wreg,_r_queue+468
  3595   00279A                     
  3596                           ; BSR set to: 0
  3597   00279A  0012               	return		;funcret
  3598   00279C                     __end_of_os_create_task:
  3599                           	callstack 0
  3600                           
  3601 ;; *************** function _config_user *****************
  3602 ;; Defined at:
  3603 ;;		line 11 in file "user.c"
  3604 ;; Parameters:    Size  Location     Type
  3605 ;;		None
  3606 ;; Auto vars:     Size  Location     Type
  3607 ;;		None
  3608 ;; Return value:  Size  Location     Type
  3609 ;;                  1    wreg      void 
  3610 ;; Registers used:
  3611 ;;		wreg, fsr2l, fsr2h, status,2, status,0, cstack
  3612 ;; Tracked objects:
  3613 ;;		On entry : 0/0
  3614 ;;		On exit  : 0/0
  3615 ;;		Unchanged: 0/0
  3616 ;; Data sizes:     COMRAM   BANK0   BANK1   BANK2   BANK3   BANK4   BANK5   BANK6   BANK7   BANK8   BANK9  BANK10  BANK1
      +1  BANK12  BANK13  BANK14  BANK15
  3617 ;;      Params:         0       0       0       0       0       0       0       0       0       0       0       0       
      +0       0       0       0       0
  3618 ;;      Locals:         0       0       0       0       0       0       0       0       0       0       0       0       
      +0       0       0       0       0
  3619 ;;      Temps:          0       0       0       0       0       0       0       0       0       0       0       0       
      +0       0       0       0       0
  3620 ;;      Totals:         0       0       0       0       0       0       0       0       0       0       0       0       
      +0       0       0       0       0
  3621 ;;Total ram usage:        0 bytes
  3622 ;; Hardware stack levels used: 1
  3623 ;; Hardware stack levels required when called: 11
  3624 ;; This function calls:
  3625 ;;		_mutex_init
  3626 ;;		_pipe_init
  3627 ;;		_sem_init
  3628 ;; This function is called by:
  3629 ;;		_os_config
  3630 ;; This function uses a non-reentrant model
  3631 ;;
  3632                           
  3633                           	psect	text8
  3634   002892                     __ptext8:
  3635                           	callstack 0
  3636   002892                     _config_user:
  3637                           	callstack 18
  3638   002892                     
  3639                           ;user.c: 12:     TRISCbits.RC6 = 0;
  3640   002892  9C94               	bcf	148,6,c	;volatile
  3641                           
  3642                           ;user.c: 13:     TRISCbits.RC7 = 0;
  3643   002894  9E94               	bcf	148,7,c	;volatile
  3644                           
  3645                           ;user.c: 14:     TRISDbits.RD0 = 0;
  3646   002896  9095               	bcf	149,0,c	;volatile
  3647                           
  3648                           ;user.c: 15:     ANSELDbits.ANSD0 = 0;
  3649   002898  010F               	movlb	15	; () banked
  3650   00289A  913B               	bcf	59,0,b	;volatile
  3651                           
  3652                           ;user.c: 16:     ANSELCbits.ANSC6 = 0;
  3653   00289C  9D3A               	bcf	58,6,b	;volatile
  3654                           
  3655                           ;user.c: 17:     ANSELCbits.ANSC7 = 0;
  3656   00289E  9F3A               	bcf	58,7,b	;# 
  3657   0028A0                     
  3658                           ;user.c: 27:     sem_init(&s, 0);
  3659   0028A0  0E1E               	movlw	low _s
  3660   0028A2  0100               	movlb	0	; () banked
  3661   0028A4  6F91               	movwf	sem_init@sem& (0+255),b
  3662   0028A6  0E00               	movlw	0
  3663   0028A8  6F92               	movwf	sem_init@valor& (0+255),b
  3664   0028AA  EC62  F014         	call	_sem_init	;wreg free
  3665                           
  3666                           ;user.c: 28:     pipe_init(&p);
  3667   0028AE  0E02               	movlw	low _p
  3668   0028B0  0100               	movlb	0	; () banked
  3669   0028B2  6F95               	movwf	pipe_init@p& (0+255),b
  3670   0028B4  EC13  F014         	call	_pipe_init	;wreg free
  3671                           
  3672                           ;user.c: 29:     mutex_init(&m_led);
  3673   0028B8  0E16               	movlw	low _m_led
  3674   0028BA  0100               	movlb	0	; () banked
  3675   0028BC  6F91               	movwf	mutex_init@m& (0+255),b
  3676   0028BE  ECF5  F013         	call	_mutex_init	;wreg free
  3677   0028C2  0012               	return		;funcret
  3678   0028C4                     __end_of_config_user:
  3679                           	callstack 0
  3680                           
  3681 ;; *************** function _pipe_init *****************
  3682 ;; Defined at:
  3683 ;;		line 3 in file "com.c"
  3684 ;; Parameters:    Size  Location     Type
  3685 ;;  p               1   53[BANK0 ] PTR struct pipe
  3686 ;;		 -> p(20), 
  3687 ;; Auto vars:     Size  Location     Type
  3688 ;;		None
  3689 ;; Return value:  Size  Location     Type
  3690 ;;                  1    wreg      void 
  3691 ;; Registers used:
  3692 ;;		wreg, fsr2l, fsr2h, status,2, status,0, cstack
  3693 ;; Tracked objects:
  3694 ;;		On entry : 0/0
  3695 ;;		On exit  : 0/0
  3696 ;;		Unchanged: 0/0
  3697 ;; Data sizes:     COMRAM   BANK0   BANK1   BANK2   BANK3   BANK4   BANK5   BANK6   BANK7   BANK8   BANK9  BANK10  BANK1
      +1  BANK12  BANK13  BANK14  BANK15
  3698 ;;      Params:         0       1       0       0       0       0       0       0       0       0       0       0       
      +0       0       0       0       0
  3699 ;;      Locals:         0       0       0       0       0       0       0       0       0       0       0       0       
      +0       0       0       0       0
  3700 ;;      Temps:          0       0       0       0       0       0       0       0       0       0       0       0       
      +0       0       0       0       0
  3701 ;;      Totals:         0       1       0       0       0       0       0       0       0       0       0       0       
      +0       0       0       0       0
  3702 ;;Total ram usage:        1 bytes
  3703 ;; Hardware stack levels used: 1
  3704 ;; Hardware stack levels required when called: 10
  3705 ;; This function calls:
  3706 ;;		_sem_init
  3707 ;; This function is called by:
  3708 ;;		_config_user
  3709 ;; This function uses a non-reentrant model
  3710 ;;
  3711                           
  3712                           	psect	text9
  3713   002826                     __ptext9:
  3714                           	callstack 0
  3715   002826                     _pipe_init:
  3716                           	callstack 18
  3717   002826                     
  3718                           ;com.c: 3: void pipe_init(pipe_t *p);com.c: 4: {;com.c: 5:     p->pos_input = 0;
  3719   002826  0100               	movlb	0	; () banked
  3720   002828  5195               	movf	pipe_init@p& (0+255),w,b
  3721   00282A  6ED9               	movwf	fsr2l,c
  3722   00282C  6ADA               	clrf	fsr2h,c
  3723   00282E  0E04               	movlw	4
  3724   002830  26D9               	addwf	fsr2l,f,c
  3725   002832  6ADF               	clrf	indf2,c
  3726                           
  3727                           ;com.c: 6:     p->pos_output = 0;
  3728   002834  5195               	movf	pipe_init@p& (0+255),w,b
  3729   002836  6ED9               	movwf	fsr2l,c
  3730   002838  6ADA               	clrf	fsr2h,c
  3731   00283A  0E05               	movlw	5
  3732   00283C  26D9               	addwf	fsr2l,f,c
  3733   00283E  6ADF               	clrf	indf2,c
  3734   002840                     
  3735                           ; BSR set to: 0
  3736                           ;com.c: 7:     sem_init(&p->s_input, 4);
  3737   002840  5195               	movf	pipe_init@p& (0+255),w,b
  3738   002842  0F06               	addlw	6
  3739   002844  6F91               	movwf	sem_init@sem& (0+255),b
  3740   002846  0E04               	movlw	4
  3741   002848  6F92               	movwf	sem_init@valor& (0+255),b
  3742   00284A  EC62  F014         	call	_sem_init	;wreg free
  3743   00284E                     
  3744                           ;com.c: 8:     sem_init(&p->s_output, 0);
  3745   00284E  0100               	movlb	0	; () banked
  3746   002850  5195               	movf	pipe_init@p& (0+255),w,b
  3747   002852  0F0D               	addlw	13
  3748   002854  6F91               	movwf	sem_init@sem& (0+255),b
  3749   002856  0E00               	movlw	0
  3750   002858  6F92               	movwf	sem_init@valor& (0+255),b
  3751   00285A  EC62  F014         	call	_sem_init	;wreg free
  3752   00285E  0012               	return		;funcret
  3753   002860                     __end_of_pipe_init:
  3754                           	callstack 0
  3755                           
  3756 ;; *************** function _sem_init *****************
  3757 ;; Defined at:
  3758 ;;		line 8 in file "sync.c"
  3759 ;; Parameters:    Size  Location     Type
  3760 ;;  sem             1   49[BANK0 ] PTR struct sem
  3761 ;;		 -> p(20), s(7), 
  3762 ;;  valor           1   50[BANK0 ] unsigned char 
  3763 ;; Auto vars:     Size  Location     Type
  3764 ;;		None
  3765 ;; Return value:  Size  Location     Type
  3766 ;;                  1    wreg      void 
  3767 ;; Registers used:
  3768 ;;		wreg, fsr2l, fsr2h, status,2, status,0
  3769 ;; Tracked objects:
  3770 ;;		On entry : 0/0
  3771 ;;		On exit  : 0/0
  3772 ;;		Unchanged: 0/0
  3773 ;; Data sizes:     COMRAM   BANK0   BANK1   BANK2   BANK3   BANK4   BANK5   BANK6   BANK7   BANK8   BANK9  BANK10  BANK1
      +1  BANK12  BANK13  BANK14  BANK15
  3774 ;;      Params:         0       2       0       0       0       0       0       0       0       0       0       0       
      +0       0       0       0       0
  3775 ;;      Locals:         0       0       0       0       0       0       0       0       0       0       0       0       
      +0       0       0       0       0
  3776 ;;      Temps:          0       2       0       0       0       0       0       0       0       0       0       0       
      +0       0       0       0       0
  3777 ;;      Totals:         0       4       0       0       0       0       0       0       0       0       0       0       
      +0       0       0       0       0
  3778 ;;Total ram usage:        4 bytes
  3779 ;; Hardware stack levels used: 1
  3780 ;; Hardware stack levels required when called: 9
  3781 ;; This function calls:
  3782 ;;		Nothing
  3783 ;; This function is called by:
  3784 ;;		_pipe_init
  3785 ;;		_config_user
  3786 ;; This function uses a non-reentrant model
  3787 ;;
  3788                           
  3789                           	psect	text10
  3790   0028C4                     __ptext10:
  3791                           	callstack 0
  3792   0028C4                     _sem_init:
  3793                           	callstack 18
  3794   0028C4                     
  3795                           ;sync.c: 9:     sem->contador = valor;
  3796   0028C4  0100               	movlb	0	; () banked
  3797   0028C6  5192               	movf	sem_init@valor& (0+255),w,b
  3798   0028C8  6F93               	movwf	??_sem_init& (0+255),b
  3799   0028CA  6B94               	clrf	(??_sem_init+1)& (0+255),b
  3800   0028CC  5191               	movf	sem_init@sem& (0+255),w,b
  3801   0028CE  6ED9               	movwf	fsr2l,c
  3802   0028D0  6ADA               	clrf	fsr2h,c
  3803   0028D2  C093  FFDE         	movff	??_sem_init,postinc2
  3804   0028D6  C094  FFDD         	movff	??_sem_init+1,postdec2
  3805   0028DA                     
  3806                           ; BSR set to: 0
  3807                           ;sync.c: 10:     sem->pos_input = 0;
  3808   0028DA  5191               	movf	sem_init@sem& (0+255),w,b
  3809   0028DC  6ED9               	movwf	fsr2l,c
  3810   0028DE  6ADA               	clrf	fsr2h,c
  3811   0028E0  0E05               	movlw	5
  3812   0028E2  26D9               	addwf	fsr2l,f,c
  3813   0028E4  6ADF               	clrf	indf2,c
  3814   0028E6                     
  3815                           ; BSR set to: 0
  3816                           ;sync.c: 11:     sem->pos_output = 0;
  3817   0028E6  5191               	movf	sem_init@sem& (0+255),w,b
  3818   0028E8  6ED9               	movwf	fsr2l,c
  3819   0028EA  6ADA               	clrf	fsr2h,c
  3820   0028EC  0E06               	movlw	6
  3821   0028EE  26D9               	addwf	fsr2l,f,c
  3822   0028F0  6ADF               	clrf	indf2,c
  3823   0028F2                     
  3824                           ; BSR set to: 0
  3825   0028F2  0012               	return		;funcret
  3826   0028F4                     __end_of_sem_init:
  3827                           	callstack 0
  3828                           
  3829 ;; *************** function _mutex_init *****************
  3830 ;; Defined at:
  3831 ;;		line 43 in file "sync.c"
  3832 ;; Parameters:    Size  Location     Type
  3833 ;;  m               1   49[BANK0 ] PTR struct mutex
  3834 ;;		 -> m_led(8), 
  3835 ;; Auto vars:     Size  Location     Type
  3836 ;;		None
  3837 ;; Return value:  Size  Location     Type
  3838 ;;                  1    wreg      void 
  3839 ;; Registers used:
  3840 ;;		wreg, fsr2l, fsr2h, status,2, status,0
  3841 ;; Tracked objects:
  3842 ;;		On entry : 0/0
  3843 ;;		On exit  : 0/0
  3844 ;;		Unchanged: 0/0
  3845 ;; Data sizes:     COMRAM   BANK0   BANK1   BANK2   BANK3   BANK4   BANK5   BANK6   BANK7   BANK8   BANK9  BANK10  BANK1
      +1  BANK12  BANK13  BANK14  BANK15
  3846 ;;      Params:         0       1       0       0       0       0       0       0       0       0       0       0       
      +0       0       0       0       0
  3847 ;;      Locals:         0       0       0       0       0       0       0       0       0       0       0       0       
      +0       0       0       0       0
  3848 ;;      Temps:          0       0       0       0       0       0       0       0       0       0       0       0       
      +0       0       0       0       0
  3849 ;;      Totals:         0       1       0       0       0       0       0       0       0       0       0       0       
      +0       0       0       0       0
  3850 ;;Total ram usage:        1 bytes
  3851 ;; Hardware stack levels used: 1
  3852 ;; Hardware stack levels required when called: 9
  3853 ;; This function calls:
  3854 ;;		Nothing
  3855 ;; This function is called by:
  3856 ;;		_config_user
  3857 ;; This function uses a non-reentrant model
  3858 ;;
  3859                           
  3860                           	psect	text11
  3861   0027EA                     __ptext11:
  3862                           	callstack 0
  3863   0027EA                     _mutex_init:
  3864                           	callstack 19
  3865   0027EA                     
  3866                           ;sync.c: 44:     m->locked = 0;
  3867   0027EA  0100               	movlb	0	; () banked
  3868   0027EC  5191               	movf	mutex_init@m& (0+255),w,b
  3869   0027EE  6ED9               	movwf	fsr2l,c
  3870   0027F0  6ADA               	clrf	fsr2h,c
  3871   0027F2  6ADF               	clrf	indf2,c
  3872   0027F4                     
  3873                           ; BSR set to: 0
  3874                           ;sync.c: 45:     m->owner_id = 0;
  3875   0027F4  5191               	movf	mutex_init@m& (0+255),w,b
  3876   0027F6  6ED9               	movwf	fsr2l,c
  3877   0027F8  6ADA               	clrf	fsr2h,c
  3878   0027FA  0E01               	movlw	1
  3879   0027FC  26D9               	addwf	fsr2l,f,c
  3880   0027FE  6ADF               	clrf	indf2,c
  3881   002800                     
  3882                           ; BSR set to: 0
  3883                           ;sync.c: 46:     m->pos_input = 0;
  3884   002800  5191               	movf	mutex_init@m& (0+255),w,b
  3885   002802  6ED9               	movwf	fsr2l,c
  3886   002804  6ADA               	clrf	fsr2h,c
  3887   002806  0E05               	movlw	5
  3888   002808  26D9               	addwf	fsr2l,f,c
  3889   00280A  6ADF               	clrf	indf2,c
  3890   00280C                     
  3891                           ; BSR set to: 0
  3892                           ;sync.c: 47:     m->pos_output = 0;
  3893   00280C  5191               	movf	mutex_init@m& (0+255),w,b
  3894   00280E  6ED9               	movwf	fsr2l,c
  3895   002810  6ADA               	clrf	fsr2h,c
  3896   002812  0E06               	movlw	6
  3897   002814  26D9               	addwf	fsr2l,f,c
  3898   002816  6ADF               	clrf	indf2,c
  3899   002818                     
  3900                           ; BSR set to: 0
  3901                           ;sync.c: 48:     m->waiting_count = 0;
  3902   002818  5191               	movf	mutex_init@m& (0+255),w,b
  3903   00281A  6ED9               	movwf	fsr2l,c
  3904   00281C  6ADA               	clrf	fsr2h,c
  3905   00281E  0E07               	movlw	7
  3906   002820  26D9               	addwf	fsr2l,f,c
  3907   002822  6ADF               	clrf	indf2,c
  3908   002824                     
  3909                           ; BSR set to: 0
  3910   002824  0012               	return		;funcret
  3911   002826                     __end_of_mutex_init:
  3912                           	callstack 0
  3913                           
  3914 ;; *************** function _idle *****************
  3915 ;; Defined at:
  3916 ;;		line 104 in file "kernel.c"
  3917 ;; Parameters:    Size  Location     Type
  3918 ;;		None
  3919 ;; Auto vars:     Size  Location     Type
  3920 ;;		None
  3921 ;; Return value:  Size  Location     Type
  3922 ;;                  1    wreg      void 
  3923 ;; Registers used:
  3924 ;;		wreg, status,2, status,0
  3925 ;; Tracked objects:
  3926 ;;		On entry : 0/0
  3927 ;;		On exit  : 0/0
  3928 ;;		Unchanged: 0/0
  3929 ;; Data sizes:     COMRAM   BANK0   BANK1   BANK2   BANK3   BANK4   BANK5   BANK6   BANK7   BANK8   BANK9  BANK10  BANK1
      +1  BANK12  BANK13  BANK14  BANK15
  3930 ;;      Params:         0       0       0       0       0       0       0       0       0       0       0       0       
      +0       0       0       0       0
  3931 ;;      Locals:         0       0       0       0       0       0       0       0       0       0       0       0       
      +0       0       0       0       0
  3932 ;;      Temps:          0       1       0       0       0       0       0       0       0       0       0       0       
      +0       0       0       0       0
  3933 ;;      Totals:         0       1       0       0       0       0       0       0       0       0       0       0       
      +0       0       0       0       0
  3934 ;;Total ram usage:        1 bytes
  3935 ;; Hardware stack levels used: 1
  3936 ;; Hardware stack levels required when called: 4
  3937 ;; This function calls:
  3938 ;;		Nothing
  3939 ;; This function is called by:
  3940 ;;		_os_config
  3941 ;;		_RR_scheduler
  3942 ;; This function uses a non-reentrant model
  3943 ;;
  3944                           
  3945                           	psect	text12
  3946   00291E                     __ptext12:
  3947                           	callstack 0
  3948   00291E                     _idle:
  3949                           	callstack 22
  3950   00291E                     
  3951                           ;kernel.c: 106:     TRISCbits.RC0 = 0;
  3952   00291E  9094               	bcf	148,0,c	;volatile
  3953   002920                     l3738:
  3954                           
  3955                           ;kernel.c: 109:         PORTCbits.RC0 = ~PORTCbits.RC0;
  3956   002920  B082               	btfsc	130,0,c	;volatile
  3957   002922  EF95  F014         	goto	u331_21
  3958   002926  EF98  F014         	goto	u331_20
  3959   00292A                     u331_21:
  3960   00292A  0E01               	movlw	1
  3961   00292C  EF99  F014         	goto	u331_26
  3962   002930                     u331_20:
  3963   002930  0E00               	movlw	0
  3964   002932                     u331_26:
  3965   002932  0AFF               	xorlw	255
  3966   002934  0100               	movlb	0	; () banked
  3967   002936  6F60               	movwf	??_idle& (0+255),b
  3968   002938  5082               	movf	130,w,c	;volatile
  3969   00293A  1960               	xorwf	??_idle& (0+255),w,b
  3970   00293C  0BFE               	andlw	-2
  3971   00293E  1960               	xorwf	??_idle& (0+255),w,b
  3972   002940  6E82               	movwf	130,c	;volatile
  3973   002942  EF90  F014         	goto	l3738
  3974   002946  0012               	return		;funcret
  3975   002948                     __end_of_idle:
  3976                           	callstack 0
  3977                           
  3978 ;; *************** function _LED_1_mutex *****************
  3979 ;; Defined at:
  3980 ;;		line 88 in file "user.c"
  3981 ;; Parameters:    Size  Location     Type
  3982 ;;		None
  3983 ;; Auto vars:     Size  Location     Type
  3984 ;;		None
  3985 ;; Return value:  Size  Location     Type
  3986 ;;                  1    wreg      void 
  3987 ;; Registers used:
  3988 ;;		wreg, fsr1l, fsr1h, fsr2l, fsr2h, status,2, status,0, prodl, prodh, cstack
  3989 ;; Tracked objects:
  3990 ;;		On entry : 0/0
  3991 ;;		On exit  : 0/0
  3992 ;;		Unchanged: 0/0
  3993 ;; Data sizes:     COMRAM   BANK0   BANK1   BANK2   BANK3   BANK4   BANK5   BANK6   BANK7   BANK8   BANK9  BANK10  BANK1
      +1  BANK12  BANK13  BANK14  BANK15
  3994 ;;      Params:         0       0       0       0       0       0       0       0       0       0       0       0       
      +0       0       0       0       0
  3995 ;;      Locals:         0       0       0       0       0       0       0       0       0       0       0       0       
      +0       0       0       0       0
  3996 ;;      Temps:          0       0       0       0       0       0       0       0       0       0       0       0       
      +0       0       0       0       0
  3997 ;;      Totals:         0       0       0       0       0       0       0       0       0       0       0       0       
      +0       0       0       0       0
  3998 ;;Total ram usage:        0 bytes
  3999 ;; Hardware stack levels used: 1
  4000 ;; Hardware stack levels required when called: 8
  4001 ;; This function calls:
  4002 ;;		_mutex_lock
  4003 ;;		_mutex_unlock
  4004 ;;		_os_delay
  4005 ;; This function is called by:
  4006 ;;		Interrupt level 1
  4007 ;; This function uses a non-reentrant model
  4008 ;;
  4009                           
  4010                           	psect	text13
  4011   00299A                     __ptext13:
  4012                           	callstack 0
  4013   00299A                     _LED_1_mutex:
  4014                           	callstack 18
  4015   00299A                     l379:
  4016   00299A                     
  4017                           ;user.c: 90:         mutex_lock(&m_led);
  4018   00299A  0E16               	movlw	low _m_led
  4019   00299C  0100               	movlb	0	; () banked
  4020   00299E  6F89               	movwf	mutex_lock@m& (0+255),b
  4021   0029A0  EC01  F008         	call	_mutex_lock	;wreg free
  4022   0029A4                     
  4023                           ;user.c: 92:         PORTCbits.RC6 = 1;
  4024   0029A4  8C82               	bsf	130,6,c	;volatile
  4025                           
  4026                           ;user.c: 93:         os_delay(5);
  4027   0029A6  0E05               	movlw	5
  4028   0029A8  EC4B  F00B         	call	_os_delay
  4029   0029AC                     
  4030                           ;user.c: 94:         PORTCbits.RC6 = 0;
  4031   0029AC  9C82               	bcf	130,6,c	;volatile
  4032                           
  4033                           ;user.c: 96:         mutex_unlock(&m_led);
  4034   0029AE  0E16               	movlw	low _m_led
  4035   0029B0  0100               	movlb	0	; () banked
  4036   0029B2  6F7F               	movwf	mutex_unlock@m& (0+255),b
  4037   0029B4  ECCB  F011         	call	_mutex_unlock	;wreg free
  4038   0029B8  EFCD  F014         	goto	l379
  4039   0029BC  0012               	return		;funcret
  4040   0029BE                     __end_of_LED_1_mutex:
  4041                           	callstack 0
  4042                           
  4043 ;; *************** function _os_delay *****************
  4044 ;; Defined at:
  4045 ;;		line 10 in file "kernel.c"
  4046 ;; Parameters:    Size  Location     Type
  4047 ;;  time            1    wreg     unsigned char 
  4048 ;; Auto vars:     Size  Location     Type
  4049 ;;  time            1   48[BANK0 ] unsigned char 
  4050 ;; Return value:  Size  Location     Type
  4051 ;;                  1    wreg      void 
  4052 ;; Registers used:
  4053 ;;		wreg, fsr1l, fsr1h, fsr2l, fsr2h, status,2, status,0, prodl, prodh, cstack
  4054 ;; Tracked objects:
  4055 ;;		On entry : 0/0
  4056 ;;		On exit  : 0/0
  4057 ;;		Unchanged: 0/0
  4058 ;; Data sizes:     COMRAM   BANK0   BANK1   BANK2   BANK3   BANK4   BANK5   BANK6   BANK7   BANK8   BANK9  BANK10  BANK1
      +1  BANK12  BANK13  BANK14  BANK15
  4059 ;;      Params:         0       0       0       0       0       0       0       0       0       0       0       0       
      +0       0       0       0       0
  4060 ;;      Locals:         0       1       0       0       0       0       0       0       0       0       0       0       
      +0       0       0       0       0
  4061 ;;      Temps:          0       7       0       0       0       0       0       0       0       0       0       0       
      +0       0       0       0       0
  4062 ;;      Totals:         0       8       0       0       0       0       0       0       0       0       0       0       
      +0       0       0       0       0
  4063 ;;Total ram usage:        8 bytes
  4064 ;; Hardware stack levels used: 1
  4065 ;; Hardware stack levels required when called: 5
  4066 ;; This function calls:
  4067 ;;		i1_scheduler
  4068 ;; This function is called by:
  4069 ;;		_LED_1_mutex
  4070 ;;		_LED_2_mutex
  4071 ;;		_LED_1_prio
  4072 ;;		_LED_2_prio
  4073 ;;		_LED_3_prio
  4074 ;; This function uses a non-reentrant model
  4075 ;;
  4076                           
  4077                           	psect	text14
  4078   001696                     __ptext14:
  4079                           	callstack 0
  4080   001696                     _os_delay:
  4081                           	callstack 20
  4082                           
  4083                           ;incstack = 0
  4084                           ;os_delay@time stored from wreg
  4085   001696  0100               	movlb	0	; () banked
  4086   001698  6F90               	movwf	os_delay@time& (0+255),b
  4087   00169A                     
  4088                           ;kernel.c: 10: void os_delay(uint8_t time);kernel.c: 11: {;kernel.c: 12:     INTCONbits.
      +                          GIE = 0;;
  4089   00169A  9EF2               	bcf	242,7,c	;volatile
  4090   00169C  EE25  F04B         	lfsr	2,_r_queue+469
  4091   0016A0  EE10 F001          	lfsr	1,1
  4092   0016A4  50DE               	movf	postinc2,w,c
  4093   0016A6  26E1               	addwf	fsr1l,f,c
  4094   0016A8  50DD               	movf	postdec2,w,c
  4095   0016AA  22E2               	addwfc	fsr1h,f,c
  4096   0016AC  0E02               	movlw	2
  4097   0016AE  18E6               	xorwf	postinc1,w,c
  4098   0016B0  A4D8               	btfss	status,2,c
  4099   0016B2  EF5D  F00B         	goto	i1u311_21
  4100   0016B6  EF5F  F00B         	goto	i1u311_20
  4101   0016BA                     i1u311_21:
  4102   0016BA  EF9D  F00C         	goto	i1l3586
  4103   0016BE                     i1u311_20:
  4104   0016BE  EE25  F04B         	lfsr	2,_r_queue+469
  4105   0016C2  EE10 F001          	lfsr	1,1
  4106   0016C6  50DE               	movf	postinc2,w,c
  4107   0016C8  26E1               	addwf	fsr1l,f,c
  4108   0016CA  50DD               	movf	postdec2,w,c
  4109   0016CC  22E2               	addwfc	fsr1h,f,c
  4110   0016CE  0E01               	movlw	1
  4111   0016D0  6EE7               	movwf	indf1,c
  4112   0016D2  EE25  F04B         	lfsr	2,_r_queue+469
  4113   0016D6  EE10 F008          	lfsr	1,8
  4114   0016DA  50DE               	movf	postinc2,w,c
  4115   0016DC  26E1               	addwf	fsr1l,f,c
  4116   0016DE  50DD               	movf	postdec2,w,c
  4117   0016E0  22E2               	addwfc	fsr1h,f,c
  4118   0016E2  CFE0 FFE7          	movff	bsr,indf1	;volatile
  4119   0016E6  EE25  F04B         	lfsr	2,_r_queue+469
  4120   0016EA  EE10 F00C          	lfsr	1,12
  4121   0016EE  50DE               	movf	postinc2,w,c
  4122   0016F0  26E1               	addwf	fsr1l,f,c
  4123   0016F2  50DD               	movf	postdec2,w,c
  4124   0016F4  22E2               	addwfc	fsr1h,f,c
  4125   0016F6  CFEA FFE7          	movff	fsr0h,indf1	;volatile
  4126   0016FA  EE25  F04B         	lfsr	2,_r_queue+469
  4127   0016FE  EE10 F00B          	lfsr	1,11
  4128   001702  50DE               	movf	postinc2,w,c
  4129   001704  26E1               	addwf	fsr1l,f,c
  4130   001706  50DD               	movf	postdec2,w,c
  4131   001708  22E2               	addwfc	fsr1h,f,c
  4132   00170A  CFE9 FFE7          	movff	fsr0l,indf1	;volatile
  4133   00170E  EE25  F04B         	lfsr	2,_r_queue+469
  4134   001712  EE10 F00E          	lfsr	1,14
  4135   001716  50DE               	movf	postinc2,w,c
  4136   001718  26E1               	addwf	fsr1l,f,c
  4137   00171A  50DD               	movf	postdec2,w,c
  4138   00171C  22E2               	addwfc	fsr1h,f,c
  4139   00171E  CFE2 FFE7          	movff	fsr1h,indf1	;volatile
  4140   001722  EE25  F04B         	lfsr	2,_r_queue+469
  4141   001726  EE10 F00D          	lfsr	1,13
  4142   00172A  50DE               	movf	postinc2,w,c
  4143   00172C  26E1               	addwf	fsr1l,f,c
  4144   00172E  50DD               	movf	postdec2,w,c
  4145   001730  22E2               	addwfc	fsr1h,f,c
  4146   001732  CFE1 FFE7          	movff	fsr1l,indf1	;volatile
  4147   001736  EE25  F04B         	lfsr	2,_r_queue+469
  4148   00173A  EE10 F010          	lfsr	1,16
  4149   00173E  50DE               	movf	postinc2,w,c
  4150   001740  26E1               	addwf	fsr1l,f,c
  4151   001742  50DD               	movf	postdec2,w,c
  4152   001744  22E2               	addwfc	fsr1h,f,c
  4153   001746  CFDA FFE7          	movff	fsr2h,indf1	;volatile
  4154   00174A  EE25  F04B         	lfsr	2,_r_queue+469
  4155   00174E  EE10 F00F          	lfsr	1,15
  4156   001752  50DE               	movf	postinc2,w,c
  4157   001754  26E1               	addwf	fsr1l,f,c
  4158   001756  50DD               	movf	postdec2,w,c
  4159   001758  22E2               	addwfc	fsr1h,f,c
  4160   00175A  CFD9 FFE7          	movff	fsr2l,indf1	;volatile
  4161   00175E  EE25  F04B         	lfsr	2,_r_queue+469
  4162   001762  EE10 F015          	lfsr	1,21
  4163   001766  50DE               	movf	postinc2,w,c
  4164   001768  26E1               	addwf	fsr1l,f,c
  4165   00176A  50DD               	movf	postdec2,w,c
  4166   00176C  22E2               	addwfc	fsr1h,f,c
  4167   00176E  CFFA FFE7          	movff	pclath,indf1	;volatile
  4168   001772  EE25  F04B         	lfsr	2,_r_queue+469
  4169   001776  EE10 F016          	lfsr	1,22
  4170   00177A  50DE               	movf	postinc2,w,c
  4171   00177C  26E1               	addwf	fsr1l,f,c
  4172   00177E  50DD               	movf	postdec2,w,c
  4173   001780  22E2               	addwfc	fsr1h,f,c
  4174   001782  CFFB FFE7          	movff	pclatu,indf1	;volatile
  4175   001786  EE25  F04B         	lfsr	2,_r_queue+469
  4176   00178A  EE10 F00A          	lfsr	1,10
  4177   00178E  50DE               	movf	postinc2,w,c
  4178   001790  26E1               	addwf	fsr1l,f,c
  4179   001792  50DD               	movf	postdec2,w,c
  4180   001794  22E2               	addwfc	fsr1h,f,c
  4181   001796  CFF4 FFE7          	movff	prodh,indf1	;volatile
  4182   00179A  EE25  F04B         	lfsr	2,_r_queue+469
  4183   00179E  EE10 F009          	lfsr	1,9
  4184   0017A2  50DE               	movf	postinc2,w,c
  4185   0017A4  26E1               	addwf	fsr1l,f,c
  4186   0017A6  50DD               	movf	postdec2,w,c
  4187   0017A8  22E2               	addwfc	fsr1h,f,c
  4188   0017AA  CFF3 FFE7          	movff	prodl,indf1	;volatile
  4189   0017AE  EE25  F04B         	lfsr	2,_r_queue+469
  4190   0017B2  EE10 F011          	lfsr	1,17
  4191   0017B6  50DE               	movf	postinc2,w,c
  4192   0017B8  26E1               	addwf	fsr1l,f,c
  4193   0017BA  50DD               	movf	postdec2,w,c
  4194   0017BC  22E2               	addwfc	fsr1h,f,c
  4195   0017BE  CFF5 FFE7          	movff	tablat,indf1	;volatile
  4196   0017C2  EE25  F04B         	lfsr	2,_r_queue+469
  4197   0017C6  EE10 F013          	lfsr	1,19
  4198   0017CA  50DE               	movf	postinc2,w,c
  4199   0017CC  26E1               	addwf	fsr1l,f,c
  4200   0017CE  50DD               	movf	postdec2,w,c
  4201   0017D0  22E2               	addwfc	fsr1h,f,c
  4202   0017D2  CFF7 FFE7          	movff	tblptrh,indf1	;volatile
  4203   0017D6  EE25  F04B         	lfsr	2,_r_queue+469
  4204   0017DA  EE10 F012          	lfsr	1,18
  4205   0017DE  50DE               	movf	postinc2,w,c
  4206   0017E0  26E1               	addwf	fsr1l,f,c
  4207   0017E2  50DD               	movf	postdec2,w,c
  4208   0017E4  22E2               	addwfc	fsr1h,f,c
  4209   0017E6  CFF6 FFE7          	movff	tblptrl,indf1	;volatile
  4210   0017EA  EE25  F04B         	lfsr	2,_r_queue+469
  4211   0017EE  EE10 F014          	lfsr	1,20
  4212   0017F2  50DE               	movf	postinc2,w,c
  4213   0017F4  26E1               	addwf	fsr1l,f,c
  4214   0017F6  50DD               	movf	postdec2,w,c
  4215   0017F8  22E2               	addwfc	fsr1h,f,c
  4216   0017FA  CFF8 FFE7          	movff	tblptru,indf1	;volatile
  4217   0017FE  EE25  F04B         	lfsr	2,_r_queue+469
  4218   001802  EE10 F006          	lfsr	1,6
  4219   001806  50DE               	movf	postinc2,w,c
  4220   001808  26E1               	addwf	fsr1l,f,c
  4221   00180A  50DD               	movf	postdec2,w,c
  4222   00180C  22E2               	addwfc	fsr1h,f,c
  4223   00180E  CFE8 FFE7          	movff	wreg,indf1	;volatile
  4224   001812  EE25  F04B         	lfsr	2,_r_queue+469
  4225   001816  EE10 F007          	lfsr	1,7
  4226   00181A  50DE               	movf	postinc2,w,c
  4227   00181C  26E1               	addwf	fsr1l,f,c
  4228   00181E  50DD               	movf	postdec2,w,c
  4229   001820  22E2               	addwfc	fsr1h,f,c
  4230   001822  CFD8 FFE7          	movff	status,indf1	;volatile
  4231   001826  EE25  F04B         	lfsr	2,_r_queue+469
  4232   00182A  EE10 F074          	lfsr	1,116
  4233   00182E  50DE               	movf	postinc2,w,c
  4234   001830  26E1               	addwf	fsr1l,f,c
  4235   001832  50DD               	movf	postdec2,w,c
  4236   001834  22E2               	addwfc	fsr1h,f,c
  4237   001836  6AE7               	clrf	indf1,c
  4238   001838  EF95  F00C         	goto	i1l3584
  4239   00183C                     i1l3580:
  4240   00183C  EE25  F04B         	lfsr	2,_r_queue+469
  4241   001840  EE10 F074          	lfsr	1,116
  4242   001844  50DE               	movf	postinc2,w,c
  4243   001846  26E1               	addwf	fsr1l,f,c
  4244   001848  50DD               	movf	postdec2,w,c
  4245   00184A  22E2               	addwfc	fsr1h,f,c
  4246   00184C  50E7               	movf	indf1,w,c
  4247   00184E  0100               	movlb	0	; () banked
  4248   001850  6F89               	movwf	??_os_delay& (0+255),b
  4249   001852  5189               	movf	??_os_delay& (0+255),w,b
  4250   001854  0D03               	mullw	3
  4251   001856  CFF3 F08A          	movff	prodl,??_os_delay+1
  4252   00185A  CFF4 F08B          	movff	prodh,??_os_delay+2
  4253   00185E  EE25  F04B         	lfsr	2,_r_queue+469
  4254   001862  CFDE F08C          	movff	postinc2,??_os_delay+3
  4255   001866  CFDD F08D          	movff	postdec2,??_os_delay+4
  4256   00186A  518A               	movf	(??_os_delay+1)& (0+255),w,b
  4257   00186C  258C               	addwf	(??_os_delay+3)& (0+255),w,b
  4258   00186E  6F8E               	movwf	(??_os_delay+5)& (0+255),b
  4259   001870  518B               	movf	(??_os_delay+2)& (0+255),w,b
  4260   001872  218D               	addwfc	(??_os_delay+4)& (0+255),w,b
  4261   001874  6F8F               	movwf	(??_os_delay+6)& (0+255),b
  4262   001876  0E17               	movlw	23
  4263   001878  258E               	addwf	(??_os_delay+5)& (0+255),w,b
  4264   00187A  6ED9               	movwf	fsr2l,c
  4265   00187C  0E00               	movlw	0
  4266   00187E  218F               	addwfc	(??_os_delay+6)& (0+255),w,b
  4267   001880  6EDA               	movwf	fsr2h,c
  4268   001882  CFFD FFDF          	movff	tosl,indf2	;volatile
  4269   001886  EE25  F04B         	lfsr	2,_r_queue+469
  4270   00188A  EE10 F074          	lfsr	1,116
  4271   00188E  50DE               	movf	postinc2,w,c
  4272   001890  26E1               	addwf	fsr1l,f,c
  4273   001892  50DD               	movf	postdec2,w,c
  4274   001894  22E2               	addwfc	fsr1h,f,c
  4275   001896  50E7               	movf	indf1,w,c
  4276   001898  6F89               	movwf	??_os_delay& (0+255),b
  4277   00189A  5189               	movf	??_os_delay& (0+255),w,b
  4278   00189C  0D03               	mullw	3
  4279   00189E  CFF3 F08A          	movff	prodl,??_os_delay+1
  4280   0018A2  CFF4 F08B          	movff	prodh,??_os_delay+2
  4281   0018A6  EE25  F04B         	lfsr	2,_r_queue+469
  4282   0018AA  CFDE F08C          	movff	postinc2,??_os_delay+3
  4283   0018AE  CFDD F08D          	movff	postdec2,??_os_delay+4
  4284   0018B2  518A               	movf	(??_os_delay+1)& (0+255),w,b
  4285   0018B4  258C               	addwf	(??_os_delay+3)& (0+255),w,b
  4286   0018B6  6F8E               	movwf	(??_os_delay+5)& (0+255),b
  4287   0018B8  518B               	movf	(??_os_delay+2)& (0+255),w,b
  4288   0018BA  218D               	addwfc	(??_os_delay+4)& (0+255),w,b
  4289   0018BC  6F8F               	movwf	(??_os_delay+6)& (0+255),b
  4290   0018BE  0E18               	movlw	24
  4291   0018C0  258E               	addwf	(??_os_delay+5)& (0+255),w,b
  4292   0018C2  6ED9               	movwf	fsr2l,c
  4293   0018C4  0E00               	movlw	0
  4294   0018C6  218F               	addwfc	(??_os_delay+6)& (0+255),w,b
  4295   0018C8  6EDA               	movwf	fsr2h,c
  4296   0018CA  CFFE FFDF          	movff	tosh,indf2	;volatile
  4297   0018CE  EE25  F04B         	lfsr	2,_r_queue+469
  4298   0018D2  EE10 F074          	lfsr	1,116
  4299   0018D6  50DE               	movf	postinc2,w,c
  4300   0018D8  26E1               	addwf	fsr1l,f,c
  4301   0018DA  50DD               	movf	postdec2,w,c
  4302   0018DC  22E2               	addwfc	fsr1h,f,c
  4303   0018DE  50E7               	movf	indf1,w,c
  4304   0018E0  6F89               	movwf	??_os_delay& (0+255),b
  4305   0018E2  5189               	movf	??_os_delay& (0+255),w,b
  4306   0018E4  0D03               	mullw	3
  4307   0018E6  CFF3 F08A          	movff	prodl,??_os_delay+1
  4308   0018EA  CFF4 F08B          	movff	prodh,??_os_delay+2
  4309   0018EE  EE25  F04B         	lfsr	2,_r_queue+469
  4310   0018F2  CFDE F08C          	movff	postinc2,??_os_delay+3
  4311   0018F6  CFDD F08D          	movff	postdec2,??_os_delay+4
  4312   0018FA  518A               	movf	(??_os_delay+1)& (0+255),w,b
  4313   0018FC  258C               	addwf	(??_os_delay+3)& (0+255),w,b
  4314   0018FE  6F8E               	movwf	(??_os_delay+5)& (0+255),b
  4315   001900  518B               	movf	(??_os_delay+2)& (0+255),w,b
  4316   001902  218D               	addwfc	(??_os_delay+4)& (0+255),w,b
  4317   001904  6F8F               	movwf	(??_os_delay+6)& (0+255),b
  4318   001906  0E19               	movlw	25
  4319   001908  258E               	addwf	(??_os_delay+5)& (0+255),w,b
  4320   00190A  6ED9               	movwf	fsr2l,c
  4321   00190C  0E00               	movlw	0
  4322   00190E  218F               	addwfc	(??_os_delay+6)& (0+255),w,b
  4323   001910  6EDA               	movwf	fsr2h,c
  4324   001912  CFFF FFDF          	movff	tosu,indf2	;volatile
  4325   001916                     
  4326                           ; BSR set to: 0
  4327   001916  EE25  F04B         	lfsr	2,_r_queue+469
  4328   00191A  EE10 F074          	lfsr	1,116
  4329   00191E  50DE               	movf	postinc2,w,c
  4330   001920  26E1               	addwf	fsr1l,f,c
  4331   001922  50DD               	movf	postdec2,w,c
  4332   001924  22E2               	addwfc	fsr1h,f,c
  4333   001926  2AE7               	incf	indf1,f,c
  4334   001928  0006               	pop		;# 
  4335   00192A                     i1l3584:
  4336   00192A  50FC               	movf	252,w,c	;volatile
  4337   00192C  A4D8               	btfss	status,2,c
  4338   00192E  EF9B  F00C         	goto	i1u312_21
  4339   001932  EF9D  F00C         	goto	i1u312_20
  4340   001936                     i1u312_21:
  4341   001936  EF1E  F00C         	goto	i1l3580
  4342   00193A                     i1u312_20:
  4343   00193A                     i1l3586:
  4344                           
  4345                           ;kernel.c: 15:     r_queue.TASKS[r_queue.pos_task_running].task_delay = time;
  4346   00193A  C54D  F089         	movff	_r_queue+471,??_os_delay
  4347   00193E  0100               	movlb	0	; () banked
  4348   001940  5189               	movf	??_os_delay& (0+255),w,b
  4349   001942  0D75               	mullw	117
  4350   001944  0E7A               	movlw	low (_r_queue+4)
  4351   001946  24F3               	addwf	243,w,c
  4352   001948  6ED9               	movwf	fsr2l,c
  4353   00194A  0E03               	movlw	high (_r_queue+4)
  4354   00194C  20F4               	addwfc	prodh,w,c
  4355   00194E  6EDA               	movwf	fsr2h,c
  4356   001950  C090  FFDF         	movff	os_delay@time,indf2
  4357   001954                     
  4358                           ; BSR set to: 0
  4359                           ;kernel.c: 16:     scheduler();
  4360   001954  ECA4  F014         	call	i1_scheduler	;wreg free
  4361   001958  EE25  F04B         	lfsr	2,_r_queue+469
  4362   00195C  EE10 F001          	lfsr	1,1
  4363   001960  50DE               	movf	postinc2,w,c
  4364   001962  26E1               	addwf	fsr1l,f,c
  4365   001964  50DD               	movf	postdec2,w,c
  4366   001966  22E2               	addwfc	fsr1h,f,c
  4367   001968  50E7               	movf	indf1,w,c
  4368   00196A  A4D8               	btfss	status,2,c
  4369   00196C  EFBA  F00C         	goto	i1u313_21
  4370   001970  EFBC  F00C         	goto	i1u313_20
  4371   001974                     i1u313_21:
  4372   001974  EF53  F00E         	goto	i1l3610
  4373   001978                     i1u313_20:
  4374   001978  EE25  F04B         	lfsr	2,_r_queue+469
  4375   00197C  EE10 F001          	lfsr	1,1
  4376   001980  50DE               	movf	postinc2,w,c
  4377   001982  26E1               	addwf	fsr1l,f,c
  4378   001984  50DD               	movf	postdec2,w,c
  4379   001986  22E2               	addwfc	fsr1h,f,c
  4380   001988  0E02               	movlw	2
  4381   00198A  6EE7               	movwf	indf1,c
  4382   00198C  EE25  F04B         	lfsr	2,_r_queue+469
  4383   001990  EE10 F008          	lfsr	1,8
  4384   001994  50DE               	movf	postinc2,w,c
  4385   001996  26E1               	addwf	fsr1l,f,c
  4386   001998  50DD               	movf	postdec2,w,c
  4387   00199A  22E2               	addwfc	fsr1h,f,c
  4388   00199C  50E7               	movf	indf1,w,c
  4389   00199E  6EE0               	movwf	224,c	;volatile
  4390   0019A0  EE25  F04B         	lfsr	2,_r_queue+469
  4391   0019A4  EE10 F00C          	lfsr	1,12
  4392   0019A8  50DE               	movf	postinc2,w,c
  4393   0019AA  26E1               	addwf	fsr1l,f,c
  4394   0019AC  50DD               	movf	postdec2,w,c
  4395   0019AE  22E2               	addwfc	fsr1h,f,c
  4396   0019B0  50E7               	movf	indf1,w,c
  4397   0019B2  6EEA               	movwf	234,c	;volatile
  4398   0019B4  EE25  F04B         	lfsr	2,_r_queue+469
  4399   0019B8  EE10 F00B          	lfsr	1,11
  4400   0019BC  50DE               	movf	postinc2,w,c
  4401   0019BE  26E1               	addwf	fsr1l,f,c
  4402   0019C0  50DD               	movf	postdec2,w,c
  4403   0019C2  22E2               	addwfc	fsr1h,f,c
  4404   0019C4  50E7               	movf	indf1,w,c
  4405   0019C6  6EE9               	movwf	233,c	;volatile
  4406   0019C8  EE25  F04B         	lfsr	2,_r_queue+469
  4407   0019CC  EE10 F00E          	lfsr	1,14
  4408   0019D0  50DE               	movf	postinc2,w,c
  4409   0019D2  26E1               	addwf	fsr1l,f,c
  4410   0019D4  50DD               	movf	postdec2,w,c
  4411   0019D6  22E2               	addwfc	fsr1h,f,c
  4412   0019D8  50E7               	movf	indf1,w,c
  4413   0019DA  6EE2               	movwf	226,c	;volatile
  4414   0019DC  EE25  F04B         	lfsr	2,_r_queue+469
  4415   0019E0  EE10 F00D          	lfsr	1,13
  4416   0019E4  50DE               	movf	postinc2,w,c
  4417   0019E6  26E1               	addwf	fsr1l,f,c
  4418   0019E8  50DD               	movf	postdec2,w,c
  4419   0019EA  22E2               	addwfc	fsr1h,f,c
  4420   0019EC  50E7               	movf	indf1,w,c
  4421   0019EE  6EE1               	movwf	225,c	;volatile
  4422   0019F0  EE25  F04B         	lfsr	2,_r_queue+469
  4423   0019F4  EE10 F010          	lfsr	1,16
  4424   0019F8  50DE               	movf	postinc2,w,c
  4425   0019FA  26E1               	addwf	fsr1l,f,c
  4426   0019FC  50DD               	movf	postdec2,w,c
  4427   0019FE  22E2               	addwfc	fsr1h,f,c
  4428   001A00  50E7               	movf	indf1,w,c
  4429   001A02  6EDA               	movwf	218,c	;volatile
  4430   001A04  EE25  F04B         	lfsr	2,_r_queue+469
  4431   001A08  EE10 F00F          	lfsr	1,15
  4432   001A0C  50DE               	movf	postinc2,w,c
  4433   001A0E  26E1               	addwf	fsr1l,f,c
  4434   001A10  50DD               	movf	postdec2,w,c
  4435   001A12  22E2               	addwfc	fsr1h,f,c
  4436   001A14  50E7               	movf	indf1,w,c
  4437   001A16  6ED9               	movwf	217,c	;volatile
  4438   001A18  EE25  F04B         	lfsr	2,_r_queue+469
  4439   001A1C  EE10 F015          	lfsr	1,21
  4440   001A20  50DE               	movf	postinc2,w,c
  4441   001A22  26E1               	addwf	fsr1l,f,c
  4442   001A24  50DD               	movf	postdec2,w,c
  4443   001A26  22E2               	addwfc	fsr1h,f,c
  4444   001A28  50E7               	movf	indf1,w,c
  4445   001A2A  6EFA               	movwf	250,c	;volatile
  4446   001A2C  EE25  F04B         	lfsr	2,_r_queue+469
  4447   001A30  EE10 F016          	lfsr	1,22
  4448   001A34  50DE               	movf	postinc2,w,c
  4449   001A36  26E1               	addwf	fsr1l,f,c
  4450   001A38  50DD               	movf	postdec2,w,c
  4451   001A3A  22E2               	addwfc	fsr1h,f,c
  4452   001A3C  50E7               	movf	indf1,w,c
  4453   001A3E  6EFB               	movwf	251,c	;volatile
  4454   001A40  EE25  F04B         	lfsr	2,_r_queue+469
  4455   001A44  EE10 F00A          	lfsr	1,10
  4456   001A48  50DE               	movf	postinc2,w,c
  4457   001A4A  26E1               	addwf	fsr1l,f,c
  4458   001A4C  50DD               	movf	postdec2,w,c
  4459   001A4E  22E2               	addwfc	fsr1h,f,c
  4460   001A50  50E7               	movf	indf1,w,c
  4461   001A52  6EF4               	movwf	244,c	;volatile
  4462   001A54  EE25  F04B         	lfsr	2,_r_queue+469
  4463   001A58  EE10 F009          	lfsr	1,9
  4464   001A5C  50DE               	movf	postinc2,w,c
  4465   001A5E  26E1               	addwf	fsr1l,f,c
  4466   001A60  50DD               	movf	postdec2,w,c
  4467   001A62  22E2               	addwfc	fsr1h,f,c
  4468   001A64  50E7               	movf	indf1,w,c
  4469   001A66  6EF3               	movwf	243,c	;volatile
  4470   001A68  EE25  F04B         	lfsr	2,_r_queue+469
  4471   001A6C  EE10 F011          	lfsr	1,17
  4472   001A70  50DE               	movf	postinc2,w,c
  4473   001A72  26E1               	addwf	fsr1l,f,c
  4474   001A74  50DD               	movf	postdec2,w,c
  4475   001A76  22E2               	addwfc	fsr1h,f,c
  4476   001A78  50E7               	movf	indf1,w,c
  4477   001A7A  6EF5               	movwf	245,c	;volatile
  4478   001A7C  EE25  F04B         	lfsr	2,_r_queue+469
  4479   001A80  EE10 F013          	lfsr	1,19
  4480   001A84  50DE               	movf	postinc2,w,c
  4481   001A86  26E1               	addwf	fsr1l,f,c
  4482   001A88  50DD               	movf	postdec2,w,c
  4483   001A8A  22E2               	addwfc	fsr1h,f,c
  4484   001A8C  50E7               	movf	indf1,w,c
  4485   001A8E  6EF7               	movwf	247,c	;volatile
  4486   001A90  EE25  F04B         	lfsr	2,_r_queue+469
  4487   001A94  EE10 F012          	lfsr	1,18
  4488   001A98  50DE               	movf	postinc2,w,c
  4489   001A9A  26E1               	addwf	fsr1l,f,c
  4490   001A9C  50DD               	movf	postdec2,w,c
  4491   001A9E  22E2               	addwfc	fsr1h,f,c
  4492   001AA0  50E7               	movf	indf1,w,c
  4493   001AA2  6EF6               	movwf	246,c	;volatile
  4494   001AA4  EE25  F04B         	lfsr	2,_r_queue+469
  4495   001AA8  EE10 F014          	lfsr	1,20
  4496   001AAC  50DE               	movf	postinc2,w,c
  4497   001AAE  26E1               	addwf	fsr1l,f,c
  4498   001AB0  50DD               	movf	postdec2,w,c
  4499   001AB2  22E2               	addwfc	fsr1h,f,c
  4500   001AB4  50E7               	movf	indf1,w,c
  4501   001AB6  6EF8               	movwf	248,c	;volatile
  4502   001AB8  EE25  F04B         	lfsr	2,_r_queue+469
  4503   001ABC  EE10 F007          	lfsr	1,7
  4504   001AC0  50DE               	movf	postinc2,w,c
  4505   001AC2  26E1               	addwf	fsr1l,f,c
  4506   001AC4  50DD               	movf	postdec2,w,c
  4507   001AC6  22E2               	addwfc	fsr1h,f,c
  4508   001AC8  50E7               	movf	indf1,w,c
  4509   001ACA  6ED8               	movwf	216,c	;volatile
  4510   001ACC  EE25  F04B         	lfsr	2,_r_queue+469
  4511   001AD0  EE10 F006          	lfsr	1,6
  4512   001AD4  50DE               	movf	postinc2,w,c
  4513   001AD6  26E1               	addwf	fsr1l,f,c
  4514   001AD8  50DD               	movf	postdec2,w,c
  4515   001ADA  22E2               	addwfc	fsr1h,f,c
  4516   001ADC  50E7               	movf	indf1,w,c
  4517   001ADE  0100               	movlb	0	; () banked
  4518   001AE0  6F89               	movwf	??_os_delay& (0+255),b
  4519   001AE2  5189               	movf	??_os_delay& (0+255),w,b
  4520   001AE4                     
  4521                           ; BSR set to: 0
  4522   001AE4  6AFC               	clrf	252,c	;volatile
  4523   001AE6  EE25  F04B         	lfsr	2,_r_queue+469
  4524   001AEA  EE10 F074          	lfsr	1,116
  4525   001AEE  50DE               	movf	postinc2,w,c
  4526   001AF0  26E1               	addwf	fsr1l,f,c
  4527   001AF2  50DD               	movf	postdec2,w,c
  4528   001AF4  22E2               	addwfc	fsr1h,f,c
  4529   001AF6  50E7               	movf	indf1,w,c
  4530   001AF8  B4D8               	btfsc	status,2,c
  4531   001AFA  EF81  F00D         	goto	i1u314_21
  4532   001AFE  EF83  F00D         	goto	i1u314_20
  4533   001B02                     i1u314_21:
  4534   001B02  EF0C  F00E         	goto	i1l97
  4535   001B06                     i1u314_20:
  4536   001B06                     i1l98:
  4537                           
  4538                           ; BSR set to: 0
  4539   001B06  0005               	push		;# 
  4540   001B08  EE25  F04B         	lfsr	2,_r_queue+469
  4541   001B0C  EE10 F074          	lfsr	1,116
  4542   001B10  50DE               	movf	postinc2,w,c
  4543   001B12  26E1               	addwf	fsr1l,f,c
  4544   001B14  50DD               	movf	postdec2,w,c
  4545   001B16  22E2               	addwfc	fsr1h,f,c
  4546   001B18  06E7               	decf	indf1,f,c
  4547   001B1A  EE25  F04B         	lfsr	2,_r_queue+469
  4548   001B1E  EE10 F074          	lfsr	1,116
  4549   001B22  50DE               	movf	postinc2,w,c
  4550   001B24  26E1               	addwf	fsr1l,f,c
  4551   001B26  50DD               	movf	postdec2,w,c
  4552   001B28  22E2               	addwfc	fsr1h,f,c
  4553   001B2A  50E7               	movf	indf1,w,c
  4554   001B2C  0100               	movlb	0	; () banked
  4555   001B2E  6F89               	movwf	??_os_delay& (0+255),b
  4556   001B30  5189               	movf	??_os_delay& (0+255),w,b
  4557   001B32  0D03               	mullw	3
  4558   001B34  CFF3 F08A          	movff	prodl,??_os_delay+1
  4559   001B38  CFF4 F08B          	movff	prodh,??_os_delay+2
  4560   001B3C  EE25  F04B         	lfsr	2,_r_queue+469
  4561   001B40  CFDE F08C          	movff	postinc2,??_os_delay+3
  4562   001B44  CFDD F08D          	movff	postdec2,??_os_delay+4
  4563   001B48  518A               	movf	(??_os_delay+1)& (0+255),w,b
  4564   001B4A  258C               	addwf	(??_os_delay+3)& (0+255),w,b
  4565   001B4C  6F8E               	movwf	(??_os_delay+5)& (0+255),b
  4566   001B4E  518B               	movf	(??_os_delay+2)& (0+255),w,b
  4567   001B50  218D               	addwfc	(??_os_delay+4)& (0+255),w,b
  4568   001B52  6F8F               	movwf	(??_os_delay+6)& (0+255),b
  4569   001B54  0E17               	movlw	23
  4570   001B56  258E               	addwf	(??_os_delay+5)& (0+255),w,b
  4571   001B58  6ED9               	movwf	fsr2l,c
  4572   001B5A  0E00               	movlw	0
  4573   001B5C  218F               	addwfc	(??_os_delay+6)& (0+255),w,b
  4574   001B5E  6EDA               	movwf	fsr2h,c
  4575   001B60  50DF               	movf	indf2,w,c
  4576   001B62  6EFD               	movwf	253,c	;volatile
  4577   001B64                     
  4578                           ; BSR set to: 0
  4579   001B64  EE25  F04B         	lfsr	2,_r_queue+469
  4580   001B68  EE10 F074          	lfsr	1,116
  4581   001B6C  50DE               	movf	postinc2,w,c
  4582   001B6E  26E1               	addwf	fsr1l,f,c
  4583   001B70  50DD               	movf	postdec2,w,c
  4584   001B72  22E2               	addwfc	fsr1h,f,c
  4585   001B74  50E7               	movf	indf1,w,c
  4586   001B76  6F89               	movwf	??_os_delay& (0+255),b
  4587   001B78  5189               	movf	??_os_delay& (0+255),w,b
  4588   001B7A  0D03               	mullw	3
  4589   001B7C  CFF3 F08A          	movff	prodl,??_os_delay+1
  4590   001B80  CFF4 F08B          	movff	prodh,??_os_delay+2
  4591   001B84  EE25  F04B         	lfsr	2,_r_queue+469
  4592   001B88  CFDE F08C          	movff	postinc2,??_os_delay+3
  4593   001B8C  CFDD F08D          	movff	postdec2,??_os_delay+4
  4594   001B90  518A               	movf	(??_os_delay+1)& (0+255),w,b
  4595   001B92  258C               	addwf	(??_os_delay+3)& (0+255),w,b
  4596   001B94  6F8E               	movwf	(??_os_delay+5)& (0+255),b
  4597   001B96  518B               	movf	(??_os_delay+2)& (0+255),w,b
  4598   001B98  218D               	addwfc	(??_os_delay+4)& (0+255),w,b
  4599   001B9A  6F8F               	movwf	(??_os_delay+6)& (0+255),b
  4600   001B9C  0E18               	movlw	24
  4601   001B9E  258E               	addwf	(??_os_delay+5)& (0+255),w,b
  4602   001BA0  6ED9               	movwf	fsr2l,c
  4603   001BA2  0E00               	movlw	0
  4604   001BA4  218F               	addwfc	(??_os_delay+6)& (0+255),w,b
  4605   001BA6  6EDA               	movwf	fsr2h,c
  4606   001BA8  50DF               	movf	indf2,w,c
  4607   001BAA  6EFE               	movwf	254,c	;volatile
  4608   001BAC                     
  4609                           ; BSR set to: 0
  4610   001BAC  EE25  F04B         	lfsr	2,_r_queue+469
  4611   001BB0  EE10 F074          	lfsr	1,116
  4612   001BB4  50DE               	movf	postinc2,w,c
  4613   001BB6  26E1               	addwf	fsr1l,f,c
  4614   001BB8  50DD               	movf	postdec2,w,c
  4615   001BBA  22E2               	addwfc	fsr1h,f,c
  4616   001BBC  50E7               	movf	indf1,w,c
  4617   001BBE  6F89               	movwf	??_os_delay& (0+255),b
  4618   001BC0  5189               	movf	??_os_delay& (0+255),w,b
  4619   001BC2  0D03               	mullw	3
  4620   001BC4  CFF3 F08A          	movff	prodl,??_os_delay+1
  4621   001BC8  CFF4 F08B          	movff	prodh,??_os_delay+2
  4622   001BCC  EE25  F04B         	lfsr	2,_r_queue+469
  4623   001BD0  CFDE F08C          	movff	postinc2,??_os_delay+3
  4624   001BD4  CFDD F08D          	movff	postdec2,??_os_delay+4
  4625   001BD8  518A               	movf	(??_os_delay+1)& (0+255),w,b
  4626   001BDA  258C               	addwf	(??_os_delay+3)& (0+255),w,b
  4627   001BDC  6F8E               	movwf	(??_os_delay+5)& (0+255),b
  4628   001BDE  518B               	movf	(??_os_delay+2)& (0+255),w,b
  4629   001BE0  218D               	addwfc	(??_os_delay+4)& (0+255),w,b
  4630   001BE2  6F8F               	movwf	(??_os_delay+6)& (0+255),b
  4631   001BE4  0E19               	movlw	25
  4632   001BE6  258E               	addwf	(??_os_delay+5)& (0+255),w,b
  4633   001BE8  6ED9               	movwf	fsr2l,c
  4634   001BEA  0E00               	movlw	0
  4635   001BEC  218F               	addwfc	(??_os_delay+6)& (0+255),w,b
  4636   001BEE  6EDA               	movwf	fsr2h,c
  4637   001BF0  50DF               	movf	indf2,w,c
  4638   001BF2  6EFF               	movwf	255,c	;volatile
  4639   001BF4                     
  4640                           ; BSR set to: 0
  4641   001BF4  EE25  F04B         	lfsr	2,_r_queue+469
  4642   001BF8  EE10 F074          	lfsr	1,116
  4643   001BFC  50DE               	movf	postinc2,w,c
  4644   001BFE  26E1               	addwf	fsr1l,f,c
  4645   001C00  50DD               	movf	postdec2,w,c
  4646   001C02  22E2               	addwfc	fsr1h,f,c
  4647   001C04  50E7               	movf	indf1,w,c
  4648   001C06  A4D8               	btfss	status,2,c
  4649   001C08  EF08  F00E         	goto	i1u315_21
  4650   001C0C  EF0A  F00E         	goto	i1u315_20
  4651   001C10                     i1u315_21:
  4652   001C10  EF83  F00D         	goto	i1l98
  4653   001C14                     i1u315_20:
  4654   001C14  EF51  F00E         	goto	i1l3608
  4655   001C18                     i1l97:
  4656                           
  4657                           ; BSR set to: 0
  4658   001C18  0005               	push		;# 
  4659   001C1A  EE25  F04B         	lfsr	2,_r_queue+469
  4660   001C1E  EE10 F002          	lfsr	1,2
  4661   001C22  50DE               	movf	postinc2,w,c
  4662   001C24  26E1               	addwf	fsr1l,f,c
  4663   001C26  50DD               	movf	postdec2,w,c
  4664   001C28  22E2               	addwfc	fsr1h,f,c
  4665   001C2A  50E7               	movf	indf1,w,c
  4666   001C2C  6EFD               	movwf	253,c	;volatile
  4667   001C2E  EE25  F04B         	lfsr	2,_r_queue+469
  4668   001C32  EE10 F002          	lfsr	1,2
  4669   001C36  50DE               	movf	postinc2,w,c
  4670   001C38  26E1               	addwf	fsr1l,f,c
  4671   001C3A  50DD               	movf	postdec2,w,c
  4672   001C3C  22E2               	addwfc	fsr1h,f,c
  4673   001C3E  CFE6 F089          	movff	postinc1,??_os_delay
  4674   001C42  CFE5 F08A          	movff	postdec1,??_os_delay+1
  4675   001C46  C089  F08B         	movff	??_os_delay,??_os_delay+2
  4676   001C4A  C08A  F08C         	movff	??_os_delay+1,??_os_delay+3
  4677   001C4E  0100               	movlb	0	; () banked
  4678   001C50  6B8D               	clrf	(??_os_delay+4)& (0+255),b
  4679   001C52  C08C  F08B         	movff	??_os_delay+3,??_os_delay+2
  4680   001C56  C08D  F08C         	movff	??_os_delay+4,??_os_delay+3
  4681   001C5A  6B8D               	clrf	(??_os_delay+4)& (0+255),b
  4682   001C5C  518B               	movf	(??_os_delay+2)& (0+255),w,b
  4683   001C5E  6EFE               	movwf	254,c	;volatile
  4684   001C60  0E10               	movlw	16
  4685   001C62  6F89               	movwf	??_os_delay& (0+255),b
  4686   001C64  EE25  F04B         	lfsr	2,_r_queue+469
  4687   001C68  EE10 F002          	lfsr	1,2
  4688   001C6C  50DE               	movf	postinc2,w,c
  4689   001C6E  26E1               	addwf	fsr1l,f,c
  4690   001C70  50DD               	movf	postdec2,w,c
  4691   001C72  22E2               	addwfc	fsr1h,f,c
  4692   001C74  CFE6 F08A          	movff	postinc1,??_os_delay+1
  4693   001C78  CFE5 F08B          	movff	postdec1,??_os_delay+2
  4694   001C7C  C08A  F08C         	movff	??_os_delay+1,??_os_delay+3
  4695   001C80  C08B  F08D         	movff	??_os_delay+2,??_os_delay+4
  4696   001C84  6B8E               	clrf	(??_os_delay+5)& (0+255),b
  4697   001C86  2989               	incf	??_os_delay& (0+255),w,b
  4698   001C88  6F8F               	movwf	(??_os_delay+6)& (0+255),b
  4699   001C8A  EF4B  F00E         	goto	i1u316_20
  4700   001C8E                     i1u316_25:
  4701   001C8E  90D8               	bcf	status,0,c
  4702   001C90  338E               	rrcf	(??_os_delay+5)& (0+255),f,b
  4703   001C92  338D               	rrcf	(??_os_delay+4)& (0+255),f,b
  4704   001C94  338C               	rrcf	(??_os_delay+3)& (0+255),f,b
  4705   001C96                     i1u316_20:
  4706   001C96  2F8F               	decfsz	(??_os_delay+6)& (0+255),f,b
  4707   001C98  EF47  F00E         	goto	i1u316_25
  4708   001C9C  0100               	movlb	0	; () banked
  4709   001C9E  518C               	movf	(??_os_delay+3)& (0+255),w,b
  4710   001CA0  6EFF               	movwf	255,c	;volatile
  4711   001CA2                     i1l3608:
  4712                           
  4713                           ; BSR set to: 0
  4714   001CA2  0E14               	movlw	20
  4715   001CA4  6E4A               	movwf	_rr_quantum^0,c
  4716   001CA6                     i1l3610:
  4717                           
  4718                           ;kernel.c: 19:     INTCONbits.GIE = 1;;
  4719   001CA6  8EF2               	bsf	242,7,c	;volatile
  4720   001CA8  0012               	return		;funcret
  4721   001CAA                     __end_of_os_delay:
  4722                           	callstack 0
  4723                           
  4724 ;; *************** function _mutex_unlock *****************
  4725 ;; Defined at:
  4726 ;;		line 69 in file "sync.c"
  4727 ;; Parameters:    Size  Location     Type
  4728 ;;  m               1   31[BANK0 ] PTR struct mutex
  4729 ;;		 -> m_led(8), 
  4730 ;; Auto vars:     Size  Location     Type
  4731 ;;  task_idx        1   34[BANK0 ] unsigned char 
  4732 ;; Return value:  Size  Location     Type
  4733 ;;                  1    wreg      void 
  4734 ;; Registers used:
  4735 ;;		wreg, fsr1l, fsr1h, fsr2l, fsr2h, status,2, status,0, prodl, prodh, cstack
  4736 ;; Tracked objects:
  4737 ;;		On entry : 0/0
  4738 ;;		On exit  : 0/0
  4739 ;;		Unchanged: 0/0
  4740 ;; Data sizes:     COMRAM   BANK0   BANK1   BANK2   BANK3   BANK4   BANK5   BANK6   BANK7   BANK8   BANK9  BANK10  BANK1
      +1  BANK12  BANK13  BANK14  BANK15
  4741 ;;      Params:         0       1       0       0       0       0       0       0       0       0       0       0       
      +0       0       0       0       0
  4742 ;;      Locals:         0       1       0       0       0       0       0       0       0       0       0       0       
      +0       0       0       0       0
  4743 ;;      Temps:          0       2       0       0       0       0       0       0       0       0       0       0       
      +0       0       0       0       0
  4744 ;;      Totals:         0       4       0       0       0       0       0       0       0       0       0       0       
      +0       0       0       0       0
  4745 ;;Total ram usage:        4 bytes
  4746 ;; Hardware stack levels used: 1
  4747 ;; Hardware stack levels required when called: 5
  4748 ;; This function calls:
  4749 ;;		i1___awmod
  4750 ;; This function is called by:
  4751 ;;		_LED_1_mutex
  4752 ;;		_LED_2_mutex
  4753 ;; This function uses a non-reentrant model
  4754 ;;
  4755                           
  4756                           	psect	text15
  4757   002396                     __ptext15:
  4758                           	callstack 0
  4759   002396                     _mutex_unlock:
  4760                           	callstack 20
  4761   002396                     
  4762                           ;sync.c: 70:     INTCONbits.GIE = 0;;
  4763   002396  9EF2               	bcf	242,7,c	;volatile
  4764   002398                     
  4765                           ;sync.c: 71:     if(m->locked && m->owner_id == r_queue.task_running->task_id)
  4766   002398  0100               	movlb	0	; () banked
  4767   00239A  517F               	movf	mutex_unlock@m& (0+255),w,b
  4768   00239C  6ED9               	movwf	fsr2l,c
  4769   00239E  6ADA               	clrf	fsr2h,c
  4770   0023A0  50DF               	movf	indf2,w,c
  4771   0023A2  B4D8               	btfsc	status,2,c
  4772   0023A4  EFD6  F011         	goto	i1u324_21
  4773   0023A8  EFD8  F011         	goto	i1u324_20
  4774   0023AC                     i1u324_21:
  4775   0023AC  EF4A  F012         	goto	i1l3682
  4776   0023B0                     i1u324_20:
  4777   0023B0                     
  4778                           ; BSR set to: 0
  4779   0023B0  C54B  FFD9         	movff	_r_queue+469,fsr2l
  4780   0023B4  C54C  FFDA         	movff	_r_queue+470,fsr2h
  4781   0023B8  517F               	movf	mutex_unlock@m& (0+255),w,b
  4782   0023BA  6EE1               	movwf	fsr1l,c
  4783   0023BC  6AE2               	clrf	fsr1h,c
  4784   0023BE  0E01               	movlw	1
  4785   0023C0  26E1               	addwf	fsr1l,f,c
  4786   0023C2  50DE               	movf	postinc2,w,c
  4787   0023C4  18E6               	xorwf	postinc1,w,c
  4788   0023C6  A4D8               	btfss	status,2,c
  4789   0023C8  EFE8  F011         	goto	i1u325_21
  4790   0023CC  EFEA  F011         	goto	i1u325_20
  4791   0023D0                     i1u325_21:
  4792   0023D0  EF4A  F012         	goto	i1l3682
  4793   0023D4                     i1u325_20:
  4794   0023D4                     
  4795                           ; BSR set to: 0
  4796                           ;sync.c: 72:     {;sync.c: 73:         if(m->waiting_count>0){
  4797   0023D4  517F               	movf	mutex_unlock@m& (0+255),w,b
  4798   0023D6  6ED9               	movwf	fsr2l,c
  4799   0023D8  6ADA               	clrf	fsr2h,c
  4800   0023DA  0E07               	movlw	7
  4801   0023DC  26D9               	addwf	fsr2l,f,c
  4802   0023DE  50DF               	movf	indf2,w,c
  4803   0023E0  B4D8               	btfsc	status,2,c
  4804   0023E2  EFF5  F011         	goto	i1u326_21
  4805   0023E6  EFF7  F011         	goto	i1u326_20
  4806   0023EA                     i1u326_21:
  4807   0023EA  EF40  F012         	goto	i1l3678
  4808   0023EE                     i1u326_20:
  4809   0023EE                     
  4810                           ; BSR set to: 0
  4811                           ;sync.c: 74:             uint8_t task_idx =m->fila[m->pos_output];
  4812   0023EE  517F               	movf	mutex_unlock@m& (0+255),w,b
  4813   0023F0  6ED9               	movwf	fsr2l,c
  4814   0023F2  6ADA               	clrf	fsr2h,c
  4815   0023F4  0E06               	movlw	6
  4816   0023F6  26D9               	addwf	fsr2l,f,c
  4817   0023F8  50DF               	movf	indf2,w,c
  4818   0023FA  6F80               	movwf	??_mutex_unlock& (0+255),b
  4819   0023FC  517F               	movf	mutex_unlock@m& (0+255),w,b
  4820   0023FE  2580               	addwf	??_mutex_unlock& (0+255),w,b
  4821   002400  6ED9               	movwf	fsr2l,c
  4822   002402  6ADA               	clrf	fsr2h,c
  4823   002404  0E02               	movlw	2
  4824   002406  26D9               	addwf	fsr2l,f,c
  4825   002408  50DF               	movf	indf2,w,c
  4826   00240A  6F82               	movwf	mutex_unlock@task_idx& (0+255),b
  4827   00240C                     
  4828                           ; BSR set to: 0
  4829                           ;sync.c: 75:             r_queue.TASKS[task_idx].task_state = READY;
  4830   00240C  5182               	movf	mutex_unlock@task_idx& (0+255),w,b
  4831   00240E  0D75               	mullw	117
  4832   002410  0E77               	movlw	low (_r_queue+1)
  4833   002412  24F3               	addwf	243,w,c
  4834   002414  6ED9               	movwf	fsr2l,c
  4835   002416  0E03               	movlw	high (_r_queue+1)
  4836   002418  20F4               	addwfc	prodh,w,c
  4837   00241A  6EDA               	movwf	fsr2h,c
  4838   00241C  6ADF               	clrf	indf2,c
  4839   00241E                     
  4840                           ; BSR set to: 0
  4841                           ;sync.c: 76:             m->pos_output = (m->pos_output+1)%3;
  4842   00241E  517F               	movf	mutex_unlock@m& (0+255),w,b
  4843   002420  6ED9               	movwf	fsr2l,c
  4844   002422  6ADA               	clrf	fsr2h,c
  4845   002424  0E06               	movlw	6
  4846   002426  26D9               	addwf	fsr2l,f,c
  4847   002428  517F               	movf	mutex_unlock@m& (0+255),w,b
  4848   00242A  6EE1               	movwf	fsr1l,c
  4849   00242C  6AE2               	clrf	fsr1h,c
  4850   00242E  0E06               	movlw	6
  4851   002430  26E1               	addwf	fsr1l,f,c
  4852   002432  50E7               	movf	indf1,w,c
  4853   002434  6F80               	movwf	??_mutex_unlock& (0+255),b
  4854   002436  0E01               	movlw	1
  4855   002438  2580               	addwf	??_mutex_unlock& (0+255),w,b
  4856   00243A  6F79               	movwf	i1___awmod@dividend& (0+255),b
  4857   00243C  6B7A               	clrf	(i1___awmod@dividend+1)& (0+255),b
  4858   00243E  0E00               	movlw	0
  4859   002440  237A               	addwfc	(i1___awmod@dividend+1)& (0+255),f,b
  4860   002442  6B7C               	clrf	(i1___awmod@divisor+1)& (0+255),b
  4861   002444  0E03               	movlw	3
  4862   002446  6F7B               	movwf	i1___awmod@divisor& (0+255),b
  4863   002448  ECA4  F012         	call	i1___awmod	;wreg free
  4864   00244C  0100               	movlb	0	; () banked
  4865   00244E  5179               	movf	?i1___awmod& (0+255),w,b
  4866   002450  6EDF               	movwf	indf2,c
  4867   002452                     
  4868                           ; BSR set to: 0
  4869                           ;sync.c: 77:             m->waiting_count--;
  4870   002452  517F               	movf	mutex_unlock@m& (0+255),w,b
  4871   002454  6ED9               	movwf	fsr2l,c
  4872   002456  6ADA               	clrf	fsr2h,c
  4873   002458  0E07               	movlw	7
  4874   00245A  26D9               	addwf	fsr2l,f,c
  4875   00245C  06DF               	decf	indf2,f,c
  4876   00245E                     
  4877                           ; BSR set to: 0
  4878                           ;sync.c: 78:             m->owner_id = r_queue.TASKS[task_idx].task_id;
  4879   00245E  5182               	movf	mutex_unlock@task_idx& (0+255),w,b
  4880   002460  0D75               	mullw	117
  4881   002462  0E76               	movlw	low _r_queue
  4882   002464  24F3               	addwf	243,w,c
  4883   002466  6ED9               	movwf	fsr2l,c
  4884   002468  0E03               	movlw	high _r_queue
  4885   00246A  20F4               	addwfc	prodh,w,c
  4886   00246C  6EDA               	movwf	fsr2h,c
  4887   00246E  517F               	movf	mutex_unlock@m& (0+255),w,b
  4888   002470  6EE1               	movwf	fsr1l,c
  4889   002472  6AE2               	clrf	fsr1h,c
  4890   002474  0E01               	movlw	1
  4891   002476  26E1               	addwf	fsr1l,f,c
  4892   002478  CFDF FFE7          	movff	indf2,indf1
  4893                           
  4894                           ;sync.c: 79:         }
  4895   00247C  EF4A  F012         	goto	i1l3682
  4896   002480                     i1l3678:
  4897                           
  4898                           ; BSR set to: 0
  4899                           ;sync.c: 81:             m->locked=0;
  4900   002480  517F               	movf	mutex_unlock@m& (0+255),w,b
  4901   002482  6ED9               	movwf	fsr2l,c
  4902   002484  6ADA               	clrf	fsr2h,c
  4903   002486  6ADF               	clrf	indf2,c
  4904   002488                     
  4905                           ; BSR set to: 0
  4906                           ;sync.c: 82:             m->waiting_count=0;
  4907   002488  517F               	movf	mutex_unlock@m& (0+255),w,b
  4908   00248A  6ED9               	movwf	fsr2l,c
  4909   00248C  6ADA               	clrf	fsr2h,c
  4910   00248E  0E07               	movlw	7
  4911   002490  26D9               	addwf	fsr2l,f,c
  4912   002492  6ADF               	clrf	indf2,c
  4913   002494                     i1l3682:
  4914                           
  4915                           ; BSR set to: 0
  4916                           ;sync.c: 85:     INTCONbits.GIE = 1;;
  4917   002494  8EF2               	bsf	242,7,c	;volatile
  4918   002496                     
  4919                           ; BSR set to: 0
  4920   002496  0012               	return		;funcret
  4921   002498                     __end_of_mutex_unlock:
  4922                           	callstack 0
  4923                           
  4924 ;; *************** function _mutex_lock *****************
  4925 ;; Defined at:
  4926 ;;		line 51 in file "sync.c"
  4927 ;; Parameters:    Size  Location     Type
  4928 ;;  m               1   41[BANK0 ] PTR struct mutex
  4929 ;;		 -> m_led(8), 
  4930 ;; Auto vars:     Size  Location     Type
  4931 ;;		None
  4932 ;; Return value:  Size  Location     Type
  4933 ;;                  1    wreg      void 
  4934 ;; Registers used:
  4935 ;;		wreg, fsr1l, fsr1h, fsr2l, fsr2h, status,2, status,0, prodl, prodh, cstack
  4936 ;; Tracked objects:
  4937 ;;		On entry : 0/0
  4938 ;;		On exit  : 0/0
  4939 ;;		Unchanged: 0/0
  4940 ;; Data sizes:     COMRAM   BANK0   BANK1   BANK2   BANK3   BANK4   BANK5   BANK6   BANK7   BANK8   BANK9  BANK10  BANK1
      +1  BANK12  BANK13  BANK14  BANK15
  4941 ;;      Params:         0       1       0       0       0       0       0       0       0       0       0       0       
      +0       0       0       0       0
  4942 ;;      Locals:         0       0       0       0       0       0       0       0       0       0       0       0       
      +0       0       0       0       0
  4943 ;;      Temps:          0       7       0       0       0       0       0       0       0       0       0       0       
      +0       0       0       0       0
  4944 ;;      Totals:         0       8       0       0       0       0       0       0       0       0       0       0       
      +0       0       0       0       0
  4945 ;;Total ram usage:        8 bytes
  4946 ;; Hardware stack levels used: 1
  4947 ;; Hardware stack levels required when called: 7
  4948 ;; This function calls:
  4949 ;;		i1___awmod
  4950 ;;		i1_scheduler
  4951 ;; This function is called by:
  4952 ;;		_LED_1_mutex
  4953 ;;		_LED_2_mutex
  4954 ;; This function uses a non-reentrant model
  4955 ;;
  4956                           
  4957                           	psect	text16
  4958   001002                     __ptext16:
  4959                           	callstack 0
  4960   001002                     _mutex_lock:
  4961                           	callstack 18
  4962   001002                     
  4963                           ;sync.c: 52:     INTCONbits.GIE = 0;;
  4964   001002  9EF2               	bcf	242,7,c	;volatile
  4965   001004                     
  4966                           ;sync.c: 54:     if (m->locked) {
  4967   001004  0100               	movlb	0	; () banked
  4968   001006  5189               	movf	mutex_lock@m& (0+255),w,b
  4969   001008  6ED9               	movwf	fsr2l,c
  4970   00100A  6ADA               	clrf	fsr2h,c
  4971   00100C  50DF               	movf	indf2,w,c
  4972   00100E  B4D8               	btfsc	status,2,c
  4973   001010  EF0C  F008         	goto	i1u317_21
  4974   001014  EF0E  F008         	goto	i1u317_20
  4975   001018                     i1u317_21:
  4976   001018  EF39  F00B         	goto	i1l3654
  4977   00101C                     i1u317_20:
  4978   00101C                     
  4979                           ; BSR set to: 0
  4980                           ;sync.c: 55:         m->fila[m->pos_input] = r_queue.pos_task_running;
  4981   00101C  EE25  F04D         	lfsr	2,_r_queue+471
  4982   001020  5189               	movf	mutex_lock@m& (0+255),w,b
  4983   001022  6EE1               	movwf	fsr1l,c
  4984   001024  6AE2               	clrf	fsr1h,c
  4985   001026  0E05               	movlw	5
  4986   001028  26E1               	addwf	fsr1l,f,c
  4987   00102A  50E7               	movf	indf1,w,c
  4988   00102C  6F8A               	movwf	??_mutex_lock& (0+255),b
  4989   00102E  5189               	movf	mutex_lock@m& (0+255),w,b
  4990   001030  258A               	addwf	??_mutex_lock& (0+255),w,b
  4991   001032  6EE1               	movwf	fsr1l,c
  4992   001034  6AE2               	clrf	fsr1h,c
  4993   001036  0E02               	movlw	2
  4994   001038  26E1               	addwf	fsr1l,f,c
  4995   00103A  CFDF FFE7          	movff	indf2,indf1
  4996   00103E                     
  4997                           ; BSR set to: 0
  4998                           ;sync.c: 56:         m->pos_input = (m->pos_input + 1) % 3;
  4999   00103E  5189               	movf	mutex_lock@m& (0+255),w,b
  5000   001040  6ED9               	movwf	fsr2l,c
  5001   001042  6ADA               	clrf	fsr2h,c
  5002   001044  0E05               	movlw	5
  5003   001046  26D9               	addwf	fsr2l,f,c
  5004   001048  5189               	movf	mutex_lock@m& (0+255),w,b
  5005   00104A  6EE1               	movwf	fsr1l,c
  5006   00104C  6AE2               	clrf	fsr1h,c
  5007   00104E  0E05               	movlw	5
  5008   001050  26E1               	addwf	fsr1l,f,c
  5009   001052  50E7               	movf	indf1,w,c
  5010   001054  6F8A               	movwf	??_mutex_lock& (0+255),b
  5011   001056  0E01               	movlw	1
  5012   001058  258A               	addwf	??_mutex_lock& (0+255),w,b
  5013   00105A  6F79               	movwf	i1___awmod@dividend& (0+255),b
  5014   00105C  6B7A               	clrf	(i1___awmod@dividend+1)& (0+255),b
  5015   00105E  0E00               	movlw	0
  5016   001060  237A               	addwfc	(i1___awmod@dividend+1)& (0+255),f,b
  5017   001062  6B7C               	clrf	(i1___awmod@divisor+1)& (0+255),b
  5018   001064  0E03               	movlw	3
  5019   001066  6F7B               	movwf	i1___awmod@divisor& (0+255),b
  5020   001068  ECA4  F012         	call	i1___awmod	;wreg free
  5021   00106C  0100               	movlb	0	; () banked
  5022   00106E  5179               	movf	?i1___awmod& (0+255),w,b
  5023   001070  6EDF               	movwf	indf2,c
  5024   001072                     
  5025                           ; BSR set to: 0
  5026                           ;sync.c: 57:         m->waiting_count++;
  5027   001072  5189               	movf	mutex_lock@m& (0+255),w,b
  5028   001074  6ED9               	movwf	fsr2l,c
  5029   001076  6ADA               	clrf	fsr2h,c
  5030   001078  0E07               	movlw	7
  5031   00107A  26D9               	addwf	fsr2l,f,c
  5032   00107C  2ADF               	incf	indf2,f,c
  5033   00107E                     
  5034                           ; BSR set to: 0
  5035   00107E  EE25  F04B         	lfsr	2,_r_queue+469
  5036   001082  EE10 F001          	lfsr	1,1
  5037   001086  50DE               	movf	postinc2,w,c
  5038   001088  26E1               	addwf	fsr1l,f,c
  5039   00108A  50DD               	movf	postdec2,w,c
  5040   00108C  22E2               	addwfc	fsr1h,f,c
  5041   00108E  0E02               	movlw	2
  5042   001090  18E6               	xorwf	postinc1,w,c
  5043   001092  A4D8               	btfss	status,2,c
  5044   001094  EF4E  F008         	goto	i1u318_21
  5045   001098  EF50  F008         	goto	i1u318_20
  5046   00109C                     i1u318_21:
  5047   00109C  EF8E  F009         	goto	i1l3632
  5048   0010A0                     i1u318_20:
  5049   0010A0                     
  5050                           ; BSR set to: 0
  5051   0010A0  EE25  F04B         	lfsr	2,_r_queue+469
  5052   0010A4  EE10 F001          	lfsr	1,1
  5053   0010A8  50DE               	movf	postinc2,w,c
  5054   0010AA  26E1               	addwf	fsr1l,f,c
  5055   0010AC  50DD               	movf	postdec2,w,c
  5056   0010AE  22E2               	addwfc	fsr1h,f,c
  5057   0010B0  0E01               	movlw	1
  5058   0010B2  6EE7               	movwf	indf1,c
  5059   0010B4  EE25  F04B         	lfsr	2,_r_queue+469
  5060   0010B8  EE10 F008          	lfsr	1,8
  5061   0010BC  50DE               	movf	postinc2,w,c
  5062   0010BE  26E1               	addwf	fsr1l,f,c
  5063   0010C0  50DD               	movf	postdec2,w,c
  5064   0010C2  22E2               	addwfc	fsr1h,f,c
  5065   0010C4  CFE0 FFE7          	movff	bsr,indf1	;volatile
  5066   0010C8  EE25  F04B         	lfsr	2,_r_queue+469
  5067   0010CC  EE10 F00C          	lfsr	1,12
  5068   0010D0  50DE               	movf	postinc2,w,c
  5069   0010D2  26E1               	addwf	fsr1l,f,c
  5070   0010D4  50DD               	movf	postdec2,w,c
  5071   0010D6  22E2               	addwfc	fsr1h,f,c
  5072   0010D8  CFEA FFE7          	movff	fsr0h,indf1	;volatile
  5073   0010DC  EE25  F04B         	lfsr	2,_r_queue+469
  5074   0010E0  EE10 F00B          	lfsr	1,11
  5075   0010E4  50DE               	movf	postinc2,w,c
  5076   0010E6  26E1               	addwf	fsr1l,f,c
  5077   0010E8  50DD               	movf	postdec2,w,c
  5078   0010EA  22E2               	addwfc	fsr1h,f,c
  5079   0010EC  CFE9 FFE7          	movff	fsr0l,indf1	;volatile
  5080   0010F0  EE25  F04B         	lfsr	2,_r_queue+469
  5081   0010F4  EE10 F00E          	lfsr	1,14
  5082   0010F8  50DE               	movf	postinc2,w,c
  5083   0010FA  26E1               	addwf	fsr1l,f,c
  5084   0010FC  50DD               	movf	postdec2,w,c
  5085   0010FE  22E2               	addwfc	fsr1h,f,c
  5086   001100  CFE2 FFE7          	movff	fsr1h,indf1	;volatile
  5087   001104  EE25  F04B         	lfsr	2,_r_queue+469
  5088   001108  EE10 F00D          	lfsr	1,13
  5089   00110C  50DE               	movf	postinc2,w,c
  5090   00110E  26E1               	addwf	fsr1l,f,c
  5091   001110  50DD               	movf	postdec2,w,c
  5092   001112  22E2               	addwfc	fsr1h,f,c
  5093   001114  CFE1 FFE7          	movff	fsr1l,indf1	;volatile
  5094   001118  EE25  F04B         	lfsr	2,_r_queue+469
  5095   00111C  EE10 F010          	lfsr	1,16
  5096   001120  50DE               	movf	postinc2,w,c
  5097   001122  26E1               	addwf	fsr1l,f,c
  5098   001124  50DD               	movf	postdec2,w,c
  5099   001126  22E2               	addwfc	fsr1h,f,c
  5100   001128  CFDA FFE7          	movff	fsr2h,indf1	;volatile
  5101   00112C  EE25  F04B         	lfsr	2,_r_queue+469
  5102   001130  EE10 F00F          	lfsr	1,15
  5103   001134  50DE               	movf	postinc2,w,c
  5104   001136  26E1               	addwf	fsr1l,f,c
  5105   001138  50DD               	movf	postdec2,w,c
  5106   00113A  22E2               	addwfc	fsr1h,f,c
  5107   00113C  CFD9 FFE7          	movff	fsr2l,indf1	;volatile
  5108   001140  EE25  F04B         	lfsr	2,_r_queue+469
  5109   001144  EE10 F015          	lfsr	1,21
  5110   001148  50DE               	movf	postinc2,w,c
  5111   00114A  26E1               	addwf	fsr1l,f,c
  5112   00114C  50DD               	movf	postdec2,w,c
  5113   00114E  22E2               	addwfc	fsr1h,f,c
  5114   001150  CFFA FFE7          	movff	pclath,indf1	;volatile
  5115   001154  EE25  F04B         	lfsr	2,_r_queue+469
  5116   001158  EE10 F016          	lfsr	1,22
  5117   00115C  50DE               	movf	postinc2,w,c
  5118   00115E  26E1               	addwf	fsr1l,f,c
  5119   001160  50DD               	movf	postdec2,w,c
  5120   001162  22E2               	addwfc	fsr1h,f,c
  5121   001164  CFFB FFE7          	movff	pclatu,indf1	;volatile
  5122   001168  EE25  F04B         	lfsr	2,_r_queue+469
  5123   00116C  EE10 F00A          	lfsr	1,10
  5124   001170  50DE               	movf	postinc2,w,c
  5125   001172  26E1               	addwf	fsr1l,f,c
  5126   001174  50DD               	movf	postdec2,w,c
  5127   001176  22E2               	addwfc	fsr1h,f,c
  5128   001178  CFF4 FFE7          	movff	prodh,indf1	;volatile
  5129   00117C  EE25  F04B         	lfsr	2,_r_queue+469
  5130   001180  EE10 F009          	lfsr	1,9
  5131   001184  50DE               	movf	postinc2,w,c
  5132   001186  26E1               	addwf	fsr1l,f,c
  5133   001188  50DD               	movf	postdec2,w,c
  5134   00118A  22E2               	addwfc	fsr1h,f,c
  5135   00118C  CFF3 FFE7          	movff	prodl,indf1	;volatile
  5136   001190  EE25  F04B         	lfsr	2,_r_queue+469
  5137   001194  EE10 F011          	lfsr	1,17
  5138   001198  50DE               	movf	postinc2,w,c
  5139   00119A  26E1               	addwf	fsr1l,f,c
  5140   00119C  50DD               	movf	postdec2,w,c
  5141   00119E  22E2               	addwfc	fsr1h,f,c
  5142   0011A0  CFF5 FFE7          	movff	tablat,indf1	;volatile
  5143   0011A4  EE25  F04B         	lfsr	2,_r_queue+469
  5144   0011A8  EE10 F013          	lfsr	1,19
  5145   0011AC  50DE               	movf	postinc2,w,c
  5146   0011AE  26E1               	addwf	fsr1l,f,c
  5147   0011B0  50DD               	movf	postdec2,w,c
  5148   0011B2  22E2               	addwfc	fsr1h,f,c
  5149   0011B4  CFF7 FFE7          	movff	tblptrh,indf1	;volatile
  5150   0011B8  EE25  F04B         	lfsr	2,_r_queue+469
  5151   0011BC  EE10 F012          	lfsr	1,18
  5152   0011C0  50DE               	movf	postinc2,w,c
  5153   0011C2  26E1               	addwf	fsr1l,f,c
  5154   0011C4  50DD               	movf	postdec2,w,c
  5155   0011C6  22E2               	addwfc	fsr1h,f,c
  5156   0011C8  CFF6 FFE7          	movff	tblptrl,indf1	;volatile
  5157   0011CC  EE25  F04B         	lfsr	2,_r_queue+469
  5158   0011D0  EE10 F014          	lfsr	1,20
  5159   0011D4  50DE               	movf	postinc2,w,c
  5160   0011D6  26E1               	addwf	fsr1l,f,c
  5161   0011D8  50DD               	movf	postdec2,w,c
  5162   0011DA  22E2               	addwfc	fsr1h,f,c
  5163   0011DC  CFF8 FFE7          	movff	tblptru,indf1	;volatile
  5164   0011E0  EE25  F04B         	lfsr	2,_r_queue+469
  5165   0011E4  EE10 F006          	lfsr	1,6
  5166   0011E8  50DE               	movf	postinc2,w,c
  5167   0011EA  26E1               	addwf	fsr1l,f,c
  5168   0011EC  50DD               	movf	postdec2,w,c
  5169   0011EE  22E2               	addwfc	fsr1h,f,c
  5170   0011F0  CFE8 FFE7          	movff	wreg,indf1	;volatile
  5171   0011F4  EE25  F04B         	lfsr	2,_r_queue+469
  5172   0011F8  EE10 F007          	lfsr	1,7
  5173   0011FC  50DE               	movf	postinc2,w,c
  5174   0011FE  26E1               	addwf	fsr1l,f,c
  5175   001200  50DD               	movf	postdec2,w,c
  5176   001202  22E2               	addwfc	fsr1h,f,c
  5177   001204  CFD8 FFE7          	movff	status,indf1	;volatile
  5178   001208  EE25  F04B         	lfsr	2,_r_queue+469
  5179   00120C  EE10 F074          	lfsr	1,116
  5180   001210  50DE               	movf	postinc2,w,c
  5181   001212  26E1               	addwf	fsr1l,f,c
  5182   001214  50DD               	movf	postdec2,w,c
  5183   001216  22E2               	addwfc	fsr1h,f,c
  5184   001218  6AE7               	clrf	indf1,c
  5185   00121A  EF86  F009         	goto	i1l3630
  5186   00121E                     i1l3626:
  5187   00121E  EE25  F04B         	lfsr	2,_r_queue+469
  5188   001222  EE10 F074          	lfsr	1,116
  5189   001226  50DE               	movf	postinc2,w,c
  5190   001228  26E1               	addwf	fsr1l,f,c
  5191   00122A  50DD               	movf	postdec2,w,c
  5192   00122C  22E2               	addwfc	fsr1h,f,c
  5193   00122E  50E7               	movf	indf1,w,c
  5194   001230  0100               	movlb	0	; () banked
  5195   001232  6F8A               	movwf	??_mutex_lock& (0+255),b
  5196   001234  518A               	movf	??_mutex_lock& (0+255),w,b
  5197   001236  0D03               	mullw	3
  5198   001238  CFF3 F08B          	movff	prodl,??_mutex_lock+1
  5199   00123C  CFF4 F08C          	movff	prodh,??_mutex_lock+2
  5200   001240  EE25  F04B         	lfsr	2,_r_queue+469
  5201   001244  CFDE F08D          	movff	postinc2,??_mutex_lock+3
  5202   001248  CFDD F08E          	movff	postdec2,??_mutex_lock+4
  5203   00124C  518B               	movf	(??_mutex_lock+1)& (0+255),w,b
  5204   00124E  258D               	addwf	(??_mutex_lock+3)& (0+255),w,b
  5205   001250  6F8F               	movwf	(??_mutex_lock+5)& (0+255),b
  5206   001252  518C               	movf	(??_mutex_lock+2)& (0+255),w,b
  5207   001254  218E               	addwfc	(??_mutex_lock+4)& (0+255),w,b
  5208   001256  6F90               	movwf	(??_mutex_lock+6)& (0+255),b
  5209   001258  0E17               	movlw	23
  5210   00125A  258F               	addwf	(??_mutex_lock+5)& (0+255),w,b
  5211   00125C  6ED9               	movwf	fsr2l,c
  5212   00125E  0E00               	movlw	0
  5213   001260  2190               	addwfc	(??_mutex_lock+6)& (0+255),w,b
  5214   001262  6EDA               	movwf	fsr2h,c
  5215   001264  CFFD FFDF          	movff	tosl,indf2	;volatile
  5216   001268  EE25  F04B         	lfsr	2,_r_queue+469
  5217   00126C  EE10 F074          	lfsr	1,116
  5218   001270  50DE               	movf	postinc2,w,c
  5219   001272  26E1               	addwf	fsr1l,f,c
  5220   001274  50DD               	movf	postdec2,w,c
  5221   001276  22E2               	addwfc	fsr1h,f,c
  5222   001278  50E7               	movf	indf1,w,c
  5223   00127A  6F8A               	movwf	??_mutex_lock& (0+255),b
  5224   00127C  518A               	movf	??_mutex_lock& (0+255),w,b
  5225   00127E  0D03               	mullw	3
  5226   001280  CFF3 F08B          	movff	prodl,??_mutex_lock+1
  5227   001284  CFF4 F08C          	movff	prodh,??_mutex_lock+2
  5228   001288  EE25  F04B         	lfsr	2,_r_queue+469
  5229   00128C  CFDE F08D          	movff	postinc2,??_mutex_lock+3
  5230   001290  CFDD F08E          	movff	postdec2,??_mutex_lock+4
  5231   001294  518B               	movf	(??_mutex_lock+1)& (0+255),w,b
  5232   001296  258D               	addwf	(??_mutex_lock+3)& (0+255),w,b
  5233   001298  6F8F               	movwf	(??_mutex_lock+5)& (0+255),b
  5234   00129A  518C               	movf	(??_mutex_lock+2)& (0+255),w,b
  5235   00129C  218E               	addwfc	(??_mutex_lock+4)& (0+255),w,b
  5236   00129E  6F90               	movwf	(??_mutex_lock+6)& (0+255),b
  5237   0012A0  0E18               	movlw	24
  5238   0012A2  258F               	addwf	(??_mutex_lock+5)& (0+255),w,b
  5239   0012A4  6ED9               	movwf	fsr2l,c
  5240   0012A6  0E00               	movlw	0
  5241   0012A8  2190               	addwfc	(??_mutex_lock+6)& (0+255),w,b
  5242   0012AA  6EDA               	movwf	fsr2h,c
  5243   0012AC  CFFE FFDF          	movff	tosh,indf2	;volatile
  5244   0012B0  EE25  F04B         	lfsr	2,_r_queue+469
  5245   0012B4  EE10 F074          	lfsr	1,116
  5246   0012B8  50DE               	movf	postinc2,w,c
  5247   0012BA  26E1               	addwf	fsr1l,f,c
  5248   0012BC  50DD               	movf	postdec2,w,c
  5249   0012BE  22E2               	addwfc	fsr1h,f,c
  5250   0012C0  50E7               	movf	indf1,w,c
  5251   0012C2  6F8A               	movwf	??_mutex_lock& (0+255),b
  5252   0012C4  518A               	movf	??_mutex_lock& (0+255),w,b
  5253   0012C6  0D03               	mullw	3
  5254   0012C8  CFF3 F08B          	movff	prodl,??_mutex_lock+1
  5255   0012CC  CFF4 F08C          	movff	prodh,??_mutex_lock+2
  5256   0012D0  EE25  F04B         	lfsr	2,_r_queue+469
  5257   0012D4  CFDE F08D          	movff	postinc2,??_mutex_lock+3
  5258   0012D8  CFDD F08E          	movff	postdec2,??_mutex_lock+4
  5259   0012DC  518B               	movf	(??_mutex_lock+1)& (0+255),w,b
  5260   0012DE  258D               	addwf	(??_mutex_lock+3)& (0+255),w,b
  5261   0012E0  6F8F               	movwf	(??_mutex_lock+5)& (0+255),b
  5262   0012E2  518C               	movf	(??_mutex_lock+2)& (0+255),w,b
  5263   0012E4  218E               	addwfc	(??_mutex_lock+4)& (0+255),w,b
  5264   0012E6  6F90               	movwf	(??_mutex_lock+6)& (0+255),b
  5265   0012E8  0E19               	movlw	25
  5266   0012EA  258F               	addwf	(??_mutex_lock+5)& (0+255),w,b
  5267   0012EC  6ED9               	movwf	fsr2l,c
  5268   0012EE  0E00               	movlw	0
  5269   0012F0  2190               	addwfc	(??_mutex_lock+6)& (0+255),w,b
  5270   0012F2  6EDA               	movwf	fsr2h,c
  5271   0012F4  CFFF FFDF          	movff	tosu,indf2	;volatile
  5272   0012F8                     
  5273                           ; BSR set to: 0
  5274   0012F8  EE25  F04B         	lfsr	2,_r_queue+469
  5275   0012FC  EE10 F074          	lfsr	1,116
  5276   001300  50DE               	movf	postinc2,w,c
  5277   001302  26E1               	addwf	fsr1l,f,c
  5278   001304  50DD               	movf	postdec2,w,c
  5279   001306  22E2               	addwfc	fsr1h,f,c
  5280   001308  2AE7               	incf	indf1,f,c
  5281   00130A  0006               	pop		;# 
  5282   00130C                     i1l3630:
  5283   00130C  50FC               	movf	252,w,c	;volatile
  5284   00130E  A4D8               	btfss	status,2,c
  5285   001310  EF8C  F009         	goto	i1u319_21
  5286   001314  EF8E  F009         	goto	i1u319_20
  5287   001318                     i1u319_21:
  5288   001318  EF0F  F009         	goto	i1l3626
  5289   00131C                     i1u319_20:
  5290   00131C                     i1l3632:
  5291                           
  5292                           ;sync.c: 60:         scheduler();
  5293   00131C  ECA4  F014         	call	i1_scheduler	;wreg free
  5294   001320  EE25  F04B         	lfsr	2,_r_queue+469
  5295   001324  EE10 F001          	lfsr	1,1
  5296   001328  50DE               	movf	postinc2,w,c
  5297   00132A  26E1               	addwf	fsr1l,f,c
  5298   00132C  50DD               	movf	postdec2,w,c
  5299   00132E  22E2               	addwfc	fsr1h,f,c
  5300   001330  50E7               	movf	indf1,w,c
  5301   001332  A4D8               	btfss	status,2,c
  5302   001334  EF9E  F009         	goto	i1u320_21
  5303   001338  EFA0  F009         	goto	i1u320_20
  5304   00133C                     i1u320_21:
  5305   00133C  EF49  F00B         	goto	i1l3658
  5306   001340                     i1u320_20:
  5307   001340  EE25  F04B         	lfsr	2,_r_queue+469
  5308   001344  EE10 F001          	lfsr	1,1
  5309   001348  50DE               	movf	postinc2,w,c
  5310   00134A  26E1               	addwf	fsr1l,f,c
  5311   00134C  50DD               	movf	postdec2,w,c
  5312   00134E  22E2               	addwfc	fsr1h,f,c
  5313   001350  0E02               	movlw	2
  5314   001352  6EE7               	movwf	indf1,c
  5315   001354  EE25  F04B         	lfsr	2,_r_queue+469
  5316   001358  EE10 F008          	lfsr	1,8
  5317   00135C  50DE               	movf	postinc2,w,c
  5318   00135E  26E1               	addwf	fsr1l,f,c
  5319   001360  50DD               	movf	postdec2,w,c
  5320   001362  22E2               	addwfc	fsr1h,f,c
  5321   001364  50E7               	movf	indf1,w,c
  5322   001366  6EE0               	movwf	224,c	;volatile
  5323   001368  EE25  F04B         	lfsr	2,_r_queue+469
  5324   00136C  EE10 F00C          	lfsr	1,12
  5325   001370  50DE               	movf	postinc2,w,c
  5326   001372  26E1               	addwf	fsr1l,f,c
  5327   001374  50DD               	movf	postdec2,w,c
  5328   001376  22E2               	addwfc	fsr1h,f,c
  5329   001378  50E7               	movf	indf1,w,c
  5330   00137A  6EEA               	movwf	234,c	;volatile
  5331   00137C  EE25  F04B         	lfsr	2,_r_queue+469
  5332   001380  EE10 F00B          	lfsr	1,11
  5333   001384  50DE               	movf	postinc2,w,c
  5334   001386  26E1               	addwf	fsr1l,f,c
  5335   001388  50DD               	movf	postdec2,w,c
  5336   00138A  22E2               	addwfc	fsr1h,f,c
  5337   00138C  50E7               	movf	indf1,w,c
  5338   00138E  6EE9               	movwf	233,c	;volatile
  5339   001390  EE25  F04B         	lfsr	2,_r_queue+469
  5340   001394  EE10 F00E          	lfsr	1,14
  5341   001398  50DE               	movf	postinc2,w,c
  5342   00139A  26E1               	addwf	fsr1l,f,c
  5343   00139C  50DD               	movf	postdec2,w,c
  5344   00139E  22E2               	addwfc	fsr1h,f,c
  5345   0013A0  50E7               	movf	indf1,w,c
  5346   0013A2  6EE2               	movwf	226,c	;volatile
  5347   0013A4  EE25  F04B         	lfsr	2,_r_queue+469
  5348   0013A8  EE10 F00D          	lfsr	1,13
  5349   0013AC  50DE               	movf	postinc2,w,c
  5350   0013AE  26E1               	addwf	fsr1l,f,c
  5351   0013B0  50DD               	movf	postdec2,w,c
  5352   0013B2  22E2               	addwfc	fsr1h,f,c
  5353   0013B4  50E7               	movf	indf1,w,c
  5354   0013B6  6EE1               	movwf	225,c	;volatile
  5355   0013B8  EE25  F04B         	lfsr	2,_r_queue+469
  5356   0013BC  EE10 F010          	lfsr	1,16
  5357   0013C0  50DE               	movf	postinc2,w,c
  5358   0013C2  26E1               	addwf	fsr1l,f,c
  5359   0013C4  50DD               	movf	postdec2,w,c
  5360   0013C6  22E2               	addwfc	fsr1h,f,c
  5361   0013C8  50E7               	movf	indf1,w,c
  5362   0013CA  6EDA               	movwf	218,c	;volatile
  5363   0013CC  EE25  F04B         	lfsr	2,_r_queue+469
  5364   0013D0  EE10 F00F          	lfsr	1,15
  5365   0013D4  50DE               	movf	postinc2,w,c
  5366   0013D6  26E1               	addwf	fsr1l,f,c
  5367   0013D8  50DD               	movf	postdec2,w,c
  5368   0013DA  22E2               	addwfc	fsr1h,f,c
  5369   0013DC  50E7               	movf	indf1,w,c
  5370   0013DE  6ED9               	movwf	217,c	;volatile
  5371   0013E0  EE25  F04B         	lfsr	2,_r_queue+469
  5372   0013E4  EE10 F015          	lfsr	1,21
  5373   0013E8  50DE               	movf	postinc2,w,c
  5374   0013EA  26E1               	addwf	fsr1l,f,c
  5375   0013EC  50DD               	movf	postdec2,w,c
  5376   0013EE  22E2               	addwfc	fsr1h,f,c
  5377   0013F0  50E7               	movf	indf1,w,c
  5378   0013F2  6EFA               	movwf	250,c	;volatile
  5379   0013F4  EE25  F04B         	lfsr	2,_r_queue+469
  5380   0013F8  EE10 F016          	lfsr	1,22
  5381   0013FC  50DE               	movf	postinc2,w,c
  5382   0013FE  26E1               	addwf	fsr1l,f,c
  5383   001400  50DD               	movf	postdec2,w,c
  5384   001402  22E2               	addwfc	fsr1h,f,c
  5385   001404  50E7               	movf	indf1,w,c
  5386   001406  6EFB               	movwf	251,c	;volatile
  5387   001408  EE25  F04B         	lfsr	2,_r_queue+469
  5388   00140C  EE10 F00A          	lfsr	1,10
  5389   001410  50DE               	movf	postinc2,w,c
  5390   001412  26E1               	addwf	fsr1l,f,c
  5391   001414  50DD               	movf	postdec2,w,c
  5392   001416  22E2               	addwfc	fsr1h,f,c
  5393   001418  50E7               	movf	indf1,w,c
  5394   00141A  6EF4               	movwf	244,c	;volatile
  5395   00141C  EE25  F04B         	lfsr	2,_r_queue+469
  5396   001420  EE10 F009          	lfsr	1,9
  5397   001424  50DE               	movf	postinc2,w,c
  5398   001426  26E1               	addwf	fsr1l,f,c
  5399   001428  50DD               	movf	postdec2,w,c
  5400   00142A  22E2               	addwfc	fsr1h,f,c
  5401   00142C  50E7               	movf	indf1,w,c
  5402   00142E  6EF3               	movwf	243,c	;volatile
  5403   001430  EE25  F04B         	lfsr	2,_r_queue+469
  5404   001434  EE10 F011          	lfsr	1,17
  5405   001438  50DE               	movf	postinc2,w,c
  5406   00143A  26E1               	addwf	fsr1l,f,c
  5407   00143C  50DD               	movf	postdec2,w,c
  5408   00143E  22E2               	addwfc	fsr1h,f,c
  5409   001440  50E7               	movf	indf1,w,c
  5410   001442  6EF5               	movwf	245,c	;volatile
  5411   001444  EE25  F04B         	lfsr	2,_r_queue+469
  5412   001448  EE10 F013          	lfsr	1,19
  5413   00144C  50DE               	movf	postinc2,w,c
  5414   00144E  26E1               	addwf	fsr1l,f,c
  5415   001450  50DD               	movf	postdec2,w,c
  5416   001452  22E2               	addwfc	fsr1h,f,c
  5417   001454  50E7               	movf	indf1,w,c
  5418   001456  6EF7               	movwf	247,c	;volatile
  5419   001458  EE25  F04B         	lfsr	2,_r_queue+469
  5420   00145C  EE10 F012          	lfsr	1,18
  5421   001460  50DE               	movf	postinc2,w,c
  5422   001462  26E1               	addwf	fsr1l,f,c
  5423   001464  50DD               	movf	postdec2,w,c
  5424   001466  22E2               	addwfc	fsr1h,f,c
  5425   001468  50E7               	movf	indf1,w,c
  5426   00146A  6EF6               	movwf	246,c	;volatile
  5427   00146C  EE25  F04B         	lfsr	2,_r_queue+469
  5428   001470  EE10 F014          	lfsr	1,20
  5429   001474  50DE               	movf	postinc2,w,c
  5430   001476  26E1               	addwf	fsr1l,f,c
  5431   001478  50DD               	movf	postdec2,w,c
  5432   00147A  22E2               	addwfc	fsr1h,f,c
  5433   00147C  50E7               	movf	indf1,w,c
  5434   00147E  6EF8               	movwf	248,c	;volatile
  5435   001480  EE25  F04B         	lfsr	2,_r_queue+469
  5436   001484  EE10 F007          	lfsr	1,7
  5437   001488  50DE               	movf	postinc2,w,c
  5438   00148A  26E1               	addwf	fsr1l,f,c
  5439   00148C  50DD               	movf	postdec2,w,c
  5440   00148E  22E2               	addwfc	fsr1h,f,c
  5441   001490  50E7               	movf	indf1,w,c
  5442   001492  6ED8               	movwf	216,c	;volatile
  5443   001494  EE25  F04B         	lfsr	2,_r_queue+469
  5444   001498  EE10 F006          	lfsr	1,6
  5445   00149C  50DE               	movf	postinc2,w,c
  5446   00149E  26E1               	addwf	fsr1l,f,c
  5447   0014A0  50DD               	movf	postdec2,w,c
  5448   0014A2  22E2               	addwfc	fsr1h,f,c
  5449   0014A4  50E7               	movf	indf1,w,c
  5450   0014A6  0100               	movlb	0	; () banked
  5451   0014A8  6F8A               	movwf	??_mutex_lock& (0+255),b
  5452   0014AA  518A               	movf	??_mutex_lock& (0+255),w,b
  5453   0014AC                     
  5454                           ; BSR set to: 0
  5455   0014AC  6AFC               	clrf	252,c	;volatile
  5456   0014AE  EE25  F04B         	lfsr	2,_r_queue+469
  5457   0014B2  EE10 F074          	lfsr	1,116
  5458   0014B6  50DE               	movf	postinc2,w,c
  5459   0014B8  26E1               	addwf	fsr1l,f,c
  5460   0014BA  50DD               	movf	postdec2,w,c
  5461   0014BC  22E2               	addwfc	fsr1h,f,c
  5462   0014BE  50E7               	movf	indf1,w,c
  5463   0014C0  B4D8               	btfsc	status,2,c
  5464   0014C2  EF65  F00A         	goto	i1u321_21
  5465   0014C6  EF67  F00A         	goto	i1u321_20
  5466   0014CA                     i1u321_21:
  5467   0014CA  EFF0  F00A         	goto	i1l247
  5468   0014CE                     i1u321_20:
  5469   0014CE                     i1l248:
  5470                           
  5471                           ; BSR set to: 0
  5472   0014CE  0005               	push		;# 
  5473   0014D0  EE25  F04B         	lfsr	2,_r_queue+469
  5474   0014D4  EE10 F074          	lfsr	1,116
  5475   0014D8  50DE               	movf	postinc2,w,c
  5476   0014DA  26E1               	addwf	fsr1l,f,c
  5477   0014DC  50DD               	movf	postdec2,w,c
  5478   0014DE  22E2               	addwfc	fsr1h,f,c
  5479   0014E0  06E7               	decf	indf1,f,c
  5480   0014E2  EE25  F04B         	lfsr	2,_r_queue+469
  5481   0014E6  EE10 F074          	lfsr	1,116
  5482   0014EA  50DE               	movf	postinc2,w,c
  5483   0014EC  26E1               	addwf	fsr1l,f,c
  5484   0014EE  50DD               	movf	postdec2,w,c
  5485   0014F0  22E2               	addwfc	fsr1h,f,c
  5486   0014F2  50E7               	movf	indf1,w,c
  5487   0014F4  0100               	movlb	0	; () banked
  5488   0014F6  6F8A               	movwf	??_mutex_lock& (0+255),b
  5489   0014F8  518A               	movf	??_mutex_lock& (0+255),w,b
  5490   0014FA  0D03               	mullw	3
  5491   0014FC  CFF3 F08B          	movff	prodl,??_mutex_lock+1
  5492   001500  CFF4 F08C          	movff	prodh,??_mutex_lock+2
  5493   001504  EE25  F04B         	lfsr	2,_r_queue+469
  5494   001508  CFDE F08D          	movff	postinc2,??_mutex_lock+3
  5495   00150C  CFDD F08E          	movff	postdec2,??_mutex_lock+4
  5496   001510  518B               	movf	(??_mutex_lock+1)& (0+255),w,b
  5497   001512  258D               	addwf	(??_mutex_lock+3)& (0+255),w,b
  5498   001514  6F8F               	movwf	(??_mutex_lock+5)& (0+255),b
  5499   001516  518C               	movf	(??_mutex_lock+2)& (0+255),w,b
  5500   001518  218E               	addwfc	(??_mutex_lock+4)& (0+255),w,b
  5501   00151A  6F90               	movwf	(??_mutex_lock+6)& (0+255),b
  5502   00151C  0E17               	movlw	23
  5503   00151E  258F               	addwf	(??_mutex_lock+5)& (0+255),w,b
  5504   001520  6ED9               	movwf	fsr2l,c
  5505   001522  0E00               	movlw	0
  5506   001524  2190               	addwfc	(??_mutex_lock+6)& (0+255),w,b
  5507   001526  6EDA               	movwf	fsr2h,c
  5508   001528  50DF               	movf	indf2,w,c
  5509   00152A  6EFD               	movwf	253,c	;volatile
  5510   00152C                     
  5511                           ; BSR set to: 0
  5512   00152C  EE25  F04B         	lfsr	2,_r_queue+469
  5513   001530  EE10 F074          	lfsr	1,116
  5514   001534  50DE               	movf	postinc2,w,c
  5515   001536  26E1               	addwf	fsr1l,f,c
  5516   001538  50DD               	movf	postdec2,w,c
  5517   00153A  22E2               	addwfc	fsr1h,f,c
  5518   00153C  50E7               	movf	indf1,w,c
  5519   00153E  6F8A               	movwf	??_mutex_lock& (0+255),b
  5520   001540  518A               	movf	??_mutex_lock& (0+255),w,b
  5521   001542  0D03               	mullw	3
  5522   001544  CFF3 F08B          	movff	prodl,??_mutex_lock+1
  5523   001548  CFF4 F08C          	movff	prodh,??_mutex_lock+2
  5524   00154C  EE25  F04B         	lfsr	2,_r_queue+469
  5525   001550  CFDE F08D          	movff	postinc2,??_mutex_lock+3
  5526   001554  CFDD F08E          	movff	postdec2,??_mutex_lock+4
  5527   001558  518B               	movf	(??_mutex_lock+1)& (0+255),w,b
  5528   00155A  258D               	addwf	(??_mutex_lock+3)& (0+255),w,b
  5529   00155C  6F8F               	movwf	(??_mutex_lock+5)& (0+255),b
  5530   00155E  518C               	movf	(??_mutex_lock+2)& (0+255),w,b
  5531   001560  218E               	addwfc	(??_mutex_lock+4)& (0+255),w,b
  5532   001562  6F90               	movwf	(??_mutex_lock+6)& (0+255),b
  5533   001564  0E18               	movlw	24
  5534   001566  258F               	addwf	(??_mutex_lock+5)& (0+255),w,b
  5535   001568  6ED9               	movwf	fsr2l,c
  5536   00156A  0E00               	movlw	0
  5537   00156C  2190               	addwfc	(??_mutex_lock+6)& (0+255),w,b
  5538   00156E  6EDA               	movwf	fsr2h,c
  5539   001570  50DF               	movf	indf2,w,c
  5540   001572  6EFE               	movwf	254,c	;volatile
  5541   001574                     
  5542                           ; BSR set to: 0
  5543   001574  EE25  F04B         	lfsr	2,_r_queue+469
  5544   001578  EE10 F074          	lfsr	1,116
  5545   00157C  50DE               	movf	postinc2,w,c
  5546   00157E  26E1               	addwf	fsr1l,f,c
  5547   001580  50DD               	movf	postdec2,w,c
  5548   001582  22E2               	addwfc	fsr1h,f,c
  5549   001584  50E7               	movf	indf1,w,c
  5550   001586  6F8A               	movwf	??_mutex_lock& (0+255),b
  5551   001588  518A               	movf	??_mutex_lock& (0+255),w,b
  5552   00158A  0D03               	mullw	3
  5553   00158C  CFF3 F08B          	movff	prodl,??_mutex_lock+1
  5554   001590  CFF4 F08C          	movff	prodh,??_mutex_lock+2
  5555   001594  EE25  F04B         	lfsr	2,_r_queue+469
  5556   001598  CFDE F08D          	movff	postinc2,??_mutex_lock+3
  5557   00159C  CFDD F08E          	movff	postdec2,??_mutex_lock+4
  5558   0015A0  518B               	movf	(??_mutex_lock+1)& (0+255),w,b
  5559   0015A2  258D               	addwf	(??_mutex_lock+3)& (0+255),w,b
  5560   0015A4  6F8F               	movwf	(??_mutex_lock+5)& (0+255),b
  5561   0015A6  518C               	movf	(??_mutex_lock+2)& (0+255),w,b
  5562   0015A8  218E               	addwfc	(??_mutex_lock+4)& (0+255),w,b
  5563   0015AA  6F90               	movwf	(??_mutex_lock+6)& (0+255),b
  5564   0015AC  0E19               	movlw	25
  5565   0015AE  258F               	addwf	(??_mutex_lock+5)& (0+255),w,b
  5566   0015B0  6ED9               	movwf	fsr2l,c
  5567   0015B2  0E00               	movlw	0
  5568   0015B4  2190               	addwfc	(??_mutex_lock+6)& (0+255),w,b
  5569   0015B6  6EDA               	movwf	fsr2h,c
  5570   0015B8  50DF               	movf	indf2,w,c
  5571   0015BA  6EFF               	movwf	255,c	;volatile
  5572   0015BC                     
  5573                           ; BSR set to: 0
  5574   0015BC  EE25  F04B         	lfsr	2,_r_queue+469
  5575   0015C0  EE10 F074          	lfsr	1,116
  5576   0015C4  50DE               	movf	postinc2,w,c
  5577   0015C6  26E1               	addwf	fsr1l,f,c
  5578   0015C8  50DD               	movf	postdec2,w,c
  5579   0015CA  22E2               	addwfc	fsr1h,f,c
  5580   0015CC  50E7               	movf	indf1,w,c
  5581   0015CE  A4D8               	btfss	status,2,c
  5582   0015D0  EFEC  F00A         	goto	i1u322_21
  5583   0015D4  EFEE  F00A         	goto	i1u322_20
  5584   0015D8                     i1u322_21:
  5585   0015D8  EF67  F00A         	goto	i1l248
  5586   0015DC                     i1u322_20:
  5587   0015DC  EF35  F00B         	goto	i1l3652
  5588   0015E0                     i1l247:
  5589                           
  5590                           ; BSR set to: 0
  5591   0015E0  0005               	push		;# 
  5592   0015E2  EE25  F04B         	lfsr	2,_r_queue+469
  5593   0015E6  EE10 F002          	lfsr	1,2
  5594   0015EA  50DE               	movf	postinc2,w,c
  5595   0015EC  26E1               	addwf	fsr1l,f,c
  5596   0015EE  50DD               	movf	postdec2,w,c
  5597   0015F0  22E2               	addwfc	fsr1h,f,c
  5598   0015F2  50E7               	movf	indf1,w,c
  5599   0015F4  6EFD               	movwf	253,c	;volatile
  5600   0015F6  EE25  F04B         	lfsr	2,_r_queue+469
  5601   0015FA  EE10 F002          	lfsr	1,2
  5602   0015FE  50DE               	movf	postinc2,w,c
  5603   001600  26E1               	addwf	fsr1l,f,c
  5604   001602  50DD               	movf	postdec2,w,c
  5605   001604  22E2               	addwfc	fsr1h,f,c
  5606   001606  CFE6 F08A          	movff	postinc1,??_mutex_lock
  5607   00160A  CFE5 F08B          	movff	postdec1,??_mutex_lock+1
  5608   00160E  C08A  F08C         	movff	??_mutex_lock,??_mutex_lock+2
  5609   001612  C08B  F08D         	movff	??_mutex_lock+1,??_mutex_lock+3
  5610   001616  0100               	movlb	0	; () banked
  5611   001618  6B8E               	clrf	(??_mutex_lock+4)& (0+255),b
  5612   00161A  C08D  F08C         	movff	??_mutex_lock+3,??_mutex_lock+2
  5613   00161E  C08E  F08D         	movff	??_mutex_lock+4,??_mutex_lock+3
  5614   001622  6B8E               	clrf	(??_mutex_lock+4)& (0+255),b
  5615   001624  518C               	movf	(??_mutex_lock+2)& (0+255),w,b
  5616   001626  6EFE               	movwf	254,c	;volatile
  5617   001628  0E10               	movlw	16
  5618   00162A  6F8A               	movwf	??_mutex_lock& (0+255),b
  5619   00162C  EE25  F04B         	lfsr	2,_r_queue+469
  5620   001630  EE10 F002          	lfsr	1,2
  5621   001634  50DE               	movf	postinc2,w,c
  5622   001636  26E1               	addwf	fsr1l,f,c
  5623   001638  50DD               	movf	postdec2,w,c
  5624   00163A  22E2               	addwfc	fsr1h,f,c
  5625   00163C  CFE6 F08B          	movff	postinc1,??_mutex_lock+1
  5626   001640  CFE5 F08C          	movff	postdec1,??_mutex_lock+2
  5627   001644  C08B  F08D         	movff	??_mutex_lock+1,??_mutex_lock+3
  5628   001648  C08C  F08E         	movff	??_mutex_lock+2,??_mutex_lock+4
  5629   00164C  6B8F               	clrf	(??_mutex_lock+5)& (0+255),b
  5630   00164E  298A               	incf	??_mutex_lock& (0+255),w,b
  5631   001650  6F90               	movwf	(??_mutex_lock+6)& (0+255),b
  5632   001652  EF2F  F00B         	goto	i1u323_20
  5633   001656                     i1u323_25:
  5634   001656  90D8               	bcf	status,0,c
  5635   001658  338F               	rrcf	(??_mutex_lock+5)& (0+255),f,b
  5636   00165A  338E               	rrcf	(??_mutex_lock+4)& (0+255),f,b
  5637   00165C  338D               	rrcf	(??_mutex_lock+3)& (0+255),f,b
  5638   00165E                     i1u323_20:
  5639   00165E  2F90               	decfsz	(??_mutex_lock+6)& (0+255),f,b
  5640   001660  EF2B  F00B         	goto	i1u323_25
  5641   001664  0100               	movlb	0	; () banked
  5642   001666  518D               	movf	(??_mutex_lock+3)& (0+255),w,b
  5643   001668  6EFF               	movwf	255,c	;volatile
  5644   00166A                     i1l3652:
  5645                           
  5646                           ; BSR set to: 0
  5647   00166A  0E14               	movlw	20
  5648   00166C  6E4A               	movwf	_rr_quantum^0,c
  5649   00166E  EF49  F00B         	goto	i1l3658
  5650   001672                     i1l3654:
  5651                           
  5652                           ; BSR set to: 0
  5653                           ;sync.c: 63:         m->locked = 1;
  5654   001672  5189               	movf	mutex_lock@m& (0+255),w,b
  5655   001674  6ED9               	movwf	fsr2l,c
  5656   001676  6ADA               	clrf	fsr2h,c
  5657   001678  0E01               	movlw	1
  5658   00167A  6EDF               	movwf	indf2,c
  5659   00167C                     
  5660                           ; BSR set to: 0
  5661                           ;sync.c: 64:         m->owner_id = r_queue.task_running->task_id;
  5662   00167C  C54B  FFD9         	movff	_r_queue+469,fsr2l
  5663   001680  C54C  FFDA         	movff	_r_queue+470,fsr2h
  5664   001684  5189               	movf	mutex_lock@m& (0+255),w,b
  5665   001686  6EE1               	movwf	fsr1l,c
  5666   001688  6AE2               	clrf	fsr1h,c
  5667   00168A  0E01               	movlw	1
  5668   00168C  26E1               	addwf	fsr1l,f,c
  5669   00168E  CFDF FFE7          	movff	indf2,indf1
  5670   001692                     i1l3658:
  5671                           
  5672                           ;sync.c: 66:     INTCONbits.GIE = 1;;
  5673   001692  8EF2               	bsf	242,7,c	;volatile
  5674   001694  0012               	return		;funcret
  5675   001696                     __end_of_mutex_lock:
  5676                           	callstack 0
  5677                           
  5678 ;; *************** function i1_scheduler *****************
  5679 ;; Defined at:
  5680 ;;		line 9 in file "scheduler.c"
  5681 ;; Parameters:    Size  Location     Type
  5682 ;;		None
  5683 ;; Auto vars:     Size  Location     Type
  5684 ;;		None
  5685 ;; Return value:  Size  Location     Type
  5686 ;;                  1    wreg      void 
  5687 ;; Registers used:
  5688 ;;		wreg, fsr2l, fsr2h, status,2, status,0, prodl, prodh, cstack
  5689 ;; Tracked objects:
  5690 ;;		On entry : 0/0
  5691 ;;		On exit  : 0/0
  5692 ;;		Unchanged: 0/0
  5693 ;; Data sizes:     COMRAM   BANK0   BANK1   BANK2   BANK3   BANK4   BANK5   BANK6   BANK7   BANK8   BANK9  BANK10  BANK1
      +1  BANK12  BANK13  BANK14  BANK15
  5694 ;;      Params:         0       0       0       0       0       0       0       0       0       0       0       0       
      +0       0       0       0       0
  5695 ;;      Locals:         0       0       0       0       0       0       0       0       0       0       0       0       
      +0       0       0       0       0
  5696 ;;      Temps:          0       3       0       0       0       0       0       0       0       0       0       0       
      +0       0       0       0       0
  5697 ;;      Totals:         0       3       0       0       0       0       0       0       0       0       0       0       
      +0       0       0       0       0
  5698 ;;Total ram usage:        3 bytes
  5699 ;; Hardware stack levels used: 1
  5700 ;; Hardware stack levels required when called: 4
  5701 ;; This function calls:
  5702 ;;		i1_priority_rr_scheduler
  5703 ;; This function is called by:
  5704 ;;		_os_delay
  5705 ;;		_mutex_lock
  5706 ;; This function uses a non-reentrant model
  5707 ;;
  5708                           
  5709                           	psect	text17
  5710   002948                     __ptext17:
  5711                           	callstack 0
  5712   002948                     i1_scheduler:
  5713                           	callstack 20
  5714   002948                     
  5715                           ;scheduler.c: 15:     r_queue.pos_task_running = priority_rr_scheduler();
  5716   002948  EC9B  F010         	call	i1_priority_rr_scheduler	;wreg free
  5717   00294C  0100               	movlb	0	; () banked
  5718   00294E  6F86               	movwf	??i1_scheduler& (0+255),b
  5719   002950  C086  F54D         	movff	??i1_scheduler,_r_queue+471
  5720   002954                     
  5721                           ; BSR set to: 0
  5722                           ;scheduler.c: 17:     r_queue.task_running = &r_queue.TASKS[r_queue.pos_task_running];
  5723   002954  C54D  F086         	movff	_r_queue+471,??i1_scheduler
  5724   002958  5186               	movf	??i1_scheduler& (0+255),w,b
  5725   00295A  0D75               	mullw	117
  5726   00295C  0E76               	movlw	low _r_queue
  5727   00295E  24F3               	addwf	243,w,c
  5728   002960  6F87               	movwf	(??i1_scheduler+1)& (0+255),b
  5729   002962  0E03               	movlw	high _r_queue
  5730   002964  20F4               	addwfc	prodh,w,c
  5731   002966  6F88               	movwf	(??i1_scheduler+2)& (0+255),b
  5732   002968  C087  F54B         	movff	??i1_scheduler+1,_r_queue+469
  5733   00296C  C088  F54C         	movff	??i1_scheduler+2,_r_queue+470
  5734   002970                     
  5735                           ; BSR set to: 0
  5736   002970  0012               	return		;funcret
  5737   002972                     __end_ofi1_scheduler:
  5738                           	callstack 0
  5739                           
  5740 ;; *************** function i1_priority_rr_scheduler *****************
  5741 ;; Defined at:
  5742 ;;		line 52 in file "scheduler.c"
  5743 ;; Parameters:    Size  Location     Type
  5744 ;;		None
  5745 ;; Auto vars:     Size  Location     Type
  5746 ;;  i               1   37[BANK0 ] unsigned char 
  5747 ;;  idx             1   36[BANK0 ] unsigned char 
  5748 ;;  i               1   35[BANK0 ] unsigned char 
  5749 ;;  found           1   34[BANK0 ] unsigned char 
  5750 ;;  max_prio        1   33[BANK0 ] unsigned char 
  5751 ;;  current         1   32[BANK0 ] unsigned char 
  5752 ;; Return value:  Size  Location     Type
  5753 ;;                  1    wreg      unsigned char 
  5754 ;; Registers used:
  5755 ;;		wreg, fsr2l, fsr2h, status,2, status,0, prodl, prodh, cstack
  5756 ;; Tracked objects:
  5757 ;;		On entry : 0/0
  5758 ;;		On exit  : 0/0
  5759 ;;		Unchanged: 0/0
  5760 ;; Data sizes:     COMRAM   BANK0   BANK1   BANK2   BANK3   BANK4   BANK5   BANK6   BANK7   BANK8   BANK9  BANK10  BANK1
      +1  BANK12  BANK13  BANK14  BANK15
  5761 ;;      Params:         0       0       0       0       0       0       0       0       0       0       0       0       
      +0       0       0       0       0
  5762 ;;      Locals:         0       6       0       0       0       0       0       0       0       0       0       0       
      +0       0       0       0       0
  5763 ;;      Temps:          0       1       0       0       0       0       0       0       0       0       0       0       
      +0       0       0       0       0
  5764 ;;      Totals:         0       7       0       0       0       0       0       0       0       0       0       0       
      +0       0       0       0       0
  5765 ;;Total ram usage:        7 bytes
  5766 ;; Hardware stack levels used: 1
  5767 ;; Hardware stack levels required when called: 5
  5768 ;; This function calls:
  5769 ;;		i1___awmod
  5770 ;; This function is called by:
  5771 ;;		i1_scheduler
  5772 ;; This function uses a non-reentrant model
  5773 ;;
  5774                           
  5775                           	psect	text18
  5776   002136                     __ptext18:
  5777                           	callstack 0
  5778   002136                     i1_priority_rr_scheduler:
  5779                           	callstack 18
  5780   002136                     
  5781                           ;scheduler.c: 53:     uint8_t max_prio = 0;
  5782   002136  0100               	movlb	0	; () banked
  5783   002138  6B81               	clrf	i1priority_rr_scheduler@max_prio& (0+255),b
  5784                           
  5785                           ;scheduler.c: 54:     uint8_t found = 0;
  5786   00213A  6B82               	clrf	i1priority_rr_scheduler@found& (0+255),b
  5787                           
  5788                           ;scheduler.c: 57:     for (uint8_t i = 0; i < r_queue.size; i++) {
  5789   00213C  6B85               	clrf	i1priority_rr_scheduler@i& (0+255),b
  5790   00213E  EFD7  F010         	goto	i1l3538
  5791   002142                     i1l3526:
  5792                           
  5793                           ; BSR set to: 0
  5794                           ;scheduler.c: 58:         if (r_queue.TASKS[i].task_state == READY) {
  5795   002142  5185               	movf	i1priority_rr_scheduler@i& (0+255),w,b
  5796   002144  0D75               	mullw	117
  5797   002146  0E77               	movlw	low (_r_queue+1)
  5798   002148  24F3               	addwf	243,w,c
  5799   00214A  6ED9               	movwf	fsr2l,c
  5800   00214C  0E03               	movlw	high (_r_queue+1)
  5801   00214E  20F4               	addwfc	prodh,w,c
  5802   002150  6EDA               	movwf	fsr2h,c
  5803   002152  50DF               	movf	indf2,w,c
  5804   002154  A4D8               	btfss	status,2,c
  5805   002156  EFAF  F010         	goto	i1u303_21
  5806   00215A  EFB1  F010         	goto	i1u303_20
  5807   00215E                     i1u303_21:
  5808   00215E  EFD6  F010         	goto	i1l3536
  5809   002162                     i1u303_20:
  5810   002162                     
  5811                           ; BSR set to: 0
  5812                           ;scheduler.c: 59:             if (!found || r_queue.TASKS[i].task_priority > max_prio) {
  5813   002162  5182               	movf	i1priority_rr_scheduler@found& (0+255),w,b
  5814   002164  B4D8               	btfsc	status,2,c
  5815   002166  EFB7  F010         	goto	i1u304_21
  5816   00216A  EFB9  F010         	goto	i1u304_20
  5817   00216E                     i1u304_21:
  5818   00216E  EFCA  F010         	goto	i1l3532
  5819   002172                     i1u304_20:
  5820   002172                     
  5821                           ; BSR set to: 0
  5822   002172  5185               	movf	i1priority_rr_scheduler@i& (0+255),w,b
  5823   002174  0D75               	mullw	117
  5824   002176  0E7B               	movlw	low (_r_queue+5)
  5825   002178  24F3               	addwf	243,w,c
  5826   00217A  6ED9               	movwf	fsr2l,c
  5827   00217C  0E03               	movlw	high (_r_queue+5)
  5828   00217E  20F4               	addwfc	prodh,w,c
  5829   002180  6EDA               	movwf	fsr2h,c
  5830   002182  50DE               	movf	postinc2,w,c
  5831   002184  5D81               	subwf	i1priority_rr_scheduler@max_prio& (0+255),w,b
  5832   002186  B0D8               	btfsc	status,0,c
  5833   002188  EFC8  F010         	goto	i1u305_21
  5834   00218C  EFCA  F010         	goto	i1u305_20
  5835   002190                     i1u305_21:
  5836   002190  EFD6  F010         	goto	i1l3536
  5837   002194                     i1u305_20:
  5838   002194                     i1l3532:
  5839                           
  5840                           ; BSR set to: 0
  5841                           ;scheduler.c: 60:                 max_prio = r_queue.TASKS[i].task_priority;
  5842   002194  5185               	movf	i1priority_rr_scheduler@i& (0+255),w,b
  5843   002196  0D75               	mullw	117
  5844   002198  0E7B               	movlw	low (_r_queue+5)
  5845   00219A  24F3               	addwf	243,w,c
  5846   00219C  6ED9               	movwf	fsr2l,c
  5847   00219E  0E03               	movlw	high (_r_queue+5)
  5848   0021A0  20F4               	addwfc	prodh,w,c
  5849   0021A2  6EDA               	movwf	fsr2h,c
  5850   0021A4  50DF               	movf	indf2,w,c
  5851   0021A6  6F81               	movwf	i1priority_rr_scheduler@max_prio& (0+255),b
  5852   0021A8                     
  5853                           ; BSR set to: 0
  5854                           ;scheduler.c: 61:                 found = 1;
  5855   0021A8  0E01               	movlw	1
  5856   0021AA  6F82               	movwf	i1priority_rr_scheduler@found& (0+255),b
  5857   0021AC                     i1l3536:
  5858                           
  5859                           ; BSR set to: 0
  5860                           ;scheduler.c: 64:     }
  5861   0021AC  2B85               	incf	i1priority_rr_scheduler@i& (0+255),f,b
  5862   0021AE                     i1l3538:
  5863                           
  5864                           ; BSR set to: 0
  5865   0021AE  EE25  F04A         	lfsr	2,_r_queue+468
  5866   0021B2  50DE               	movf	postinc2,w,c
  5867   0021B4  5D85               	subwf	i1priority_rr_scheduler@i& (0+255),w,b
  5868   0021B6  A0D8               	btfss	status,0,c
  5869   0021B8  EFE0  F010         	goto	i1u306_21
  5870   0021BC  EFE2  F010         	goto	i1u306_20
  5871   0021C0                     i1u306_21:
  5872   0021C0  EFA1  F010         	goto	i1l3526
  5873   0021C4                     i1u306_20:
  5874   0021C4                     
  5875                           ; BSR set to: 0
  5876                           ;scheduler.c: 65:     if (!found)return 0;
  5877   0021C4  5182               	movf	i1priority_rr_scheduler@found& (0+255),w,b
  5878   0021C6  A4D8               	btfss	status,2,c
  5879   0021C8  EFE8  F010         	goto	i1u307_21
  5880   0021CC  EFEA  F010         	goto	i1u307_20
  5881   0021D0                     i1u307_21:
  5882   0021D0  EFED  F010         	goto	i1l481
  5883   0021D4                     i1u307_20:
  5884   0021D4                     i1l3542:
  5885                           
  5886                           ; BSR set to: 0
  5887   0021D4  0E00               	movlw	0
  5888   0021D6  EF33  F011         	goto	i1l482
  5889   0021DA                     i1l481:
  5890                           
  5891                           ; BSR set to: 0
  5892                           ;scheduler.c: 66:     uint8_t current = r_queue.pos_task_running;
  5893   0021DA  C54D  F080         	movff	_r_queue+471,i1priority_rr_scheduler@current
  5894                           
  5895                           ;scheduler.c: 68:     for (uint8_t i = 0; i < r_queue.size; i++) {
  5896   0021DE  6B83               	clrf	i1priority_rr_scheduler@i_1476& (0+255),b
  5897   0021E0  EF26  F011         	goto	i1l3558
  5898   0021E4                     i1l3546:
  5899                           
  5900                           ; BSR set to: 0
  5901                           ;scheduler.c: 69:         uint8_t idx = (current + i) % r_queue.size;
  5902   0021E4  5180               	movf	i1priority_rr_scheduler@current& (0+255),w,b
  5903   0021E6  2583               	addwf	i1priority_rr_scheduler@i_1476& (0+255),w,b
  5904   0021E8  6F79               	movwf	i1___awmod@dividend& (0+255),b
  5905   0021EA  6B7A               	clrf	(i1___awmod@dividend+1)& (0+255),b
  5906   0021EC  377A               	rlcf	(i1___awmod@dividend+1)& (0+255),f,b
  5907   0021EE  C54A  F07F         	movff	_r_queue+468,??i1_priority_rr_scheduler
  5908   0021F2  517F               	movf	??i1_priority_rr_scheduler& (0+255),w,b
  5909   0021F4  6F7B               	movwf	i1___awmod@divisor& (0+255),b
  5910   0021F6  6B7C               	clrf	(i1___awmod@divisor+1)& (0+255),b
  5911   0021F8  ECA4  F012         	call	i1___awmod	;wreg free
  5912   0021FC  0100               	movlb	0	; () banked
  5913   0021FE  5179               	movf	?i1___awmod& (0+255),w,b
  5914   002200  6F84               	movwf	i1priority_rr_scheduler@idx& (0+255),b
  5915   002202                     
  5916                           ; BSR set to: 0
  5917                           ;scheduler.c: 70:         if (r_queue.TASKS[idx].task_state == READY &&
  5918   002202  5184               	movf	i1priority_rr_scheduler@idx& (0+255),w,b
  5919   002204  0D75               	mullw	117
  5920   002206  0E77               	movlw	low (_r_queue+1)
  5921   002208  24F3               	addwf	243,w,c
  5922   00220A  6ED9               	movwf	fsr2l,c
  5923   00220C  0E03               	movlw	high (_r_queue+1)
  5924   00220E  20F4               	addwfc	prodh,w,c
  5925   002210  6EDA               	movwf	fsr2h,c
  5926   002212  50DF               	movf	indf2,w,c
  5927   002214  A4D8               	btfss	status,2,c
  5928   002216  EF0F  F011         	goto	i1u308_21
  5929   00221A  EF11  F011         	goto	i1u308_20
  5930   00221E                     i1u308_21:
  5931   00221E  EF25  F011         	goto	i1l3556
  5932   002222                     i1u308_20:
  5933   002222                     
  5934                           ; BSR set to: 0
  5935   002222  5184               	movf	i1priority_rr_scheduler@idx& (0+255),w,b
  5936   002224  0D75               	mullw	117
  5937   002226  0E7B               	movlw	low (_r_queue+5)
  5938   002228  24F3               	addwf	243,w,c
  5939   00222A  6ED9               	movwf	fsr2l,c
  5940   00222C  0E03               	movlw	high (_r_queue+5)
  5941   00222E  20F4               	addwfc	prodh,w,c
  5942   002230  6EDA               	movwf	fsr2h,c
  5943   002232  5181               	movf	i1priority_rr_scheduler@max_prio& (0+255),w,b
  5944   002234  18DE               	xorwf	postinc2,w,c
  5945   002236  A4D8               	btfss	status,2,c
  5946   002238  EF20  F011         	goto	i1u309_21
  5947   00223C  EF22  F011         	goto	i1u309_20
  5948   002240                     i1u309_21:
  5949   002240  EF25  F011         	goto	i1l3556
  5950   002244                     i1u309_20:
  5951   002244                     
  5952                           ; BSR set to: 0
  5953                           ;scheduler.c: 71:             r_queue.TASKS[idx].task_priority == max_prio) {;scheduler.
      +                          c: 72:             return idx;
  5954   002244  5184               	movf	i1priority_rr_scheduler@idx& (0+255),w,b
  5955   002246  EF33  F011         	goto	i1l482
  5956   00224A                     i1l3556:
  5957                           
  5958                           ; BSR set to: 0
  5959                           ;scheduler.c: 74:     }
  5960   00224A  2B83               	incf	i1priority_rr_scheduler@i_1476& (0+255),f,b
  5961   00224C                     i1l3558:
  5962                           
  5963                           ; BSR set to: 0
  5964   00224C  EE25  F04A         	lfsr	2,_r_queue+468
  5965   002250  50DE               	movf	postinc2,w,c
  5966   002252  5D83               	subwf	i1priority_rr_scheduler@i_1476& (0+255),w,b
  5967   002254  A0D8               	btfss	status,0,c
  5968   002256  EF2F  F011         	goto	i1u310_21
  5969   00225A  EF31  F011         	goto	i1u310_20
  5970   00225E                     i1u310_21:
  5971   00225E  EFF2  F010         	goto	i1l3546
  5972   002262                     i1u310_20:
  5973   002262  EFEA  F010         	goto	i1l3542
  5974   002266                     i1l482:
  5975                           
  5976                           ; BSR set to: 0
  5977   002266  0012               	return		;funcret
  5978   002268                     __end_ofi1_priority_rr_scheduler:
  5979                           	callstack 0
  5980                           
  5981 ;; *************** function i1___awmod *****************
  5982 ;; Defined at:
  5983 ;;		line 7 in file "C:\Program Files\Microchip\xc8\v3.10\pic\sources\c99\common\awmod.c"
  5984 ;; Parameters:    Size  Location     Type
  5985 ;;  dividend        2   25[BANK0 ] int 
  5986 ;;  divisor         2   27[BANK0 ] int 
  5987 ;; Auto vars:     Size  Location     Type
  5988 ;;  sign            1   30[BANK0 ] unsigned char 
  5989 ;;  counter         1   29[BANK0 ] unsigned char 
  5990 ;; Return value:  Size  Location     Type
  5991 ;;                  2   25[BANK0 ] int 
  5992 ;; Registers used:
  5993 ;;		wreg, status,2, status,0
  5994 ;; Tracked objects:
  5995 ;;		On entry : 0/0
  5996 ;;		On exit  : 0/0
  5997 ;;		Unchanged: 0/0
  5998 ;; Data sizes:     COMRAM   BANK0   BANK1   BANK2   BANK3   BANK4   BANK5   BANK6   BANK7   BANK8   BANK9  BANK10  BANK1
      +1  BANK12  BANK13  BANK14  BANK15
  5999 ;;      Params:         0       4       0       0       0       0       0       0       0       0       0       0       
      +0       0       0       0       0
  6000 ;;      Locals:         0       2       0       0       0       0       0       0       0       0       0       0       
      +0       0       0       0       0
  6001 ;;      Temps:          0       0       0       0       0       0       0       0       0       0       0       0       
      +0       0       0       0       0
  6002 ;;      Totals:         0       6       0       0       0       0       0       0       0       0       0       0       
      +0       0       0       0       0
  6003 ;;Total ram usage:        6 bytes
  6004 ;; Hardware stack levels used: 1
  6005 ;; Hardware stack levels required when called: 4
  6006 ;; This function calls:
  6007 ;;		Nothing
  6008 ;; This function is called by:
  6009 ;;		_mutex_lock
  6010 ;;		_mutex_unlock
  6011 ;;		i1_priority_rr_scheduler
  6012 ;; This function uses a non-reentrant model
  6013 ;;
  6014                           
  6015                           	psect	text19
  6016   002548                     __ptext19:
  6017                           	callstack 0
  6018   002548                     i1___awmod:
  6019                           	callstack 18
  6020   002548  0100               	movlb	0	; () banked
  6021   00254A  6B7E               	clrf	i1___awmod@sign& (0+255),b
  6022   00254C                     
  6023                           ; BSR set to: 0
  6024   00254C  BF7A               	btfsc	(i1___awmod@dividend+1)& (0+255),7,b
  6025   00254E  EFAD  F012         	goto	i1u297_20
  6026   002552  EFAB  F012         	goto	i1u297_21
  6027   002556                     i1u297_21:
  6028   002556  EFB3  F012         	goto	i1l3496
  6029   00255A                     i1u297_20:
  6030   00255A                     
  6031                           ; BSR set to: 0
  6032   00255A  6D79               	negf	i1___awmod@dividend& (0+255),b
  6033   00255C  1F7A               	comf	(i1___awmod@dividend+1)& (0+255),f,b
  6034   00255E  B0D8               	btfsc	status,0,c
  6035   002560  2B7A               	incf	(i1___awmod@dividend+1)& (0+255),f,b
  6036   002562                     
  6037                           ; BSR set to: 0
  6038   002562  0E01               	movlw	1
  6039   002564  6F7E               	movwf	i1___awmod@sign& (0+255),b
  6040   002566                     i1l3496:
  6041                           
  6042                           ; BSR set to: 0
  6043   002566  BF7C               	btfsc	(i1___awmod@divisor+1)& (0+255),7,b
  6044   002568  EFBA  F012         	goto	i1u298_20
  6045   00256C  EFB8  F012         	goto	i1u298_21
  6046   002570                     i1u298_21:
  6047   002570  EFBE  F012         	goto	i1l3500
  6048   002574                     i1u298_20:
  6049   002574                     
  6050                           ; BSR set to: 0
  6051   002574  6D7B               	negf	i1___awmod@divisor& (0+255),b
  6052   002576  1F7C               	comf	(i1___awmod@divisor+1)& (0+255),f,b
  6053   002578  B0D8               	btfsc	status,0,c
  6054   00257A  2B7C               	incf	(i1___awmod@divisor+1)& (0+255),f,b
  6055   00257C                     i1l3500:
  6056                           
  6057                           ; BSR set to: 0
  6058   00257C  517B               	movf	i1___awmod@divisor& (0+255),w,b
  6059   00257E  117C               	iorwf	(i1___awmod@divisor+1)& (0+255),w,b
  6060   002580  B4D8               	btfsc	status,2,c
  6061   002582  EFC5  F012         	goto	i1u299_21
  6062   002586  EFC7  F012         	goto	i1u299_20
  6063   00258A                     i1u299_21:
  6064   00258A  EFEB  F012         	goto	i1l3516
  6065   00258E                     i1u299_20:
  6066   00258E                     
  6067                           ; BSR set to: 0
  6068   00258E  0E01               	movlw	1
  6069   002590  6F7D               	movwf	i1___awmod@counter& (0+255),b
  6070   002592  EFCF  F012         	goto	i1l3506
  6071   002596                     i1l3504:
  6072                           
  6073                           ; BSR set to: 0
  6074   002596  90D8               	bcf	status,0,c
  6075   002598  377B               	rlcf	i1___awmod@divisor& (0+255),f,b
  6076   00259A  377C               	rlcf	(i1___awmod@divisor+1)& (0+255),f,b
  6077   00259C  2B7D               	incf	i1___awmod@counter& (0+255),f,b
  6078   00259E                     i1l3506:
  6079                           
  6080                           ; BSR set to: 0
  6081   00259E  AF7C               	btfss	(i1___awmod@divisor+1)& (0+255),7,b
  6082   0025A0  EFD4  F012         	goto	i1u300_21
  6083   0025A4  EFD6  F012         	goto	i1u300_20
  6084   0025A8                     i1u300_21:
  6085   0025A8  EFCB  F012         	goto	i1l3504
  6086   0025AC                     i1u300_20:
  6087   0025AC                     i1l3508:
  6088                           
  6089                           ; BSR set to: 0
  6090   0025AC  517B               	movf	i1___awmod@divisor& (0+255),w,b
  6091   0025AE  5D79               	subwf	i1___awmod@dividend& (0+255),w,b
  6092   0025B0  517C               	movf	(i1___awmod@divisor+1)& (0+255),w,b
  6093   0025B2  597A               	subwfb	(i1___awmod@dividend+1)& (0+255),w,b
  6094   0025B4  A0D8               	btfss	status,0,c
  6095   0025B6  EFDF  F012         	goto	i1u301_21
  6096   0025BA  EFE1  F012         	goto	i1u301_20
  6097   0025BE                     i1u301_21:
  6098   0025BE  EFE5  F012         	goto	i1l3512
  6099   0025C2                     i1u301_20:
  6100   0025C2                     
  6101                           ; BSR set to: 0
  6102   0025C2  517B               	movf	i1___awmod@divisor& (0+255),w,b
  6103   0025C4  5F79               	subwf	i1___awmod@dividend& (0+255),f,b
  6104   0025C6  517C               	movf	(i1___awmod@divisor+1)& (0+255),w,b
  6105   0025C8  5B7A               	subwfb	(i1___awmod@dividend+1)& (0+255),f,b
  6106   0025CA                     i1l3512:
  6107                           
  6108                           ; BSR set to: 0
  6109   0025CA  90D8               	bcf	status,0,c
  6110   0025CC  337C               	rrcf	(i1___awmod@divisor+1)& (0+255),f,b
  6111   0025CE  337B               	rrcf	i1___awmod@divisor& (0+255),f,b
  6112   0025D0                     
  6113                           ; BSR set to: 0
  6114   0025D0  2F7D               	decfsz	i1___awmod@counter& (0+255),f,b
  6115   0025D2  EFD6  F012         	goto	i1l3508
  6116   0025D6                     i1l3516:
  6117                           
  6118                           ; BSR set to: 0
  6119   0025D6  517E               	movf	i1___awmod@sign& (0+255),w,b
  6120   0025D8  B4D8               	btfsc	status,2,c
  6121   0025DA  EFF1  F012         	goto	i1u302_21
  6122   0025DE  EFF3  F012         	goto	i1u302_20
  6123   0025E2                     i1u302_21:
  6124   0025E2  EFF7  F012         	goto	i1l3520
  6125   0025E6                     i1u302_20:
  6126   0025E6                     
  6127                           ; BSR set to: 0
  6128   0025E6  6D79               	negf	i1___awmod@dividend& (0+255),b
  6129   0025E8  1F7A               	comf	(i1___awmod@dividend+1)& (0+255),f,b
  6130   0025EA  B0D8               	btfsc	status,0,c
  6131   0025EC  2B7A               	incf	(i1___awmod@dividend+1)& (0+255),f,b
  6132   0025EE                     i1l3520:
  6133                           
  6134                           ; BSR set to: 0
  6135   0025EE  C079  F079         	movff	i1___awmod@dividend,?i1___awmod
  6136   0025F2  C07A  F07A         	movff	i1___awmod@dividend+1,?i1___awmod+1
  6137   0025F6                     
  6138                           ; BSR set to: 0
  6139   0025F6  0012               	return		;funcret
  6140   0025F8                     __end_ofi1___awmod:
  6141                           	callstack 0
  6142                           
  6143 ;; *************** function _LED_2_mutex *****************
  6144 ;; Defined at:
  6145 ;;		line 100 in file "user.c"
  6146 ;; Parameters:    Size  Location     Type
  6147 ;;		None
  6148 ;; Auto vars:     Size  Location     Type
  6149 ;;		None
  6150 ;; Return value:  Size  Location     Type
  6151 ;;                  1    wreg      void 
  6152 ;; Registers used:
  6153 ;;		wreg, fsr1l, fsr1h, fsr2l, fsr2h, status,2, status,0, prodl, prodh, cstack
  6154 ;; Tracked objects:
  6155 ;;		On entry : 0/0
  6156 ;;		On exit  : 0/0
  6157 ;;		Unchanged: 0/0
  6158 ;; Data sizes:     COMRAM   BANK0   BANK1   BANK2   BANK3   BANK4   BANK5   BANK6   BANK7   BANK8   BANK9  BANK10  BANK1
      +1  BANK12  BANK13  BANK14  BANK15
  6159 ;;      Params:         0       0       0       0       0       0       0       0       0       0       0       0       
      +0       0       0       0       0
  6160 ;;      Locals:         0       0       0       0       0       0       0       0       0       0       0       0       
      +0       0       0       0       0
  6161 ;;      Temps:          0       0       0       0       0       0       0       0       0       0       0       0       
      +0       0       0       0       0
  6162 ;;      Totals:         0       0       0       0       0       0       0       0       0       0       0       0       
      +0       0       0       0       0
  6163 ;;Total ram usage:        0 bytes
  6164 ;; Hardware stack levels used: 1
  6165 ;; Hardware stack levels required when called: 8
  6166 ;; This function calls:
  6167 ;;		_mutex_lock
  6168 ;;		_mutex_unlock
  6169 ;;		_os_delay
  6170 ;; This function is called by:
  6171 ;;		Interrupt level 1
  6172 ;; This function uses a non-reentrant model
  6173 ;;
  6174                           
  6175                           	psect	text20
  6176   0029BE                     __ptext20:
  6177                           	callstack 0
  6178   0029BE                     _LED_2_mutex:
  6179                           	callstack 18
  6180   0029BE                     l385:
  6181   0029BE                     
  6182                           ;user.c: 102:         mutex_lock(&m_led);
  6183   0029BE  0E16               	movlw	low _m_led
  6184   0029C0  0100               	movlb	0	; () banked
  6185   0029C2  6F89               	movwf	mutex_lock@m& (0+255),b
  6186   0029C4  EC01  F008         	call	_mutex_lock	;wreg free
  6187   0029C8                     
  6188                           ;user.c: 104:         PORTCbits.RC7 = 1;
  6189   0029C8  8E82               	bsf	130,7,c	;volatile
  6190                           
  6191                           ;user.c: 105:         os_delay(5);
  6192   0029CA  0E05               	movlw	5
  6193   0029CC  EC4B  F00B         	call	_os_delay
  6194   0029D0                     
  6195                           ;user.c: 106:         PORTCbits.RC7 = 0;
  6196   0029D0  9E82               	bcf	130,7,c	;volatile
  6197                           
  6198                           ;user.c: 108:         mutex_unlock(&m_led);
  6199   0029D2  0E16               	movlw	low _m_led
  6200   0029D4  0100               	movlb	0	; () banked
  6201   0029D6  6F7F               	movwf	mutex_unlock@m& (0+255),b
  6202   0029D8  ECCB  F011         	call	_mutex_unlock	;wreg free
  6203   0029DC  EFDF  F014         	goto	l385
  6204   0029E0  0012               	return		;funcret
  6205   0029E2                     __end_of_LED_2_mutex:
  6206                           	callstack 0
  6207                           
  6208 ;; *************** function _ISR *****************
  6209 ;; Defined at:
  6210 ;;		line 23 in file "hw.c"
  6211 ;; Parameters:    Size  Location     Type
  6212 ;;		None
  6213 ;; Auto vars:     Size  Location     Type
  6214 ;;  i               2   29[COMRAM] int 
  6215 ;; Return value:  Size  Location     Type
  6216 ;;                  1    wreg      void 
  6217 ;; Registers used:
  6218 ;;		wreg, fsr1l, fsr1h, fsr2l, fsr2h, status,2, status,0, prodl, prodh, cstack
  6219 ;; Tracked objects:
  6220 ;;		On entry : 0/0
  6221 ;;		On exit  : 0/0
  6222 ;;		Unchanged: 0/0
  6223 ;; Data sizes:     COMRAM   BANK0   BANK1   BANK2   BANK3   BANK4   BANK5   BANK6   BANK7   BANK8   BANK9  BANK10  BANK1
      +1  BANK12  BANK13  BANK14  BANK15
  6224 ;;      Params:         0       0       0       0       0       0       0       0       0       0       0       0       
      +0       0       0       0       0
  6225 ;;      Locals:         2       0       0       0       0       0       0       0       0       0       0       0       
      +0       0       0       0       0
  6226 ;;      Temps:         13       0       0       0       0       0       0       0       0       0       0       0       
      +0       0       0       0       0
  6227 ;;      Totals:        15       0       0       0       0       0       0       0       0       0       0       0       
      +0       0       0       0       0
  6228 ;;Total ram usage:       15 bytes
  6229 ;; Hardware stack levels used: 1
  6230 ;; Hardware stack levels required when called: 3
  6231 ;; This function calls:
  6232 ;;		i2_scheduler
  6233 ;; This function is called by:
  6234 ;;		Interrupt level 2
  6235 ;; This function uses a non-reentrant model
  6236 ;;
  6237                           
  6238                           	psect	intcode
  6239   000008                     __pintcode:
  6240                           	callstack 0
  6241   000008                     _ISR:
  6242                           	callstack 18
  6243                           
  6244                           ;incstack = 0
  6245   000008  8201               	bsf	int$flags,1,c	;set compiler interrupt flag (level 2)
  6246   00000A  CFE1 F03C          	movff	fsr1l,??_ISR+7
  6247   00000E  CFE2 F03D          	movff	fsr1h,??_ISR+8
  6248   000012  CFD9 F03E          	movff	fsr2l,??_ISR+9
  6249   000016  CFDA F03F          	movff	fsr2h,??_ISR+10
  6250   00001A  CFF3 F040          	movff	prodl,??_ISR+11
  6251   00001E  CFF4 F041          	movff	prodh,??_ISR+12
  6252   000022                     
  6253                           ;hw.c: 25:     if (INTCONbits.TMR0IF) {
  6254   000022  A4F2               	btfss	242,2,c	;volatile
  6255   000024  EF16  F000         	goto	i2u217_41
  6256   000028  EF18  F000         	goto	i2u217_40
  6257   00002C                     i2u217_41:
  6258   00002C  EF7F  F003         	goto	i2l568
  6259   000030                     i2u217_40:
  6260   000030                     
  6261                           ;hw.c: 26:         INTCONbits.TMR0IF = 0;
  6262   000030  94F2               	bcf	242,2,c	;volatile
  6263   000032                     
  6264                           ;hw.c: 29:         for (int i = 0; i < r_queue.size; i++) {
  6265   000032  6A43               	clrf	(ISR@i+1)^0,c
  6266   000034  0E00               	movlw	0
  6267   000036  6E42               	movwf	ISR@i^0,c
  6268   000038  EF6E  F000         	goto	i2l2918
  6269   00003C                     i2l2910:
  6270                           
  6271                           ;hw.c: 30:             if (r_queue.TASKS[i].task_delay > 0) {
  6272   00003C  0E75               	movlw	117
  6273   00003E  0242               	mulwf	ISR@i^0,c
  6274   000040  CFF3 F035          	movff	prodl,??_ISR
  6275   000044  CFF4 F036          	movff	prodh,??_ISR+1
  6276   000048  0243               	mulwf	(ISR@i+1)^0,c
  6277   00004A  50F3               	movf	prodl,w,c
  6278   00004C  2636               	addwf	(??_ISR+1)^0,f,c
  6279   00004E  0E7A               	movlw	low (_r_queue+4)
  6280   000050  2435               	addwf	??_ISR^0,w,c
  6281   000052  6ED9               	movwf	fsr2l,c
  6282   000054  0E03               	movlw	high (_r_queue+4)
  6283   000056  2036               	addwfc	(??_ISR+1)^0,w,c
  6284   000058  6EDA               	movwf	fsr2h,c
  6285   00005A  50DF               	movf	indf2,w,c
  6286   00005C  B4D8               	btfsc	status,2,c
  6287   00005E  EF33  F000         	goto	i2u218_41
  6288   000062  EF35  F000         	goto	i2u218_40
  6289   000066                     i2u218_41:
  6290   000066  EF6C  F000         	goto	i2l2916
  6291   00006A                     i2u218_40:
  6292   00006A                     
  6293                           ;hw.c: 31:                 r_queue.TASKS[i].task_delay--;
  6294   00006A  0E75               	movlw	117
  6295   00006C  0242               	mulwf	ISR@i^0,c
  6296   00006E  CFF3 F035          	movff	prodl,??_ISR
  6297   000072  CFF4 F036          	movff	prodh,??_ISR+1
  6298   000076  0243               	mulwf	(ISR@i+1)^0,c
  6299   000078  50F3               	movf	prodl,w,c
  6300   00007A  2636               	addwf	(??_ISR+1)^0,f,c
  6301   00007C  0E7A               	movlw	low (_r_queue+4)
  6302   00007E  2435               	addwf	??_ISR^0,w,c
  6303   000080  6ED9               	movwf	fsr2l,c
  6304   000082  0E03               	movlw	high (_r_queue+4)
  6305   000084  2036               	addwfc	(??_ISR+1)^0,w,c
  6306   000086  6EDA               	movwf	fsr2h,c
  6307   000088  06DF               	decf	indf2,f,c
  6308                           
  6309                           ;hw.c: 32:                 if (r_queue.TASKS[i].task_delay == 0) {
  6310   00008A  0E75               	movlw	117
  6311   00008C  0242               	mulwf	ISR@i^0,c
  6312   00008E  CFF3 F035          	movff	prodl,??_ISR
  6313   000092  CFF4 F036          	movff	prodh,??_ISR+1
  6314   000096  0243               	mulwf	(ISR@i+1)^0,c
  6315   000098  50F3               	movf	prodl,w,c
  6316   00009A  2636               	addwf	(??_ISR+1)^0,f,c
  6317   00009C  0E7A               	movlw	low (_r_queue+4)
  6318   00009E  2435               	addwf	??_ISR^0,w,c
  6319   0000A0  6ED9               	movwf	fsr2l,c
  6320   0000A2  0E03               	movlw	high (_r_queue+4)
  6321   0000A4  2036               	addwfc	(??_ISR+1)^0,w,c
  6322   0000A6  6EDA               	movwf	fsr2h,c
  6323   0000A8  50DF               	movf	indf2,w,c
  6324   0000AA  A4D8               	btfss	status,2,c
  6325   0000AC  EF5A  F000         	goto	i2u219_41
  6326   0000B0  EF5C  F000         	goto	i2u219_40
  6327   0000B4                     i2u219_41:
  6328   0000B4  EF6C  F000         	goto	i2l2916
  6329   0000B8                     i2u219_40:
  6330   0000B8                     
  6331                           ;hw.c: 33:                     r_queue.TASKS[i].task_state = READY;
  6332   0000B8  0E75               	movlw	117
  6333   0000BA  0242               	mulwf	ISR@i^0,c
  6334   0000BC  CFF3 F035          	movff	prodl,??_ISR
  6335   0000C0  CFF4 F036          	movff	prodh,??_ISR+1
  6336   0000C4  0243               	mulwf	(ISR@i+1)^0,c
  6337   0000C6  50F3               	movf	prodl,w,c
  6338   0000C8  2636               	addwf	(??_ISR+1)^0,f,c
  6339   0000CA  0E77               	movlw	low (_r_queue+1)
  6340   0000CC  2435               	addwf	??_ISR^0,w,c
  6341   0000CE  6ED9               	movwf	fsr2l,c
  6342   0000D0  0E03               	movlw	high (_r_queue+1)
  6343   0000D2  2036               	addwfc	(??_ISR+1)^0,w,c
  6344   0000D4  6EDA               	movwf	fsr2h,c
  6345   0000D6  6ADF               	clrf	indf2,c
  6346   0000D8                     i2l2916:
  6347                           
  6348                           ;hw.c: 36:         }
  6349   0000D8  4A42               	infsnz	ISR@i^0,f,c
  6350   0000DA  2A43               	incf	(ISR@i+1)^0,f,c
  6351   0000DC                     i2l2918:
  6352   0000DC  EE25  F04A         	lfsr	2,_r_queue+468
  6353   0000E0  50DF               	movf	indf2,w,c
  6354   0000E2  6E35               	movwf	??_ISR^0,c
  6355   0000E4  6A36               	clrf	(??_ISR+1)^0,c
  6356   0000E6  5035               	movf	??_ISR^0,w,c
  6357   0000E8  5C42               	subwf	ISR@i^0,w,c
  6358   0000EA  5043               	movf	(ISR@i+1)^0,w,c
  6359   0000EC  0A80               	xorlw	128
  6360   0000EE  6E37               	movwf	(??_ISR+2)^0,c
  6361   0000F0  5036               	movf	(??_ISR+1)^0,w,c
  6362   0000F2  0A80               	xorlw	128
  6363   0000F4  5837               	subwfb	(??_ISR+2)^0,w,c
  6364   0000F6  A0D8               	btfss	status,0,c
  6365   0000F8  EF80  F000         	goto	i2u220_41
  6366   0000FC  EF82  F000         	goto	i2u220_40
  6367   000100                     i2u220_41:
  6368   000100  EF1E  F000         	goto	i2l2910
  6369   000104                     i2u220_40:
  6370   000104                     
  6371                           ;hw.c: 40:         rr_quantum--;
  6372   000104  064A               	decf	_rr_quantum^0,f,c
  6373   000106                     
  6374                           ;hw.c: 41:         if (rr_quantum == 0) {
  6375   000106  504A               	movf	_rr_quantum^0,w,c
  6376   000108  A4D8               	btfss	status,2,c
  6377   00010A  EF89  F000         	goto	i2u221_41
  6378   00010E  EF8B  F000         	goto	i2u221_40
  6379   000112                     i2u221_41:
  6380   000112  EF7F  F003         	goto	i2l568
  6381   000116                     i2u221_40:
  6382   000116                     
  6383                           ;hw.c: 42:             rr_quantum = 20;
  6384   000116  0E14               	movlw	20
  6385   000118  6E4A               	movwf	_rr_quantum^0,c
  6386   00011A  EE25  F04B         	lfsr	2,_r_queue+469
  6387   00011E  EE10 F001          	lfsr	1,1
  6388   000122  50DE               	movf	postinc2,w,c
  6389   000124  26E1               	addwf	fsr1l,f,c
  6390   000126  50DD               	movf	postdec2,w,c
  6391   000128  22E2               	addwfc	fsr1h,f,c
  6392   00012A  0E02               	movlw	2
  6393   00012C  18E6               	xorwf	postinc1,w,c
  6394   00012E  A4D8               	btfss	status,2,c
  6395   000130  EF9C  F000         	goto	i2u222_41
  6396   000134  EF9E  F000         	goto	i2u222_40
  6397   000138                     i2u222_41:
  6398   000138  EFDA  F001         	goto	i2l2936
  6399   00013C                     i2u222_40:
  6400   00013C  EE25  F04B         	lfsr	2,_r_queue+469
  6401   000140  EE10 F001          	lfsr	1,1
  6402   000144  50DE               	movf	postinc2,w,c
  6403   000146  26E1               	addwf	fsr1l,f,c
  6404   000148  50DD               	movf	postdec2,w,c
  6405   00014A  22E2               	addwfc	fsr1h,f,c
  6406   00014C  6AE7               	clrf	indf1,c
  6407   00014E  EE25  F04B         	lfsr	2,_r_queue+469
  6408   000152  EE10 F008          	lfsr	1,8
  6409   000156  50DE               	movf	postinc2,w,c
  6410   000158  26E1               	addwf	fsr1l,f,c
  6411   00015A  50DD               	movf	postdec2,w,c
  6412   00015C  22E2               	addwfc	fsr1h,f,c
  6413   00015E  CFE0 FFE7          	movff	bsr,indf1	;volatile
  6414   000162  EE25  F04B         	lfsr	2,_r_queue+469
  6415   000166  EE10 F00C          	lfsr	1,12
  6416   00016A  50DE               	movf	postinc2,w,c
  6417   00016C  26E1               	addwf	fsr1l,f,c
  6418   00016E  50DD               	movf	postdec2,w,c
  6419   000170  22E2               	addwfc	fsr1h,f,c
  6420   000172  CFEA FFE7          	movff	fsr0h,indf1	;volatile
  6421   000176  EE25  F04B         	lfsr	2,_r_queue+469
  6422   00017A  EE10 F00B          	lfsr	1,11
  6423   00017E  50DE               	movf	postinc2,w,c
  6424   000180  26E1               	addwf	fsr1l,f,c
  6425   000182  50DD               	movf	postdec2,w,c
  6426   000184  22E2               	addwfc	fsr1h,f,c
  6427   000186  CFE9 FFE7          	movff	fsr0l,indf1	;volatile
  6428   00018A  EE25  F04B         	lfsr	2,_r_queue+469
  6429   00018E  EE10 F00E          	lfsr	1,14
  6430   000192  50DE               	movf	postinc2,w,c
  6431   000194  26E1               	addwf	fsr1l,f,c
  6432   000196  50DD               	movf	postdec2,w,c
  6433   000198  22E2               	addwfc	fsr1h,f,c
  6434   00019A  CFE2 FFE7          	movff	fsr1h,indf1	;volatile
  6435   00019E  EE25  F04B         	lfsr	2,_r_queue+469
  6436   0001A2  EE10 F00D          	lfsr	1,13
  6437   0001A6  50DE               	movf	postinc2,w,c
  6438   0001A8  26E1               	addwf	fsr1l,f,c
  6439   0001AA  50DD               	movf	postdec2,w,c
  6440   0001AC  22E2               	addwfc	fsr1h,f,c
  6441   0001AE  CFE1 FFE7          	movff	fsr1l,indf1	;volatile
  6442   0001B2  EE25  F04B         	lfsr	2,_r_queue+469
  6443   0001B6  EE10 F010          	lfsr	1,16
  6444   0001BA  50DE               	movf	postinc2,w,c
  6445   0001BC  26E1               	addwf	fsr1l,f,c
  6446   0001BE  50DD               	movf	postdec2,w,c
  6447   0001C0  22E2               	addwfc	fsr1h,f,c
  6448   0001C2  CFDA FFE7          	movff	fsr2h,indf1	;volatile
  6449   0001C6  EE25  F04B         	lfsr	2,_r_queue+469
  6450   0001CA  EE10 F00F          	lfsr	1,15
  6451   0001CE  50DE               	movf	postinc2,w,c
  6452   0001D0  26E1               	addwf	fsr1l,f,c
  6453   0001D2  50DD               	movf	postdec2,w,c
  6454   0001D4  22E2               	addwfc	fsr1h,f,c
  6455   0001D6  CFD9 FFE7          	movff	fsr2l,indf1	;volatile
  6456   0001DA  EE25  F04B         	lfsr	2,_r_queue+469
  6457   0001DE  EE10 F015          	lfsr	1,21
  6458   0001E2  50DE               	movf	postinc2,w,c
  6459   0001E4  26E1               	addwf	fsr1l,f,c
  6460   0001E6  50DD               	movf	postdec2,w,c
  6461   0001E8  22E2               	addwfc	fsr1h,f,c
  6462   0001EA  CFFA FFE7          	movff	pclath,indf1	;volatile
  6463   0001EE  EE25  F04B         	lfsr	2,_r_queue+469
  6464   0001F2  EE10 F016          	lfsr	1,22
  6465   0001F6  50DE               	movf	postinc2,w,c
  6466   0001F8  26E1               	addwf	fsr1l,f,c
  6467   0001FA  50DD               	movf	postdec2,w,c
  6468   0001FC  22E2               	addwfc	fsr1h,f,c
  6469   0001FE  CFFB FFE7          	movff	pclatu,indf1	;volatile
  6470   000202  EE25  F04B         	lfsr	2,_r_queue+469
  6471   000206  EE10 F00A          	lfsr	1,10
  6472   00020A  50DE               	movf	postinc2,w,c
  6473   00020C  26E1               	addwf	fsr1l,f,c
  6474   00020E  50DD               	movf	postdec2,w,c
  6475   000210  22E2               	addwfc	fsr1h,f,c
  6476   000212  CFF4 FFE7          	movff	prodh,indf1	;volatile
  6477   000216  EE25  F04B         	lfsr	2,_r_queue+469
  6478   00021A  EE10 F009          	lfsr	1,9
  6479   00021E  50DE               	movf	postinc2,w,c
  6480   000220  26E1               	addwf	fsr1l,f,c
  6481   000222  50DD               	movf	postdec2,w,c
  6482   000224  22E2               	addwfc	fsr1h,f,c
  6483   000226  CFF3 FFE7          	movff	prodl,indf1	;volatile
  6484   00022A  EE25  F04B         	lfsr	2,_r_queue+469
  6485   00022E  EE10 F011          	lfsr	1,17
  6486   000232  50DE               	movf	postinc2,w,c
  6487   000234  26E1               	addwf	fsr1l,f,c
  6488   000236  50DD               	movf	postdec2,w,c
  6489   000238  22E2               	addwfc	fsr1h,f,c
  6490   00023A  CFF5 FFE7          	movff	tablat,indf1	;volatile
  6491   00023E  EE25  F04B         	lfsr	2,_r_queue+469
  6492   000242  EE10 F013          	lfsr	1,19
  6493   000246  50DE               	movf	postinc2,w,c
  6494   000248  26E1               	addwf	fsr1l,f,c
  6495   00024A  50DD               	movf	postdec2,w,c
  6496   00024C  22E2               	addwfc	fsr1h,f,c
  6497   00024E  CFF7 FFE7          	movff	tblptrh,indf1	;volatile
  6498   000252  EE25  F04B         	lfsr	2,_r_queue+469
  6499   000256  EE10 F012          	lfsr	1,18
  6500   00025A  50DE               	movf	postinc2,w,c
  6501   00025C  26E1               	addwf	fsr1l,f,c
  6502   00025E  50DD               	movf	postdec2,w,c
  6503   000260  22E2               	addwfc	fsr1h,f,c
  6504   000262  CFF6 FFE7          	movff	tblptrl,indf1	;volatile
  6505   000266  EE25  F04B         	lfsr	2,_r_queue+469
  6506   00026A  EE10 F014          	lfsr	1,20
  6507   00026E  50DE               	movf	postinc2,w,c
  6508   000270  26E1               	addwf	fsr1l,f,c
  6509   000272  50DD               	movf	postdec2,w,c
  6510   000274  22E2               	addwfc	fsr1h,f,c
  6511   000276  CFF8 FFE7          	movff	tblptru,indf1	;volatile
  6512   00027A  EE25  F04B         	lfsr	2,_r_queue+469
  6513   00027E  EE10 F006          	lfsr	1,6
  6514   000282  50DE               	movf	postinc2,w,c
  6515   000284  26E1               	addwf	fsr1l,f,c
  6516   000286  50DD               	movf	postdec2,w,c
  6517   000288  22E2               	addwfc	fsr1h,f,c
  6518   00028A  CFE8 FFE7          	movff	wreg,indf1	;volatile
  6519   00028E  EE25  F04B         	lfsr	2,_r_queue+469
  6520   000292  EE10 F007          	lfsr	1,7
  6521   000296  50DE               	movf	postinc2,w,c
  6522   000298  26E1               	addwf	fsr1l,f,c
  6523   00029A  50DD               	movf	postdec2,w,c
  6524   00029C  22E2               	addwfc	fsr1h,f,c
  6525   00029E  CFD8 FFE7          	movff	status,indf1	;volatile
  6526   0002A2  EE25  F04B         	lfsr	2,_r_queue+469
  6527   0002A6  EE10 F074          	lfsr	1,116
  6528   0002AA  50DE               	movf	postinc2,w,c
  6529   0002AC  26E1               	addwf	fsr1l,f,c
  6530   0002AE  50DD               	movf	postdec2,w,c
  6531   0002B0  22E2               	addwfc	fsr1h,f,c
  6532   0002B2  6AE7               	clrf	indf1,c
  6533   0002B4  EFD2  F001         	goto	i2l2934
  6534   0002B8                     i2l2930:
  6535   0002B8  EE25  F04B         	lfsr	2,_r_queue+469
  6536   0002BC  EE10 F074          	lfsr	1,116
  6537   0002C0  50DE               	movf	postinc2,w,c
  6538   0002C2  26E1               	addwf	fsr1l,f,c
  6539   0002C4  50DD               	movf	postdec2,w,c
  6540   0002C6  22E2               	addwfc	fsr1h,f,c
  6541   0002C8  50E7               	movf	indf1,w,c
  6542   0002CA  6E35               	movwf	??_ISR^0,c
  6543   0002CC  5035               	movf	??_ISR^0,w,c
  6544   0002CE  0D03               	mullw	3
  6545   0002D0  CFF3 F036          	movff	prodl,??_ISR+1
  6546   0002D4  CFF4 F037          	movff	prodh,??_ISR+2
  6547   0002D8  EE25  F04B         	lfsr	2,_r_queue+469
  6548   0002DC  CFDE F038          	movff	postinc2,??_ISR+3
  6549   0002E0  CFDD F039          	movff	postdec2,??_ISR+4
  6550   0002E4  5036               	movf	(??_ISR+1)^0,w,c
  6551   0002E6  2438               	addwf	(??_ISR+3)^0,w,c
  6552   0002E8  6E3A               	movwf	(??_ISR+5)^0,c
  6553   0002EA  5037               	movf	(??_ISR+2)^0,w,c
  6554   0002EC  2039               	addwfc	(??_ISR+4)^0,w,c
  6555   0002EE  6E3B               	movwf	(??_ISR+6)^0,c
  6556   0002F0  0E17               	movlw	23
  6557   0002F2  243A               	addwf	(??_ISR+5)^0,w,c
  6558   0002F4  6ED9               	movwf	fsr2l,c
  6559   0002F6  0E00               	movlw	0
  6560   0002F8  203B               	addwfc	(??_ISR+6)^0,w,c
  6561   0002FA  6EDA               	movwf	fsr2h,c
  6562   0002FC  CFFD FFDF          	movff	tosl,indf2	;volatile
  6563   000300  EE25  F04B         	lfsr	2,_r_queue+469
  6564   000304  EE10 F074          	lfsr	1,116
  6565   000308  50DE               	movf	postinc2,w,c
  6566   00030A  26E1               	addwf	fsr1l,f,c
  6567   00030C  50DD               	movf	postdec2,w,c
  6568   00030E  22E2               	addwfc	fsr1h,f,c
  6569   000310  50E7               	movf	indf1,w,c
  6570   000312  6E35               	movwf	??_ISR^0,c
  6571   000314  5035               	movf	??_ISR^0,w,c
  6572   000316  0D03               	mullw	3
  6573   000318  CFF3 F036          	movff	prodl,??_ISR+1
  6574   00031C  CFF4 F037          	movff	prodh,??_ISR+2
  6575   000320  EE25  F04B         	lfsr	2,_r_queue+469
  6576   000324  CFDE F038          	movff	postinc2,??_ISR+3
  6577   000328  CFDD F039          	movff	postdec2,??_ISR+4
  6578   00032C  5036               	movf	(??_ISR+1)^0,w,c
  6579   00032E  2438               	addwf	(??_ISR+3)^0,w,c
  6580   000330  6E3A               	movwf	(??_ISR+5)^0,c
  6581   000332  5037               	movf	(??_ISR+2)^0,w,c
  6582   000334  2039               	addwfc	(??_ISR+4)^0,w,c
  6583   000336  6E3B               	movwf	(??_ISR+6)^0,c
  6584   000338  0E18               	movlw	24
  6585   00033A  243A               	addwf	(??_ISR+5)^0,w,c
  6586   00033C  6ED9               	movwf	fsr2l,c
  6587   00033E  0E00               	movlw	0
  6588   000340  203B               	addwfc	(??_ISR+6)^0,w,c
  6589   000342  6EDA               	movwf	fsr2h,c
  6590   000344  CFFE FFDF          	movff	tosh,indf2	;volatile
  6591   000348  EE25  F04B         	lfsr	2,_r_queue+469
  6592   00034C  EE10 F074          	lfsr	1,116
  6593   000350  50DE               	movf	postinc2,w,c
  6594   000352  26E1               	addwf	fsr1l,f,c
  6595   000354  50DD               	movf	postdec2,w,c
  6596   000356  22E2               	addwfc	fsr1h,f,c
  6597   000358  50E7               	movf	indf1,w,c
  6598   00035A  6E35               	movwf	??_ISR^0,c
  6599   00035C  5035               	movf	??_ISR^0,w,c
  6600   00035E  0D03               	mullw	3
  6601   000360  CFF3 F036          	movff	prodl,??_ISR+1
  6602   000364  CFF4 F037          	movff	prodh,??_ISR+2
  6603   000368  EE25  F04B         	lfsr	2,_r_queue+469
  6604   00036C  CFDE F038          	movff	postinc2,??_ISR+3
  6605   000370  CFDD F039          	movff	postdec2,??_ISR+4
  6606   000374  5036               	movf	(??_ISR+1)^0,w,c
  6607   000376  2438               	addwf	(??_ISR+3)^0,w,c
  6608   000378  6E3A               	movwf	(??_ISR+5)^0,c
  6609   00037A  5037               	movf	(??_ISR+2)^0,w,c
  6610   00037C  2039               	addwfc	(??_ISR+4)^0,w,c
  6611   00037E  6E3B               	movwf	(??_ISR+6)^0,c
  6612   000380  0E19               	movlw	25
  6613   000382  243A               	addwf	(??_ISR+5)^0,w,c
  6614   000384  6ED9               	movwf	fsr2l,c
  6615   000386  0E00               	movlw	0
  6616   000388  203B               	addwfc	(??_ISR+6)^0,w,c
  6617   00038A  6EDA               	movwf	fsr2h,c
  6618   00038C  CFFF FFDF          	movff	tosu,indf2	;volatile
  6619   000390  EE25  F04B         	lfsr	2,_r_queue+469
  6620   000394  EE10 F074          	lfsr	1,116
  6621   000398  50DE               	movf	postinc2,w,c
  6622   00039A  26E1               	addwf	fsr1l,f,c
  6623   00039C  50DD               	movf	postdec2,w,c
  6624   00039E  22E2               	addwfc	fsr1h,f,c
  6625   0003A0  2AE7               	incf	indf1,f,c
  6626   0003A2  0006               	pop		;# 
  6627   0003A4                     i2l2934:
  6628   0003A4  50FC               	movf	252,w,c	;volatile
  6629   0003A6  A4D8               	btfss	status,2,c
  6630   0003A8  EFD8  F001         	goto	i2u223_41
  6631   0003AC  EFDA  F001         	goto	i2u223_40
  6632   0003B0                     i2u223_41:
  6633   0003B0  EF5C  F001         	goto	i2l2930
  6634   0003B4                     i2u223_40:
  6635   0003B4                     i2l2936:
  6636                           
  6637                           ;hw.c: 44:             scheduler();
  6638   0003B4  ECB9  F014         	call	i2_scheduler	;wreg free
  6639   0003B8  EE25  F04B         	lfsr	2,_r_queue+469
  6640   0003BC  EE10 F001          	lfsr	1,1
  6641   0003C0  50DE               	movf	postinc2,w,c
  6642   0003C2  26E1               	addwf	fsr1l,f,c
  6643   0003C4  50DD               	movf	postdec2,w,c
  6644   0003C6  22E2               	addwfc	fsr1h,f,c
  6645   0003C8  50E7               	movf	indf1,w,c
  6646   0003CA  A4D8               	btfss	status,2,c
  6647   0003CC  EFEA  F001         	goto	i2u224_41
  6648   0003D0  EFEC  F001         	goto	i2u224_40
  6649   0003D4                     i2u224_41:
  6650   0003D4  EF7F  F003         	goto	i2l568
  6651   0003D8                     i2u224_40:
  6652   0003D8  EE25  F04B         	lfsr	2,_r_queue+469
  6653   0003DC  EE10 F001          	lfsr	1,1
  6654   0003E0  50DE               	movf	postinc2,w,c
  6655   0003E2  26E1               	addwf	fsr1l,f,c
  6656   0003E4  50DD               	movf	postdec2,w,c
  6657   0003E6  22E2               	addwfc	fsr1h,f,c
  6658   0003E8  0E02               	movlw	2
  6659   0003EA  6EE7               	movwf	indf1,c
  6660   0003EC  EE25  F04B         	lfsr	2,_r_queue+469
  6661   0003F0  EE10 F008          	lfsr	1,8
  6662   0003F4  50DE               	movf	postinc2,w,c
  6663   0003F6  26E1               	addwf	fsr1l,f,c
  6664   0003F8  50DD               	movf	postdec2,w,c
  6665   0003FA  22E2               	addwfc	fsr1h,f,c
  6666   0003FC  50E7               	movf	indf1,w,c
  6667   0003FE  6EE0               	movwf	224,c	;volatile
  6668   000400  EE25  F04B         	lfsr	2,_r_queue+469
  6669   000404  EE10 F00C          	lfsr	1,12
  6670   000408  50DE               	movf	postinc2,w,c
  6671   00040A  26E1               	addwf	fsr1l,f,c
  6672   00040C  50DD               	movf	postdec2,w,c
  6673   00040E  22E2               	addwfc	fsr1h,f,c
  6674   000410  50E7               	movf	indf1,w,c
  6675   000412  6EEA               	movwf	234,c	;volatile
  6676   000414  EE25  F04B         	lfsr	2,_r_queue+469
  6677   000418  EE10 F00B          	lfsr	1,11
  6678   00041C  50DE               	movf	postinc2,w,c
  6679   00041E  26E1               	addwf	fsr1l,f,c
  6680   000420  50DD               	movf	postdec2,w,c
  6681   000422  22E2               	addwfc	fsr1h,f,c
  6682   000424  50E7               	movf	indf1,w,c
  6683   000426  6EE9               	movwf	233,c	;volatile
  6684   000428  EE25  F04B         	lfsr	2,_r_queue+469
  6685   00042C  EE10 F00E          	lfsr	1,14
  6686   000430  50DE               	movf	postinc2,w,c
  6687   000432  26E1               	addwf	fsr1l,f,c
  6688   000434  50DD               	movf	postdec2,w,c
  6689   000436  22E2               	addwfc	fsr1h,f,c
  6690   000438  50E7               	movf	indf1,w,c
  6691   00043A  6EE2               	movwf	226,c	;volatile
  6692   00043C  EE25  F04B         	lfsr	2,_r_queue+469
  6693   000440  EE10 F00D          	lfsr	1,13
  6694   000444  50DE               	movf	postinc2,w,c
  6695   000446  26E1               	addwf	fsr1l,f,c
  6696   000448  50DD               	movf	postdec2,w,c
  6697   00044A  22E2               	addwfc	fsr1h,f,c
  6698   00044C  50E7               	movf	indf1,w,c
  6699   00044E  6EE1               	movwf	225,c	;volatile
  6700   000450  EE25  F04B         	lfsr	2,_r_queue+469
  6701   000454  EE10 F010          	lfsr	1,16
  6702   000458  50DE               	movf	postinc2,w,c
  6703   00045A  26E1               	addwf	fsr1l,f,c
  6704   00045C  50DD               	movf	postdec2,w,c
  6705   00045E  22E2               	addwfc	fsr1h,f,c
  6706   000460  50E7               	movf	indf1,w,c
  6707   000462  6EDA               	movwf	218,c	;volatile
  6708   000464  EE25  F04B         	lfsr	2,_r_queue+469
  6709   000468  EE10 F00F          	lfsr	1,15
  6710   00046C  50DE               	movf	postinc2,w,c
  6711   00046E  26E1               	addwf	fsr1l,f,c
  6712   000470  50DD               	movf	postdec2,w,c
  6713   000472  22E2               	addwfc	fsr1h,f,c
  6714   000474  50E7               	movf	indf1,w,c
  6715   000476  6ED9               	movwf	217,c	;volatile
  6716   000478  EE25  F04B         	lfsr	2,_r_queue+469
  6717   00047C  EE10 F015          	lfsr	1,21
  6718   000480  50DE               	movf	postinc2,w,c
  6719   000482  26E1               	addwf	fsr1l,f,c
  6720   000484  50DD               	movf	postdec2,w,c
  6721   000486  22E2               	addwfc	fsr1h,f,c
  6722   000488  50E7               	movf	indf1,w,c
  6723   00048A  6EFA               	movwf	250,c	;volatile
  6724   00048C  EE25  F04B         	lfsr	2,_r_queue+469
  6725   000490  EE10 F016          	lfsr	1,22
  6726   000494  50DE               	movf	postinc2,w,c
  6727   000496  26E1               	addwf	fsr1l,f,c
  6728   000498  50DD               	movf	postdec2,w,c
  6729   00049A  22E2               	addwfc	fsr1h,f,c
  6730   00049C  50E7               	movf	indf1,w,c
  6731   00049E  6EFB               	movwf	251,c	;volatile
  6732   0004A0  EE25  F04B         	lfsr	2,_r_queue+469
  6733   0004A4  EE10 F00A          	lfsr	1,10
  6734   0004A8  50DE               	movf	postinc2,w,c
  6735   0004AA  26E1               	addwf	fsr1l,f,c
  6736   0004AC  50DD               	movf	postdec2,w,c
  6737   0004AE  22E2               	addwfc	fsr1h,f,c
  6738   0004B0  50E7               	movf	indf1,w,c
  6739   0004B2  6EF4               	movwf	244,c	;volatile
  6740   0004B4  EE25  F04B         	lfsr	2,_r_queue+469
  6741   0004B8  EE10 F009          	lfsr	1,9
  6742   0004BC  50DE               	movf	postinc2,w,c
  6743   0004BE  26E1               	addwf	fsr1l,f,c
  6744   0004C0  50DD               	movf	postdec2,w,c
  6745   0004C2  22E2               	addwfc	fsr1h,f,c
  6746   0004C4  50E7               	movf	indf1,w,c
  6747   0004C6  6EF3               	movwf	243,c	;volatile
  6748   0004C8  EE25  F04B         	lfsr	2,_r_queue+469
  6749   0004CC  EE10 F011          	lfsr	1,17
  6750   0004D0  50DE               	movf	postinc2,w,c
  6751   0004D2  26E1               	addwf	fsr1l,f,c
  6752   0004D4  50DD               	movf	postdec2,w,c
  6753   0004D6  22E2               	addwfc	fsr1h,f,c
  6754   0004D8  50E7               	movf	indf1,w,c
  6755   0004DA  6EF5               	movwf	245,c	;volatile
  6756   0004DC  EE25  F04B         	lfsr	2,_r_queue+469
  6757   0004E0  EE10 F013          	lfsr	1,19
  6758   0004E4  50DE               	movf	postinc2,w,c
  6759   0004E6  26E1               	addwf	fsr1l,f,c
  6760   0004E8  50DD               	movf	postdec2,w,c
  6761   0004EA  22E2               	addwfc	fsr1h,f,c
  6762   0004EC  50E7               	movf	indf1,w,c
  6763   0004EE  6EF7               	movwf	247,c	;volatile
  6764   0004F0  EE25  F04B         	lfsr	2,_r_queue+469
  6765   0004F4  EE10 F012          	lfsr	1,18
  6766   0004F8  50DE               	movf	postinc2,w,c
  6767   0004FA  26E1               	addwf	fsr1l,f,c
  6768   0004FC  50DD               	movf	postdec2,w,c
  6769   0004FE  22E2               	addwfc	fsr1h,f,c
  6770   000500  50E7               	movf	indf1,w,c
  6771   000502  6EF6               	movwf	246,c	;volatile
  6772   000504  EE25  F04B         	lfsr	2,_r_queue+469
  6773   000508  EE10 F014          	lfsr	1,20
  6774   00050C  50DE               	movf	postinc2,w,c
  6775   00050E  26E1               	addwf	fsr1l,f,c
  6776   000510  50DD               	movf	postdec2,w,c
  6777   000512  22E2               	addwfc	fsr1h,f,c
  6778   000514  50E7               	movf	indf1,w,c
  6779   000516  6EF8               	movwf	248,c	;volatile
  6780   000518  EE25  F04B         	lfsr	2,_r_queue+469
  6781   00051C  EE10 F007          	lfsr	1,7
  6782   000520  50DE               	movf	postinc2,w,c
  6783   000522  26E1               	addwf	fsr1l,f,c
  6784   000524  50DD               	movf	postdec2,w,c
  6785   000526  22E2               	addwfc	fsr1h,f,c
  6786   000528  50E7               	movf	indf1,w,c
  6787   00052A  6ED8               	movwf	216,c	;volatile
  6788   00052C  EE25  F04B         	lfsr	2,_r_queue+469
  6789   000530  EE10 F006          	lfsr	1,6
  6790   000534  50DE               	movf	postinc2,w,c
  6791   000536  26E1               	addwf	fsr1l,f,c
  6792   000538  50DD               	movf	postdec2,w,c
  6793   00053A  22E2               	addwfc	fsr1h,f,c
  6794   00053C  50E7               	movf	indf1,w,c
  6795   00053E  6E35               	movwf	??_ISR^0,c
  6796   000540  5035               	movf	??_ISR^0,w,c
  6797   000542  6AFC               	clrf	252,c	;volatile
  6798   000544  EE25  F04B         	lfsr	2,_r_queue+469
  6799   000548  EE10 F074          	lfsr	1,116
  6800   00054C  50DE               	movf	postinc2,w,c
  6801   00054E  26E1               	addwf	fsr1l,f,c
  6802   000550  50DD               	movf	postdec2,w,c
  6803   000552  22E2               	addwfc	fsr1h,f,c
  6804   000554  50E7               	movf	indf1,w,c
  6805   000556  B4D8               	btfsc	status,2,c
  6806   000558  EFB0  F002         	goto	i2u225_41
  6807   00055C  EFB2  F002         	goto	i2u225_40
  6808   000560                     i2u225_41:
  6809   000560  EF3A  F003         	goto	i2l563
  6810   000564                     i2u225_40:
  6811   000564                     i2l564:
  6812   000564  0005               	push		;# 
  6813   000566  EE25  F04B         	lfsr	2,_r_queue+469
  6814   00056A  EE10 F074          	lfsr	1,116
  6815   00056E  50DE               	movf	postinc2,w,c
  6816   000570  26E1               	addwf	fsr1l,f,c
  6817   000572  50DD               	movf	postdec2,w,c
  6818   000574  22E2               	addwfc	fsr1h,f,c
  6819   000576  06E7               	decf	indf1,f,c
  6820   000578  EE25  F04B         	lfsr	2,_r_queue+469
  6821   00057C  EE10 F074          	lfsr	1,116
  6822   000580  50DE               	movf	postinc2,w,c
  6823   000582  26E1               	addwf	fsr1l,f,c
  6824   000584  50DD               	movf	postdec2,w,c
  6825   000586  22E2               	addwfc	fsr1h,f,c
  6826   000588  50E7               	movf	indf1,w,c
  6827   00058A  6E35               	movwf	??_ISR^0,c
  6828   00058C  5035               	movf	??_ISR^0,w,c
  6829   00058E  0D03               	mullw	3
  6830   000590  CFF3 F036          	movff	prodl,??_ISR+1
  6831   000594  CFF4 F037          	movff	prodh,??_ISR+2
  6832   000598  EE25  F04B         	lfsr	2,_r_queue+469
  6833   00059C  CFDE F038          	movff	postinc2,??_ISR+3
  6834   0005A0  CFDD F039          	movff	postdec2,??_ISR+4
  6835   0005A4  5036               	movf	(??_ISR+1)^0,w,c
  6836   0005A6  2438               	addwf	(??_ISR+3)^0,w,c
  6837   0005A8  6E3A               	movwf	(??_ISR+5)^0,c
  6838   0005AA  5037               	movf	(??_ISR+2)^0,w,c
  6839   0005AC  2039               	addwfc	(??_ISR+4)^0,w,c
  6840   0005AE  6E3B               	movwf	(??_ISR+6)^0,c
  6841   0005B0  0E17               	movlw	23
  6842   0005B2  243A               	addwf	(??_ISR+5)^0,w,c
  6843   0005B4  6ED9               	movwf	fsr2l,c
  6844   0005B6  0E00               	movlw	0
  6845   0005B8  203B               	addwfc	(??_ISR+6)^0,w,c
  6846   0005BA  6EDA               	movwf	fsr2h,c
  6847   0005BC  50DF               	movf	indf2,w,c
  6848   0005BE  6EFD               	movwf	253,c	;volatile
  6849   0005C0  EE25  F04B         	lfsr	2,_r_queue+469
  6850   0005C4  EE10 F074          	lfsr	1,116
  6851   0005C8  50DE               	movf	postinc2,w,c
  6852   0005CA  26E1               	addwf	fsr1l,f,c
  6853   0005CC  50DD               	movf	postdec2,w,c
  6854   0005CE  22E2               	addwfc	fsr1h,f,c
  6855   0005D0  50E7               	movf	indf1,w,c
  6856   0005D2  6E35               	movwf	??_ISR^0,c
  6857   0005D4  5035               	movf	??_ISR^0,w,c
  6858   0005D6  0D03               	mullw	3
  6859   0005D8  CFF3 F036          	movff	prodl,??_ISR+1
  6860   0005DC  CFF4 F037          	movff	prodh,??_ISR+2
  6861   0005E0  EE25  F04B         	lfsr	2,_r_queue+469
  6862   0005E4  CFDE F038          	movff	postinc2,??_ISR+3
  6863   0005E8  CFDD F039          	movff	postdec2,??_ISR+4
  6864   0005EC  5036               	movf	(??_ISR+1)^0,w,c
  6865   0005EE  2438               	addwf	(??_ISR+3)^0,w,c
  6866   0005F0  6E3A               	movwf	(??_ISR+5)^0,c
  6867   0005F2  5037               	movf	(??_ISR+2)^0,w,c
  6868   0005F4  2039               	addwfc	(??_ISR+4)^0,w,c
  6869   0005F6  6E3B               	movwf	(??_ISR+6)^0,c
  6870   0005F8  0E18               	movlw	24
  6871   0005FA  243A               	addwf	(??_ISR+5)^0,w,c
  6872   0005FC  6ED9               	movwf	fsr2l,c
  6873   0005FE  0E00               	movlw	0
  6874   000600  203B               	addwfc	(??_ISR+6)^0,w,c
  6875   000602  6EDA               	movwf	fsr2h,c
  6876   000604  50DF               	movf	indf2,w,c
  6877   000606  6EFE               	movwf	254,c	;volatile
  6878   000608  EE25  F04B         	lfsr	2,_r_queue+469
  6879   00060C  EE10 F074          	lfsr	1,116
  6880   000610  50DE               	movf	postinc2,w,c
  6881   000612  26E1               	addwf	fsr1l,f,c
  6882   000614  50DD               	movf	postdec2,w,c
  6883   000616  22E2               	addwfc	fsr1h,f,c
  6884   000618  50E7               	movf	indf1,w,c
  6885   00061A  6E35               	movwf	??_ISR^0,c
  6886   00061C  5035               	movf	??_ISR^0,w,c
  6887   00061E  0D03               	mullw	3
  6888   000620  CFF3 F036          	movff	prodl,??_ISR+1
  6889   000624  CFF4 F037          	movff	prodh,??_ISR+2
  6890   000628  EE25  F04B         	lfsr	2,_r_queue+469
  6891   00062C  CFDE F038          	movff	postinc2,??_ISR+3
  6892   000630  CFDD F039          	movff	postdec2,??_ISR+4
  6893   000634  5036               	movf	(??_ISR+1)^0,w,c
  6894   000636  2438               	addwf	(??_ISR+3)^0,w,c
  6895   000638  6E3A               	movwf	(??_ISR+5)^0,c
  6896   00063A  5037               	movf	(??_ISR+2)^0,w,c
  6897   00063C  2039               	addwfc	(??_ISR+4)^0,w,c
  6898   00063E  6E3B               	movwf	(??_ISR+6)^0,c
  6899   000640  0E19               	movlw	25
  6900   000642  243A               	addwf	(??_ISR+5)^0,w,c
  6901   000644  6ED9               	movwf	fsr2l,c
  6902   000646  0E00               	movlw	0
  6903   000648  203B               	addwfc	(??_ISR+6)^0,w,c
  6904   00064A  6EDA               	movwf	fsr2h,c
  6905   00064C  50DF               	movf	indf2,w,c
  6906   00064E  6EFF               	movwf	255,c	;volatile
  6907   000650  EE25  F04B         	lfsr	2,_r_queue+469
  6908   000654  EE10 F074          	lfsr	1,116
  6909   000658  50DE               	movf	postinc2,w,c
  6910   00065A  26E1               	addwf	fsr1l,f,c
  6911   00065C  50DD               	movf	postdec2,w,c
  6912   00065E  22E2               	addwfc	fsr1h,f,c
  6913   000660  50E7               	movf	indf1,w,c
  6914   000662  A4D8               	btfss	status,2,c
  6915   000664  EF36  F003         	goto	i2u226_41
  6916   000668  EF38  F003         	goto	i2u226_40
  6917   00066C                     i2u226_41:
  6918   00066C  EFB2  F002         	goto	i2l564
  6919   000670                     i2u226_40:
  6920   000670  EF7D  F003         	goto	i2l2956
  6921   000674                     i2l563:
  6922   000674  0005               	push		;# 
  6923   000676  EE25  F04B         	lfsr	2,_r_queue+469
  6924   00067A  EE10 F002          	lfsr	1,2
  6925   00067E  50DE               	movf	postinc2,w,c
  6926   000680  26E1               	addwf	fsr1l,f,c
  6927   000682  50DD               	movf	postdec2,w,c
  6928   000684  22E2               	addwfc	fsr1h,f,c
  6929   000686  50E7               	movf	indf1,w,c
  6930   000688  6EFD               	movwf	253,c	;volatile
  6931   00068A  EE25  F04B         	lfsr	2,_r_queue+469
  6932   00068E  EE10 F002          	lfsr	1,2
  6933   000692  50DE               	movf	postinc2,w,c
  6934   000694  26E1               	addwf	fsr1l,f,c
  6935   000696  50DD               	movf	postdec2,w,c
  6936   000698  22E2               	addwfc	fsr1h,f,c
  6937   00069A  CFE6 F035          	movff	postinc1,??_ISR
  6938   00069E  CFE5 F036          	movff	postdec1,??_ISR+1
  6939   0006A2  C035  F037         	movff	??_ISR,??_ISR+2
  6940   0006A6  C036  F038         	movff	??_ISR+1,??_ISR+3
  6941   0006AA  6A39               	clrf	(??_ISR+4)^0,c
  6942   0006AC  C038  F037         	movff	??_ISR+3,??_ISR+2
  6943   0006B0  C039  F038         	movff	??_ISR+4,??_ISR+3
  6944   0006B4  6A39               	clrf	(??_ISR+4)^0,c
  6945   0006B6  5037               	movf	(??_ISR+2)^0,w,c
  6946   0006B8  6EFE               	movwf	254,c	;volatile
  6947   0006BA  0E10               	movlw	16
  6948   0006BC  6E35               	movwf	??_ISR^0,c
  6949   0006BE  EE25  F04B         	lfsr	2,_r_queue+469
  6950   0006C2  EE10 F002          	lfsr	1,2
  6951   0006C6  50DE               	movf	postinc2,w,c
  6952   0006C8  26E1               	addwf	fsr1l,f,c
  6953   0006CA  50DD               	movf	postdec2,w,c
  6954   0006CC  22E2               	addwfc	fsr1h,f,c
  6955   0006CE  CFE6 F036          	movff	postinc1,??_ISR+1
  6956   0006D2  CFE5 F037          	movff	postdec1,??_ISR+2
  6957   0006D6  C036  F038         	movff	??_ISR+1,??_ISR+3
  6958   0006DA  C037  F039         	movff	??_ISR+2,??_ISR+4
  6959   0006DE  6A3A               	clrf	(??_ISR+5)^0,c
  6960   0006E0  2835               	incf	??_ISR^0,w,c
  6961   0006E2  6E3B               	movwf	(??_ISR+6)^0,c
  6962   0006E4  EF78  F003         	goto	i2u227_40
  6963   0006E8                     i2u227_45:
  6964   0006E8  90D8               	bcf	status,0,c
  6965   0006EA  323A               	rrcf	(??_ISR+5)^0,f,c
  6966   0006EC  3239               	rrcf	(??_ISR+4)^0,f,c
  6967   0006EE  3238               	rrcf	(??_ISR+3)^0,f,c
  6968   0006F0                     i2u227_40:
  6969   0006F0  2E3B               	decfsz	(??_ISR+6)^0,f,c
  6970   0006F2  EF74  F003         	goto	i2u227_45
  6971   0006F6  5038               	movf	(??_ISR+3)^0,w,c
  6972   0006F8  6EFF               	movwf	255,c	;volatile
  6973   0006FA                     i2l2956:
  6974   0006FA  0E14               	movlw	20
  6975   0006FC  6E4A               	movwf	_rr_quantum^0,c
  6976   0006FE                     i2l568:
  6977   0006FE  C041  FFF4         	movff	??_ISR+12,prodh
  6978   000702  C040  FFF3         	movff	??_ISR+11,prodl
  6979   000706  C03F  FFDA         	movff	??_ISR+10,fsr2h
  6980   00070A  C03E  FFD9         	movff	??_ISR+9,fsr2l
  6981   00070E  C03D  FFE2         	movff	??_ISR+8,fsr1h
  6982   000712  C03C  FFE1         	movff	??_ISR+7,fsr1l
  6983   000716  9201               	bcf	int$flags,1,c	;clear compiler interrupt flag (level 2)
  6984   000718  0011               	retfie		f
  6985   00071A                     __end_of_ISR:
  6986                           	callstack 0
  6987                           
  6988 ;; *************** function i2_scheduler *****************
  6989 ;; Defined at:
  6990 ;;		line 9 in file "scheduler.c"
  6991 ;; Parameters:    Size  Location     Type
  6992 ;;		None
  6993 ;; Auto vars:     Size  Location     Type
  6994 ;;		None
  6995 ;; Return value:  Size  Location     Type
  6996 ;;                  1    wreg      void 
  6997 ;; Registers used:
  6998 ;;		wreg, fsr2l, fsr2h, status,2, status,0, prodl, prodh, cstack
  6999 ;; Tracked objects:
  7000 ;;		On entry : 0/0
  7001 ;;		On exit  : 0/0
  7002 ;;		Unchanged: 0/0
  7003 ;; Data sizes:     COMRAM   BANK0   BANK1   BANK2   BANK3   BANK4   BANK5   BANK6   BANK7   BANK8   BANK9  BANK10  BANK1
      +1  BANK12  BANK13  BANK14  BANK15
  7004 ;;      Params:         0       0       0       0       0       0       0       0       0       0       0       0       
      +0       0       0       0       0
  7005 ;;      Locals:         0       0       0       0       0       0       0       0       0       0       0       0       
      +0       0       0       0       0
  7006 ;;      Temps:          3       0       0       0       0       0       0       0       0       0       0       0       
      +0       0       0       0       0
  7007 ;;      Totals:         3       0       0       0       0       0       0       0       0       0       0       0       
      +0       0       0       0       0
  7008 ;;Total ram usage:        3 bytes
  7009 ;; Hardware stack levels used: 1
  7010 ;; Hardware stack levels required when called: 2
  7011 ;; This function calls:
  7012 ;;		i2_priority_rr_scheduler
  7013 ;; This function is called by:
  7014 ;;		_ISR
  7015 ;; This function uses a non-reentrant model
  7016 ;;
  7017                           
  7018                           	psect	text22
  7019   002972                     __ptext22:
  7020                           	callstack 0
  7021   002972                     i2_scheduler:
  7022                           	callstack 18
  7023   002972                     
  7024                           ;scheduler.c: 15:     r_queue.pos_task_running = priority_rr_scheduler();
  7025   002972  EC34  F011         	call	i2_priority_rr_scheduler	;wreg free
  7026   002976  6E32               	movwf	??i2_scheduler^0,c
  7027   002978  C032  F54D         	movff	??i2_scheduler,_r_queue+471
  7028   00297C                     
  7029                           ;scheduler.c: 17:     r_queue.task_running = &r_queue.TASKS[r_queue.pos_task_running];
  7030   00297C  C54D  F032         	movff	_r_queue+471,??i2_scheduler
  7031   002980  5032               	movf	??i2_scheduler^0,w,c
  7032   002982  0D75               	mullw	117
  7033   002984  0E76               	movlw	low _r_queue
  7034   002986  24F3               	addwf	243,w,c
  7035   002988  6E33               	movwf	(??i2_scheduler+1)^0,c
  7036   00298A  0E03               	movlw	high _r_queue
  7037   00298C  20F4               	addwfc	prodh,w,c
  7038   00298E  6E34               	movwf	(??i2_scheduler+2)^0,c
  7039   002990  C033  F54B         	movff	??i2_scheduler+1,_r_queue+469
  7040   002994  C034  F54C         	movff	??i2_scheduler+2,_r_queue+470
  7041   002998  0012               	return		;funcret
  7042   00299A                     __end_ofi2_scheduler:
  7043                           	callstack 0
  7044                           
  7045 ;; *************** function i2_priority_rr_scheduler *****************
  7046 ;; Defined at:
  7047 ;;		line 52 in file "scheduler.c"
  7048 ;; Parameters:    Size  Location     Type
  7049 ;;		None
  7050 ;; Auto vars:     Size  Location     Type
  7051 ;;  i               1   12[COMRAM] unsigned char 
  7052 ;;  idx             1   11[COMRAM] unsigned char 
  7053 ;;  i               1   10[COMRAM] unsigned char 
  7054 ;;  found           1    9[COMRAM] unsigned char 
  7055 ;;  max_prio        1    8[COMRAM] unsigned char 
  7056 ;;  current         1    7[COMRAM] unsigned char 
  7057 ;; Return value:  Size  Location     Type
  7058 ;;                  1    wreg      unsigned char 
  7059 ;; Registers used:
  7060 ;;		wreg, fsr2l, fsr2h, status,2, status,0, prodl, prodh, cstack
  7061 ;; Tracked objects:
  7062 ;;		On entry : 0/0
  7063 ;;		On exit  : 0/0
  7064 ;;		Unchanged: 0/0
  7065 ;; Data sizes:     COMRAM   BANK0   BANK1   BANK2   BANK3   BANK4   BANK5   BANK6   BANK7   BANK8   BANK9  BANK10  BANK1
      +1  BANK12  BANK13  BANK14  BANK15
  7066 ;;      Params:         0       0       0       0       0       0       0       0       0       0       0       0       
      +0       0       0       0       0
  7067 ;;      Locals:         6       0       0       0       0       0       0       0       0       0       0       0       
      +0       0       0       0       0
  7068 ;;      Temps:          1       0       0       0       0       0       0       0       0       0       0       0       
      +0       0       0       0       0
  7069 ;;      Totals:         7       0       0       0       0       0       0       0       0       0       0       0       
      +0       0       0       0       0
  7070 ;;Total ram usage:        7 bytes
  7071 ;; Hardware stack levels used: 1
  7072 ;; Hardware stack levels required when called: 1
  7073 ;; This function calls:
  7074 ;;		i2___awmod
  7075 ;; This function is called by:
  7076 ;;		i2_scheduler
  7077 ;; This function uses a non-reentrant model
  7078 ;;
  7079                           
  7080                           	psect	text23
  7081   002268                     __ptext23:
  7082                           	callstack 0
  7083   002268                     i2_priority_rr_scheduler:
  7084                           	callstack 18
  7085   002268                     
  7086                           ;scheduler.c: 53:     uint8_t max_prio = 0;
  7087   002268  6A2D               	clrf	i2priority_rr_scheduler@max_prio^0,c
  7088                           
  7089                           ;scheduler.c: 54:     uint8_t found = 0;
  7090   00226A  6A2E               	clrf	i2priority_rr_scheduler@found^0,c
  7091                           
  7092                           ;scheduler.c: 57:     for (uint8_t i = 0; i < r_queue.size; i++) {
  7093   00226C  6A31               	clrf	i2priority_rr_scheduler@i^0,c
  7094   00226E  EF6F  F011         	goto	i2l2508
  7095   002272                     i2l2496:
  7096                           
  7097                           ;scheduler.c: 58:         if (r_queue.TASKS[i].task_state == READY) {
  7098   002272  5031               	movf	i2priority_rr_scheduler@i^0,w,c
  7099   002274  0D75               	mullw	117
  7100   002276  0E77               	movlw	low (_r_queue+1)
  7101   002278  24F3               	addwf	243,w,c
  7102   00227A  6ED9               	movwf	fsr2l,c
  7103   00227C  0E03               	movlw	high (_r_queue+1)
  7104   00227E  20F4               	addwfc	prodh,w,c
  7105   002280  6EDA               	movwf	fsr2h,c
  7106   002282  50DF               	movf	indf2,w,c
  7107   002284  A4D8               	btfss	status,2,c
  7108   002286  EF47  F011         	goto	i2u157_41
  7109   00228A  EF49  F011         	goto	i2u157_40
  7110   00228E                     i2u157_41:
  7111   00228E  EF6E  F011         	goto	i2l2506
  7112   002292                     i2u157_40:
  7113   002292                     
  7114                           ;scheduler.c: 59:             if (!found || r_queue.TASKS[i].task_priority > max_prio) {
  7115   002292  502E               	movf	i2priority_rr_scheduler@found^0,w,c
  7116   002294  B4D8               	btfsc	status,2,c
  7117   002296  EF4F  F011         	goto	i2u158_41
  7118   00229A  EF51  F011         	goto	i2u158_40
  7119   00229E                     i2u158_41:
  7120   00229E  EF62  F011         	goto	i2l2502
  7121   0022A2                     i2u158_40:
  7122   0022A2  5031               	movf	i2priority_rr_scheduler@i^0,w,c
  7123   0022A4  0D75               	mullw	117
  7124   0022A6  0E7B               	movlw	low (_r_queue+5)
  7125   0022A8  24F3               	addwf	243,w,c
  7126   0022AA  6ED9               	movwf	fsr2l,c
  7127   0022AC  0E03               	movlw	high (_r_queue+5)
  7128   0022AE  20F4               	addwfc	prodh,w,c
  7129   0022B0  6EDA               	movwf	fsr2h,c
  7130   0022B2  50DE               	movf	postinc2,w,c
  7131   0022B4  5C2D               	subwf	i2priority_rr_scheduler@max_prio^0,w,c
  7132   0022B6  B0D8               	btfsc	status,0,c
  7133   0022B8  EF60  F011         	goto	i2u159_41
  7134   0022BC  EF62  F011         	goto	i2u159_40
  7135   0022C0                     i2u159_41:
  7136   0022C0  EF6E  F011         	goto	i2l2506
  7137   0022C4                     i2u159_40:
  7138   0022C4                     i2l2502:
  7139                           
  7140                           ;scheduler.c: 60:                 max_prio = r_queue.TASKS[i].task_priority;
  7141   0022C4  5031               	movf	i2priority_rr_scheduler@i^0,w,c
  7142   0022C6  0D75               	mullw	117
  7143   0022C8  0E7B               	movlw	low (_r_queue+5)
  7144   0022CA  24F3               	addwf	243,w,c
  7145   0022CC  6ED9               	movwf	fsr2l,c
  7146   0022CE  0E03               	movlw	high (_r_queue+5)
  7147   0022D0  20F4               	addwfc	prodh,w,c
  7148   0022D2  6EDA               	movwf	fsr2h,c
  7149   0022D4  50DF               	movf	indf2,w,c
  7150   0022D6  6E2D               	movwf	i2priority_rr_scheduler@max_prio^0,c
  7151   0022D8                     
  7152                           ;scheduler.c: 61:                 found = 1;
  7153   0022D8  0E01               	movlw	1
  7154   0022DA  6E2E               	movwf	i2priority_rr_scheduler@found^0,c
  7155   0022DC                     i2l2506:
  7156                           
  7157                           ;scheduler.c: 64:     }
  7158   0022DC  2A31               	incf	i2priority_rr_scheduler@i^0,f,c
  7159   0022DE                     i2l2508:
  7160   0022DE  EE25  F04A         	lfsr	2,_r_queue+468
  7161   0022E2  50DE               	movf	postinc2,w,c
  7162   0022E4  5C31               	subwf	i2priority_rr_scheduler@i^0,w,c
  7163   0022E6  A0D8               	btfss	status,0,c
  7164   0022E8  EF78  F011         	goto	i2u160_41
  7165   0022EC  EF7A  F011         	goto	i2u160_40
  7166   0022F0                     i2u160_41:
  7167   0022F0  EF39  F011         	goto	i2l2496
  7168   0022F4                     i2u160_40:
  7169   0022F4                     
  7170                           ;scheduler.c: 65:     if (!found)return 0;
  7171   0022F4  502E               	movf	i2priority_rr_scheduler@found^0,w,c
  7172   0022F6  A4D8               	btfss	status,2,c
  7173   0022F8  EF80  F011         	goto	i2u161_41
  7174   0022FC  EF82  F011         	goto	i2u161_40
  7175   002300                     i2u161_41:
  7176   002300  EF85  F011         	goto	i2l481
  7177   002304                     i2u161_40:
  7178   002304                     i2l2512:
  7179   002304  0E00               	movlw	0
  7180   002306  EFCA  F011         	goto	i2l482
  7181   00230A                     i2l481:
  7182                           
  7183                           ;scheduler.c: 66:     uint8_t current = r_queue.pos_task_running;
  7184   00230A  C54D  F02C         	movff	_r_queue+471,i2priority_rr_scheduler@current
  7185                           
  7186                           ;scheduler.c: 68:     for (uint8_t i = 0; i < r_queue.size; i++) {
  7187   00230E  6A2F               	clrf	i2priority_rr_scheduler@i_1476^0,c
  7188   002310  EFBD  F011         	goto	i2l2528
  7189   002314                     i2l2516:
  7190                           
  7191                           ;scheduler.c: 69:         uint8_t idx = (current + i) % r_queue.size;
  7192   002314  502C               	movf	i2priority_rr_scheduler@current^0,w,c
  7193   002316  242F               	addwf	i2priority_rr_scheduler@i_1476^0,w,c
  7194   002318  6E25               	movwf	i2___awmod@dividend^0,c
  7195   00231A  6A26               	clrf	(i2___awmod@dividend+1)^0,c
  7196   00231C  3626               	rlcf	(i2___awmod@dividend+1)^0,f,c
  7197   00231E  C54A  F02B         	movff	_r_queue+468,??i2_priority_rr_scheduler
  7198   002322  502B               	movf	??i2_priority_rr_scheduler^0,w,c
  7199   002324  6E27               	movwf	i2___awmod@divisor^0,c
  7200   002326  6A28               	clrf	(i2___awmod@divisor+1)^0,c
  7201   002328  ECFC  F012         	call	i2___awmod	;wreg free
  7202   00232C  5025               	movf	?i2___awmod^0,w,c
  7203   00232E  6E30               	movwf	i2priority_rr_scheduler@idx^0,c
  7204   002330                     
  7205                           ;scheduler.c: 70:         if (r_queue.TASKS[idx].task_state == READY &&
  7206   002330  5030               	movf	i2priority_rr_scheduler@idx^0,w,c
  7207   002332  0D75               	mullw	117
  7208   002334  0E77               	movlw	low (_r_queue+1)
  7209   002336  24F3               	addwf	243,w,c
  7210   002338  6ED9               	movwf	fsr2l,c
  7211   00233A  0E03               	movlw	high (_r_queue+1)
  7212   00233C  20F4               	addwfc	prodh,w,c
  7213   00233E  6EDA               	movwf	fsr2h,c
  7214   002340  50DF               	movf	indf2,w,c
  7215   002342  A4D8               	btfss	status,2,c
  7216   002344  EFA6  F011         	goto	i2u162_41
  7217   002348  EFA8  F011         	goto	i2u162_40
  7218   00234C                     i2u162_41:
  7219   00234C  EFBC  F011         	goto	i2l2526
  7220   002350                     i2u162_40:
  7221   002350  5030               	movf	i2priority_rr_scheduler@idx^0,w,c
  7222   002352  0D75               	mullw	117
  7223   002354  0E7B               	movlw	low (_r_queue+5)
  7224   002356  24F3               	addwf	243,w,c
  7225   002358  6ED9               	movwf	fsr2l,c
  7226   00235A  0E03               	movlw	high (_r_queue+5)
  7227   00235C  20F4               	addwfc	prodh,w,c
  7228   00235E  6EDA               	movwf	fsr2h,c
  7229   002360  502D               	movf	i2priority_rr_scheduler@max_prio^0,w,c
  7230   002362  18DE               	xorwf	postinc2,w,c
  7231   002364  A4D8               	btfss	status,2,c
  7232   002366  EFB7  F011         	goto	i2u163_41
  7233   00236A  EFB9  F011         	goto	i2u163_40
  7234   00236E                     i2u163_41:
  7235   00236E  EFBC  F011         	goto	i2l2526
  7236   002372                     i2u163_40:
  7237   002372                     
  7238                           ;scheduler.c: 71:             r_queue.TASKS[idx].task_priority == max_prio) {;scheduler.
      +                          c: 72:             return idx;
  7239   002372  5030               	movf	i2priority_rr_scheduler@idx^0,w,c
  7240   002374  EFCA  F011         	goto	i2l482
  7241   002378                     i2l2526:
  7242                           
  7243                           ;scheduler.c: 74:     }
  7244   002378  2A2F               	incf	i2priority_rr_scheduler@i_1476^0,f,c
  7245   00237A                     i2l2528:
  7246   00237A  EE25  F04A         	lfsr	2,_r_queue+468
  7247   00237E  50DE               	movf	postinc2,w,c
  7248   002380  5C2F               	subwf	i2priority_rr_scheduler@i_1476^0,w,c
  7249   002382  A0D8               	btfss	status,0,c
  7250   002384  EFC6  F011         	goto	i2u164_41
  7251   002388  EFC8  F011         	goto	i2u164_40
  7252   00238C                     i2u164_41:
  7253   00238C  EF8A  F011         	goto	i2l2516
  7254   002390                     i2u164_40:
  7255   002390  EF82  F011         	goto	i2l2512
  7256   002394                     i2l482:
  7257   002394  0012               	return		;funcret
  7258   002396                     __end_ofi2_priority_rr_scheduler:
  7259                           	callstack 0
  7260                           
  7261 ;; *************** function i2___awmod *****************
  7262 ;; Defined at:
  7263 ;;		line 7 in file "C:\Program Files\Microchip\xc8\v3.10\pic\sources\c99\common\awmod.c"
  7264 ;; Parameters:    Size  Location     Type
  7265 ;;  dividend        2    0[COMRAM] int 
  7266 ;;  divisor         2    2[COMRAM] int 
  7267 ;; Auto vars:     Size  Location     Type
  7268 ;;  sign            1    5[COMRAM] unsigned char 
  7269 ;;  counter         1    4[COMRAM] unsigned char 
  7270 ;; Return value:  Size  Location     Type
  7271 ;;                  2    0[COMRAM] int 
  7272 ;; Registers used:
  7273 ;;		wreg, status,2, status,0
  7274 ;; Tracked objects:
  7275 ;;		On entry : 0/0
  7276 ;;		On exit  : 0/0
  7277 ;;		Unchanged: 0/0
  7278 ;; Data sizes:     COMRAM   BANK0   BANK1   BANK2   BANK3   BANK4   BANK5   BANK6   BANK7   BANK8   BANK9  BANK10  BANK1
      +1  BANK12  BANK13  BANK14  BANK15
  7279 ;;      Params:         4       0       0       0       0       0       0       0       0       0       0       0       
      +0       0       0       0       0
  7280 ;;      Locals:         2       0       0       0       0       0       0       0       0       0       0       0       
      +0       0       0       0       0
  7281 ;;      Temps:          0       0       0       0       0       0       0       0       0       0       0       0       
      +0       0       0       0       0
  7282 ;;      Totals:         6       0       0       0       0       0       0       0       0       0       0       0       
      +0       0       0       0       0
  7283 ;;Total ram usage:        6 bytes
  7284 ;; Hardware stack levels used: 1
  7285 ;; This function calls:
  7286 ;;		Nothing
  7287 ;; This function is called by:
  7288 ;;		i2_priority_rr_scheduler
  7289 ;; This function uses a non-reentrant model
  7290 ;;
  7291                           
  7292                           	psect	text24
  7293   0025F8                     __ptext24:
  7294                           	callstack 0
  7295   0025F8                     i2___awmod:
  7296                           	callstack 18
  7297   0025F8  6A2A               	clrf	i2___awmod@sign^0,c
  7298   0025FA  BE26               	btfsc	(i2___awmod@dividend+1)^0,7,c
  7299   0025FC  EF04  F013         	goto	i2u150_40
  7300   002600  EF02  F013         	goto	i2u150_41
  7301   002604                     i2u150_41:
  7302   002604  EF0A  F013         	goto	i2l2398
  7303   002608                     i2u150_40:
  7304   002608  6C25               	negf	i2___awmod@dividend^0,c
  7305   00260A  1E26               	comf	(i2___awmod@dividend+1)^0,f,c
  7306   00260C  B0D8               	btfsc	status,0,c
  7307   00260E  2A26               	incf	(i2___awmod@dividend+1)^0,f,c
  7308   002610  0E01               	movlw	1
  7309   002612  6E2A               	movwf	i2___awmod@sign^0,c
  7310   002614                     i2l2398:
  7311   002614  BE28               	btfsc	(i2___awmod@divisor+1)^0,7,c
  7312   002616  EF11  F013         	goto	i2u151_40
  7313   00261A  EF0F  F013         	goto	i2u151_41
  7314   00261E                     i2u151_41:
  7315   00261E  EF15  F013         	goto	i2l2402
  7316   002622                     i2u151_40:
  7317   002622  6C27               	negf	i2___awmod@divisor^0,c
  7318   002624  1E28               	comf	(i2___awmod@divisor+1)^0,f,c
  7319   002626  B0D8               	btfsc	status,0,c
  7320   002628  2A28               	incf	(i2___awmod@divisor+1)^0,f,c
  7321   00262A                     i2l2402:
  7322   00262A  5027               	movf	i2___awmod@divisor^0,w,c
  7323   00262C  1028               	iorwf	(i2___awmod@divisor+1)^0,w,c
  7324   00262E  B4D8               	btfsc	status,2,c
  7325   002630  EF1C  F013         	goto	i2u152_41
  7326   002634  EF1E  F013         	goto	i2u152_40
  7327   002638                     i2u152_41:
  7328   002638  EF42  F013         	goto	i2l2418
  7329   00263C                     i2u152_40:
  7330   00263C  0E01               	movlw	1
  7331   00263E  6E29               	movwf	i2___awmod@counter^0,c
  7332   002640  EF26  F013         	goto	i2l2408
  7333   002644                     i2l2406:
  7334   002644  90D8               	bcf	status,0,c
  7335   002646  3627               	rlcf	i2___awmod@divisor^0,f,c
  7336   002648  3628               	rlcf	(i2___awmod@divisor+1)^0,f,c
  7337   00264A  2A29               	incf	i2___awmod@counter^0,f,c
  7338   00264C                     i2l2408:
  7339   00264C  AE28               	btfss	(i2___awmod@divisor+1)^0,7,c
  7340   00264E  EF2B  F013         	goto	i2u153_41
  7341   002652  EF2D  F013         	goto	i2u153_40
  7342   002656                     i2u153_41:
  7343   002656  EF22  F013         	goto	i2l2406
  7344   00265A                     i2u153_40:
  7345   00265A                     i2l2410:
  7346   00265A  5027               	movf	i2___awmod@divisor^0,w,c
  7347   00265C  5C25               	subwf	i2___awmod@dividend^0,w,c
  7348   00265E  5028               	movf	(i2___awmod@divisor+1)^0,w,c
  7349   002660  5826               	subwfb	(i2___awmod@dividend+1)^0,w,c
  7350   002662  A0D8               	btfss	status,0,c
  7351   002664  EF36  F013         	goto	i2u154_41
  7352   002668  EF38  F013         	goto	i2u154_40
  7353   00266C                     i2u154_41:
  7354   00266C  EF3C  F013         	goto	i2l2414
  7355   002670                     i2u154_40:
  7356   002670  5027               	movf	i2___awmod@divisor^0,w,c
  7357   002672  5E25               	subwf	i2___awmod@dividend^0,f,c
  7358   002674  5028               	movf	(i2___awmod@divisor+1)^0,w,c
  7359   002676  5A26               	subwfb	(i2___awmod@dividend+1)^0,f,c
  7360   002678                     i2l2414:
  7361   002678  90D8               	bcf	status,0,c
  7362   00267A  3228               	rrcf	(i2___awmod@divisor+1)^0,f,c
  7363   00267C  3227               	rrcf	i2___awmod@divisor^0,f,c
  7364   00267E  2E29               	decfsz	i2___awmod@counter^0,f,c
  7365   002680  EF2D  F013         	goto	i2l2410
  7366   002684                     i2l2418:
  7367   002684  502A               	movf	i2___awmod@sign^0,w,c
  7368   002686  B4D8               	btfsc	status,2,c
  7369   002688  EF48  F013         	goto	i2u155_41
  7370   00268C  EF4A  F013         	goto	i2u155_40
  7371   002690                     i2u155_41:
  7372   002690  EF4E  F013         	goto	i2l2422
  7373   002694                     i2u155_40:
  7374   002694  6C25               	negf	i2___awmod@dividend^0,c
  7375   002696  1E26               	comf	(i2___awmod@dividend+1)^0,f,c
  7376   002698  B0D8               	btfsc	status,0,c
  7377   00269A  2A26               	incf	(i2___awmod@dividend+1)^0,f,c
  7378   00269C                     i2l2422:
  7379   00269C  C025  F025         	movff	i2___awmod@dividend,?i2___awmod
  7380   0026A0  C026  F026         	movff	i2___awmod@dividend+1,?i2___awmod+1
  7381   0026A4  0012               	return		;funcret
  7382   0026A6                     __end_ofi2___awmod:
  7383                           	callstack 0
  7384                           
  7385                           	psect	smallconst
  7386   001000                     __psmallconst:
  7387                           	callstack 0
  7388   001000  00                 	db	0
  7389   001001  00                 	db	0	; dummy byte at the end
  7390   001000                     __smallconst    set	__psmallconst
  7391   001000                     __mediumconst   set	__psmallconst
  7392   000002                     __activetblptr  equ	2
  7393                           
  7394                           	psect	rparam
  7395   000001                     ___rparam_used  equ	1
  7396   000000                     ___param_bank   equ	0
  7397   000000                     __Lparam        equ	__Lrparam
  7398   000000                     __Hparam        equ	__Hrparam
  7399   000001                     btemp           set	1	;btemp
  7400   000001                     int$flags       set	1
  7401   000001                     btemp0          set	1
  7402   000002                     btemp1          set	2
  7403                           tosu	equ	0xFFF
  7404                           tosh	equ	0xFFE
  7405                           tosl	equ	0xFFD
  7406                           stkptr	equ	0xFFC
  7407                           pclatu	equ	0xFFB
  7408                           pclath	equ	0xFFA
  7409                           pcl	equ	0xFF9
  7410                           tblptru	equ	0xFF8
  7411                           tblptrh	equ	0xFF7
  7412                           tblptrl	equ	0xFF6
  7413                           tablat	equ	0xFF5
  7414                           prodh	equ	0xFF4
  7415                           prodl	equ	0xFF3
  7416                           indf0	equ	0xFEF
  7417                           postinc0	equ	0xFEE
  7418                           postdec0	equ	0xFED
  7419                           preinc0	equ	0xFEC
  7420                           plusw0	equ	0xFEB
  7421                           fsr0h	equ	0xFEA
  7422                           fsr0l	equ	0xFE9
  7423                           wreg	equ	0xFE8
  7424                           indf1	equ	0xFE7
  7425                           postinc1	equ	0xFE6
  7426                           postdec1	equ	0xFE5
  7427                           preinc1	equ	0xFE4
  7428                           plusw1	equ	0xFE3
  7429                           fsr1h	equ	0xFE2
  7430                           fsr1l	equ	0xFE1
  7431                           bsr	equ	0xFE0
  7432                           indf2	equ	0xFDF
  7433                           postinc2	equ	0xFDE
  7434                           postdec2	equ	0xFDD
  7435                           preinc2	equ	0xFDC
  7436                           plusw2	equ	0xFDB
  7437                           fsr2h	equ	0xFDA
  7438                           fsr2l	equ	0xFD9
  7439                           status	equ	0xFD8

Data Sizes:
    Strings     0
    Constant    0
    Data        7
    BSS         1019
    Persistent  0
    Stack       0

Auto Spaces:
    Space          Size  Autos    Used
    COMRAM           94     31      73
    BANK0           160     72      72
    BANK1           256    118     118
    BANK2           256      0       0
    BANK3           256      0       0
    BANK4           256      0       0
    BANK5           256      0       0
    BANK6           256      0       0
    BANK7           256      0       0
    BANK8           256      0       0
    BANK9           256      0       0
    BANK10          256      0       0
    BANK11          256      0       0
    BANK12          256      0       0
    BANK13          256      0       0
    BANK14          256      0       0
    BANK15           56      0       0

Pointer List with Targets:

    mutex_init@m	PTR struct mutex size(1) Largest target is 8
		 -> m_led(COMRAM[8]), 

    mutex_lock@m	PTR struct mutex size(1) Largest target is 8
		 -> m_led(COMRAM[8]), 

    mutex_unlock@m	PTR struct mutex size(1) Largest target is 8
		 -> m_led(COMRAM[8]), 

    new_task$task_ptr	PTR FTN()void  size(2) Largest target is 1
		 -> idle(), LED_1(), LED_1_prio(), LED_2(), 
		 -> LED_2_prio(), LED_3(), LED_3_prio(), 

    os_create_task@func	PTR FTN()void  size(2) Largest target is 1
		 -> idle(), LED_1(), LED_1_prio(), LED_2(), 
		 -> LED_2_prio(), LED_3(), LED_3_prio(), 

    os_task_change_state@task_handle$task_ptr	PTR FTN()void  size(2) Largest target is 1
		 -> idle(), LED_1(), LED_1_prio(), LED_2(), 
		 -> LED_2_prio(), LED_3(), LED_3_prio(), 

    pipe_init@p	PTR struct pipe size(1) Largest target is 20
		 -> p(COMRAM[20]), 

    r_queue$task_ptr	PTR FTN()void  size(2) Largest target is 1
		 -> idle(), LED_1(), LED_1_prio(), LED_2(), 
		 -> LED_2_prio(), LED_3(), LED_3_prio(), 

    r_queue$task_running	PTR struct tcb size(2) Largest target is 472
		 -> r_queue(BIGRAM[472]), r_queue$TASKS(BIGRAM[468]), 

    r_queue$task_running$task_ptr	PTR FTN()void  size(2) Largest target is 1
		 -> idle(), LED_1(), LED_1_prio(), LED_2(), 
		 -> LED_2_prio(), LED_3(), LED_3_prio(), 

    r_queue$TASKS$task_ptr	PTR FTN()void  size(2) Largest target is 1
		 -> idle(), LED_1(), LED_1_prio(), LED_2(), 
		 -> LED_2_prio(), LED_3(), LED_3_prio(), 

    S109ready_queue$task_running	PTR struct tcb size(2) Largest target is 472
		 -> r_queue(BIGRAM[472]), 

    S85tcb$task_ptr	PTR FTN()void  size(2) Largest target is 1
		 -> idle(), LED_1(), LED_1_prio(), LED_2(), 
		 -> LED_2_prio(), LED_3(), LED_3_prio(), 

    sem_init@sem	PTR struct sem size(1) Largest target is 20
		 -> p(COMRAM[20]), s(COMRAM[7]), 

    sp__SRAMalloc	PTR unsigned char  size(2) Largest target is 512
		 -> _uDynamicHeap(BIGRAM[512]), NULL(NULL[0]), 


Critical Paths under _main in COMRAM

    None.

Critical Paths under _idle in COMRAM

    None.

Critical Paths under _idle in COMRAM

    None.

Critical Paths under _LED_1_mutex in COMRAM

    None.

Critical Paths under _LED_2_mutex in COMRAM

    None.

Critical Paths under _ISR in COMRAM

    _ISR->i2_scheduler
    i2_scheduler->i2_priority_rr_scheduler
    i2_priority_rr_scheduler->i2___awmod

Critical Paths under _main in BANK0

    _main->_os_start
    _os_start->_scheduler
    _scheduler->_priority_rr_scheduler
    _priority_rr_scheduler->___awmod
    _config_user->_pipe_init
    _pipe_init->_sem_init

Critical Paths under _idle in BANK0

    None.

Critical Paths under _idle in BANK0

    None.

Critical Paths under _LED_1_mutex in BANK0

    _os_delay->i1_scheduler
    _mutex_unlock->i1___awmod
    _mutex_lock->i1_scheduler
    i1_scheduler->i1_priority_rr_scheduler
    i1_priority_rr_scheduler->i1___awmod

Critical Paths under _LED_2_mutex in BANK0

    _LED_2_mutex->_mutex_lock
    _LED_2_mutex->_os_delay
    _os_delay->i1_scheduler
    _mutex_unlock->i1___awmod
    _mutex_lock->i1_scheduler
    i1_scheduler->i1_priority_rr_scheduler
    i1_priority_rr_scheduler->i1___awmod

Critical Paths under _ISR in BANK0

    None.

Critical Paths under _main in BANK1

    _main->_os_create_task
    _os_config->_os_create_task

Critical Paths under _idle in BANK1

    None.

Critical Paths under _idle in BANK1

    None.

Critical Paths under _LED_1_mutex in BANK1

    None.

Critical Paths under _LED_2_mutex in BANK1

    None.

Critical Paths under _ISR in BANK1

    None.

Critical Paths under _main in BANK2

    None.

Critical Paths under _idle in BANK2

    None.

Critical Paths under _idle in BANK2

    None.

Critical Paths under _LED_1_mutex in BANK2

    None.

Critical Paths under _LED_2_mutex in BANK2

    None.

Critical Paths under _ISR in BANK2

    None.

Critical Paths under _main in BANK3

    None.

Critical Paths under _idle in BANK3

    None.

Critical Paths under _idle in BANK3

    None.

Critical Paths under _LED_1_mutex in BANK3

    None.

Critical Paths under _LED_2_mutex in BANK3

    None.

Critical Paths under _ISR in BANK3

    None.

Critical Paths under _main in BANK4

    None.

Critical Paths under _idle in BANK4

    None.

Critical Paths under _idle in BANK4

    None.

Critical Paths under _LED_1_mutex in BANK4

    None.

Critical Paths under _LED_2_mutex in BANK4

    None.

Critical Paths under _ISR in BANK4

    None.

Critical Paths under _main in BANK5

    None.

Critical Paths under _idle in BANK5

    None.

Critical Paths under _idle in BANK5

    None.

Critical Paths under _LED_1_mutex in BANK5

    None.

Critical Paths under _LED_2_mutex in BANK5

    None.

Critical Paths under _ISR in BANK5

    None.

Critical Paths under _main in BANK6

    None.

Critical Paths under _idle in BANK6

    None.

Critical Paths under _idle in BANK6

    None.

Critical Paths under _LED_1_mutex in BANK6

    None.

Critical Paths under _LED_2_mutex in BANK6

    None.

Critical Paths under _ISR in BANK6

    None.

Critical Paths under _main in BANK7

    None.

Critical Paths under _idle in BANK7

    None.

Critical Paths under _idle in BANK7

    None.

Critical Paths under _LED_1_mutex in BANK7

    None.

Critical Paths under _LED_2_mutex in BANK7

    None.

Critical Paths under _ISR in BANK7

    None.

Critical Paths under _main in BANK8

    None.

Critical Paths under _idle in BANK8

    None.

Critical Paths under _idle in BANK8

    None.

Critical Paths under _LED_1_mutex in BANK8

    None.

Critical Paths under _LED_2_mutex in BANK8

    None.

Critical Paths under _ISR in BANK8

    None.

Critical Paths under _main in BANK9

    None.

Critical Paths under _idle in BANK9

    None.

Critical Paths under _idle in BANK9

    None.

Critical Paths under _LED_1_mutex in BANK9

    None.

Critical Paths under _LED_2_mutex in BANK9

    None.

Critical Paths under _ISR in BANK9

    None.

Critical Paths under _main in BANK10

    None.

Critical Paths under _idle in BANK10

    None.

Critical Paths under _idle in BANK10

    None.

Critical Paths under _LED_1_mutex in BANK10

    None.

Critical Paths under _LED_2_mutex in BANK10

    None.

Critical Paths under _ISR in BANK10

    None.

Critical Paths under _main in BANK11

    None.

Critical Paths under _idle in BANK11

    None.

Critical Paths under _idle in BANK11

    None.

Critical Paths under _LED_1_mutex in BANK11

    None.

Critical Paths under _LED_2_mutex in BANK11

    None.

Critical Paths under _ISR in BANK11

    None.

Critical Paths under _main in BANK12

    None.

Critical Paths under _idle in BANK12

    None.

Critical Paths under _idle in BANK12

    None.

Critical Paths under _LED_1_mutex in BANK12

    None.

Critical Paths under _LED_2_mutex in BANK12

    None.

Critical Paths under _ISR in BANK12

    None.

Critical Paths under _main in BANK13

    None.

Critical Paths under _idle in BANK13

    None.

Critical Paths under _idle in BANK13

    None.

Critical Paths under _LED_1_mutex in BANK13

    None.

Critical Paths under _LED_2_mutex in BANK13

    None.

Critical Paths under _ISR in BANK13

    None.

Critical Paths under _main in BANK14

    None.

Critical Paths under _idle in BANK14

    None.

Critical Paths under _idle in BANK14

    None.

Critical Paths under _LED_1_mutex in BANK14

    None.

Critical Paths under _LED_2_mutex in BANK14

    None.

Critical Paths under _ISR in BANK14

    None.

Critical Paths under _main in BANK15

    None.

Critical Paths under _idle in BANK15

    None.

Critical Paths under _idle in BANK15

    None.

Critical Paths under _LED_1_mutex in BANK15

    None.

Critical Paths under _LED_2_mutex in BANK15

    None.

Critical Paths under _ISR in BANK15

    None.

Call Graph Tables:

 ---------------------------------------------------------------------------------
 (Depth) Function   	        Calls       Base Space   Used Autos Params    Refs
 ---------------------------------------------------------------------------------
 (0) _main                                                 0     0      0    3012
                          _os_config
                     _os_create_task
                           _os_start
 ---------------------------------------------------------------------------------
 (1) _os_start                                             7     7      0     626
                                             65 BANK0      7     7      0
                          _scheduler
                     _setup_hardware
 ---------------------------------------------------------------------------------
 (2) _setup_hardware                                       0     0      0       0
 ---------------------------------------------------------------------------------
 (2) _scheduler                                            3     3      0     626
                                             62 BANK0      3     3      0
              _priority_rr_scheduler
 ---------------------------------------------------------------------------------
 (3) _priority_rr_scheduler                                7     7      0     626
                                             55 BANK0      7     7      0
                            ___awmod
 ---------------------------------------------------------------------------------
 (4) ___awmod                                              6     2      4     308
                                             49 BANK0      6     2      4
 ---------------------------------------------------------------------------------
 (1) _os_config                                            0     0      0    1387
                        _config_user
                     _os_create_task
 ---------------------------------------------------------------------------------
 (2) _os_create_task                                     122   119      3     999
                                             49 BANK0      4     1      3
                                              0 BANK1    118   118      0
 ---------------------------------------------------------------------------------
 (2) _config_user                                          0     0      0     388
                         _mutex_init
                          _pipe_init
                           _sem_init
 ---------------------------------------------------------------------------------
 (3) _pipe_init                                            1     0      1     183
                                             53 BANK0      1     0      1
                           _sem_init
 ---------------------------------------------------------------------------------
 (4) _sem_init                                             4     2      2      94
                                             49 BANK0      4     2      2
 ---------------------------------------------------------------------------------
 (3) _mutex_init                                           1     0      1     111
                                             49 BANK0      1     0      1
 ---------------------------------------------------------------------------------
 Estimated maximum stack depth 4
 ---------------------------------------------------------------------------------
 (Depth) Function   	        Calls       Base Space   Used Autos Params    Refs
 ---------------------------------------------------------------------------------
 (5) _idle                                                 1     1      0       0
                                              0 BANK0      1     1      0
 ---------------------------------------------------------------------------------
 Estimated maximum stack depth 5
 ---------------------------------------------------------------------------------
 (Depth) Function   	        Calls       Base Space   Used Autos Params    Refs
 ---------------------------------------------------------------------------------
 (5) _idle                                                 1     1      0       0
                                              0 BANK0      1     1      0
 ---------------------------------------------------------------------------------
 Estimated maximum stack depth 5
 ---------------------------------------------------------------------------------
 (Depth) Function   	        Calls       Base Space   Used Autos Params    Refs
 ---------------------------------------------------------------------------------
 (5) _LED_1_mutex                                          0     0      0    6540
                         _mutex_lock
                       _mutex_unlock
                           _os_delay
 ---------------------------------------------------------------------------------
 (6) _os_delay                                             8     8      0    1840
                                             41 BANK0      8     8      0
                        i1_scheduler
 ---------------------------------------------------------------------------------
 (6) _mutex_unlock                                         4     3      1    1620
                                             31 BANK0      4     3      1
                          i1___awmod
 ---------------------------------------------------------------------------------
 (6) _mutex_lock                                           8     7      1    3080
                                             41 BANK0      8     7      1
                          i1___awmod
                        i1_scheduler
 ---------------------------------------------------------------------------------
 (7) i1_scheduler                                          3     3      0    1745
                                             38 BANK0      3     3      0
            i1_priority_rr_scheduler
 ---------------------------------------------------------------------------------
 (8) i1_priority_rr_scheduler                              7     7      0    1745
                                             31 BANK0      7     7      0
                          i1___awmod
 ---------------------------------------------------------------------------------
 (9) i1___awmod                                            6     2      4     875
                                             25 BANK0      6     2      4
 ---------------------------------------------------------------------------------
 Estimated maximum stack depth 9
 ---------------------------------------------------------------------------------
 (Depth) Function   	        Calls       Base Space   Used Autos Params    Refs
 ---------------------------------------------------------------------------------
 (5) _LED_2_mutex                                          0     0      0    6540
                         _mutex_lock
                       _mutex_unlock
                           _os_delay
 ---------------------------------------------------------------------------------
 (6) _os_delay                                             8     8      0    1840
                                             41 BANK0      8     8      0
                        i1_scheduler
 ---------------------------------------------------------------------------------
 (6) _mutex_unlock                                         4     3      1    1620
                                             31 BANK0      4     3      1
                          i1___awmod
 ---------------------------------------------------------------------------------
 (6) _mutex_lock                                           8     7      1    3080
                                             41 BANK0      8     7      1
                          i1___awmod
                        i1_scheduler
 ---------------------------------------------------------------------------------
 (7) i1_scheduler                                          3     3      0    1745
                                             38 BANK0      3     3      0
            i1_priority_rr_scheduler
 ---------------------------------------------------------------------------------
 (8) i1_priority_rr_scheduler                              7     7      0    1745
                                             31 BANK0      7     7      0
                          i1___awmod
 ---------------------------------------------------------------------------------
 (9) i1___awmod                                            6     2      4     875
                                             25 BANK0      6     2      4
 ---------------------------------------------------------------------------------
 Estimated maximum stack depth 9
 ---------------------------------------------------------------------------------
 (Depth) Function   	        Calls       Base Space   Used Autos Params    Refs
 ---------------------------------------------------------------------------------
 (10) _ISR                                                15    15      0     728
                                             16 COMRAM    15    15      0
                        i2_scheduler
 ---------------------------------------------------------------------------------
 (11) i2_scheduler                                         3     3      0     616
                                             13 COMRAM     3     3      0
            i2_priority_rr_scheduler
 ---------------------------------------------------------------------------------
 (12) i2_priority_rr_scheduler                             7     7      0     616
                                              6 COMRAM     7     7      0
                          i2___awmod
 ---------------------------------------------------------------------------------
 (13) i2___awmod                                           6     2      4     298
                                              0 COMRAM     6     2      4
 ---------------------------------------------------------------------------------
 Estimated maximum stack depth 13
 ---------------------------------------------------------------------------------

 Call Graph Graphs:

 _main (ROOT)
   _os_config
     _config_user
       _mutex_init
       _pipe_init
         _sem_init
       _sem_init
     _os_create_task
   _os_create_task
   _os_start
     _scheduler
       _priority_rr_scheduler
         ___awmod
     _setup_hardware

 _idle (ROOT)

 _idle (ROOT)

 _LED_1_mutex (ROOT)
   _mutex_lock
     i1___awmod
     i1_scheduler
       i1_priority_rr_scheduler
         i1___awmod
   _mutex_unlock
     i1___awmod
   _os_delay
     i1_scheduler

 _LED_2_mutex (ROOT)
   _mutex_lock
     i1___awmod
     i1_scheduler
       i1_priority_rr_scheduler
         i1___awmod
   _mutex_unlock
     i1___awmod
   _os_delay
     i1_scheduler

 _ISR (ROOT)
   i2_scheduler
     i2_priority_rr_scheduler
       i2___awmod

Address spaces:
Name               Size   Autos  Total    Usage
BIGRAM            3895      0     984     25.3%
BITBANK14          256      0       0      0.0%
BANK14             256      0       0      0.0%
BITBANK13          256      0       0      0.0%
BANK13             256      0       0      0.0%
BITBANK12          256      0       0      0.0%
BANK12             256      0       0      0.0%
BITBANK11          256      0       0      0.0%
BANK11             256      0       0      0.0%
BITBANK10          256      0       0      0.0%
BANK10             256      0       0      0.0%
BITBANK9           256      0       0      0.0%
BANK9              256      0       0      0.0%
BITBANK8           256      0       0      0.0%
BANK8              256      0       0      0.0%
BITBANK7           256      0       0      0.0%
BANK7              256      0       0      0.0%
BITBANK6           256      0       0      0.0%
BANK6              256      0       0      0.0%
BITBANK5           256      0       0      0.0%
BANK5              256      0       0      0.0%
BITBANK4           256      0       0      0.0%
BANK4              256      0       0      0.0%
BITBANK3           256      0       0      0.0%
BANK3              256      0       0      0.0%
BITBANK2           256      0       0      0.0%
BANK2              256      0       0      0.0%
BITBANK1           256      0       0      0.0%
BANK1              256    118     118     46.1%
BITBANK0           160      0       0      0.0%
BANK0              160     72      72     45.0%
BITCOMRAM           94      0       0      0.0%
COMRAM              94     31      73     77.7%
BITBIGSFRllh        88      0       0      0.0%
BITBIGSFRh          61      0       0      0.0%
BITBANK15           56      0       0      0.0%
BANK15              56      0       0      0.0%
BITBIGSFRlh         45      0       0      0.0%
BITBIGSFRlll         1      0       0      0.0%
STACK                0      0       0      0.0%
DATA                 0      0    1197      0.0%


Microchip Technology PIC18 Macro Assembler V3.10 build 20250813170317 
Symbol Table                                                                                   Sun Apr 26 18:16:05 2026

                   ?_LED_1_mutex 0025              __end_ofi2_scheduler 299A                     ?_LED_2_mutex 0025  
                              _p 0002                                _s 001E                               l23 2726  
                             l24 2726                              l105 279A                              l130 1E60  
                            l211 28F2                              l124 2890                              l134 2002  
                            l129 1F72                              l235 2824                              l335 28C2  
                            l268 285E                              l455 291C                              l543 29F8  
                            l385 29BE                              l481 20A8                              l482 2134  
                            l379 299A                              l925 2546                              _BSR 0FE0  
                            _ISR 0008         priority_rr_scheduler@idx 009C                     ___awmod@sign 0096  
                            prod 0FF3                              wreg 0FE8                             ?_ISR 0025  
                           ISR@i 0042                             l2300 280C                             l2220 28E6  
                           l2302 2818                             l2230 24B6                             l2222 2498  
                           l2310 2004                             l2216 28C4                             l2304 2826  
                           l3040 273E                             l2240 24EE                             l2232 24C4  
                           l2224 249C                             l2320 2076                             l2312 2010  
                           l2218 28DA                             l2306 2840                             l3050 274E  
                           l3042 2746                             l3034 2732                             l2242 24FC  
                           l2250 2526                             l2234 24CC                             l2226 24AA  
                           l2314 2030                             l2322 207A                             l2308 284E  
                           l3060 2758                             l3052 2750                             l3044 2748  
                           l3036 2736                             l2252 2536                             l2244 2512  
                           l2236 24DE                             l2228 24B2                             l2332 20B2  
                           l2316 2040                             l2324 207C                             l3070 2762  
                           l3062 275A                             l3054 2752                             l3046 274A  
                           l3038 273A                             l2254 253E                             l2246 251A  
                           l2238 24E6                             l2342 2118                             l2334 20D0  
                           l2326 2092                             l2318 2062                             l3080 276C  
                           l3072 2764                             l3064 275C                             l3056 2754  
                           l3048 274C                             l2248 2520                             l2336 20F0  
                           l2344 211A                             l2328 20A2                             l3082 2790  
                           l3074 2766                             l3066 275E                             l3058 2756  
                           l2338 2112                             l3076 2768                             l3068 2760  
                           l2540 1CAA                             l2294 27EA                             l3078 276A  
                           l2550 1E62                             l2542 1CAE                             l2296 27F4  
                           l2480 2892                             l2560 1F74                             l2552 1E74  
                           l2544 1CB2                             l2298 2800                             l2482 28A0  
                           l2562 1FFC                             l2554 1EBE                             l2546 1CD2  
                           l3700 29D0                             l2476 28F4                             l2484 29E2  
                           l2556 1F06                             l2548 1E3E                             l2564 2000  
                           l2478 2900                             l2486 29EC                             l2558 1F4E  
                           l2488 29F0                             l3730 2878                             l3732 288C  
                           l3734 26A6                             l3736 291E                             l3728 2860  
                           l3690 299A                             l3738 2920                             l3692 29A4  
                           l3694 29AC                             l3696 29BE                             l3698 29C8  
                           u1220 24AA                             u1221 24A6                             u1230 24C4  
                           u1231 24C0                             u1240 24DE                             u1400 2112  
                           u1241 24DA                             u1401 210E                             u1250 24FC  
                           u1410 2130                             u1251 24F8                             u1411 212C  
                           u1260 2512                             u1340 2030                             u1261 250E  
                           u1341 202C                             u1270 2536                             u1350 2040  
                           u1271 2532                             u1351 203C                             u1360 2062  
                           u1361 205E                             u1370 2092                             u1371 208E  
                           u1380 20A2                             u2421 2788                             u1381 209E  
                           u1390 20F0                             u1391 20EC                             u1650 1CD2  
                           u1651 1CCE                             u1660 1E60                             u1661 1E5C  
                           u1670 1F6E                             u1671 1F6A                             u1680 1FF0  
                           u1685 1FE8                             i1l97 1C18                             i1l98 1B06  
                           _TMR0 0FD6                             _TOSH 0FFE                             _TOSL 0FFD  
                           _WREG 0FE8                             _TOSU 0FFF                             _idle 291E  
                           _main 26A6                             fsr1h 0FE2                             fsr2h 0FDA  
                           indf1 0FE7                             indf2 0FDF                             fsr1l 0FE1  
                           fsr2l 0FD9                             btemp 0001                             prodh 0FF4  
                           prodl 0FF3                             start 071A                     ___param_bank 0000  
   i1priority_rr_scheduler@found 0082                            ??_ISR 0035       i1priority_rr_scheduler@idx 0084  
                          ?_idle 0025                            ?_main 0025                            _ADRES 0FC3  
                __end_of___awmod 2548                            _LED_1 0000                            _FSR0H 0FEA  
                          _LED_2 0000                            _LED_3 0000                            _FSR1H 0FE2  
                          _FSR0L 0FE9                            _FSR2H 0FDA                            _FSR1L 0FE1  
                          _FSR2L 0FD9                            i1l102 1CA8                            i1l253 1694  
                          i1l247 15E0                            i1l248 14CE                            i1l259 2496  
                          i1l455 2970                            i1l481 21DA                            i1l482 2266  
                          i1l925 25F6                            i2l455 2998                            i2l481 230A  
                          i2l482 2394                            i2l563 0674                            i2l564 0564  
                          i2l568 06FE                            i2l925 26A4                            _PRODH 0FF4  
                          _PRODL 0FF3                   i1___awmod@sign 007E     priority_rr_scheduler@current 0098  
                    i1_scheduler 2948                            _m_led 0016                            btemp0 0001  
                          btemp1 0002                            tablat 0FF5                            plusw1 0FE3  
                          plusw2 0FDB                            status 0FD8                      i2_scheduler 2972  
                __initialization 279C                     __end_of_idle 2948                     __end_of_main 272E  
  __end_of_priority_rr_scheduler 2136                           ??_idle 0060                           ??_main 0025  
                  __activetblptr 0002                           i1l3500 257C                           i1l3510 25C2  
                         i1l3502 258E                           i1l3520 25EE                           i1l3512 25CA  
                         i1l3504 2596                           i1l3600 1B64                           i1l3514 25D0  
                         i1l3506 259E                           i1l3530 2172                           i1l3602 1BAC  
                         i1l3610 1CA6                           i1l3508 25AC                           i1l3516 25D6  
                         i1l3540 21C4                           i1l3532 2194                           i1l3524 2136  
                         i1l3620 1072                           i1l3612 1002                           i1l3604 1BF4  
                         i1l3518 25E6                           i1l3550 2222                           i1l3542 21D4  
                         i1l3534 21A8                           i1l3526 2142                           i1l3630 130C  
                         i1l3622 107E                           i1l3614 1004                           i1l3606 1C1A  
                         i1l3552 2244                           i1l3528 2162                           i1l3536 21AC  
                         i1l3640 14D0                           i1l3624 10A0                           i1l3632 131C  
                         i1l3616 101C                           i1l3608 1CA2                           i1l3490 254C  
                         i1l3546 21E4                           i1l3538 21AE                           i1l3650 15E2  
                         i1l3642 14E2                           i1l3634 1320                           i1l3626 121E  
                         i1l3618 103E                           i1l3492 255A                           i1l3556 224A  
                         i1l3548 2202                           i1l3564 2948                           i1l3652 166A  
                         i1l3644 152C                           i1l3636 1340                           i1l3628 12F8  
                         i1l3660 2396                           i1l3580 183C                           i1l3494 2562  
                         i1l3558 224C                           i1l3566 2954                           i1l3646 1574  
                         i1l3638 14AC                           i1l3654 1672                           i1l3670 240C  
                         i1l3662 2398                           i1l3590 1958                           i1l3582 1916  
                         i1l3574 169A                           i2l2400 2622                           i1l3496 2566  
                         i1l3488 2548                           i1l3656 167C                           i1l3648 15BC  
                         i1l3680 2488                           i1l3672 241E                           i1l3664 23B0  
                         i1l3592 1978                           i1l3584 192A                           i1l3576 169C  
                         i2l2410 265A                           i2l2402 262A                           i1l3498 2574  
                         i1l3658 1692                           i1l3674 2452                           i1l3666 23D4  
                         i1l3682 2494                           i1l3594 1AE4                           i1l3578 16BE  
                         i1l3586 193A                           i2l2420 2694                           i2l2412 2670  
                         i2l2404 263C                           i2l2500 22A2                           i1l3676 245E  
                         i1l3668 23EE                           i1l3596 1B08                           i1l3588 1954  
                         i2l2422 269C                           i2l2414 2678                           i2l2406 2644  
                         i2l2510 22F4                           i2l2502 22C4                           i1l3678 2480  
                         i1l3598 1B1A                           i2l2416 267E                           i2l2408 264C  
                         i2l2520 2350                           i2l2512 2304                           i2l2504 22D8  
                         i2l2418 2684                           i2l2522 2372                           i2l2506 22DC  
                         i2l2516 2314                           i2l2508 22DE                           i2l2390 25F8  
                         i2l2526 2378                           i2l2518 2330                           i2l2392 25FA  
                         i2l2528 237A                           i2l2394 2608                           i2l2396 2610  
                         _PCLATH 0FFA                           i2l2398 2614                           i2l2494 2268  
                         i2l2910 003C                           i2l2496 2272                           i2l2920 0104  
                         i2l2912 006A                           i2l2904 0022                           i2l2498 2292  
                         i2l2930 02B8                           i2l2922 0106                           i2l2914 00B8  
                         i2l2906 0030                           i2l2676 2972                           i2l2940 03D8  
                         i2l2932 0390                           i2l2924 0116                           i2l2916 00D8  
                         i2l2908 0032                           i2l2678 297C                           i2l2950 0608  
                         i2l2942 0542                           i2l2934 03A4                           i2l2926 011A  
                         i2l2918 00DC                           i2l2952 0650                           i2l2944 0566  
                         i2l2928 013C                           i2l2936 03B4                           _PCLATU 0FFB  
                         i2l2954 0676                           i2l2946 0578                           i2l2938 03B8  
                         i2l2956 06FA                           i2l2948 05C0    i2priority_rr_scheduler@i_1476 002F  
                         _TABLAT 0FF5                           u331_20 2930                           u331_21 292A  
                         u331_26 2932                           _STATUS 0FD8                           _STKPTR 0FFC  
       ?i2_priority_rr_scheduler 0025                        ??___awmod 0025                    mutex_unlock@m 007F  
                         clear_0 27C4                           clear_1 27D6                  ___awmod@divisor 0093  
             os_create_task@func 0091                 ??_setup_hardware 0025                           isa$std 0001  
                ___awmod@counter 0095                 __end_of_os_delay 1CAA                 __end_of_sem_init 28F4  
              __end_ofi1___awmod 25F8                     __pdataCOMRAM 0044                __end_ofi2___awmod 26A6  
               __end_of_os_start 2004                     __mediumconst 1000                           tblptrh 0FF7  
                         tblptrl 0FF6                           tblptru 0FF8                   i2___awmod@sign 002A  
                     __accesstop 0060          __end_of__initialization 27DC           priority_rr_scheduler@i 009D  
                  ___rparam_used 0001                   _os_create_task 272E                   __pcstackCOMRAM 0025  
               os_create_task@id 0100  __end_ofi2_priority_rr_scheduler 2396                    __uDynamicHeap 0176  
         __end_of_os_create_task 279C          i1_priority_rr_scheduler 2136                          _TBLPTRH 0FF7  
                        _TBLPTRL 0FF6                          _TBLPTRU 0FF8                     ?i1_scheduler 0025  
           mutex_unlock@task_idx 0082                      sem_init@sem 0091                     ?i2_scheduler 0025  
                ?_os_create_task 0091                        ?_os_delay 0025                          __Hparam 0000  
                      ?_sem_init 0091   i2priority_rr_scheduler@current 002C                          __Lparam 0000  
                      ?_os_start 0025                          ___awmod 2498                     __psmallconst 1000  
                        __pcinit 279C                          __ramtop 1000                          __ptext0 26A6  
                        __ptext1 1CAA                          __ptext2 29E2                          __ptext3 28F4  
                        __ptext4 2004                          __ptext5 2498                          __ptext6 2860  
                        __ptext7 272E                          __ptext8 2892                          __ptext9 2826  
                      _T0CONbits 0FD5                 ___awmod@dividend 0091                          _r_queue 0376  
            os_create_task@prior 0093                __end_of_scheduler 291E             end_of_initialization 27DC  
              __end_of_pipe_init 2860                __end_of_os_config 2892                    __Lmediumconst 0000  
         os_create_task@new_task 0101                       ??_os_delay 0089                       ??_sem_init 0093  
                     ??_os_start 00A1   i1priority_rr_scheduler@current 0080                          postdec1 0FE5  
                        postdec2 0FDD                          postinc0 0FEE                          postinc1 0FE6  
                        postinc2 0FDE        ??i1_priority_rr_scheduler 007F                       LED_1@F6269 0044  
                      _PORTCbits 0F82                        _PORTDbits 0F83                       _rr_quantum 004A  
          _priority_rr_scheduler 2004                       _mutex_init 27EA                       _mutex_lock 1002  
                      _TRISAbits 0F92                        _TRISCbits 0F94                        _TRISDbits 0F95  
                  sem_init@valor 0092                        i1___awmod 2548                        i2___awmod 25F8  
                  ?_mutex_unlock 007F                    ??_config_user 0025                    ??_LED_1_mutex 0025  
                  ??_LED_2_mutex 0025                      mutex_init@m 0091                      mutex_lock@m 0089  
                  __pidataCOMRAM 29FA              start_initialization 279C                      __end_of_ISR 071A  
                     ?i1___awmod 0079                       ?i2___awmod 0025                   ??_mutex_unlock 0080  
             i1___awmod@dividend 0079              __end_of_config_user 28C4              __end_of_LED_1_mutex 29BE  
            __end_of_LED_2_mutex 29E2           ?_priority_rr_scheduler 0025                      __pbssBIGRAM 0176  
                    ?_mutex_init 0091                      ?_mutex_lock 0089                      __pbssCOMRAM 0002  
                  __pcstackBANK0 0060                    __pcstackBANK1 0100         i2priority_rr_scheduler@i 0031  
               ??_os_create_task 0094                        __pintcode 0008                         ?___awmod 0091  
                     pipe_init@p 0095          i2_priority_rr_scheduler 2268                      __smallconst 1000  
                    ??i1___awmod 0025                      ??i2___awmod 0029    i1priority_rr_scheduler@i_1476 0083  
                      _scheduler 28F4                        _pipe_init 2826                        _os_config 2860  
                       i1u300_20 25AC                         i1u300_21 25A8                         i1u301_20 25C2  
                       i1u301_21 25BE                         i1u302_20 25E6                         i1u310_20 2262  
                       i1u302_21 25E2                         i1u310_21 225E                         i1u303_20 2162  
                       i1u311_20 16BE                         i1u303_21 215E                         i1u311_21 16BA  
                       i1u304_20 2172                         i1u320_20 1340                         i1u312_20 193A  
                       i1u304_21 216E                         i1u320_21 133C                         i1u312_21 1936  
                       i1u305_20 2194                         i1u321_20 14CE                         i1u313_20 1978  
                       i1u305_21 2190                         i1u321_21 14CA                         i1u313_21 1974  
                       i1u306_20 21C4                         i1u322_20 15DC                         i1u314_20 1B06  
                       i1u306_21 21C0                         i1u322_21 15D8                         i1u314_21 1B02  
                       i1u307_20 21D4                         i1u323_20 165E                         i1u315_20 1C14  
                       i1u307_21 21D0                         i1u315_21 1C10                         i1u323_25 1656  
                       i1u308_20 2222                         i1u324_20 23B0                         i1u316_20 1C96  
                       i1u308_21 221E                         i1u324_21 23AC                         i1u316_25 1C8E  
                       i1u309_20 2244                         i1u317_20 101C                         i1u325_20 23D4  
                       i1u309_21 2240                         i1u317_21 1018                         i1u325_21 23D0  
                       i1u318_20 10A0                         i1u326_20 23EE                         i1u318_21 109C  
                       i1u326_21 23EA                         i1u319_20 131C                         i1u319_21 1318  
                       i2u220_40 0104                         i2u220_41 0100                         i2u221_40 0116  
                       i2u221_41 0112                         i2u150_40 2608                         i2u222_40 013C  
                       i2u150_41 2604                         i2u222_41 0138                         i2u151_40 2622  
                       i2u223_40 03B4                         i2u151_41 261E                         i2u223_41 03B0  
                       i2u152_40 263C                         i2u160_40 22F4                         i2u224_40 03D8  
                       i2u152_41 2638                         i2u160_41 22F0                         i2u224_41 03D4  
                       i1u297_20 255A                         i1u297_21 2556                         i2u153_40 265A  
                       i2u161_40 2304                         i2u225_40 0564                         i2u217_40 0030  
                       i2u153_41 2656                         i2u161_41 2300                         i2u225_41 0560  
                       i2u217_41 002C                         i1u298_20 2574                         i1u298_21 2570  
                       i2u154_40 2670                         i2u162_40 2350                         i2u226_40 0670  
                       i2u218_40 006A                         i2u154_41 266C                         i2u162_41 234C  
                       i2u226_41 066C                         i2u218_41 0066                         i1u299_20 258E  
                       i1u299_21 258A                         i2u155_40 2694                         i2u163_40 2372  
                       i2u227_40 06F0                         i2u219_40 00B8                         i2u155_41 2690  
                       i2u163_41 236E                         i2u219_41 00B4                         i2u227_45 06E8  
                       i2u164_40 2390                         i2u164_41 238C                         i2u157_40 2292  
                       i2u157_41 228E                         i2u158_40 22A2                         i2u158_41 229E  
                       i2u159_40 22C4                         i2u159_41 22C0                     os_delay@time 0090  
                    _config_user 2892                      _LED_1_mutex 299A                      _LED_2_mutex 29BE  
    priority_rr_scheduler@i_1476 009B             __end_of_mutex_unlock 2498                       _ADCON0bits 0FC2  
                     _ADCON1bits 0FC1                       _ADCON2bits 0FC0       i2priority_rr_scheduler@idx 0030  
                      copy_data0 27B0               i2___awmod@dividend 0025                       ?_scheduler 0025  
                     ?_pipe_init 0095                       ?_os_config 0025  i2priority_rr_scheduler@max_prio 002D  
  priority_rr_scheduler@max_prio 0099                         __Hrparam 0000                         __Lrparam 0000  
   i2priority_rr_scheduler@found 002E                i1___awmod@divisor 007B                i1___awmod@counter 007D  
      ??i2_priority_rr_scheduler 002B                       _ANSELAbits 0F38                       _ANSELCbits 0F3A  
                     _ANSELDbits 0F3B                         __ptext10 28C4                         __ptext11 27EA  
                       __ptext20 29BE                         __ptext12 291E                         __ptext13 299A  
                       __ptext22 2972                         __ptext14 1696                         __ptext23 2268  
                       __ptext15 2396                         __ptext24 25F8                         __ptext16 1002  
                       __ptext17 2948                         __ptext18 2136                         __ptext19 2548  
                 _setup_hardware 29E2                         _os_delay 1696                         _sem_init 28C4  
       ?i1_priority_rr_scheduler 0025                       _LED_1_prio 0000                         _os_start 1CAA  
                     _LED_2_prio 0000                       _LED_3_prio 0000                         isa$xinst 0000  
                       int$flags 0001          ??_priority_rr_scheduler 0097       priority_rr_scheduler@found 009A  
              i2___awmod@divisor 0027                i2___awmod@counter 0029                     ??_mutex_init 0025  
                   ??_mutex_lock 008A                       _INTCONbits 0FF2           __end_of_setup_hardware 29FA  
                  ??i1_scheduler 0086                         intlevel1 0000                         intlevel2 0000  
                  ??i2_scheduler 0032                      ??_scheduler 009E                      ??_pipe_init 0025  
                    ??_os_config 0025               __end_of_mutex_init 2826               __end_of_mutex_lock 1696  
i1priority_rr_scheduler@max_prio 0081                  ?_setup_hardware 0025         i1priority_rr_scheduler@i 0085  
__end_ofi1_priority_rr_scheduler 2268              __end_ofi1_scheduler 2972                     _mutex_unlock 2396  
                   ?_config_user 0025  
