Microchip MPLAB XC8 Compiler V3.10

Linker command line:

-W-3 \
  --edf=C:\Program Files\Microchip\xc8\v3.10\pic\dat\20250813170317_en.msgs \
  -cn -h+dist/default/production\RTOS-2026.production.sym \
  --cmf=dist/default/production\RTOS-2026.production.cmf -z -Q18F46K22 \
  -oC:\Users\Yuri\AppData\Local\Temp\xcAsdp4.0\driver_tmp_3.o \
  --defsym=__MPLAB_BUILD=1 --fixupoverflow=error \
  -Mdist/default/production/RTOS-2026.production.map \
  --md=C:\Users\Yuri\AppData\Local\Temp\xcAsdp4.0\driver_tmp_0.dat -E1 \
  -ver=XC8 Compiler -ACODE=00h-0FFFFh -ACONST=00h-0FFFFh \
  -ASMALLCONST=01000h-010FFhx240 -AMEDIUMCONST=01000h-0FFFFh \
  -ACOMRAM=01h-05Fh -AABS1=00h-0F37h -ABIGRAM=01h-0F37h \
  -ARAM=060h-0FFh,0100h-01FFhx14,0F00h-0F37h -ABANK0=060h-0FFh \
  -ABANK1=0100h-01FFh -ABANK2=0200h-02FFh -ABANK3=0300h-03FFh \
  -ABANK4=0400h-04FFh -ABANK5=0500h-05FFh -ABANK6=0600h-06FFh \
  -ABANK7=0700h-07FFh -ABANK8=0800h-08FFh -ABANK9=0900h-09FFh \
  -ABANK10=0A00h-0AFFh -ABANK11=0B00h-0BFFh -ABANK12=0C00h-0CFFh \
  -ABANK13=0D00h-0DFFh -ABANK14=0E00h-0EFFh -ABANK15=0F00h-0F37h \
  -ASFR=0F38h-0F5Fh,0F60h-0FFFh -ABIGSFR=0F38h-0FFFh \
  -ACONFIG=0300000h-030000Dh -AIDLOC=0200000h-0200007h \
  -AEEDATA=0F00000h-0F003FFh -peeprom_data=EEDATA \
  -preset_vec=00h,intcode=8h,intcodelo=18h,sivt_lo,sivt_hi=CODE \
  -ppowerup=CODE,init -pramtop=01000h -psmallconst=SMALLCONST \
  -pmediumconst=MEDIUMCONST -pconst=CONST -AFARRAM=00h-00h \
  -prdata=COMRAM,nvrram=COMRAM,nvbit=COMRAM,rbss=COMRAM,rbit=COMRAM \
  -pfarbss=FARRAM,fardata=FARRAM,nvFARRAM=FARRAM \
  -pintsave_regs=BIGRAM,bigbss=BIGRAM,bigdata=BIGRAM -pbss=RAM \
  -pidata=CODE,irdata=CODE,ibigdata=CODE,ifardata=CODE -prparam=COMRAM \
  C:\Users\Yuri\AppData\Local\Temp\xcAsdp4.0\driver_tmp_9.o \
  dist/default/production\RTOS-2026.production.o 

Object code version is 3.11

Machine type is 18F46K22



                Name                               Link     Load   Length Selector   Space Scale
C:\Users\Yuri\AppData\Local\Temp\xcAsdp4.0\driver_tmp_9.o
                init                                71A      71A        4        4       0
                reset_vec                             0        0        4        0       0
dist/default/production\RTOS-2026.production.o
                intcode                               8        8      712        4       0
                smallconst                         1000     1000        2      800       0
                text24                             25F8     25F8       AE      801       0
                text23                             2268     2268      12E      801       0
                text22                             2972     2972       28      801       0
                text20                             29BE     29BE       24      801       0
                text19                             2548     2548       B0      801       0
                text18                             2136     2136      132      801       0
                text17                             2948     2948       2A      801       0
                text16                             1002     1002      694      801       0
                text15                             2396     2396      102      801       0
                text14                             1696     1696      614      801       0
                text13                             299A     299A       24      801       0
                text12                             291E     291E       2A      801       0
                text11                             27EA     27EA       3C      801       0
                text10                             28C4     28C4       30      801       0
                text9                              2826     2826       3A      801       0
                text8                              2892     2892       32      801       0
                text7                              272E     272E       6E      801       0
                text6                              2860     2860       32      801       0
                text5                              2498     2498       B0      801       0
                text4                              2004     2004      132      801       0
                text3                              28F4     28F4       2A      801       0
                text2                              29E2     29E2       18      801       0
                text1                              1CAA     1CAA      35A      801       0
                text0                              26A6     26A6       88      801       0
                cstackCOMRAM                         25       25       1F        2       1
                cstackBANK0                          60       60       48       60       1
                cstackBANK1                         100      100       76      100       1
                bssBIGRAM                           176      176      3D8      176       1
                dataCOMRAM                           44       44        7        2       1
                bssCOMRAM                             2        2       23        2       1
                cinit                              279C     279C       4E      801       0
                idataCOMRAM                        29FA     29FA        7      801       0

TOTAL           Name                               Link     Load   Length     Space
        CLASS   CODE           
                intcode                               8        8      712         0
                init                                71A      71A        4         0
                reset_vec                             0        0        4         0
                text24                             25F8     25F8       AE         0
                text23                             2268     2268      12E         0
                text22                             2972     2972       28         0
                text20                             29BE     29BE       24         0
                text19                             2548     2548       B0         0
                text18                             2136     2136      132         0
                text17                             2948     2948       2A         0
                text16                             1002     1002      694         0
                text15                             2396     2396      102         0
                text14                             1696     1696      614         0
                text13                             299A     299A       24         0
                text12                             291E     291E       2A         0
                text11                             27EA     27EA       3C         0
                text10                             28C4     28C4       30         0
                text9                              2826     2826       3A         0
                text8                              2892     2892       32         0
                text7                              272E     272E       6E         0
                text6                              2860     2860       32         0
                text5                              2498     2498       B0         0
                text4                              2004     2004      132         0
                text3                              28F4     28F4       2A         0
                text2                              29E2     29E2       18         0
                text1                              1CAA     1CAA      35A         0
                text0                              26A6     26A6       88         0
                cinit                              279C     279C       4E         0
                idataCOMRAM                        29FA     29FA        7         0

        CLASS   CONST          

        CLASS   SMALLCONST     
                smallconst                         1000     1000        2         0

        CLASS   MEDIUMCONST    

        CLASS   COMRAM         
                cstackCOMRAM                         25       25       1F         1
                dataCOMRAM                           44       44        7         1
                bssCOMRAM                             2        2       23         1

        CLASS   ABS1           
                abs_s1                                1        1        1         1

        CLASS   BIGRAM         
                bssBIGRAM                           176      176      3D8         1

        CLASS   RAM            

        CLASS   BANK0          
                cstackBANK0                          60       60       48         1

        CLASS   BANK1          
                cstackBANK1                         100      100       76         1

        CLASS   BANK2          

        CLASS   BANK3          

        CLASS   BANK4          

        CLASS   BANK5          

        CLASS   BANK6          

        CLASS   BANK7          

        CLASS   BANK8          

        CLASS   BANK9          

        CLASS   BANK10         

        CLASS   BANK11         

        CLASS   BANK12         

        CLASS   BANK13         

        CLASS   BANK14         

        CLASS   BANK15         

        CLASS   SFR            

        CLASS   BIGSFR         

        CLASS   CONFIG         

        CLASS   IDLOC          

        CLASS   EEDATA         

        CLASS   FARRAM         

        CLASS   HEAP           

        CLASS   STACK          



SEGMENTS        Name                           Load    Length   Top    Selector   Space  Class

                reset_vec                      000000  000004  000004         0       0  CODE    
                bssCOMRAM                      000002  000049  00004B         2       1  COMRAM  
                intcode                        000008  000716  00071E         4       0  CODE    
                cstackBANK0                    000060  000048  0000A8        60       1  BANK0   
                cstackBANK1                    000100  000076  000176       100       1  BANK1   
                bssBIGRAM                      000176  0003D8  00054E       176       1  BIGRAM  
                smallconst                     001000  000002  001002       800       0  SMALLCON
                text16                         001002  0019FF  002A01       801       0  CODE    


UNUSED ADDRESS RANGES

        Name                Unused          Largest block    Delta
        BANK0            00A8-00FF             58
        BANK10           0A00-0AFF            100
        BANK11           0B00-0BFF            100
        BANK12           0C00-0CFF            100
        BANK13           0D00-0DFF            100
        BANK14           0E00-0EFF            100
        BANK15           0F00-0F37             38
        BANK5            054E-05FF             B2
        BANK6            0600-06FF            100
        BANK7            0700-07FF            100
        BANK8            0800-08FF            100
        BANK9            0900-09FF            100
        BIGRAM           004B-005F             15
                         00A8-00FF             58
                         054E-0F37            9EA
        BIGSFR           0F38-0FFF             C8
        CODE             0004-0007              4
                         071E-0FFF            8E2
                         2A01-FFFF           D5FF
        COMRAM           004B-005F             15
        CONFIG           300000-30000D              E
        CONST            0004-0007              4
                         071E-0FFF            8E2
                         2A01-FFFF           D5FF
        EEDATA           F00000-F003FF            400
        IDLOC            200000-200007              8
        MEDIUMCONST      2A01-FFFF           D5FF
        RAM              00A8-00FF             58
                         054E-0F37            100
        SFR              0F38-0FFF             28
        SMALLCONST       2A01-FFFF            100

                                  Symbol Table

?___awmod                        cstackBANK0  0091
?i1___awmod                      cstackBANK0  0079
?i2___awmod                      cstackCOMRAM 0025
ISR@i                            cstackCOMRAM 0042
LED_1@F6269                      dataCOMRAM   0044
_ADCON0bits                      (abs)        0FC2
_ADCON1bits                      (abs)        0FC1
_ADCON2bits                      (abs)        0FC0
_ADRES                           (abs)        0FC3
_ANSELAbits                      (abs)        0F38
_ANSELCbits                      (abs)        0F3A
_ANSELDbits                      (abs)        0F3B
_BSR                             (abs)        0FE0
_FSR0H                           (abs)        0FEA
_FSR0L                           (abs)        0FE9
_FSR1H                           (abs)        0FE2
_FSR1L                           (abs)        0FE1
_FSR2H                           (abs)        0FDA
_FSR2L                           (abs)        0FD9
_INTCONbits                      (abs)        0FF2
_ISR                             intcode      0008
_LED_1                           (abs)        0000
_LED_1_mutex                     text13       299A
_LED_1_prio                      (abs)        0000
_LED_2                           (abs)        0000
_LED_2_mutex                     text20       29BE
_LED_2_prio                      (abs)        0000
_LED_3                           (abs)        0000
_LED_3_prio                      (abs)        0000
_PCLATH                          (abs)        0FFA
_PCLATU                          (abs)        0FFB
_PORTCbits                       (abs)        0F82
_PORTDbits                       (abs)        0F83
_PRODH                           (abs)        0FF4
_PRODL                           (abs)        0FF3
_STATUS                          (abs)        0FD8
_STKPTR                          (abs)        0FFC
_T0CONbits                       (abs)        0FD5
_TABLAT                          (abs)        0FF5
_TBLPTRH                         (abs)        0FF7
_TBLPTRL                         (abs)        0FF6
_TBLPTRU                         (abs)        0FF8
_TMR0                            (abs)        0FD6
_TOSH                            (abs)        0FFE
_TOSL                            (abs)        0FFD
_TOSU                            (abs)        0FFF
_TRISAbits                       (abs)        0F92
_TRISCbits                       (abs)        0F94
_TRISDbits                       (abs)        0F95
_WREG                            (abs)        0FE8
__HRAM                           (abs)        0000
__H__absolute__                  __absolute__ 0000
__Habs1                          abs1         0000
__Hbank0                         bank0        0000
__Hbank1                         bank1        0000
__Hbank10                        bank10       0000
__Hbank11                        bank11       0000
__Hbank12                        bank12       0000
__Hbank13                        bank13       0000
__Hbank14                        bank14       0000
__Hbank15                        bank15       0000
__Hbank2                         bank2        0000
__Hbank3                         bank3        0000
__Hbank4                         bank4        0000
__Hbank5                         bank5        0000
__Hbank6                         bank6        0000
__Hbank7                         bank7        0000
__Hbank8                         bank8        0000
__Hbank9                         bank9        0000
__Hbigbss                        bigbss       0000
__Hbigdata                       bigdata      0000
__Hbigram                        bigram       0000
__Hbigsfr                        bigsfr       0000
__Hbss                           bss          0000
__HbssBIGRAM                     bssBIGRAM    0000
__HbssCOMRAM                     bssCOMRAM    0000
__Hcinit                         cinit        0000
__Hclrtext                       clrtext      0000
__Hcomram                        comram       0000
__Hconfig                        config       0000
__Hconst                         const        0000
__HcstackBANK0                   cstackBANK0  0000
__HcstackBANK1                   cstackBANK1  0000
__HcstackCOMRAM                  cstackCOMRAM 0000
__Hdata                          data         0000
__HdataCOMRAM                    dataCOMRAM   0000
__Heeprom_data                   eeprom_data  0000
__Hfarbss                        farbss       0000
__Hfardata                       fardata      0000
__Hheap                          heap         0000
__Hibigdata                      ibigdata     0000
__Hidata                         idata        0000
__HidataCOMRAM                   idataCOMRAM  0000
__Hidloc                         idloc        0000
__Hifardata                      ifardata     0000
__Hinit                          init         071E
__Hintcode                       intcode      071A
__Hintcode_body                  intcode_body 0000
__Hintcodelo                     intcodelo    0018
__Hintentry                      intentry     0000
__Hintret                        intret       0000
__Hintsave_regs                  intsave_regs 0000
__Hirdata                        irdata       0000
__Hmediumconst                   mediumconst  0000
__HnvFARRAM                      nvFARRAM     0000
__Hnvbit                         nvbit        0000
__Hnvrram                        nvrram       0000
__Hparam                         rparam       0000
__Hpowerup                       powerup      0000
__Hram                           ram          0000
__Hramtop                        ramtop       1000
__Hrbit                          rbit         0000
__Hrbss                          rbss         0000
__Hrdata                         rdata        0000
__Hreset_vec                     reset_vec    0004
__Hrparam                        rparam       0000
__Hsfr                           sfr          0000
__Hsivt_hi                       sivt_hi      0000
__Hsivt_lo                       sivt_lo      0018
__Hsmallconst                    smallconst   1002
__Hspace_0                       (abs)        2A01
__Hspace_1                       (abs)        054E
__Hspace_2                       (abs)        0000
__Hspace_4                       (abs)        0000
__Hstack                         stack        0000
__Hstruct                        struct       0000
__Htemp                          temp         0000
__Htext                          text         0000
__Htext0                         text0        0000
__Htext1                         text1        0000
__Htext10                        text10       0000
__Htext11                        text11       0000
__Htext12                        text12       0000
__Htext13                        text13       0000
__Htext14                        text14       0000
__Htext15                        text15       0000
__Htext16                        text16       0000
__Htext17                        text17       0000
__Htext18                        text18       0000
__Htext19                        text19       0000
__Htext2                         text2        0000
__Htext20                        text20       0000
__Htext22                        text22       0000
__Htext23                        text23       0000
__Htext24                        text24       0000
__Htext3                         text3        0000
__Htext4                         text4        0000
__Htext5                         text5        0000
__Htext6                         text6        0000
__Htext7                         text7        0000
__Htext8                         text8        0000
__Htext9                         text9        0000
__LRAM                           (abs)        0001
__L__absolute__                  __absolute__ 0000
__Labs1                          abs1         0000
__Lbank0                         bank0        0000
__Lbank1                         bank1        0000
__Lbank10                        bank10       0000
__Lbank11                        bank11       0000
__Lbank12                        bank12       0000
__Lbank13                        bank13       0000
__Lbank14                        bank14       0000
__Lbank15                        bank15       0000
__Lbank2                         bank2        0000
__Lbank3                         bank3        0000
__Lbank4                         bank4        0000
__Lbank5                         bank5        0000
__Lbank6                         bank6        0000
__Lbank7                         bank7        0000
__Lbank8                         bank8        0000
__Lbank9                         bank9        0000
__Lbigbss                        bigbss       0000
__Lbigdata                       bigdata      0000
__Lbigram                        bigram       0000
__Lbigsfr                        bigsfr       0000
__Lbss                           bss          0000
__LbssBIGRAM                     bssBIGRAM    0000
__LbssCOMRAM                     bssCOMRAM    0000
__Lcinit                         cinit        0000
__Lclrtext                       clrtext      0000
__Lcomram                        comram       0000
__Lconfig                        config       0000
__Lconst                         const        0000
__LcstackBANK0                   cstackBANK0  0000
__LcstackBANK1                   cstackBANK1  0000
__LcstackCOMRAM                  cstackCOMRAM 0000
__Ldata                          data         0000
__LdataCOMRAM                    dataCOMRAM   0000
__Leeprom_data                   eeprom_data  0000
__Lfarbss                        farbss       0000
__Lfardata                       fardata      0000
__Lheap                          heap         0000
__Libigdata                      ibigdata     0000
__Lidata                         idata        0000
__LidataCOMRAM                   idataCOMRAM  0000
__Lidloc                         idloc        0000
__Lifardata                      ifardata     0000
__Linit                          init         071A
__Lintcode                       intcode      0008
__Lintcode_body                  intcode_body 0000
__Lintcodelo                     intcodelo    0018
__Lintentry                      intentry     0000
__Lintret                        intret       0000
__Lintsave_regs                  intsave_regs 0000
__Lirdata                        irdata       0000
__Lmediumconst                   mediumconst  0000
__LnvFARRAM                      nvFARRAM     0000
__Lnvbit                         nvbit        0000
__Lnvrram                        nvrram       0000
__Lparam                         rparam       0000
__Lpowerup                       powerup      0000
__Lram                           ram          0000
__Lramtop                        ramtop       1000
__Lrbit                          rbit         0000
__Lrbss                          rbss         0000
__Lrdata                         rdata        0000
__Lreset_vec                     reset_vec    0000
__Lrparam                        rparam       0000
__Lsfr                           sfr          0000
__Lsivt_hi                       sivt_hi      0000
__Lsivt_lo                       sivt_lo      0018
__Lsmallconst                    smallconst   1000
__Lspace_0                       (abs)        0000
__Lspace_1                       (abs)        0000
__Lspace_2                       (abs)        0000
__Lspace_4                       (abs)        0000
__Lstack                         stack        0000
__Lstruct                        struct       0000
__Ltemp                          temp         0000
__Ltext                          text         0000
__Ltext0                         text0        0000
__Ltext1                         text1        0000
__Ltext10                        text10       0000
__Ltext11                        text11       0000
__Ltext12                        text12       0000
__Ltext13                        text13       0000
__Ltext14                        text14       0000
__Ltext15                        text15       0000
__Ltext16                        text16       0000
__Ltext17                        text17       0000
__Ltext18                        text18       0000
__Ltext19                        text19       0000
__Ltext2                         text2        0000
__Ltext20                        text20       0000
__Ltext22                        text22       0000
__Ltext23                        text23       0000
__Ltext24                        text24       0000
__Ltext3                         text3        0000
__Ltext4                         text4        0000
__Ltext5                         text5        0000
__Ltext6                         text6        0000
__Ltext7                         text7        0000
__Ltext8                         text8        0000
__Ltext9                         text9        0000
__S0                             (abs)        2A01
__S1                             (abs)        054E
__S4                             (abs)        0000
__S5                             (abs)        0000
___awmod                         text5        2498
___awmod@counter                 cstackBANK0  0095
___awmod@dividend                cstackBANK0  0091
___awmod@divisor                 cstackBANK0  0093
___awmod@sign                    cstackBANK0  0096
___heap_hi                       (abs)        0000
___heap_lo                       (abs)        0000
___inthi_sp                      stack        0000
___inthi_stack_hi                stack        0000
___inthi_stack_lo                stack        0000
___intlo_sp                      stack        0000
___intlo_stack_hi                stack        0000
___intlo_stack_lo                stack        0000
___param_bank                    (abs)        0000
___rparam_used                   (abs)        0001
___sp                            stack        0000
___stack_hi                      stack        0000
___stack_lo                      stack        0000
__accesstop                      (abs)        0060
__activetblptr                   (abs)        0002
__end_of_ISR                     intcode      071A
__end_of_LED_1_mutex             text13       29BE
__end_of_LED_2_mutex             text20       29E2
__end_of___awmod                 text5        2548
__end_of__initialization         cinit        27DC
__end_of_config_user             text8        28C4
__end_of_idle                    text12       2948
__end_of_main                    text0        272E
__end_of_mutex_init              text11       2826
__end_of_mutex_lock              text16       1696
__end_of_mutex_unlock            text15       2498
__end_of_os_config               text6        2892
__end_of_os_create_task          text7        279C
__end_of_os_delay                text14       1CAA
__end_of_os_start                text1        2004
__end_of_pipe_init               text9        2860
__end_of_priority_rr_scheduler   text4        2136
__end_of_scheduler               text3        291E
__end_of_sem_init                text10       28F4
__end_of_setup_hardware          text2        29FA
__end_ofi1___awmod               text19       25F8
__end_ofi1_priority_rr_scheduler text18       2268
__end_ofi1_scheduler             text17       2972
__end_ofi2___awmod               text24       26A6
__end_ofi2_priority_rr_scheduler text23       2396
__end_ofi2_scheduler             text22       299A
__initialization                 cinit        279C
__mediumconst                    smallconst   1000
__pbssBIGRAM                     bssBIGRAM    0176
__pbssCOMRAM                     bssCOMRAM    0002
__pcinit                         cinit        279C
__pcstackBANK0                   cstackBANK0  0060
__pcstackBANK1                   cstackBANK1  0100
__pcstackCOMRAM                  cstackCOMRAM 0025
__pdataCOMRAM                    dataCOMRAM   0044
__pidataCOMRAM                   idataCOMRAM  29FA
__pintcode                       intcode      0008
__psmallconst                    smallconst   1000
__ptext0                         text0        26A6
__ptext1                         text1        1CAA
__ptext10                        text10       28C4
__ptext11                        text11       27EA
__ptext12                        text12       291E
__ptext13                        text13       299A
__ptext14                        text14       1696
__ptext15                        text15       2396
__ptext16                        text16       1002
__ptext17                        text17       2948
__ptext18                        text18       2136
__ptext19                        text19       2548
__ptext2                         text2        29E2
__ptext20                        text20       29BE
__ptext22                        text22       2972
__ptext23                        text23       2268
__ptext24                        text24       25F8
__ptext3                         text3        28F4
__ptext4                         text4        2004
__ptext5                         text5        2498
__ptext6                         text6        2860
__ptext7                         text7        272E
__ptext8                         text8        2892
__ptext9                         text9        2826
__ramtop                         ramtop       1000
__smallconst                     smallconst   1000
__uDynamicHeap                   bssBIGRAM    0176
_config_user                     text8        2892
_idle                            text12       291E
_m_led                           bssCOMRAM    0016
_main                            text0        26A6
_mutex_init                      text11       27EA
_mutex_lock                      text16       1002
_mutex_unlock                    text15       2396
_os_config                       text6        2860
_os_create_task                  text7        272E
_os_delay                        text14       1696
_os_start                        text1        1CAA
_p                               bssCOMRAM    0002
_pipe_init                       text9        2826
_priority_rr_scheduler           text4        2004
_r_queue                         bssBIGRAM    0376
_rr_quantum                      dataCOMRAM   004A
_s                               bssCOMRAM    001E
_scheduler                       text3        28F4
_sem_init                        text10       28C4
_setup_hardware                  text2        29E2
btemp                            (abs)        0001
btemp0                           (abs)        0001
btemp1                           (abs)        0002
end_of_initialization            cinit        27DC
i1___awmod                       text19       2548
i1___awmod@counter               cstackBANK0  007D
i1___awmod@dividend              cstackBANK0  0079
i1___awmod@divisor               cstackBANK0  007B
i1___awmod@sign                  cstackBANK0  007E
i1_priority_rr_scheduler         text18       2136
i1_scheduler                     text17       2948
i1priority_rr_scheduler@current  cstackBANK0  0080
i1priority_rr_scheduler@found    cstackBANK0  0082
i1priority_rr_scheduler@i        cstackBANK0  0085
i1priority_rr_scheduler@i_1476   cstackBANK0  0083
i1priority_rr_scheduler@idx      cstackBANK0  0084
i1priority_rr_scheduler@max_prio cstackBANK0  0081
i2___awmod                       text24       25F8
i2___awmod@counter               cstackCOMRAM 0029
i2___awmod@dividend              cstackCOMRAM 0025
i2___awmod@divisor               cstackCOMRAM 0027
i2___awmod@sign                  cstackCOMRAM 002A
i2_priority_rr_scheduler         text23       2268
i2_scheduler                     text22       2972
i2priority_rr_scheduler@current  cstackCOMRAM 002C
i2priority_rr_scheduler@found    cstackCOMRAM 002E
i2priority_rr_scheduler@i        cstackCOMRAM 0031
i2priority_rr_scheduler@i_1476   cstackCOMRAM 002F
i2priority_rr_scheduler@idx      cstackCOMRAM 0030
i2priority_rr_scheduler@max_prio cstackCOMRAM 002D
int$flags                        (abs)        0001
intlevel0                        text         0000
intlevel1                        text         0000
intlevel2                        text         0000
intlevel3                        text         0000
isa$std                          (abs)        0001
isa$xinst                        (abs)        0000
mutex_init@m                     cstackBANK0  0091
mutex_lock@m                     cstackBANK0  0089
mutex_unlock@m                   cstackBANK0  007F
mutex_unlock@task_idx            cstackBANK0  0082
os_create_task@func              cstackBANK0  0091
os_create_task@id                cstackBANK1  0100
os_create_task@new_task          cstackBANK1  0101
os_create_task@prior             cstackBANK0  0093
os_delay@time                    cstackBANK0  0090
pipe_init@p                      cstackBANK0  0095
priority_rr_scheduler@current    cstackBANK0  0098
priority_rr_scheduler@found      cstackBANK0  009A
priority_rr_scheduler@i          cstackBANK0  009D
priority_rr_scheduler@i_1476     cstackBANK0  009B
priority_rr_scheduler@idx        cstackBANK0  009C
priority_rr_scheduler@max_prio   cstackBANK0  0099
sem_init@sem                     cstackBANK0  0091
sem_init@valor                   cstackBANK0  0092
stackhi                          (abs)        0000
stacklo                          (abs)        0000
start                            init         071A
start_initialization             cinit        279C


MODULE INFORMATION

Module		Function		Class		Link	Load	Size
C:\Program Files\Microchip\xc8\v3.10\pic\sources\c99\common\awmod.c
		___awmod       		CODE           	2498	0000	176

C:\Program Files\Microchip\xc8\v3.10\pic\sources\c99\common\awmod.c estimated size: 176

hw.c
		_ISR           		CODE           	0008	0000	1810
		_setup_hardware		CODE           	29E2	0000	24

hw.c estimated size: 1834

com.c
		_pipe_init     		CODE           	2826	0000	58

com.c estimated size: 58

kernel.c
		_os_config     		CODE           	2860	0000	50
		_os_start      		CODE           	1CAA	0000	858
		_idle          		CODE           	291E	0000	42
		_os_delay      		CODE           	1696	0000	1556
		_os_create_task		CODE           	272E	0000	110

kernel.c estimated size: 2616

shared
		__initialization		CODE           	279C	0000	64
		i1_priority_rr_scheduler		CODE           	2136	0000	306
		i2_priority_rr_scheduler		CODE           	2268	0000	302
		i1___awmod     		CODE           	2548	0000	176
		i2___awmod     		CODE           	25F8	0000	174
		i1_scheduler   		CODE           	2948	0000	42
		i2_scheduler   		CODE           	2972	0000	40

shared estimated size: 1104

user.c
		_LED_1_mutex   		CODE           	299A	0000	36
		_LED_2_mutex   		CODE           	29BE	0000	36
		_config_user   		CODE           	2892	0000	50

user.c estimated size: 122

scheduler.c
		_scheduler     		CODE           	28F4	0000	42
		_priority_rr_scheduler		CODE           	2004	0000	306

scheduler.c estimated size: 348

sync.c
		_mutex_lock    		CODE           	1002	0000	1684
		_mutex_unlock  		CODE           	2396	0000	258
		_sem_init      		CODE           	28C4	0000	48
		_mutex_init    		CODE           	27EA	0000	60

sync.c estimated size: 2050

main.c
		_main          		CODE           	26A6	0000	136

main.c estimated size: 136

