

Microchip MPLAB XC8 Assembler V3.10 build 20250813170317 
                                                                                               Thu May  7 11:28:17 2026

Microchip MPLAB XC8 C Compiler v3.10 (Free license) build 20250813170317 Og1 
     1                           	processor	18F46K22
     2                           	fnconf	rparam,??,?,0
     3                           	pagewidth 120
     4                           	opt	flic
     5                           	psect	idataCOMRAM,global,class=CODE,space=0,delta=1,noexec
     6                           	psect	cinit,global,reloc=2,class=CODE,space=0,delta=1
     7                           	psect	bssCOMRAM,global,class=COMRAM,space=1,delta=1,lowdata,noexec
     8                           	psect	dataCOMRAM,global,class=COMRAM,space=1,delta=1,lowdata,noexec
     9                           	psect	bssBANK0,global,class=BANK0,space=1,delta=1,lowdata,noexec
    10                           	psect	bssBANK1,global,class=BANK1,space=1,delta=1,lowdata,noexec
    11                           	psect	bssBIGRAM,global,class=BIGRAM,space=1,delta=1,noexec
    12                           	psect	cstackBANK2,global,class=BANK2,space=1,delta=1,lowdata,noexec
    13                           	psect	cstackBANK1,global,class=BANK1,space=1,delta=1,lowdata,noexec
    14                           	psect	cstackBANK0,global,class=BANK0,space=1,delta=1,lowdata,noexec
    15                           	psect	cstackCOMRAM,global,class=COMRAM,space=1,delta=1,lowdata,noexec
    16                           	psect	text0,global,reloc=2,class=CODE,space=0,delta=1
    17                           	psect	text1,global,reloc=2,class=CODE,space=0,delta=1
    18                           	psect	text2,global,reloc=2,class=CODE,space=0,delta=1
    19                           	psect	text3,global,reloc=2,class=CODE,space=0,delta=1
    20                           	psect	text4,global,reloc=2,class=CODE,space=0,delta=1
    21                           	psect	text5,global,reloc=2,class=CODE,space=0,delta=1
    22                           	psect	text6,global,reloc=2,class=CODE,space=0,delta=1
    23                           	psect	text7,global,reloc=2,class=CODE,space=0,delta=1
    24                           	psect	text8,global,reloc=2,class=CODE,space=0,delta=1
    25                           	psect	text9,global,reloc=2,class=CODE,space=0,delta=1
    26                           	psect	text10,global,reloc=2,class=CODE,space=0,delta=1
    27                           	psect	text11,global,reloc=2,class=CODE,space=0,delta=1
    28                           	psect	text12,global,reloc=2,class=CODE,space=0,delta=1
    29                           	psect	text13,global,reloc=2,class=CODE,space=0,delta=1
    30                           	psect	text14,global,reloc=2,class=CODE,space=0,delta=1
    31                           	psect	text15,global,reloc=2,class=CODE,space=0,delta=1
    32                           	psect	text16,global,reloc=2,class=CODE,space=0,delta=1
    33                           	psect	text17,global,reloc=2,class=CODE,space=0,delta=1
    34                           	psect	text18,global,reloc=2,class=CODE,space=0,delta=1,group=1
    35                           	psect	text19,global,reloc=2,class=CODE,space=0,delta=1
    36                           	psect	text20,global,reloc=2,class=CODE,space=0,delta=1
    37                           	psect	text21,global,reloc=2,class=CODE,space=0,delta=1
    38                           	psect	text22,global,reloc=2,class=CODE,space=0,delta=1
    39                           	psect	text23,global,reloc=2,class=CODE,space=0,delta=1
    40                           	psect	text24,global,reloc=2,class=CODE,space=0,delta=1
    41                           	psect	text25,global,reloc=2,class=CODE,space=0,delta=1
    42                           	psect	text26,global,reloc=2,class=CODE,space=0,delta=1
    43                           	psect	text27,global,reloc=2,class=CODE,space=0,delta=1
    44                           	psect	text28,global,reloc=2,class=CODE,space=0,delta=1
    45                           	psect	text29,global,reloc=2,class=CODE,space=0,delta=1
    46                           	psect	text30,global,reloc=2,class=CODE,space=0,delta=1
    47                           	psect	text31,global,reloc=2,class=CODE,space=0,delta=1
    48                           	psect	intcode,global,reloc=2,class=CODE,space=0,delta=1
    49                           	psect	text33,global,reloc=2,class=CODE,space=0,delta=1
    50                           	psect	text34,global,reloc=2,class=CODE,space=0,delta=1
    51                           	psect	text35,global,reloc=2,class=CODE,space=0,delta=1
    52                           	psect	smallconst,global,reloc=2,class=SMALLCONST,space=0,delta=1,noexec
    53                           	psect	intsave_regs,global,class=BIGRAM,space=1,delta=1,noexec
    54                           	psect	rparam,global,class=COMRAM,space=1,delta=1,noexec
    55                           	dabs	1,0x1,1
    56   000000                     
    57                           ; Generated 24/03/2025 GMT
    58                           ; 
    59                           ; Copyright © 2025, Microchip Technology Inc. and its subsidiaries ("Microchip")
    60                           ; All rights reserved.
    61                           ; 
    62                           ; This software is developed by Microchip Technology Inc. and its subsidiaries ("Microch
      +                          ip").
    63                           ; 
    64                           ; Redistribution and use in source and binary forms, with or without modification, are
    65                           ; permitted provided that the following conditions are met:
    66                           ; 
    67                           ;     1. Redistributions of source code must retain the above copyright notice, this lis
      +                          t of
    68                           ;        conditions and the following disclaimer.
    69                           ; 
    70                           ;     2. Redistributions in binary form must reproduce the above copyright notice, this 
      +                          list
    71                           ;        of conditions and the following disclaimer in the documentation and/or other
    72                           ;        materials provided with the distribution. Publication is not required when
    73                           ;        this file is used in an embedded application.
    74                           ; 
    75                           ;     3. Microchip's name may not be used to endorse or promote products derived from th
      +                          is
    76                           ;        software without specific prior written permission.
    77                           ; 
    78                           ; THIS SOFTWARE IS PROVIDED BY MICROCHIP "AS IS" AND ANY EXPRESS OR IMPLIED WARRANTIES,
    79                           ; INCLUDING, BUT NOT LIMITED TO, THE IMPLIED WARRANTIES OF MERCHANTABILITY AND FITNESS F
      +                          OR
    80                           ; PURPOSE ARE DISCLAIMED.  IN NO EVENT SHALL MICROCHIP BE LIABLE FOR ANY DIRECT, INDIREC
      +                          T,
    81                           ; INCIDENTAL, SPECIAL, EXEMPLARY, OR CONSEQUENTIAL DAMAGES (INCLUDING BUT NOT LIMITED TO
    82                           ; PROCUREMENT OF SUBSTITUTE GOODS OR SERVICES; LOSS OF USE, DATA OR PROFITS; OR BUSINESS
    83                           ; INTERRUPTION) HOWSOEVER CAUSED AND ON ANY THEORY OF LIABILITY, WHETHER IN CONTRACT, ST
      +                          RICT
    84                           ; LIABILITY, OR TORT (INCLUDING NEGLIGENCE OR OTHERWISE) ARISING IN ANY WAY OUT OF THE U
      +                          SE OF
    85                           ; THIS SOFTWARE, EVEN IF ADVISED OF THE POSSIBILITY OF SUCH DAMAGE.
    86                           ; 
    87                           ; 
    88                           ; Code-generator required, PIC18F46K22 Definitions
    89                           ; 
    90                           ; SFR Addresses
    91   000FE0                     bsr             equ	4064
    92   000FE9                     fsr0            equ	4073
    93   000FEA                     fsr0h           equ	4074
    94   000FE9                     fsr0l           equ	4073
    95   000FE1                     fsr1            equ	4065
    96   000FE2                     fsr1h           equ	4066
    97   000FE1                     fsr1l           equ	4065
    98   000FD9                     fsr2            equ	4057
    99   000FDA                     fsr2h           equ	4058
   100   000FD9                     fsr2l           equ	4057
   101   000FEF                     indf0           equ	4079
   102   000FE7                     indf1           equ	4071
   103   000FDF                     indf2           equ	4063
   104   000FF2                     intcon          equ	4082
   105   000000                     nvmcon          equ	0
   106   000FF9                     pcl             equ	4089
   107   000FFA                     pclath          equ	4090
   108   000FFB                     pclatu          equ	4091
   109   000FEB                     plusw0          equ	4075
   110   000FE3                     plusw1          equ	4067
   111   000FDB                     plusw2          equ	4059
   112   000FED                     postdec0        equ	4077
   113   000FE5                     postdec1        equ	4069
   114   000FDD                     postdec2        equ	4061
   115   000FEE                     postinc0        equ	4078
   116   000FE6                     postinc1        equ	4070
   117   000FDE                     postinc2        equ	4062
   118   000FEC                     preinc0         equ	4076
   119   000FE4                     preinc1         equ	4068
   120   000FDC                     preinc2         equ	4060
   121   000FF3                     prod            equ	4083
   122   000FF4                     prodh           equ	4084
   123   000FF3                     prodl           equ	4083
   124   000FD8                     status          equ	4056
   125   000FF5                     tablat          equ	4085
   126   000FF6                     tblptr          equ	4086
   127   000FF7                     tblptrh         equ	4087
   128   000FF6                     tblptrl         equ	4086
   129   000FF8                     tblptru         equ	4088
   130   000FFD                     tosl            equ	4093
   131   000FE8                     wreg            equ	4072
   132   000F38                     ANSELA          equ	3896	;# 
   133   000F39                     ANSELB          equ	3897	;# 
   134   000F3A                     ANSELC          equ	3898	;# 
   135   000F3B                     ANSELD          equ	3899	;# 
   136   000F3C                     ANSELE          equ	3900	;# 
   137   000F3D                     PMD2            equ	3901	;# 
   138   000F3E                     PMD1            equ	3902	;# 
   139   000F3F                     PMD0            equ	3903	;# 
   140   000F40                     VREFCON2        equ	3904	;# 
   141   000F40                     DACCON1         equ	3904	;# 
   142   000F41                     VREFCON1        equ	3905	;# 
   143   000F41                     DACCON0         equ	3905	;# 
   144   000F42                     VREFCON0        equ	3906	;# 
   145   000F42                     FVRCON          equ	3906	;# 
   146   000F43                     CTMUICON        equ	3907	;# 
   147   000F43                     CTMUICONH       equ	3907	;# 
   148   000F44                     CTMUCONL        equ	3908	;# 
   149   000F44                     CTMUCON1        equ	3908	;# 
   150   000F45                     CTMUCONH        equ	3909	;# 
   151   000F45                     CTMUCON0        equ	3909	;# 
   152   000F46                     SRCON1          equ	3910	;# 
   153   000F47                     SRCON0          equ	3911	;# 
   154   000F48                     CCPTMRS1        equ	3912	;# 
   155   000F49                     CCPTMRS0        equ	3913	;# 
   156   000F4A                     T6CON           equ	3914	;# 
   157   000F4B                     PR6             equ	3915	;# 
   158   000F4C                     TMR6            equ	3916	;# 
   159   000F4D                     T5GCON          equ	3917	;# 
   160   000F4E                     T5CON           equ	3918	;# 
   161   000F4F                     TMR5            equ	3919	;# 
   162   000F4F                     TMR5L           equ	3919	;# 
   163   000F50                     TMR5H           equ	3920	;# 
   164   000F51                     T4CON           equ	3921	;# 
   165   000F52                     PR4             equ	3922	;# 
   166   000F53                     TMR4            equ	3923	;# 
   167   000F54                     CCP5CON         equ	3924	;# 
   168   000F55                     CCPR5           equ	3925	;# 
   169   000F55                     CCPR5L          equ	3925	;# 
   170   000F56                     CCPR5H          equ	3926	;# 
   171   000F57                     CCP4CON         equ	3927	;# 
   172   000F58                     CCPR4           equ	3928	;# 
   173   000F58                     CCPR4L          equ	3928	;# 
   174   000F59                     CCPR4H          equ	3929	;# 
   175   000F5A                     PSTR3CON        equ	3930	;# 
   176   000F5B                     ECCP3AS         equ	3931	;# 
   177   000F5B                     CCP3AS          equ	3931	;# 
   178   000F5C                     PWM3CON         equ	3932	;# 
   179   000F5D                     CCP3CON         equ	3933	;# 
   180   000F5E                     CCPR3           equ	3934	;# 
   181   000F5E                     CCPR3L          equ	3934	;# 
   182   000F5F                     CCPR3H          equ	3935	;# 
   183   000F60                     SLRCON          equ	3936	;# 
   184   000F61                     WPUB            equ	3937	;# 
   185   000F62                     IOCB            equ	3938	;# 
   186   000F63                     PSTR2CON        equ	3939	;# 
   187   000F64                     ECCP2AS         equ	3940	;# 
   188   000F64                     CCP2AS          equ	3940	;# 
   189   000F65                     PWM2CON         equ	3941	;# 
   190   000F66                     CCP2CON         equ	3942	;# 
   191   000F67                     CCPR2           equ	3943	;# 
   192   000F67                     CCPR2L          equ	3943	;# 
   193   000F68                     CCPR2H          equ	3944	;# 
   194   000F69                     SSP2CON3        equ	3945	;# 
   195   000F6A                     SSP2MSK         equ	3946	;# 
   196   000F6B                     SSP2CON2        equ	3947	;# 
   197   000F6C                     SSP2CON1        equ	3948	;# 
   198   000F6D                     SSP2STAT        equ	3949	;# 
   199   000F6E                     SSP2ADD         equ	3950	;# 
   200   000F6F                     SSP2BUF         equ	3951	;# 
   201   000F70                     BAUDCON2        equ	3952	;# 
   202   000F70                     BAUD2CON        equ	3952	;# 
   203   000F71                     RCSTA2          equ	3953	;# 
   204   000F71                     RC2STA          equ	3953	;# 
   205   000F72                     TXSTA2          equ	3954	;# 
   206   000F72                     TX2STA          equ	3954	;# 
   207   000F73                     TXREG2          equ	3955	;# 
   208   000F73                     TX2REG          equ	3955	;# 
   209   000F74                     RCREG2          equ	3956	;# 
   210   000F74                     RC2REG          equ	3956	;# 
   211   000F75                     SPBRG2          equ	3957	;# 
   212   000F75                     SP2BRG          equ	3957	;# 
   213   000F76                     SPBRGH2         equ	3958	;# 
   214   000F76                     SP2BRGH         equ	3958	;# 
   215   000F77                     CM2CON1         equ	3959	;# 
   216   000F77                     CM12CON         equ	3959	;# 
   217   000F78                     CM2CON0         equ	3960	;# 
   218   000F78                     CM2CON          equ	3960	;# 
   219   000F79                     CM1CON0         equ	3961	;# 
   220   000F79                     CM1CON          equ	3961	;# 
   221   000F7A                     PIE4            equ	3962	;# 
   222   000F7B                     PIR4            equ	3963	;# 
   223   000F7C                     IPR4            equ	3964	;# 
   224   000F7D                     PIE5            equ	3965	;# 
   225   000F7E                     PIR5            equ	3966	;# 
   226   000F7F                     IPR5            equ	3967	;# 
   227   000F80                     PORTA           equ	3968	;# 
   228   000F81                     PORTB           equ	3969	;# 
   229   000F82                     PORTC           equ	3970	;# 
   230   000F83                     PORTD           equ	3971	;# 
   231   000F84                     PORTE           equ	3972	;# 
   232   000F89                     LATA            equ	3977	;# 
   233   000F8A                     LATB            equ	3978	;# 
   234   000F8B                     LATC            equ	3979	;# 
   235   000F8C                     LATD            equ	3980	;# 
   236   000F8D                     LATE            equ	3981	;# 
   237   000F92                     TRISA           equ	3986	;# 
   238   000F92                     DDRA            equ	3986	;# 
   239   000F93                     TRISB           equ	3987	;# 
   240   000F93                     DDRB            equ	3987	;# 
   241   000F94                     TRISC           equ	3988	;# 
   242   000F94                     DDRC            equ	3988	;# 
   243   000F95                     TRISD           equ	3989	;# 
   244   000F95                     DDRD            equ	3989	;# 
   245   000F96                     TRISE           equ	3990	;# 
   246   000F96                     DDRE            equ	3990	;# 
   247   000F9B                     OSCTUNE         equ	3995	;# 
   248   000F9C                     HLVDCON         equ	3996	;# 
   249   000F9C                     LVDCON          equ	3996	;# 
   250   000F9D                     PIE1            equ	3997	;# 
   251   000F9E                     PIR1            equ	3998	;# 
   252   000F9F                     IPR1            equ	3999	;# 
   253   000FA0                     PIE2            equ	4000	;# 
   254   000FA1                     PIR2            equ	4001	;# 
   255   000FA2                     IPR2            equ	4002	;# 
   256   000FA3                     PIE3            equ	4003	;# 
   257   000FA4                     PIR3            equ	4004	;# 
   258   000FA5                     IPR3            equ	4005	;# 
   259   000FA6                     EECON1          equ	4006	;# 
   260   000FA7                     EECON2          equ	4007	;# 
   261   000FA8                     EEDATA          equ	4008	;# 
   262   000FA9                     EEADR           equ	4009	;# 
   263   000FAA                     EEADRH          equ	4010	;# 
   264   000FAB                     RCSTA1          equ	4011	;# 
   265   000FAB                     RCSTA           equ	4011	;# 
   266   000FAB                     RC1STA          equ	4011	;# 
   267   000FAC                     TXSTA1          equ	4012	;# 
   268   000FAC                     TXSTA           equ	4012	;# 
   269   000FAC                     TX1STA          equ	4012	;# 
   270   000FAD                     TXREG1          equ	4013	;# 
   271   000FAD                     TXREG           equ	4013	;# 
   272   000FAD                     TX1REG          equ	4013	;# 
   273   000FAE                     RCREG1          equ	4014	;# 
   274   000FAE                     RCREG           equ	4014	;# 
   275   000FAE                     RC1REG          equ	4014	;# 
   276   000FAF                     SPBRG1          equ	4015	;# 
   277   000FAF                     SPBRG           equ	4015	;# 
   278   000FAF                     SP1BRG          equ	4015	;# 
   279   000FB0                     SPBRGH1         equ	4016	;# 
   280   000FB0                     SPBRGH          equ	4016	;# 
   281   000FB0                     SP1BRGH         equ	4016	;# 
   282   000FB1                     T3CON           equ	4017	;# 
   283   000FB2                     TMR3            equ	4018	;# 
   284   000FB2                     TMR3L           equ	4018	;# 
   285   000FB3                     TMR3H           equ	4019	;# 
   286   000FB4                     T3GCON          equ	4020	;# 
   287   000FB6                     ECCP1AS         equ	4022	;# 
   288   000FB6                     ECCPAS          equ	4022	;# 
   289   000FB7                     PWM1CON         equ	4023	;# 
   290   000FB7                     PWMCON          equ	4023	;# 
   291   000FB8                     BAUDCON1        equ	4024	;# 
   292   000FB8                     BAUDCON         equ	4024	;# 
   293   000FB8                     BAUDCTL         equ	4024	;# 
   294   000FB8                     BAUD1CON        equ	4024	;# 
   295   000FB9                     PSTR1CON        equ	4025	;# 
   296   000FB9                     PSTRCON         equ	4025	;# 
   297   000FBA                     T2CON           equ	4026	;# 
   298   000FBB                     PR2             equ	4027	;# 
   299   000FBC                     TMR2            equ	4028	;# 
   300   000FBD                     CCP1CON         equ	4029	;# 
   301   000FBE                     CCPR1           equ	4030	;# 
   302   000FBE                     CCPR1L          equ	4030	;# 
   303   000FBF                     CCPR1H          equ	4031	;# 
   304   000FC0                     ADCON2          equ	4032	;# 
   305   000FC1                     ADCON1          equ	4033	;# 
   306   000FC2                     ADCON0          equ	4034	;# 
   307   000FC3                     ADRES           equ	4035	;# 
   308   000FC3                     ADRESL          equ	4035	;# 
   309   000FC4                     ADRESH          equ	4036	;# 
   310   000FC5                     SSP1CON2        equ	4037	;# 
   311   000FC5                     SSPCON2         equ	4037	;# 
   312   000FC6                     SSP1CON1        equ	4038	;# 
   313   000FC6                     SSPCON1         equ	4038	;# 
   314   000FC7                     SSP1STAT        equ	4039	;# 
   315   000FC7                     SSPSTAT         equ	4039	;# 
   316   000FC8                     SSP1ADD         equ	4040	;# 
   317   000FC8                     SSPADD          equ	4040	;# 
   318   000FC9                     SSP1BUF         equ	4041	;# 
   319   000FC9                     SSPBUF          equ	4041	;# 
   320   000FCA                     SSP1MSK         equ	4042	;# 
   321   000FCA                     SSPMSK          equ	4042	;# 
   322   000FCB                     SSP1CON3        equ	4043	;# 
   323   000FCB                     SSPCON3         equ	4043	;# 
   324   000FCC                     T1GCON          equ	4044	;# 
   325   000FCD                     T1CON           equ	4045	;# 
   326   000FCE                     TMR1            equ	4046	;# 
   327   000FCE                     TMR1L           equ	4046	;# 
   328   000FCF                     TMR1H           equ	4047	;# 
   329   000FD0                     RCON            equ	4048	;# 
   330   000FD1                     WDTCON          equ	4049	;# 
   331   000FD2                     OSCCON2         equ	4050	;# 
   332   000FD3                     OSCCON          equ	4051	;# 
   333   000FD5                     T0CON           equ	4053	;# 
   334   000FD6                     TMR0            equ	4054	;# 
   335   000FD6                     TMR0L           equ	4054	;# 
   336   000FD7                     TMR0H           equ	4055	;# 
   337   000FD8                     STATUS          equ	4056	;# 
   338   000FD9                     FSR2            equ	4057	;# 
   339   000FD9                     FSR2L           equ	4057	;# 
   340   000FDA                     FSR2H           equ	4058	;# 
   341   000FDB                     PLUSW2          equ	4059	;# 
   342   000FDC                     PREINC2         equ	4060	;# 
   343   000FDD                     POSTDEC2        equ	4061	;# 
   344   000FDE                     POSTINC2        equ	4062	;# 
   345   000FDF                     INDF2           equ	4063	;# 
   346   000FE0                     BSR             equ	4064	;# 
   347   000FE1                     FSR1            equ	4065	;# 
   348   000FE1                     FSR1L           equ	4065	;# 
   349   000FE2                     FSR1H           equ	4066	;# 
   350   000FE3                     PLUSW1          equ	4067	;# 
   351   000FE4                     PREINC1         equ	4068	;# 
   352   000FE5                     POSTDEC1        equ	4069	;# 
   353   000FE6                     POSTINC1        equ	4070	;# 
   354   000FE7                     INDF1           equ	4071	;# 
   355   000FE8                     WREG            equ	4072	;# 
   356   000FE9                     FSR0            equ	4073	;# 
   357   000FE9                     FSR0L           equ	4073	;# 
   358   000FEA                     FSR0H           equ	4074	;# 
   359   000FEB                     PLUSW0          equ	4075	;# 
   360   000FEC                     PREINC0         equ	4076	;# 
   361   000FED                     POSTDEC0        equ	4077	;# 
   362   000FEE                     POSTINC0        equ	4078	;# 
   363   000FEF                     INDF0           equ	4079	;# 
   364   000FF0                     INTCON3         equ	4080	;# 
   365   000FF1                     INTCON2         equ	4081	;# 
   366   000FF2                     INTCON          equ	4082	;# 
   367   000FF3                     PROD            equ	4083	;# 
   368   000FF3                     PRODL           equ	4083	;# 
   369   000FF4                     PRODH           equ	4084	;# 
   370   000FF5                     TABLAT          equ	4085	;# 
   371   000FF6                     TBLPTR          equ	4086	;# 
   372   000FF6                     TBLPTRL         equ	4086	;# 
   373   000FF7                     TBLPTRH         equ	4087	;# 
   374   000FF8                     TBLPTRU         equ	4088	;# 
   375   000FF9                     PCLAT           equ	4089	;# 
   376   000FF9                     PC              equ	4089	;# 
   377   000FF9                     PCL             equ	4089	;# 
   378   000FFA                     PCLATH          equ	4090	;# 
   379   000FFB                     PCLATU          equ	4091	;# 
   380   000FFC                     STKPTR          equ	4092	;# 
   381   000FFD                     TOS             equ	4093	;# 
   382   000FFD                     TOSL            equ	4093	;# 
   383   000FFE                     TOSH            equ	4094	;# 
   384   000FFF                     TOSU            equ	4095	;# 
   385   000F38                     ANSELA          equ	3896	;# 
   386   000F39                     ANSELB          equ	3897	;# 
   387   000F3A                     ANSELC          equ	3898	;# 
   388   000F3B                     ANSELD          equ	3899	;# 
   389   000F3C                     ANSELE          equ	3900	;# 
   390   000F3D                     PMD2            equ	3901	;# 
   391   000F3E                     PMD1            equ	3902	;# 
   392   000F3F                     PMD0            equ	3903	;# 
   393   000F40                     VREFCON2        equ	3904	;# 
   394   000F40                     DACCON1         equ	3904	;# 
   395   000F41                     VREFCON1        equ	3905	;# 
   396   000F41                     DACCON0         equ	3905	;# 
   397   000F42                     VREFCON0        equ	3906	;# 
   398   000F42                     FVRCON          equ	3906	;# 
   399   000F43                     CTMUICON        equ	3907	;# 
   400   000F43                     CTMUICONH       equ	3907	;# 
   401   000F44                     CTMUCONL        equ	3908	;# 
   402   000F44                     CTMUCON1        equ	3908	;# 
   403   000F45                     CTMUCONH        equ	3909	;# 
   404   000F45                     CTMUCON0        equ	3909	;# 
   405   000F46                     SRCON1          equ	3910	;# 
   406   000F47                     SRCON0          equ	3911	;# 
   407   000F48                     CCPTMRS1        equ	3912	;# 
   408   000F49                     CCPTMRS0        equ	3913	;# 
   409   000F4A                     T6CON           equ	3914	;# 
   410   000F4B                     PR6             equ	3915	;# 
   411   000F4C                     TMR6            equ	3916	;# 
   412   000F4D                     T5GCON          equ	3917	;# 
   413   000F4E                     T5CON           equ	3918	;# 
   414   000F4F                     TMR5            equ	3919	;# 
   415   000F4F                     TMR5L           equ	3919	;# 
   416   000F50                     TMR5H           equ	3920	;# 
   417   000F51                     T4CON           equ	3921	;# 
   418   000F52                     PR4             equ	3922	;# 
   419   000F53                     TMR4            equ	3923	;# 
   420   000F54                     CCP5CON         equ	3924	;# 
   421   000F55                     CCPR5           equ	3925	;# 
   422   000F55                     CCPR5L          equ	3925	;# 
   423   000F56                     CCPR5H          equ	3926	;# 
   424   000F57                     CCP4CON         equ	3927	;# 
   425   000F58                     CCPR4           equ	3928	;# 
   426   000F58                     CCPR4L          equ	3928	;# 
   427   000F59                     CCPR4H          equ	3929	;# 
   428   000F5A                     PSTR3CON        equ	3930	;# 
   429   000F5B                     ECCP3AS         equ	3931	;# 
   430   000F5B                     CCP3AS          equ	3931	;# 
   431   000F5C                     PWM3CON         equ	3932	;# 
   432   000F5D                     CCP3CON         equ	3933	;# 
   433   000F5E                     CCPR3           equ	3934	;# 
   434   000F5E                     CCPR3L          equ	3934	;# 
   435   000F5F                     CCPR3H          equ	3935	;# 
   436   000F60                     SLRCON          equ	3936	;# 
   437   000F61                     WPUB            equ	3937	;# 
   438   000F62                     IOCB            equ	3938	;# 
   439   000F63                     PSTR2CON        equ	3939	;# 
   440   000F64                     ECCP2AS         equ	3940	;# 
   441   000F64                     CCP2AS          equ	3940	;# 
   442   000F65                     PWM2CON         equ	3941	;# 
   443   000F66                     CCP2CON         equ	3942	;# 
   444   000F67                     CCPR2           equ	3943	;# 
   445   000F67                     CCPR2L          equ	3943	;# 
   446   000F68                     CCPR2H          equ	3944	;# 
   447   000F69                     SSP2CON3        equ	3945	;# 
   448   000F6A                     SSP2MSK         equ	3946	;# 
   449   000F6B                     SSP2CON2        equ	3947	;# 
   450   000F6C                     SSP2CON1        equ	3948	;# 
   451   000F6D                     SSP2STAT        equ	3949	;# 
   452   000F6E                     SSP2ADD         equ	3950	;# 
   453   000F6F                     SSP2BUF         equ	3951	;# 
   454   000F70                     BAUDCON2        equ	3952	;# 
   455   000F70                     BAUD2CON        equ	3952	;# 
   456   000F71                     RCSTA2          equ	3953	;# 
   457   000F71                     RC2STA          equ	3953	;# 
   458   000F72                     TXSTA2          equ	3954	;# 
   459   000F72                     TX2STA          equ	3954	;# 
   460   000F73                     TXREG2          equ	3955	;# 
   461   000F73                     TX2REG          equ	3955	;# 
   462   000F74                     RCREG2          equ	3956	;# 
   463   000F74                     RC2REG          equ	3956	;# 
   464   000F75                     SPBRG2          equ	3957	;# 
   465   000F75                     SP2BRG          equ	3957	;# 
   466   000F76                     SPBRGH2         equ	3958	;# 
   467   000F76                     SP2BRGH         equ	3958	;# 
   468   000F77                     CM2CON1         equ	3959	;# 
   469   000F77                     CM12CON         equ	3959	;# 
   470   000F78                     CM2CON0         equ	3960	;# 
   471   000F78                     CM2CON          equ	3960	;# 
   472   000F79                     CM1CON0         equ	3961	;# 
   473   000F79                     CM1CON          equ	3961	;# 
   474   000F7A                     PIE4            equ	3962	;# 
   475   000F7B                     PIR4            equ	3963	;# 
   476   000F7C                     IPR4            equ	3964	;# 
   477   000F7D                     PIE5            equ	3965	;# 
   478   000F7E                     PIR5            equ	3966	;# 
   479   000F7F                     IPR5            equ	3967	;# 
   480   000F80                     PORTA           equ	3968	;# 
   481   000F81                     PORTB           equ	3969	;# 
   482   000F82                     PORTC           equ	3970	;# 
   483   000F83                     PORTD           equ	3971	;# 
   484   000F84                     PORTE           equ	3972	;# 
   485   000F89                     LATA            equ	3977	;# 
   486   000F8A                     LATB            equ	3978	;# 
   487   000F8B                     LATC            equ	3979	;# 
   488   000F8C                     LATD            equ	3980	;# 
   489   000F8D                     LATE            equ	3981	;# 
   490   000F92                     TRISA           equ	3986	;# 
   491   000F92                     DDRA            equ	3986	;# 
   492   000F93                     TRISB           equ	3987	;# 
   493   000F93                     DDRB            equ	3987	;# 
   494   000F94                     TRISC           equ	3988	;# 
   495   000F94                     DDRC            equ	3988	;# 
   496   000F95                     TRISD           equ	3989	;# 
   497   000F95                     DDRD            equ	3989	;# 
   498   000F96                     TRISE           equ	3990	;# 
   499   000F96                     DDRE            equ	3990	;# 
   500   000F9B                     OSCTUNE         equ	3995	;# 
   501   000F9C                     HLVDCON         equ	3996	;# 
   502   000F9C                     LVDCON          equ	3996	;# 
   503   000F9D                     PIE1            equ	3997	;# 
   504   000F9E                     PIR1            equ	3998	;# 
   505   000F9F                     IPR1            equ	3999	;# 
   506   000FA0                     PIE2            equ	4000	;# 
   507   000FA1                     PIR2            equ	4001	;# 
   508   000FA2                     IPR2            equ	4002	;# 
   509   000FA3                     PIE3            equ	4003	;# 
   510   000FA4                     PIR3            equ	4004	;# 
   511   000FA5                     IPR3            equ	4005	;# 
   512   000FA6                     EECON1          equ	4006	;# 
   513   000FA7                     EECON2          equ	4007	;# 
   514   000FA8                     EEDATA          equ	4008	;# 
   515   000FA9                     EEADR           equ	4009	;# 
   516   000FAA                     EEADRH          equ	4010	;# 
   517   000FAB                     RCSTA1          equ	4011	;# 
   518   000FAB                     RCSTA           equ	4011	;# 
   519   000FAB                     RC1STA          equ	4011	;# 
   520   000FAC                     TXSTA1          equ	4012	;# 
   521   000FAC                     TXSTA           equ	4012	;# 
   522   000FAC                     TX1STA          equ	4012	;# 
   523   000FAD                     TXREG1          equ	4013	;# 
   524   000FAD                     TXREG           equ	4013	;# 
   525   000FAD                     TX1REG          equ	4013	;# 
   526   000FAE                     RCREG1          equ	4014	;# 
   527   000FAE                     RCREG           equ	4014	;# 
   528   000FAE                     RC1REG          equ	4014	;# 
   529   000FAF                     SPBRG1          equ	4015	;# 
   530   000FAF                     SPBRG           equ	4015	;# 
   531   000FAF                     SP1BRG          equ	4015	;# 
   532   000FB0                     SPBRGH1         equ	4016	;# 
   533   000FB0                     SPBRGH          equ	4016	;# 
   534   000FB0                     SP1BRGH         equ	4016	;# 
   535   000FB1                     T3CON           equ	4017	;# 
   536   000FB2                     TMR3            equ	4018	;# 
   537   000FB2                     TMR3L           equ	4018	;# 
   538   000FB3                     TMR3H           equ	4019	;# 
   539   000FB4                     T3GCON          equ	4020	;# 
   540   000FB6                     ECCP1AS         equ	4022	;# 
   541   000FB6                     ECCPAS          equ	4022	;# 
   542   000FB7                     PWM1CON         equ	4023	;# 
   543   000FB7                     PWMCON          equ	4023	;# 
   544   000FB8                     BAUDCON1        equ	4024	;# 
   545   000FB8                     BAUDCON         equ	4024	;# 
   546   000FB8                     BAUDCTL         equ	4024	;# 
   547   000FB8                     BAUD1CON        equ	4024	;# 
   548   000FB9                     PSTR1CON        equ	4025	;# 
   549   000FB9                     PSTRCON         equ	4025	;# 
   550   000FBA                     T2CON           equ	4026	;# 
   551   000FBB                     PR2             equ	4027	;# 
   552   000FBC                     TMR2            equ	4028	;# 
   553   000FBD                     CCP1CON         equ	4029	;# 
   554   000FBE                     CCPR1           equ	4030	;# 
   555   000FBE                     CCPR1L          equ	4030	;# 
   556   000FBF                     CCPR1H          equ	4031	;# 
   557   000FC0                     ADCON2          equ	4032	;# 
   558   000FC1                     ADCON1          equ	4033	;# 
   559   000FC2                     ADCON0          equ	4034	;# 
   560   000FC3                     ADRES           equ	4035	;# 
   561   000FC3                     ADRESL          equ	4035	;# 
   562   000FC4                     ADRESH          equ	4036	;# 
   563   000FC5                     SSP1CON2        equ	4037	;# 
   564   000FC5                     SSPCON2         equ	4037	;# 
   565   000FC6                     SSP1CON1        equ	4038	;# 
   566   000FC6                     SSPCON1         equ	4038	;# 
   567   000FC7                     SSP1STAT        equ	4039	;# 
   568   000FC7                     SSPSTAT         equ	4039	;# 
   569   000FC8                     SSP1ADD         equ	4040	;# 
   570   000FC8                     SSPADD          equ	4040	;# 
   571   000FC9                     SSP1BUF         equ	4041	;# 
   572   000FC9                     SSPBUF          equ	4041	;# 
   573   000FCA                     SSP1MSK         equ	4042	;# 
   574   000FCA                     SSPMSK          equ	4042	;# 
   575   000FCB                     SSP1CON3        equ	4043	;# 
   576   000FCB                     SSPCON3         equ	4043	;# 
   577   000FCC                     T1GCON          equ	4044	;# 
   578   000FCD                     T1CON           equ	4045	;# 
   579   000FCE                     TMR1            equ	4046	;# 
   580   000FCE                     TMR1L           equ	4046	;# 
   581   000FCF                     TMR1H           equ	4047	;# 
   582   000FD0                     RCON            equ	4048	;# 
   583   000FD1                     WDTCON          equ	4049	;# 
   584   000FD2                     OSCCON2         equ	4050	;# 
   585   000FD3                     OSCCON          equ	4051	;# 
   586   000FD5                     T0CON           equ	4053	;# 
   587   000FD6                     TMR0            equ	4054	;# 
   588   000FD6                     TMR0L           equ	4054	;# 
   589   000FD7                     TMR0H           equ	4055	;# 
   590   000FD8                     STATUS          equ	4056	;# 
   591   000FD9                     FSR2            equ	4057	;# 
   592   000FD9                     FSR2L           equ	4057	;# 
   593   000FDA                     FSR2H           equ	4058	;# 
   594   000FDB                     PLUSW2          equ	4059	;# 
   595   000FDC                     PREINC2         equ	4060	;# 
   596   000FDD                     POSTDEC2        equ	4061	;# 
   597   000FDE                     POSTINC2        equ	4062	;# 
   598   000FDF                     INDF2           equ	4063	;# 
   599   000FE0                     BSR             equ	4064	;# 
   600   000FE1                     FSR1            equ	4065	;# 
   601   000FE1                     FSR1L           equ	4065	;# 
   602   000FE2                     FSR1H           equ	4066	;# 
   603   000FE3                     PLUSW1          equ	4067	;# 
   604   000FE4                     PREINC1         equ	4068	;# 
   605   000FE5                     POSTDEC1        equ	4069	;# 
   606   000FE6                     POSTINC1        equ	4070	;# 
   607   000FE7                     INDF1           equ	4071	;# 
   608   000FE8                     WREG            equ	4072	;# 
   609   000FE9                     FSR0            equ	4073	;# 
   610   000FE9                     FSR0L           equ	4073	;# 
   611   000FEA                     FSR0H           equ	4074	;# 
   612   000FEB                     PLUSW0          equ	4075	;# 
   613   000FEC                     PREINC0         equ	4076	;# 
   614   000FED                     POSTDEC0        equ	4077	;# 
   615   000FEE                     POSTINC0        equ	4078	;# 
   616   000FEF                     INDF0           equ	4079	;# 
   617   000FF0                     INTCON3         equ	4080	;# 
   618   000FF1                     INTCON2         equ	4081	;# 
   619   000FF2                     INTCON          equ	4082	;# 
   620   000FF3                     PROD            equ	4083	;# 
   621   000FF3                     PRODL           equ	4083	;# 
   622   000FF4                     PRODH           equ	4084	;# 
   623   000FF5                     TABLAT          equ	4085	;# 
   624   000FF6                     TBLPTR          equ	4086	;# 
   625   000FF6                     TBLPTRL         equ	4086	;# 
   626   000FF7                     TBLPTRH         equ	4087	;# 
   627   000FF8                     TBLPTRU         equ	4088	;# 
   628   000FF9                     PCLAT           equ	4089	;# 
   629   000FF9                     PC              equ	4089	;# 
   630   000FF9                     PCL             equ	4089	;# 
   631   000FFA                     PCLATH          equ	4090	;# 
   632   000FFB                     PCLATU          equ	4091	;# 
   633   000FFC                     STKPTR          equ	4092	;# 
   634   000FFD                     TOS             equ	4093	;# 
   635   000FFD                     TOSL            equ	4093	;# 
   636   000FFE                     TOSH            equ	4094	;# 
   637   000FFF                     TOSU            equ	4095	;# 
   638   000F38                     ANSELA          equ	3896	;# 
   639   000F39                     ANSELB          equ	3897	;# 
   640   000F3A                     ANSELC          equ	3898	;# 
   641   000F3B                     ANSELD          equ	3899	;# 
   642   000F3C                     ANSELE          equ	3900	;# 
   643   000F3D                     PMD2            equ	3901	;# 
   644   000F3E                     PMD1            equ	3902	;# 
   645   000F3F                     PMD0            equ	3903	;# 
   646   000F40                     VREFCON2        equ	3904	;# 
   647   000F40                     DACCON1         equ	3904	;# 
   648   000F41                     VREFCON1        equ	3905	;# 
   649   000F41                     DACCON0         equ	3905	;# 
   650   000F42                     VREFCON0        equ	3906	;# 
   651   000F42                     FVRCON          equ	3906	;# 
   652   000F43                     CTMUICON        equ	3907	;# 
   653   000F43                     CTMUICONH       equ	3907	;# 
   654   000F44                     CTMUCONL        equ	3908	;# 
   655   000F44                     CTMUCON1        equ	3908	;# 
   656   000F45                     CTMUCONH        equ	3909	;# 
   657   000F45                     CTMUCON0        equ	3909	;# 
   658   000F46                     SRCON1          equ	3910	;# 
   659   000F47                     SRCON0          equ	3911	;# 
   660   000F48                     CCPTMRS1        equ	3912	;# 
   661   000F49                     CCPTMRS0        equ	3913	;# 
   662   000F4A                     T6CON           equ	3914	;# 
   663   000F4B                     PR6             equ	3915	;# 
   664   000F4C                     TMR6            equ	3916	;# 
   665   000F4D                     T5GCON          equ	3917	;# 
   666   000F4E                     T5CON           equ	3918	;# 
   667   000F4F                     TMR5            equ	3919	;# 
   668   000F4F                     TMR5L           equ	3919	;# 
   669   000F50                     TMR5H           equ	3920	;# 
   670   000F51                     T4CON           equ	3921	;# 
   671   000F52                     PR4             equ	3922	;# 
   672   000F53                     TMR4            equ	3923	;# 
   673   000F54                     CCP5CON         equ	3924	;# 
   674   000F55                     CCPR5           equ	3925	;# 
   675   000F55                     CCPR5L          equ	3925	;# 
   676   000F56                     CCPR5H          equ	3926	;# 
   677   000F57                     CCP4CON         equ	3927	;# 
   678   000F58                     CCPR4           equ	3928	;# 
   679   000F58                     CCPR4L          equ	3928	;# 
   680   000F59                     CCPR4H          equ	3929	;# 
   681   000F5A                     PSTR3CON        equ	3930	;# 
   682   000F5B                     ECCP3AS         equ	3931	;# 
   683   000F5B                     CCP3AS          equ	3931	;# 
   684   000F5C                     PWM3CON         equ	3932	;# 
   685   000F5D                     CCP3CON         equ	3933	;# 
   686   000F5E                     CCPR3           equ	3934	;# 
   687   000F5E                     CCPR3L          equ	3934	;# 
   688   000F5F                     CCPR3H          equ	3935	;# 
   689   000F60                     SLRCON          equ	3936	;# 
   690   000F61                     WPUB            equ	3937	;# 
   691   000F62                     IOCB            equ	3938	;# 
   692   000F63                     PSTR2CON        equ	3939	;# 
   693   000F64                     ECCP2AS         equ	3940	;# 
   694   000F64                     CCP2AS          equ	3940	;# 
   695   000F65                     PWM2CON         equ	3941	;# 
   696   000F66                     CCP2CON         equ	3942	;# 
   697   000F67                     CCPR2           equ	3943	;# 
   698   000F67                     CCPR2L          equ	3943	;# 
   699   000F68                     CCPR2H          equ	3944	;# 
   700   000F69                     SSP2CON3        equ	3945	;# 
   701   000F6A                     SSP2MSK         equ	3946	;# 
   702   000F6B                     SSP2CON2        equ	3947	;# 
   703   000F6C                     SSP2CON1        equ	3948	;# 
   704   000F6D                     SSP2STAT        equ	3949	;# 
   705   000F6E                     SSP2ADD         equ	3950	;# 
   706   000F6F                     SSP2BUF         equ	3951	;# 
   707   000F70                     BAUDCON2        equ	3952	;# 
   708   000F70                     BAUD2CON        equ	3952	;# 
   709   000F71                     RCSTA2          equ	3953	;# 
   710   000F71                     RC2STA          equ	3953	;# 
   711   000F72                     TXSTA2          equ	3954	;# 
   712   000F72                     TX2STA          equ	3954	;# 
   713   000F73                     TXREG2          equ	3955	;# 
   714   000F73                     TX2REG          equ	3955	;# 
   715   000F74                     RCREG2          equ	3956	;# 
   716   000F74                     RC2REG          equ	3956	;# 
   717   000F75                     SPBRG2          equ	3957	;# 
   718   000F75                     SP2BRG          equ	3957	;# 
   719   000F76                     SPBRGH2         equ	3958	;# 
   720   000F76                     SP2BRGH         equ	3958	;# 
   721   000F77                     CM2CON1         equ	3959	;# 
   722   000F77                     CM12CON         equ	3959	;# 
   723   000F78                     CM2CON0         equ	3960	;# 
   724   000F78                     CM2CON          equ	3960	;# 
   725   000F79                     CM1CON0         equ	3961	;# 
   726   000F79                     CM1CON          equ	3961	;# 
   727   000F7A                     PIE4            equ	3962	;# 
   728   000F7B                     PIR4            equ	3963	;# 
   729   000F7C                     IPR4            equ	3964	;# 
   730   000F7D                     PIE5            equ	3965	;# 
   731   000F7E                     PIR5            equ	3966	;# 
   732   000F7F                     IPR5            equ	3967	;# 
   733   000F80                     PORTA           equ	3968	;# 
   734   000F81                     PORTB           equ	3969	;# 
   735   000F82                     PORTC           equ	3970	;# 
   736   000F83                     PORTD           equ	3971	;# 
   737   000F84                     PORTE           equ	3972	;# 
   738   000F89                     LATA            equ	3977	;# 
   739   000F8A                     LATB            equ	3978	;# 
   740   000F8B                     LATC            equ	3979	;# 
   741   000F8C                     LATD            equ	3980	;# 
   742   000F8D                     LATE            equ	3981	;# 
   743   000F92                     TRISA           equ	3986	;# 
   744   000F92                     DDRA            equ	3986	;# 
   745   000F93                     TRISB           equ	3987	;# 
   746   000F93                     DDRB            equ	3987	;# 
   747   000F94                     TRISC           equ	3988	;# 
   748   000F94                     DDRC            equ	3988	;# 
   749   000F95                     TRISD           equ	3989	;# 
   750   000F95                     DDRD            equ	3989	;# 
   751   000F96                     TRISE           equ	3990	;# 
   752   000F96                     DDRE            equ	3990	;# 
   753   000F9B                     OSCTUNE         equ	3995	;# 
   754   000F9C                     HLVDCON         equ	3996	;# 
   755   000F9C                     LVDCON          equ	3996	;# 
   756   000F9D                     PIE1            equ	3997	;# 
   757   000F9E                     PIR1            equ	3998	;# 
   758   000F9F                     IPR1            equ	3999	;# 
   759   000FA0                     PIE2            equ	4000	;# 
   760   000FA1                     PIR2            equ	4001	;# 
   761   000FA2                     IPR2            equ	4002	;# 
   762   000FA3                     PIE3            equ	4003	;# 
   763   000FA4                     PIR3            equ	4004	;# 
   764   000FA5                     IPR3            equ	4005	;# 
   765   000FA6                     EECON1          equ	4006	;# 
   766   000FA7                     EECON2          equ	4007	;# 
   767   000FA8                     EEDATA          equ	4008	;# 
   768   000FA9                     EEADR           equ	4009	;# 
   769   000FAA                     EEADRH          equ	4010	;# 
   770   000FAB                     RCSTA1          equ	4011	;# 
   771   000FAB                     RCSTA           equ	4011	;# 
   772   000FAB                     RC1STA          equ	4011	;# 
   773   000FAC                     TXSTA1          equ	4012	;# 
   774   000FAC                     TXSTA           equ	4012	;# 
   775   000FAC                     TX1STA          equ	4012	;# 
   776   000FAD                     TXREG1          equ	4013	;# 
   777   000FAD                     TXREG           equ	4013	;# 
   778   000FAD                     TX1REG          equ	4013	;# 
   779   000FAE                     RCREG1          equ	4014	;# 
   780   000FAE                     RCREG           equ	4014	;# 
   781   000FAE                     RC1REG          equ	4014	;# 
   782   000FAF                     SPBRG1          equ	4015	;# 
   783   000FAF                     SPBRG           equ	4015	;# 
   784   000FAF                     SP1BRG          equ	4015	;# 
   785   000FB0                     SPBRGH1         equ	4016	;# 
   786   000FB0                     SPBRGH          equ	4016	;# 
   787   000FB0                     SP1BRGH         equ	4016	;# 
   788   000FB1                     T3CON           equ	4017	;# 
   789   000FB2                     TMR3            equ	4018	;# 
   790   000FB2                     TMR3L           equ	4018	;# 
   791   000FB3                     TMR3H           equ	4019	;# 
   792   000FB4                     T3GCON          equ	4020	;# 
   793   000FB6                     ECCP1AS         equ	4022	;# 
   794   000FB6                     ECCPAS          equ	4022	;# 
   795   000FB7                     PWM1CON         equ	4023	;# 
   796   000FB7                     PWMCON          equ	4023	;# 
   797   000FB8                     BAUDCON1        equ	4024	;# 
   798   000FB8                     BAUDCON         equ	4024	;# 
   799   000FB8                     BAUDCTL         equ	4024	;# 
   800   000FB8                     BAUD1CON        equ	4024	;# 
   801   000FB9                     PSTR1CON        equ	4025	;# 
   802   000FB9                     PSTRCON         equ	4025	;# 
   803   000FBA                     T2CON           equ	4026	;# 
   804   000FBB                     PR2             equ	4027	;# 
   805   000FBC                     TMR2            equ	4028	;# 
   806   000FBD                     CCP1CON         equ	4029	;# 
   807   000FBE                     CCPR1           equ	4030	;# 
   808   000FBE                     CCPR1L          equ	4030	;# 
   809   000FBF                     CCPR1H          equ	4031	;# 
   810   000FC0                     ADCON2          equ	4032	;# 
   811   000FC1                     ADCON1          equ	4033	;# 
   812   000FC2                     ADCON0          equ	4034	;# 
   813   000FC3                     ADRES           equ	4035	;# 
   814   000FC3                     ADRESL          equ	4035	;# 
   815   000FC4                     ADRESH          equ	4036	;# 
   816   000FC5                     SSP1CON2        equ	4037	;# 
   817   000FC5                     SSPCON2         equ	4037	;# 
   818   000FC6                     SSP1CON1        equ	4038	;# 
   819   000FC6                     SSPCON1         equ	4038	;# 
   820   000FC7                     SSP1STAT        equ	4039	;# 
   821   000FC7                     SSPSTAT         equ	4039	;# 
   822   000FC8                     SSP1ADD         equ	4040	;# 
   823   000FC8                     SSPADD          equ	4040	;# 
   824   000FC9                     SSP1BUF         equ	4041	;# 
   825   000FC9                     SSPBUF          equ	4041	;# 
   826   000FCA                     SSP1MSK         equ	4042	;# 
   827   000FCA                     SSPMSK          equ	4042	;# 
   828   000FCB                     SSP1CON3        equ	4043	;# 
   829   000FCB                     SSPCON3         equ	4043	;# 
   830   000FCC                     T1GCON          equ	4044	;# 
   831   000FCD                     T1CON           equ	4045	;# 
   832   000FCE                     TMR1            equ	4046	;# 
   833   000FCE                     TMR1L           equ	4046	;# 
   834   000FCF                     TMR1H           equ	4047	;# 
   835   000FD0                     RCON            equ	4048	;# 
   836   000FD1                     WDTCON          equ	4049	;# 
   837   000FD2                     OSCCON2         equ	4050	;# 
   838   000FD3                     OSCCON          equ	4051	;# 
   839   000FD5                     T0CON           equ	4053	;# 
   840   000FD6                     TMR0            equ	4054	;# 
   841   000FD6                     TMR0L           equ	4054	;# 
   842   000FD7                     TMR0H           equ	4055	;# 
   843   000FD8                     STATUS          equ	4056	;# 
   844   000FD9                     FSR2            equ	4057	;# 
   845   000FD9                     FSR2L           equ	4057	;# 
   846   000FDA                     FSR2H           equ	4058	;# 
   847   000FDB                     PLUSW2          equ	4059	;# 
   848   000FDC                     PREINC2         equ	4060	;# 
   849   000FDD                     POSTDEC2        equ	4061	;# 
   850   000FDE                     POSTINC2        equ	4062	;# 
   851   000FDF                     INDF2           equ	4063	;# 
   852   000FE0                     BSR             equ	4064	;# 
   853   000FE1                     FSR1            equ	4065	;# 
   854   000FE1                     FSR1L           equ	4065	;# 
   855   000FE2                     FSR1H           equ	4066	;# 
   856   000FE3                     PLUSW1          equ	4067	;# 
   857   000FE4                     PREINC1         equ	4068	;# 
   858   000FE5                     POSTDEC1        equ	4069	;# 
   859   000FE6                     POSTINC1        equ	4070	;# 
   860   000FE7                     INDF1           equ	4071	;# 
   861   000FE8                     WREG            equ	4072	;# 
   862   000FE9                     FSR0            equ	4073	;# 
   863   000FE9                     FSR0L           equ	4073	;# 
   864   000FEA                     FSR0H           equ	4074	;# 
   865   000FEB                     PLUSW0          equ	4075	;# 
   866   000FEC                     PREINC0         equ	4076	;# 
   867   000FED                     POSTDEC0        equ	4077	;# 
   868   000FEE                     POSTINC0        equ	4078	;# 
   869   000FEF                     INDF0           equ	4079	;# 
   870   000FF0                     INTCON3         equ	4080	;# 
   871   000FF1                     INTCON2         equ	4081	;# 
   872   000FF2                     INTCON          equ	4082	;# 
   873   000FF3                     PROD            equ	4083	;# 
   874   000FF3                     PRODL           equ	4083	;# 
   875   000FF4                     PRODH           equ	4084	;# 
   876   000FF5                     TABLAT          equ	4085	;# 
   877   000FF6                     TBLPTR          equ	4086	;# 
   878   000FF6                     TBLPTRL         equ	4086	;# 
   879   000FF7                     TBLPTRH         equ	4087	;# 
   880   000FF8                     TBLPTRU         equ	4088	;# 
   881   000FF9                     PCLAT           equ	4089	;# 
   882   000FF9                     PC              equ	4089	;# 
   883   000FF9                     PCL             equ	4089	;# 
   884   000FFA                     PCLATH          equ	4090	;# 
   885   000FFB                     PCLATU          equ	4091	;# 
   886   000FFC                     STKPTR          equ	4092	;# 
   887   000FFD                     TOS             equ	4093	;# 
   888   000FFD                     TOSL            equ	4093	;# 
   889   000FFE                     TOSH            equ	4094	;# 
   890   000FFF                     TOSU            equ	4095	;# 
   891   000F38                     ANSELA          equ	3896	;# 
   892   000F39                     ANSELB          equ	3897	;# 
   893   000F3A                     ANSELC          equ	3898	;# 
   894   000F3B                     ANSELD          equ	3899	;# 
   895   000F3C                     ANSELE          equ	3900	;# 
   896   000F3D                     PMD2            equ	3901	;# 
   897   000F3E                     PMD1            equ	3902	;# 
   898   000F3F                     PMD0            equ	3903	;# 
   899   000F40                     VREFCON2        equ	3904	;# 
   900   000F40                     DACCON1         equ	3904	;# 
   901   000F41                     VREFCON1        equ	3905	;# 
   902   000F41                     DACCON0         equ	3905	;# 
   903   000F42                     VREFCON0        equ	3906	;# 
   904   000F42                     FVRCON          equ	3906	;# 
   905   000F43                     CTMUICON        equ	3907	;# 
   906   000F43                     CTMUICONH       equ	3907	;# 
   907   000F44                     CTMUCONL        equ	3908	;# 
   908   000F44                     CTMUCON1        equ	3908	;# 
   909   000F45                     CTMUCONH        equ	3909	;# 
   910   000F45                     CTMUCON0        equ	3909	;# 
   911   000F46                     SRCON1          equ	3910	;# 
   912   000F47                     SRCON0          equ	3911	;# 
   913   000F48                     CCPTMRS1        equ	3912	;# 
   914   000F49                     CCPTMRS0        equ	3913	;# 
   915   000F4A                     T6CON           equ	3914	;# 
   916   000F4B                     PR6             equ	3915	;# 
   917   000F4C                     TMR6            equ	3916	;# 
   918   000F4D                     T5GCON          equ	3917	;# 
   919   000F4E                     T5CON           equ	3918	;# 
   920   000F4F                     TMR5            equ	3919	;# 
   921   000F4F                     TMR5L           equ	3919	;# 
   922   000F50                     TMR5H           equ	3920	;# 
   923   000F51                     T4CON           equ	3921	;# 
   924   000F52                     PR4             equ	3922	;# 
   925   000F53                     TMR4            equ	3923	;# 
   926   000F54                     CCP5CON         equ	3924	;# 
   927   000F55                     CCPR5           equ	3925	;# 
   928   000F55                     CCPR5L          equ	3925	;# 
   929   000F56                     CCPR5H          equ	3926	;# 
   930   000F57                     CCP4CON         equ	3927	;# 
   931   000F58                     CCPR4           equ	3928	;# 
   932   000F58                     CCPR4L          equ	3928	;# 
   933   000F59                     CCPR4H          equ	3929	;# 
   934   000F5A                     PSTR3CON        equ	3930	;# 
   935   000F5B                     ECCP3AS         equ	3931	;# 
   936   000F5B                     CCP3AS          equ	3931	;# 
   937   000F5C                     PWM3CON         equ	3932	;# 
   938   000F5D                     CCP3CON         equ	3933	;# 
   939   000F5E                     CCPR3           equ	3934	;# 
   940   000F5E                     CCPR3L          equ	3934	;# 
   941   000F5F                     CCPR3H          equ	3935	;# 
   942   000F60                     SLRCON          equ	3936	;# 
   943   000F61                     WPUB            equ	3937	;# 
   944   000F62                     IOCB            equ	3938	;# 
   945   000F63                     PSTR2CON        equ	3939	;# 
   946   000F64                     ECCP2AS         equ	3940	;# 
   947   000F64                     CCP2AS          equ	3940	;# 
   948   000F65                     PWM2CON         equ	3941	;# 
   949   000F66                     CCP2CON         equ	3942	;# 
   950   000F67                     CCPR2           equ	3943	;# 
   951   000F67                     CCPR2L          equ	3943	;# 
   952   000F68                     CCPR2H          equ	3944	;# 
   953   000F69                     SSP2CON3        equ	3945	;# 
   954   000F6A                     SSP2MSK         equ	3946	;# 
   955   000F6B                     SSP2CON2        equ	3947	;# 
   956   000F6C                     SSP2CON1        equ	3948	;# 
   957   000F6D                     SSP2STAT        equ	3949	;# 
   958   000F6E                     SSP2ADD         equ	3950	;# 
   959   000F6F                     SSP2BUF         equ	3951	;# 
   960   000F70                     BAUDCON2        equ	3952	;# 
   961   000F70                     BAUD2CON        equ	3952	;# 
   962   000F71                     RCSTA2          equ	3953	;# 
   963   000F71                     RC2STA          equ	3953	;# 
   964   000F72                     TXSTA2          equ	3954	;# 
   965   000F72                     TX2STA          equ	3954	;# 
   966   000F73                     TXREG2          equ	3955	;# 
   967   000F73                     TX2REG          equ	3955	;# 
   968   000F74                     RCREG2          equ	3956	;# 
   969   000F74                     RC2REG          equ	3956	;# 
   970   000F75                     SPBRG2          equ	3957	;# 
   971   000F75                     SP2BRG          equ	3957	;# 
   972   000F76                     SPBRGH2         equ	3958	;# 
   973   000F76                     SP2BRGH         equ	3958	;# 
   974   000F77                     CM2CON1         equ	3959	;# 
   975   000F77                     CM12CON         equ	3959	;# 
   976   000F78                     CM2CON0         equ	3960	;# 
   977   000F78                     CM2CON          equ	3960	;# 
   978   000F79                     CM1CON0         equ	3961	;# 
   979   000F79                     CM1CON          equ	3961	;# 
   980   000F7A                     PIE4            equ	3962	;# 
   981   000F7B                     PIR4            equ	3963	;# 
   982   000F7C                     IPR4            equ	3964	;# 
   983   000F7D                     PIE5            equ	3965	;# 
   984   000F7E                     PIR5            equ	3966	;# 
   985   000F7F                     IPR5            equ	3967	;# 
   986   000F80                     PORTA           equ	3968	;# 
   987   000F81                     PORTB           equ	3969	;# 
   988   000F82                     PORTC           equ	3970	;# 
   989   000F83                     PORTD           equ	3971	;# 
   990   000F84                     PORTE           equ	3972	;# 
   991   000F89                     LATA            equ	3977	;# 
   992   000F8A                     LATB            equ	3978	;# 
   993   000F8B                     LATC            equ	3979	;# 
   994   000F8C                     LATD            equ	3980	;# 
   995   000F8D                     LATE            equ	3981	;# 
   996   000F92                     TRISA           equ	3986	;# 
   997   000F92                     DDRA            equ	3986	;# 
   998   000F93                     TRISB           equ	3987	;# 
   999   000F93                     DDRB            equ	3987	;# 
  1000   000F94                     TRISC           equ	3988	;# 
  1001   000F94                     DDRC            equ	3988	;# 
  1002   000F95                     TRISD           equ	3989	;# 
  1003   000F95                     DDRD            equ	3989	;# 
  1004   000F96                     TRISE           equ	3990	;# 
  1005   000F96                     DDRE            equ	3990	;# 
  1006   000F9B                     OSCTUNE         equ	3995	;# 
  1007   000F9C                     HLVDCON         equ	3996	;# 
  1008   000F9C                     LVDCON          equ	3996	;# 
  1009   000F9D                     PIE1            equ	3997	;# 
  1010   000F9E                     PIR1            equ	3998	;# 
  1011   000F9F                     IPR1            equ	3999	;# 
  1012   000FA0                     PIE2            equ	4000	;# 
  1013   000FA1                     PIR2            equ	4001	;# 
  1014   000FA2                     IPR2            equ	4002	;# 
  1015   000FA3                     PIE3            equ	4003	;# 
  1016   000FA4                     PIR3            equ	4004	;# 
  1017   000FA5                     IPR3            equ	4005	;# 
  1018   000FA6                     EECON1          equ	4006	;# 
  1019   000FA7                     EECON2          equ	4007	;# 
  1020   000FA8                     EEDATA          equ	4008	;# 
  1021   000FA9                     EEADR           equ	4009	;# 
  1022   000FAA                     EEADRH          equ	4010	;# 
  1023   000FAB                     RCSTA1          equ	4011	;# 
  1024   000FAB                     RCSTA           equ	4011	;# 
  1025   000FAB                     RC1STA          equ	4011	;# 
  1026   000FAC                     TXSTA1          equ	4012	;# 
  1027   000FAC                     TXSTA           equ	4012	;# 
  1028   000FAC                     TX1STA          equ	4012	;# 
  1029   000FAD                     TXREG1          equ	4013	;# 
  1030   000FAD                     TXREG           equ	4013	;# 
  1031   000FAD                     TX1REG          equ	4013	;# 
  1032   000FAE                     RCREG1          equ	4014	;# 
  1033   000FAE                     RCREG           equ	4014	;# 
  1034   000FAE                     RC1REG          equ	4014	;# 
  1035   000FAF                     SPBRG1          equ	4015	;# 
  1036   000FAF                     SPBRG           equ	4015	;# 
  1037   000FAF                     SP1BRG          equ	4015	;# 
  1038   000FB0                     SPBRGH1         equ	4016	;# 
  1039   000FB0                     SPBRGH          equ	4016	;# 
  1040   000FB0                     SP1BRGH         equ	4016	;# 
  1041   000FB1                     T3CON           equ	4017	;# 
  1042   000FB2                     TMR3            equ	4018	;# 
  1043   000FB2                     TMR3L           equ	4018	;# 
  1044   000FB3                     TMR3H           equ	4019	;# 
  1045   000FB4                     T3GCON          equ	4020	;# 
  1046   000FB6                     ECCP1AS         equ	4022	;# 
  1047   000FB6                     ECCPAS          equ	4022	;# 
  1048   000FB7                     PWM1CON         equ	4023	;# 
  1049   000FB7                     PWMCON          equ	4023	;# 
  1050   000FB8                     BAUDCON1        equ	4024	;# 
  1051   000FB8                     BAUDCON         equ	4024	;# 
  1052   000FB8                     BAUDCTL         equ	4024	;# 
  1053   000FB8                     BAUD1CON        equ	4024	;# 
  1054   000FB9                     PSTR1CON        equ	4025	;# 
  1055   000FB9                     PSTRCON         equ	4025	;# 
  1056   000FBA                     T2CON           equ	4026	;# 
  1057   000FBB                     PR2             equ	4027	;# 
  1058   000FBC                     TMR2            equ	4028	;# 
  1059   000FBD                     CCP1CON         equ	4029	;# 
  1060   000FBE                     CCPR1           equ	4030	;# 
  1061   000FBE                     CCPR1L          equ	4030	;# 
  1062   000FBF                     CCPR1H          equ	4031	;# 
  1063   000FC0                     ADCON2          equ	4032	;# 
  1064   000FC1                     ADCON1          equ	4033	;# 
  1065   000FC2                     ADCON0          equ	4034	;# 
  1066   000FC3                     ADRES           equ	4035	;# 
  1067   000FC3                     ADRESL          equ	4035	;# 
  1068   000FC4                     ADRESH          equ	4036	;# 
  1069   000FC5                     SSP1CON2        equ	4037	;# 
  1070   000FC5                     SSPCON2         equ	4037	;# 
  1071   000FC6                     SSP1CON1        equ	4038	;# 
  1072   000FC6                     SSPCON1         equ	4038	;# 
  1073   000FC7                     SSP1STAT        equ	4039	;# 
  1074   000FC7                     SSPSTAT         equ	4039	;# 
  1075   000FC8                     SSP1ADD         equ	4040	;# 
  1076   000FC8                     SSPADD          equ	4040	;# 
  1077   000FC9                     SSP1BUF         equ	4041	;# 
  1078   000FC9                     SSPBUF          equ	4041	;# 
  1079   000FCA                     SSP1MSK         equ	4042	;# 
  1080   000FCA                     SSPMSK          equ	4042	;# 
  1081   000FCB                     SSP1CON3        equ	4043	;# 
  1082   000FCB                     SSPCON3         equ	4043	;# 
  1083   000FCC                     T1GCON          equ	4044	;# 
  1084   000FCD                     T1CON           equ	4045	;# 
  1085   000FCE                     TMR1            equ	4046	;# 
  1086   000FCE                     TMR1L           equ	4046	;# 
  1087   000FCF                     TMR1H           equ	4047	;# 
  1088   000FD0                     RCON            equ	4048	;# 
  1089   000FD1                     WDTCON          equ	4049	;# 
  1090   000FD2                     OSCCON2         equ	4050	;# 
  1091   000FD3                     OSCCON          equ	4051	;# 
  1092   000FD5                     T0CON           equ	4053	;# 
  1093   000FD6                     TMR0            equ	4054	;# 
  1094   000FD6                     TMR0L           equ	4054	;# 
  1095   000FD7                     TMR0H           equ	4055	;# 
  1096   000FD8                     STATUS          equ	4056	;# 
  1097   000FD9                     FSR2            equ	4057	;# 
  1098   000FD9                     FSR2L           equ	4057	;# 
  1099   000FDA                     FSR2H           equ	4058	;# 
  1100   000FDB                     PLUSW2          equ	4059	;# 
  1101   000FDC                     PREINC2         equ	4060	;# 
  1102   000FDD                     POSTDEC2        equ	4061	;# 
  1103   000FDE                     POSTINC2        equ	4062	;# 
  1104   000FDF                     INDF2           equ	4063	;# 
  1105   000FE0                     BSR             equ	4064	;# 
  1106   000FE1                     FSR1            equ	4065	;# 
  1107   000FE1                     FSR1L           equ	4065	;# 
  1108   000FE2                     FSR1H           equ	4066	;# 
  1109   000FE3                     PLUSW1          equ	4067	;# 
  1110   000FE4                     PREINC1         equ	4068	;# 
  1111   000FE5                     POSTDEC1        equ	4069	;# 
  1112   000FE6                     POSTINC1        equ	4070	;# 
  1113   000FE7                     INDF1           equ	4071	;# 
  1114   000FE8                     WREG            equ	4072	;# 
  1115   000FE9                     FSR0            equ	4073	;# 
  1116   000FE9                     FSR0L           equ	4073	;# 
  1117   000FEA                     FSR0H           equ	4074	;# 
  1118   000FEB                     PLUSW0          equ	4075	;# 
  1119   000FEC                     PREINC0         equ	4076	;# 
  1120   000FED                     POSTDEC0        equ	4077	;# 
  1121   000FEE                     POSTINC0        equ	4078	;# 
  1122   000FEF                     INDF0           equ	4079	;# 
  1123   000FF0                     INTCON3         equ	4080	;# 
  1124   000FF1                     INTCON2         equ	4081	;# 
  1125   000FF2                     INTCON          equ	4082	;# 
  1126   000FF3                     PROD            equ	4083	;# 
  1127   000FF3                     PRODL           equ	4083	;# 
  1128   000FF4                     PRODH           equ	4084	;# 
  1129   000FF5                     TABLAT          equ	4085	;# 
  1130   000FF6                     TBLPTR          equ	4086	;# 
  1131   000FF6                     TBLPTRL         equ	4086	;# 
  1132   000FF7                     TBLPTRH         equ	4087	;# 
  1133   000FF8                     TBLPTRU         equ	4088	;# 
  1134   000FF9                     PCLAT           equ	4089	;# 
  1135   000FF9                     PC              equ	4089	;# 
  1136   000FF9                     PCL             equ	4089	;# 
  1137   000FFA                     PCLATH          equ	4090	;# 
  1138   000FFB                     PCLATU          equ	4091	;# 
  1139   000FFC                     STKPTR          equ	4092	;# 
  1140   000FFD                     TOS             equ	4093	;# 
  1141   000FFD                     TOSL            equ	4093	;# 
  1142   000FFE                     TOSH            equ	4094	;# 
  1143   000FFF                     TOSU            equ	4095	;# 
  1144   000F38                     ANSELA          equ	3896	;# 
  1145   000F39                     ANSELB          equ	3897	;# 
  1146   000F3A                     ANSELC          equ	3898	;# 
  1147   000F3B                     ANSELD          equ	3899	;# 
  1148   000F3C                     ANSELE          equ	3900	;# 
  1149   000F3D                     PMD2            equ	3901	;# 
  1150   000F3E                     PMD1            equ	3902	;# 
  1151   000F3F                     PMD0            equ	3903	;# 
  1152   000F40                     VREFCON2        equ	3904	;# 
  1153   000F40                     DACCON1         equ	3904	;# 
  1154   000F41                     VREFCON1        equ	3905	;# 
  1155   000F41                     DACCON0         equ	3905	;# 
  1156   000F42                     VREFCON0        equ	3906	;# 
  1157   000F42                     FVRCON          equ	3906	;# 
  1158   000F43                     CTMUICON        equ	3907	;# 
  1159   000F43                     CTMUICONH       equ	3907	;# 
  1160   000F44                     CTMUCONL        equ	3908	;# 
  1161   000F44                     CTMUCON1        equ	3908	;# 
  1162   000F45                     CTMUCONH        equ	3909	;# 
  1163   000F45                     CTMUCON0        equ	3909	;# 
  1164   000F46                     SRCON1          equ	3910	;# 
  1165   000F47                     SRCON0          equ	3911	;# 
  1166   000F48                     CCPTMRS1        equ	3912	;# 
  1167   000F49                     CCPTMRS0        equ	3913	;# 
  1168   000F4A                     T6CON           equ	3914	;# 
  1169   000F4B                     PR6             equ	3915	;# 
  1170   000F4C                     TMR6            equ	3916	;# 
  1171   000F4D                     T5GCON          equ	3917	;# 
  1172   000F4E                     T5CON           equ	3918	;# 
  1173   000F4F                     TMR5            equ	3919	;# 
  1174   000F4F                     TMR5L           equ	3919	;# 
  1175   000F50                     TMR5H           equ	3920	;# 
  1176   000F51                     T4CON           equ	3921	;# 
  1177   000F52                     PR4             equ	3922	;# 
  1178   000F53                     TMR4            equ	3923	;# 
  1179   000F54                     CCP5CON         equ	3924	;# 
  1180   000F55                     CCPR5           equ	3925	;# 
  1181   000F55                     CCPR5L          equ	3925	;# 
  1182   000F56                     CCPR5H          equ	3926	;# 
  1183   000F57                     CCP4CON         equ	3927	;# 
  1184   000F58                     CCPR4           equ	3928	;# 
  1185   000F58                     CCPR4L          equ	3928	;# 
  1186   000F59                     CCPR4H          equ	3929	;# 
  1187   000F5A                     PSTR3CON        equ	3930	;# 
  1188   000F5B                     ECCP3AS         equ	3931	;# 
  1189   000F5B                     CCP3AS          equ	3931	;# 
  1190   000F5C                     PWM3CON         equ	3932	;# 
  1191   000F5D                     CCP3CON         equ	3933	;# 
  1192   000F5E                     CCPR3           equ	3934	;# 
  1193   000F5E                     CCPR3L          equ	3934	;# 
  1194   000F5F                     CCPR3H          equ	3935	;# 
  1195   000F60                     SLRCON          equ	3936	;# 
  1196   000F61                     WPUB            equ	3937	;# 
  1197   000F62                     IOCB            equ	3938	;# 
  1198   000F63                     PSTR2CON        equ	3939	;# 
  1199   000F64                     ECCP2AS         equ	3940	;# 
  1200   000F64                     CCP2AS          equ	3940	;# 
  1201   000F65                     PWM2CON         equ	3941	;# 
  1202   000F66                     CCP2CON         equ	3942	;# 
  1203   000F67                     CCPR2           equ	3943	;# 
  1204   000F67                     CCPR2L          equ	3943	;# 
  1205   000F68                     CCPR2H          equ	3944	;# 
  1206   000F69                     SSP2CON3        equ	3945	;# 
  1207   000F6A                     SSP2MSK         equ	3946	;# 
  1208   000F6B                     SSP2CON2        equ	3947	;# 
  1209   000F6C                     SSP2CON1        equ	3948	;# 
  1210   000F6D                     SSP2STAT        equ	3949	;# 
  1211   000F6E                     SSP2ADD         equ	3950	;# 
  1212   000F6F                     SSP2BUF         equ	3951	;# 
  1213   000F70                     BAUDCON2        equ	3952	;# 
  1214   000F70                     BAUD2CON        equ	3952	;# 
  1215   000F71                     RCSTA2          equ	3953	;# 
  1216   000F71                     RC2STA          equ	3953	;# 
  1217   000F72                     TXSTA2          equ	3954	;# 
  1218   000F72                     TX2STA          equ	3954	;# 
  1219   000F73                     TXREG2          equ	3955	;# 
  1220   000F73                     TX2REG          equ	3955	;# 
  1221   000F74                     RCREG2          equ	3956	;# 
  1222   000F74                     RC2REG          equ	3956	;# 
  1223   000F75                     SPBRG2          equ	3957	;# 
  1224   000F75                     SP2BRG          equ	3957	;# 
  1225   000F76                     SPBRGH2         equ	3958	;# 
  1226   000F76                     SP2BRGH         equ	3958	;# 
  1227   000F77                     CM2CON1         equ	3959	;# 
  1228   000F77                     CM12CON         equ	3959	;# 
  1229   000F78                     CM2CON0         equ	3960	;# 
  1230   000F78                     CM2CON          equ	3960	;# 
  1231   000F79                     CM1CON0         equ	3961	;# 
  1232   000F79                     CM1CON          equ	3961	;# 
  1233   000F7A                     PIE4            equ	3962	;# 
  1234   000F7B                     PIR4            equ	3963	;# 
  1235   000F7C                     IPR4            equ	3964	;# 
  1236   000F7D                     PIE5            equ	3965	;# 
  1237   000F7E                     PIR5            equ	3966	;# 
  1238   000F7F                     IPR5            equ	3967	;# 
  1239   000F80                     PORTA           equ	3968	;# 
  1240   000F81                     PORTB           equ	3969	;# 
  1241   000F82                     PORTC           equ	3970	;# 
  1242   000F83                     PORTD           equ	3971	;# 
  1243   000F84                     PORTE           equ	3972	;# 
  1244   000F89                     LATA            equ	3977	;# 
  1245   000F8A                     LATB            equ	3978	;# 
  1246   000F8B                     LATC            equ	3979	;# 
  1247   000F8C                     LATD            equ	3980	;# 
  1248   000F8D                     LATE            equ	3981	;# 
  1249   000F92                     TRISA           equ	3986	;# 
  1250   000F92                     DDRA            equ	3986	;# 
  1251   000F93                     TRISB           equ	3987	;# 
  1252   000F93                     DDRB            equ	3987	;# 
  1253   000F94                     TRISC           equ	3988	;# 
  1254   000F94                     DDRC            equ	3988	;# 
  1255   000F95                     TRISD           equ	3989	;# 
  1256   000F95                     DDRD            equ	3989	;# 
  1257   000F96                     TRISE           equ	3990	;# 
  1258   000F96                     DDRE            equ	3990	;# 
  1259   000F9B                     OSCTUNE         equ	3995	;# 
  1260   000F9C                     HLVDCON         equ	3996	;# 
  1261   000F9C                     LVDCON          equ	3996	;# 
  1262   000F9D                     PIE1            equ	3997	;# 
  1263   000F9E                     PIR1            equ	3998	;# 
  1264   000F9F                     IPR1            equ	3999	;# 
  1265   000FA0                     PIE2            equ	4000	;# 
  1266   000FA1                     PIR2            equ	4001	;# 
  1267   000FA2                     IPR2            equ	4002	;# 
  1268   000FA3                     PIE3            equ	4003	;# 
  1269   000FA4                     PIR3            equ	4004	;# 
  1270   000FA5                     IPR3            equ	4005	;# 
  1271   000FA6                     EECON1          equ	4006	;# 
  1272   000FA7                     EECON2          equ	4007	;# 
  1273   000FA8                     EEDATA          equ	4008	;# 
  1274   000FA9                     EEADR           equ	4009	;# 
  1275   000FAA                     EEADRH          equ	4010	;# 
  1276   000FAB                     RCSTA1          equ	4011	;# 
  1277   000FAB                     RCSTA           equ	4011	;# 
  1278   000FAB                     RC1STA          equ	4011	;# 
  1279   000FAC                     TXSTA1          equ	4012	;# 
  1280   000FAC                     TXSTA           equ	4012	;# 
  1281   000FAC                     TX1STA          equ	4012	;# 
  1282   000FAD                     TXREG1          equ	4013	;# 
  1283   000FAD                     TXREG           equ	4013	;# 
  1284   000FAD                     TX1REG          equ	4013	;# 
  1285   000FAE                     RCREG1          equ	4014	;# 
  1286   000FAE                     RCREG           equ	4014	;# 
  1287   000FAE                     RC1REG          equ	4014	;# 
  1288   000FAF                     SPBRG1          equ	4015	;# 
  1289   000FAF                     SPBRG           equ	4015	;# 
  1290   000FAF                     SP1BRG          equ	4015	;# 
  1291   000FB0                     SPBRGH1         equ	4016	;# 
  1292   000FB0                     SPBRGH          equ	4016	;# 
  1293   000FB0                     SP1BRGH         equ	4016	;# 
  1294   000FB1                     T3CON           equ	4017	;# 
  1295   000FB2                     TMR3            equ	4018	;# 
  1296   000FB2                     TMR3L           equ	4018	;# 
  1297   000FB3                     TMR3H           equ	4019	;# 
  1298   000FB4                     T3GCON          equ	4020	;# 
  1299   000FB6                     ECCP1AS         equ	4022	;# 
  1300   000FB6                     ECCPAS          equ	4022	;# 
  1301   000FB7                     PWM1CON         equ	4023	;# 
  1302   000FB7                     PWMCON          equ	4023	;# 
  1303   000FB8                     BAUDCON1        equ	4024	;# 
  1304   000FB8                     BAUDCON         equ	4024	;# 
  1305   000FB8                     BAUDCTL         equ	4024	;# 
  1306   000FB8                     BAUD1CON        equ	4024	;# 
  1307   000FB9                     PSTR1CON        equ	4025	;# 
  1308   000FB9                     PSTRCON         equ	4025	;# 
  1309   000FBA                     T2CON           equ	4026	;# 
  1310   000FBB                     PR2             equ	4027	;# 
  1311   000FBC                     TMR2            equ	4028	;# 
  1312   000FBD                     CCP1CON         equ	4029	;# 
  1313   000FBE                     CCPR1           equ	4030	;# 
  1314   000FBE                     CCPR1L          equ	4030	;# 
  1315   000FBF                     CCPR1H          equ	4031	;# 
  1316   000FC0                     ADCON2          equ	4032	;# 
  1317   000FC1                     ADCON1          equ	4033	;# 
  1318   000FC2                     ADCON0          equ	4034	;# 
  1319   000FC3                     ADRES           equ	4035	;# 
  1320   000FC3                     ADRESL          equ	4035	;# 
  1321   000FC4                     ADRESH          equ	4036	;# 
  1322   000FC5                     SSP1CON2        equ	4037	;# 
  1323   000FC5                     SSPCON2         equ	4037	;# 
  1324   000FC6                     SSP1CON1        equ	4038	;# 
  1325   000FC6                     SSPCON1         equ	4038	;# 
  1326   000FC7                     SSP1STAT        equ	4039	;# 
  1327   000FC7                     SSPSTAT         equ	4039	;# 
  1328   000FC8                     SSP1ADD         equ	4040	;# 
  1329   000FC8                     SSPADD          equ	4040	;# 
  1330   000FC9                     SSP1BUF         equ	4041	;# 
  1331   000FC9                     SSPBUF          equ	4041	;# 
  1332   000FCA                     SSP1MSK         equ	4042	;# 
  1333   000FCA                     SSPMSK          equ	4042	;# 
  1334   000FCB                     SSP1CON3        equ	4043	;# 
  1335   000FCB                     SSPCON3         equ	4043	;# 
  1336   000FCC                     T1GCON          equ	4044	;# 
  1337   000FCD                     T1CON           equ	4045	;# 
  1338   000FCE                     TMR1            equ	4046	;# 
  1339   000FCE                     TMR1L           equ	4046	;# 
  1340   000FCF                     TMR1H           equ	4047	;# 
  1341   000FD0                     RCON            equ	4048	;# 
  1342   000FD1                     WDTCON          equ	4049	;# 
  1343   000FD2                     OSCCON2         equ	4050	;# 
  1344   000FD3                     OSCCON          equ	4051	;# 
  1345   000FD5                     T0CON           equ	4053	;# 
  1346   000FD6                     TMR0            equ	4054	;# 
  1347   000FD6                     TMR0L           equ	4054	;# 
  1348   000FD7                     TMR0H           equ	4055	;# 
  1349   000FD8                     STATUS          equ	4056	;# 
  1350   000FD9                     FSR2            equ	4057	;# 
  1351   000FD9                     FSR2L           equ	4057	;# 
  1352   000FDA                     FSR2H           equ	4058	;# 
  1353   000FDB                     PLUSW2          equ	4059	;# 
  1354   000FDC                     PREINC2         equ	4060	;# 
  1355   000FDD                     POSTDEC2        equ	4061	;# 
  1356   000FDE                     POSTINC2        equ	4062	;# 
  1357   000FDF                     INDF2           equ	4063	;# 
  1358   000FE0                     BSR             equ	4064	;# 
  1359   000FE1                     FSR1            equ	4065	;# 
  1360   000FE1                     FSR1L           equ	4065	;# 
  1361   000FE2                     FSR1H           equ	4066	;# 
  1362   000FE3                     PLUSW1          equ	4067	;# 
  1363   000FE4                     PREINC1         equ	4068	;# 
  1364   000FE5                     POSTDEC1        equ	4069	;# 
  1365   000FE6                     POSTINC1        equ	4070	;# 
  1366   000FE7                     INDF1           equ	4071	;# 
  1367   000FE8                     WREG            equ	4072	;# 
  1368   000FE9                     FSR0            equ	4073	;# 
  1369   000FE9                     FSR0L           equ	4073	;# 
  1370   000FEA                     FSR0H           equ	4074	;# 
  1371   000FEB                     PLUSW0          equ	4075	;# 
  1372   000FEC                     PREINC0         equ	4076	;# 
  1373   000FED                     POSTDEC0        equ	4077	;# 
  1374   000FEE                     POSTINC0        equ	4078	;# 
  1375   000FEF                     INDF0           equ	4079	;# 
  1376   000FF0                     INTCON3         equ	4080	;# 
  1377   000FF1                     INTCON2         equ	4081	;# 
  1378   000FF2                     INTCON          equ	4082	;# 
  1379   000FF3                     PROD            equ	4083	;# 
  1380   000FF3                     PRODL           equ	4083	;# 
  1381   000FF4                     PRODH           equ	4084	;# 
  1382   000FF5                     TABLAT          equ	4085	;# 
  1383   000FF6                     TBLPTR          equ	4086	;# 
  1384   000FF6                     TBLPTRL         equ	4086	;# 
  1385   000FF7                     TBLPTRH         equ	4087	;# 
  1386   000FF8                     TBLPTRU         equ	4088	;# 
  1387   000FF9                     PCLAT           equ	4089	;# 
  1388   000FF9                     PC              equ	4089	;# 
  1389   000FF9                     PCL             equ	4089	;# 
  1390   000FFA                     PCLATH          equ	4090	;# 
  1391   000FFB                     PCLATU          equ	4091	;# 
  1392   000FFC                     STKPTR          equ	4092	;# 
  1393   000FFD                     TOS             equ	4093	;# 
  1394   000FFD                     TOSL            equ	4093	;# 
  1395   000FFE                     TOSH            equ	4094	;# 
  1396   000FFF                     TOSU            equ	4095	;# 
  1397   000F38                     ANSELA          equ	3896	;# 
  1398   000F39                     ANSELB          equ	3897	;# 
  1399   000F3A                     ANSELC          equ	3898	;# 
  1400   000F3B                     ANSELD          equ	3899	;# 
  1401   000F3C                     ANSELE          equ	3900	;# 
  1402   000F3D                     PMD2            equ	3901	;# 
  1403   000F3E                     PMD1            equ	3902	;# 
  1404   000F3F                     PMD0            equ	3903	;# 
  1405   000F40                     VREFCON2        equ	3904	;# 
  1406   000F40                     DACCON1         equ	3904	;# 
  1407   000F41                     VREFCON1        equ	3905	;# 
  1408   000F41                     DACCON0         equ	3905	;# 
  1409   000F42                     VREFCON0        equ	3906	;# 
  1410   000F42                     FVRCON          equ	3906	;# 
  1411   000F43                     CTMUICON        equ	3907	;# 
  1412   000F43                     CTMUICONH       equ	3907	;# 
  1413   000F44                     CTMUCONL        equ	3908	;# 
  1414   000F44                     CTMUCON1        equ	3908	;# 
  1415   000F45                     CTMUCONH        equ	3909	;# 
  1416   000F45                     CTMUCON0        equ	3909	;# 
  1417   000F46                     SRCON1          equ	3910	;# 
  1418   000F47                     SRCON0          equ	3911	;# 
  1419   000F48                     CCPTMRS1        equ	3912	;# 
  1420   000F49                     CCPTMRS0        equ	3913	;# 
  1421   000F4A                     T6CON           equ	3914	;# 
  1422   000F4B                     PR6             equ	3915	;# 
  1423   000F4C                     TMR6            equ	3916	;# 
  1424   000F4D                     T5GCON          equ	3917	;# 
  1425   000F4E                     T5CON           equ	3918	;# 
  1426   000F4F                     TMR5            equ	3919	;# 
  1427   000F4F                     TMR5L           equ	3919	;# 
  1428   000F50                     TMR5H           equ	3920	;# 
  1429   000F51                     T4CON           equ	3921	;# 
  1430   000F52                     PR4             equ	3922	;# 
  1431   000F53                     TMR4            equ	3923	;# 
  1432   000F54                     CCP5CON         equ	3924	;# 
  1433   000F55                     CCPR5           equ	3925	;# 
  1434   000F55                     CCPR5L          equ	3925	;# 
  1435   000F56                     CCPR5H          equ	3926	;# 
  1436   000F57                     CCP4CON         equ	3927	;# 
  1437   000F58                     CCPR4           equ	3928	;# 
  1438   000F58                     CCPR4L          equ	3928	;# 
  1439   000F59                     CCPR4H          equ	3929	;# 
  1440   000F5A                     PSTR3CON        equ	3930	;# 
  1441   000F5B                     ECCP3AS         equ	3931	;# 
  1442   000F5B                     CCP3AS          equ	3931	;# 
  1443   000F5C                     PWM3CON         equ	3932	;# 
  1444   000F5D                     CCP3CON         equ	3933	;# 
  1445   000F5E                     CCPR3           equ	3934	;# 
  1446   000F5E                     CCPR3L          equ	3934	;# 
  1447   000F5F                     CCPR3H          equ	3935	;# 
  1448   000F60                     SLRCON          equ	3936	;# 
  1449   000F61                     WPUB            equ	3937	;# 
  1450   000F62                     IOCB            equ	3938	;# 
  1451   000F63                     PSTR2CON        equ	3939	;# 
  1452   000F64                     ECCP2AS         equ	3940	;# 
  1453   000F64                     CCP2AS          equ	3940	;# 
  1454   000F65                     PWM2CON         equ	3941	;# 
  1455   000F66                     CCP2CON         equ	3942	;# 
  1456   000F67                     CCPR2           equ	3943	;# 
  1457   000F67                     CCPR2L          equ	3943	;# 
  1458   000F68                     CCPR2H          equ	3944	;# 
  1459   000F69                     SSP2CON3        equ	3945	;# 
  1460   000F6A                     SSP2MSK         equ	3946	;# 
  1461   000F6B                     SSP2CON2        equ	3947	;# 
  1462   000F6C                     SSP2CON1        equ	3948	;# 
  1463   000F6D                     SSP2STAT        equ	3949	;# 
  1464   000F6E                     SSP2ADD         equ	3950	;# 
  1465   000F6F                     SSP2BUF         equ	3951	;# 
  1466   000F70                     BAUDCON2        equ	3952	;# 
  1467   000F70                     BAUD2CON        equ	3952	;# 
  1468   000F71                     RCSTA2          equ	3953	;# 
  1469   000F71                     RC2STA          equ	3953	;# 
  1470   000F72                     TXSTA2          equ	3954	;# 
  1471   000F72                     TX2STA          equ	3954	;# 
  1472   000F73                     TXREG2          equ	3955	;# 
  1473   000F73                     TX2REG          equ	3955	;# 
  1474   000F74                     RCREG2          equ	3956	;# 
  1475   000F74                     RC2REG          equ	3956	;# 
  1476   000F75                     SPBRG2          equ	3957	;# 
  1477   000F75                     SP2BRG          equ	3957	;# 
  1478   000F76                     SPBRGH2         equ	3958	;# 
  1479   000F76                     SP2BRGH         equ	3958	;# 
  1480   000F77                     CM2CON1         equ	3959	;# 
  1481   000F77                     CM12CON         equ	3959	;# 
  1482   000F78                     CM2CON0         equ	3960	;# 
  1483   000F78                     CM2CON          equ	3960	;# 
  1484   000F79                     CM1CON0         equ	3961	;# 
  1485   000F79                     CM1CON          equ	3961	;# 
  1486   000F7A                     PIE4            equ	3962	;# 
  1487   000F7B                     PIR4            equ	3963	;# 
  1488   000F7C                     IPR4            equ	3964	;# 
  1489   000F7D                     PIE5            equ	3965	;# 
  1490   000F7E                     PIR5            equ	3966	;# 
  1491   000F7F                     IPR5            equ	3967	;# 
  1492   000F80                     PORTA           equ	3968	;# 
  1493   000F81                     PORTB           equ	3969	;# 
  1494   000F82                     PORTC           equ	3970	;# 
  1495   000F83                     PORTD           equ	3971	;# 
  1496   000F84                     PORTE           equ	3972	;# 
  1497   000F89                     LATA            equ	3977	;# 
  1498   000F8A                     LATB            equ	3978	;# 
  1499   000F8B                     LATC            equ	3979	;# 
  1500   000F8C                     LATD            equ	3980	;# 
  1501   000F8D                     LATE            equ	3981	;# 
  1502   000F92                     TRISA           equ	3986	;# 
  1503   000F92                     DDRA            equ	3986	;# 
  1504   000F93                     TRISB           equ	3987	;# 
  1505   000F93                     DDRB            equ	3987	;# 
  1506   000F94                     TRISC           equ	3988	;# 
  1507   000F94                     DDRC            equ	3988	;# 
  1508   000F95                     TRISD           equ	3989	;# 
  1509   000F95                     DDRD            equ	3989	;# 
  1510   000F96                     TRISE           equ	3990	;# 
  1511   000F96                     DDRE            equ	3990	;# 
  1512   000F9B                     OSCTUNE         equ	3995	;# 
  1513   000F9C                     HLVDCON         equ	3996	;# 
  1514   000F9C                     LVDCON          equ	3996	;# 
  1515   000F9D                     PIE1            equ	3997	;# 
  1516   000F9E                     PIR1            equ	3998	;# 
  1517   000F9F                     IPR1            equ	3999	;# 
  1518   000FA0                     PIE2            equ	4000	;# 
  1519   000FA1                     PIR2            equ	4001	;# 
  1520   000FA2                     IPR2            equ	4002	;# 
  1521   000FA3                     PIE3            equ	4003	;# 
  1522   000FA4                     PIR3            equ	4004	;# 
  1523   000FA5                     IPR3            equ	4005	;# 
  1524   000FA6                     EECON1          equ	4006	;# 
  1525   000FA7                     EECON2          equ	4007	;# 
  1526   000FA8                     EEDATA          equ	4008	;# 
  1527   000FA9                     EEADR           equ	4009	;# 
  1528   000FAA                     EEADRH          equ	4010	;# 
  1529   000FAB                     RCSTA1          equ	4011	;# 
  1530   000FAB                     RCSTA           equ	4011	;# 
  1531   000FAB                     RC1STA          equ	4011	;# 
  1532   000FAC                     TXSTA1          equ	4012	;# 
  1533   000FAC                     TXSTA           equ	4012	;# 
  1534   000FAC                     TX1STA          equ	4012	;# 
  1535   000FAD                     TXREG1          equ	4013	;# 
  1536   000FAD                     TXREG           equ	4013	;# 
  1537   000FAD                     TX1REG          equ	4013	;# 
  1538   000FAE                     RCREG1          equ	4014	;# 
  1539   000FAE                     RCREG           equ	4014	;# 
  1540   000FAE                     RC1REG          equ	4014	;# 
  1541   000FAF                     SPBRG1          equ	4015	;# 
  1542   000FAF                     SPBRG           equ	4015	;# 
  1543   000FAF                     SP1BRG          equ	4015	;# 
  1544   000FB0                     SPBRGH1         equ	4016	;# 
  1545   000FB0                     SPBRGH          equ	4016	;# 
  1546   000FB0                     SP1BRGH         equ	4016	;# 
  1547   000FB1                     T3CON           equ	4017	;# 
  1548   000FB2                     TMR3            equ	4018	;# 
  1549   000FB2                     TMR3L           equ	4018	;# 
  1550   000FB3                     TMR3H           equ	4019	;# 
  1551   000FB4                     T3GCON          equ	4020	;# 
  1552   000FB6                     ECCP1AS         equ	4022	;# 
  1553   000FB6                     ECCPAS          equ	4022	;# 
  1554   000FB7                     PWM1CON         equ	4023	;# 
  1555   000FB7                     PWMCON          equ	4023	;# 
  1556   000FB8                     BAUDCON1        equ	4024	;# 
  1557   000FB8                     BAUDCON         equ	4024	;# 
  1558   000FB8                     BAUDCTL         equ	4024	;# 
  1559   000FB8                     BAUD1CON        equ	4024	;# 
  1560   000FB9                     PSTR1CON        equ	4025	;# 
  1561   000FB9                     PSTRCON         equ	4025	;# 
  1562   000FBA                     T2CON           equ	4026	;# 
  1563   000FBB                     PR2             equ	4027	;# 
  1564   000FBC                     TMR2            equ	4028	;# 
  1565   000FBD                     CCP1CON         equ	4029	;# 
  1566   000FBE                     CCPR1           equ	4030	;# 
  1567   000FBE                     CCPR1L          equ	4030	;# 
  1568   000FBF                     CCPR1H          equ	4031	;# 
  1569   000FC0                     ADCON2          equ	4032	;# 
  1570   000FC1                     ADCON1          equ	4033	;# 
  1571   000FC2                     ADCON0          equ	4034	;# 
  1572   000FC3                     ADRES           equ	4035	;# 
  1573   000FC3                     ADRESL          equ	4035	;# 
  1574   000FC4                     ADRESH          equ	4036	;# 
  1575   000FC5                     SSP1CON2        equ	4037	;# 
  1576   000FC5                     SSPCON2         equ	4037	;# 
  1577   000FC6                     SSP1CON1        equ	4038	;# 
  1578   000FC6                     SSPCON1         equ	4038	;# 
  1579   000FC7                     SSP1STAT        equ	4039	;# 
  1580   000FC7                     SSPSTAT         equ	4039	;# 
  1581   000FC8                     SSP1ADD         equ	4040	;# 
  1582   000FC8                     SSPADD          equ	4040	;# 
  1583   000FC9                     SSP1BUF         equ	4041	;# 
  1584   000FC9                     SSPBUF          equ	4041	;# 
  1585   000FCA                     SSP1MSK         equ	4042	;# 
  1586   000FCA                     SSPMSK          equ	4042	;# 
  1587   000FCB                     SSP1CON3        equ	4043	;# 
  1588   000FCB                     SSPCON3         equ	4043	;# 
  1589   000FCC                     T1GCON          equ	4044	;# 
  1590   000FCD                     T1CON           equ	4045	;# 
  1591   000FCE                     TMR1            equ	4046	;# 
  1592   000FCE                     TMR1L           equ	4046	;# 
  1593   000FCF                     TMR1H           equ	4047	;# 
  1594   000FD0                     RCON            equ	4048	;# 
  1595   000FD1                     WDTCON          equ	4049	;# 
  1596   000FD2                     OSCCON2         equ	4050	;# 
  1597   000FD3                     OSCCON          equ	4051	;# 
  1598   000FD5                     T0CON           equ	4053	;# 
  1599   000FD6                     TMR0            equ	4054	;# 
  1600   000FD6                     TMR0L           equ	4054	;# 
  1601   000FD7                     TMR0H           equ	4055	;# 
  1602   000FD8                     STATUS          equ	4056	;# 
  1603   000FD9                     FSR2            equ	4057	;# 
  1604   000FD9                     FSR2L           equ	4057	;# 
  1605   000FDA                     FSR2H           equ	4058	;# 
  1606   000FDB                     PLUSW2          equ	4059	;# 
  1607   000FDC                     PREINC2         equ	4060	;# 
  1608   000FDD                     POSTDEC2        equ	4061	;# 
  1609   000FDE                     POSTINC2        equ	4062	;# 
  1610   000FDF                     INDF2           equ	4063	;# 
  1611   000FE0                     BSR             equ	4064	;# 
  1612   000FE1                     FSR1            equ	4065	;# 
  1613   000FE1                     FSR1L           equ	4065	;# 
  1614   000FE2                     FSR1H           equ	4066	;# 
  1615   000FE3                     PLUSW1          equ	4067	;# 
  1616   000FE4                     PREINC1         equ	4068	;# 
  1617   000FE5                     POSTDEC1        equ	4069	;# 
  1618   000FE6                     POSTINC1        equ	4070	;# 
  1619   000FE7                     INDF1           equ	4071	;# 
  1620   000FE8                     WREG            equ	4072	;# 
  1621   000FE9                     FSR0            equ	4073	;# 
  1622   000FE9                     FSR0L           equ	4073	;# 
  1623   000FEA                     FSR0H           equ	4074	;# 
  1624   000FEB                     PLUSW0          equ	4075	;# 
  1625   000FEC                     PREINC0         equ	4076	;# 
  1626   000FED                     POSTDEC0        equ	4077	;# 
  1627   000FEE                     POSTINC0        equ	4078	;# 
  1628   000FEF                     INDF0           equ	4079	;# 
  1629   000FF0                     INTCON3         equ	4080	;# 
  1630   000FF1                     INTCON2         equ	4081	;# 
  1631   000FF2                     INTCON          equ	4082	;# 
  1632   000FF3                     PROD            equ	4083	;# 
  1633   000FF3                     PRODL           equ	4083	;# 
  1634   000FF4                     PRODH           equ	4084	;# 
  1635   000FF5                     TABLAT          equ	4085	;# 
  1636   000FF6                     TBLPTR          equ	4086	;# 
  1637   000FF6                     TBLPTRL         equ	4086	;# 
  1638   000FF7                     TBLPTRH         equ	4087	;# 
  1639   000FF8                     TBLPTRU         equ	4088	;# 
  1640   000FF9                     PCLAT           equ	4089	;# 
  1641   000FF9                     PC              equ	4089	;# 
  1642   000FF9                     PCL             equ	4089	;# 
  1643   000FFA                     PCLATH          equ	4090	;# 
  1644   000FFB                     PCLATU          equ	4091	;# 
  1645   000FFC                     STKPTR          equ	4092	;# 
  1646   000FFD                     TOS             equ	4093	;# 
  1647   000FFD                     TOSL            equ	4093	;# 
  1648   000FFE                     TOSH            equ	4094	;# 
  1649   000FFF                     TOSU            equ	4095	;# 
  1650   000F38                     ANSELA          equ	3896	;# 
  1651   000F39                     ANSELB          equ	3897	;# 
  1652   000F3A                     ANSELC          equ	3898	;# 
  1653   000F3B                     ANSELD          equ	3899	;# 
  1654   000F3C                     ANSELE          equ	3900	;# 
  1655   000F3D                     PMD2            equ	3901	;# 
  1656   000F3E                     PMD1            equ	3902	;# 
  1657   000F3F                     PMD0            equ	3903	;# 
  1658   000F40                     VREFCON2        equ	3904	;# 
  1659   000F40                     DACCON1         equ	3904	;# 
  1660   000F41                     VREFCON1        equ	3905	;# 
  1661   000F41                     DACCON0         equ	3905	;# 
  1662   000F42                     VREFCON0        equ	3906	;# 
  1663   000F42                     FVRCON          equ	3906	;# 
  1664   000F43                     CTMUICON        equ	3907	;# 
  1665   000F43                     CTMUICONH       equ	3907	;# 
  1666   000F44                     CTMUCONL        equ	3908	;# 
  1667   000F44                     CTMUCON1        equ	3908	;# 
  1668   000F45                     CTMUCONH        equ	3909	;# 
  1669   000F45                     CTMUCON0        equ	3909	;# 
  1670   000F46                     SRCON1          equ	3910	;# 
  1671   000F47                     SRCON0          equ	3911	;# 
  1672   000F48                     CCPTMRS1        equ	3912	;# 
  1673   000F49                     CCPTMRS0        equ	3913	;# 
  1674   000F4A                     T6CON           equ	3914	;# 
  1675   000F4B                     PR6             equ	3915	;# 
  1676   000F4C                     TMR6            equ	3916	;# 
  1677   000F4D                     T5GCON          equ	3917	;# 
  1678   000F4E                     T5CON           equ	3918	;# 
  1679   000F4F                     TMR5            equ	3919	;# 
  1680   000F4F                     TMR5L           equ	3919	;# 
  1681   000F50                     TMR5H           equ	3920	;# 
  1682   000F51                     T4CON           equ	3921	;# 
  1683   000F52                     PR4             equ	3922	;# 
  1684   000F53                     TMR4            equ	3923	;# 
  1685   000F54                     CCP5CON         equ	3924	;# 
  1686   000F55                     CCPR5           equ	3925	;# 
  1687   000F55                     CCPR5L          equ	3925	;# 
  1688   000F56                     CCPR5H          equ	3926	;# 
  1689   000F57                     CCP4CON         equ	3927	;# 
  1690   000F58                     CCPR4           equ	3928	;# 
  1691   000F58                     CCPR4L          equ	3928	;# 
  1692   000F59                     CCPR4H          equ	3929	;# 
  1693   000F5A                     PSTR3CON        equ	3930	;# 
  1694   000F5B                     ECCP3AS         equ	3931	;# 
  1695   000F5B                     CCP3AS          equ	3931	;# 
  1696   000F5C                     PWM3CON         equ	3932	;# 
  1697   000F5D                     CCP3CON         equ	3933	;# 
  1698   000F5E                     CCPR3           equ	3934	;# 
  1699   000F5E                     CCPR3L          equ	3934	;# 
  1700   000F5F                     CCPR3H          equ	3935	;# 
  1701   000F60                     SLRCON          equ	3936	;# 
  1702   000F61                     WPUB            equ	3937	;# 
  1703   000F62                     IOCB            equ	3938	;# 
  1704   000F63                     PSTR2CON        equ	3939	;# 
  1705   000F64                     ECCP2AS         equ	3940	;# 
  1706   000F64                     CCP2AS          equ	3940	;# 
  1707   000F65                     PWM2CON         equ	3941	;# 
  1708   000F66                     CCP2CON         equ	3942	;# 
  1709   000F67                     CCPR2           equ	3943	;# 
  1710   000F67                     CCPR2L          equ	3943	;# 
  1711   000F68                     CCPR2H          equ	3944	;# 
  1712   000F69                     SSP2CON3        equ	3945	;# 
  1713   000F6A                     SSP2MSK         equ	3946	;# 
  1714   000F6B                     SSP2CON2        equ	3947	;# 
  1715   000F6C                     SSP2CON1        equ	3948	;# 
  1716   000F6D                     SSP2STAT        equ	3949	;# 
  1717   000F6E                     SSP2ADD         equ	3950	;# 
  1718   000F6F                     SSP2BUF         equ	3951	;# 
  1719   000F70                     BAUDCON2        equ	3952	;# 
  1720   000F70                     BAUD2CON        equ	3952	;# 
  1721   000F71                     RCSTA2          equ	3953	;# 
  1722   000F71                     RC2STA          equ	3953	;# 
  1723   000F72                     TXSTA2          equ	3954	;# 
  1724   000F72                     TX2STA          equ	3954	;# 
  1725   000F73                     TXREG2          equ	3955	;# 
  1726   000F73                     TX2REG          equ	3955	;# 
  1727   000F74                     RCREG2          equ	3956	;# 
  1728   000F74                     RC2REG          equ	3956	;# 
  1729   000F75                     SPBRG2          equ	3957	;# 
  1730   000F75                     SP2BRG          equ	3957	;# 
  1731   000F76                     SPBRGH2         equ	3958	;# 
  1732   000F76                     SP2BRGH         equ	3958	;# 
  1733   000F77                     CM2CON1         equ	3959	;# 
  1734   000F77                     CM12CON         equ	3959	;# 
  1735   000F78                     CM2CON0         equ	3960	;# 
  1736   000F78                     CM2CON          equ	3960	;# 
  1737   000F79                     CM1CON0         equ	3961	;# 
  1738   000F79                     CM1CON          equ	3961	;# 
  1739   000F7A                     PIE4            equ	3962	;# 
  1740   000F7B                     PIR4            equ	3963	;# 
  1741   000F7C                     IPR4            equ	3964	;# 
  1742   000F7D                     PIE5            equ	3965	;# 
  1743   000F7E                     PIR5            equ	3966	;# 
  1744   000F7F                     IPR5            equ	3967	;# 
  1745   000F80                     PORTA           equ	3968	;# 
  1746   000F81                     PORTB           equ	3969	;# 
  1747   000F82                     PORTC           equ	3970	;# 
  1748   000F83                     PORTD           equ	3971	;# 
  1749   000F84                     PORTE           equ	3972	;# 
  1750   000F89                     LATA            equ	3977	;# 
  1751   000F8A                     LATB            equ	3978	;# 
  1752   000F8B                     LATC            equ	3979	;# 
  1753   000F8C                     LATD            equ	3980	;# 
  1754   000F8D                     LATE            equ	3981	;# 
  1755   000F92                     TRISA           equ	3986	;# 
  1756   000F92                     DDRA            equ	3986	;# 
  1757   000F93                     TRISB           equ	3987	;# 
  1758   000F93                     DDRB            equ	3987	;# 
  1759   000F94                     TRISC           equ	3988	;# 
  1760   000F94                     DDRC            equ	3988	;# 
  1761   000F95                     TRISD           equ	3989	;# 
  1762   000F95                     DDRD            equ	3989	;# 
  1763   000F96                     TRISE           equ	3990	;# 
  1764   000F96                     DDRE            equ	3990	;# 
  1765   000F9B                     OSCTUNE         equ	3995	;# 
  1766   000F9C                     HLVDCON         equ	3996	;# 
  1767   000F9C                     LVDCON          equ	3996	;# 
  1768   000F9D                     PIE1            equ	3997	;# 
  1769   000F9E                     PIR1            equ	3998	;# 
  1770   000F9F                     IPR1            equ	3999	;# 
  1771   000FA0                     PIE2            equ	4000	;# 
  1772   000FA1                     PIR2            equ	4001	;# 
  1773   000FA2                     IPR2            equ	4002	;# 
  1774   000FA3                     PIE3            equ	4003	;# 
  1775   000FA4                     PIR3            equ	4004	;# 
  1776   000FA5                     IPR3            equ	4005	;# 
  1777   000FA6                     EECON1          equ	4006	;# 
  1778   000FA7                     EECON2          equ	4007	;# 
  1779   000FA8                     EEDATA          equ	4008	;# 
  1780   000FA9                     EEADR           equ	4009	;# 
  1781   000FAA                     EEADRH          equ	4010	;# 
  1782   000FAB                     RCSTA1          equ	4011	;# 
  1783   000FAB                     RCSTA           equ	4011	;# 
  1784   000FAB                     RC1STA          equ	4011	;# 
  1785   000FAC                     TXSTA1          equ	4012	;# 
  1786   000FAC                     TXSTA           equ	4012	;# 
  1787   000FAC                     TX1STA          equ	4012	;# 
  1788   000FAD                     TXREG1          equ	4013	;# 
  1789   000FAD                     TXREG           equ	4013	;# 
  1790   000FAD                     TX1REG          equ	4013	;# 
  1791   000FAE                     RCREG1          equ	4014	;# 
  1792   000FAE                     RCREG           equ	4014	;# 
  1793   000FAE                     RC1REG          equ	4014	;# 
  1794   000FAF                     SPBRG1          equ	4015	;# 
  1795   000FAF                     SPBRG           equ	4015	;# 
  1796   000FAF                     SP1BRG          equ	4015	;# 
  1797   000FB0                     SPBRGH1         equ	4016	;# 
  1798   000FB0                     SPBRGH          equ	4016	;# 
  1799   000FB0                     SP1BRGH         equ	4016	;# 
  1800   000FB1                     T3CON           equ	4017	;# 
  1801   000FB2                     TMR3            equ	4018	;# 
  1802   000FB2                     TMR3L           equ	4018	;# 
  1803   000FB3                     TMR3H           equ	4019	;# 
  1804   000FB4                     T3GCON          equ	4020	;# 
  1805   000FB6                     ECCP1AS         equ	4022	;# 
  1806   000FB6                     ECCPAS          equ	4022	;# 
  1807   000FB7                     PWM1CON         equ	4023	;# 
  1808   000FB7                     PWMCON          equ	4023	;# 
  1809   000FB8                     BAUDCON1        equ	4024	;# 
  1810   000FB8                     BAUDCON         equ	4024	;# 
  1811   000FB8                     BAUDCTL         equ	4024	;# 
  1812   000FB8                     BAUD1CON        equ	4024	;# 
  1813   000FB9                     PSTR1CON        equ	4025	;# 
  1814   000FB9                     PSTRCON         equ	4025	;# 
  1815   000FBA                     T2CON           equ	4026	;# 
  1816   000FBB                     PR2             equ	4027	;# 
  1817   000FBC                     TMR2            equ	4028	;# 
  1818   000FBD                     CCP1CON         equ	4029	;# 
  1819   000FBE                     CCPR1           equ	4030	;# 
  1820   000FBE                     CCPR1L          equ	4030	;# 
  1821   000FBF                     CCPR1H          equ	4031	;# 
  1822   000FC0                     ADCON2          equ	4032	;# 
  1823   000FC1                     ADCON1          equ	4033	;# 
  1824   000FC2                     ADCON0          equ	4034	;# 
  1825   000FC3                     ADRES           equ	4035	;# 
  1826   000FC3                     ADRESL          equ	4035	;# 
  1827   000FC4                     ADRESH          equ	4036	;# 
  1828   000FC5                     SSP1CON2        equ	4037	;# 
  1829   000FC5                     SSPCON2         equ	4037	;# 
  1830   000FC6                     SSP1CON1        equ	4038	;# 
  1831   000FC6                     SSPCON1         equ	4038	;# 
  1832   000FC7                     SSP1STAT        equ	4039	;# 
  1833   000FC7                     SSPSTAT         equ	4039	;# 
  1834   000FC8                     SSP1ADD         equ	4040	;# 
  1835   000FC8                     SSPADD          equ	4040	;# 
  1836   000FC9                     SSP1BUF         equ	4041	;# 
  1837   000FC9                     SSPBUF          equ	4041	;# 
  1838   000FCA                     SSP1MSK         equ	4042	;# 
  1839   000FCA                     SSPMSK          equ	4042	;# 
  1840   000FCB                     SSP1CON3        equ	4043	;# 
  1841   000FCB                     SSPCON3         equ	4043	;# 
  1842   000FCC                     T1GCON          equ	4044	;# 
  1843   000FCD                     T1CON           equ	4045	;# 
  1844   000FCE                     TMR1            equ	4046	;# 
  1845   000FCE                     TMR1L           equ	4046	;# 
  1846   000FCF                     TMR1H           equ	4047	;# 
  1847   000FD0                     RCON            equ	4048	;# 
  1848   000FD1                     WDTCON          equ	4049	;# 
  1849   000FD2                     OSCCON2         equ	4050	;# 
  1850   000FD3                     OSCCON          equ	4051	;# 
  1851   000FD5                     T0CON           equ	4053	;# 
  1852   000FD6                     TMR0            equ	4054	;# 
  1853   000FD6                     TMR0L           equ	4054	;# 
  1854   000FD7                     TMR0H           equ	4055	;# 
  1855   000FD8                     STATUS          equ	4056	;# 
  1856   000FD9                     FSR2            equ	4057	;# 
  1857   000FD9                     FSR2L           equ	4057	;# 
  1858   000FDA                     FSR2H           equ	4058	;# 
  1859   000FDB                     PLUSW2          equ	4059	;# 
  1860   000FDC                     PREINC2         equ	4060	;# 
  1861   000FDD                     POSTDEC2        equ	4061	;# 
  1862   000FDE                     POSTINC2        equ	4062	;# 
  1863   000FDF                     INDF2           equ	4063	;# 
  1864   000FE0                     BSR             equ	4064	;# 
  1865   000FE1                     FSR1            equ	4065	;# 
  1866   000FE1                     FSR1L           equ	4065	;# 
  1867   000FE2                     FSR1H           equ	4066	;# 
  1868   000FE3                     PLUSW1          equ	4067	;# 
  1869   000FE4                     PREINC1         equ	4068	;# 
  1870   000FE5                     POSTDEC1        equ	4069	;# 
  1871   000FE6                     POSTINC1        equ	4070	;# 
  1872   000FE7                     INDF1           equ	4071	;# 
  1873   000FE8                     WREG            equ	4072	;# 
  1874   000FE9                     FSR0            equ	4073	;# 
  1875   000FE9                     FSR0L           equ	4073	;# 
  1876   000FEA                     FSR0H           equ	4074	;# 
  1877   000FEB                     PLUSW0          equ	4075	;# 
  1878   000FEC                     PREINC0         equ	4076	;# 
  1879   000FED                     POSTDEC0        equ	4077	;# 
  1880   000FEE                     POSTINC0        equ	4078	;# 
  1881   000FEF                     INDF0           equ	4079	;# 
  1882   000FF0                     INTCON3         equ	4080	;# 
  1883   000FF1                     INTCON2         equ	4081	;# 
  1884   000FF2                     INTCON          equ	4082	;# 
  1885   000FF3                     PROD            equ	4083	;# 
  1886   000FF3                     PRODL           equ	4083	;# 
  1887   000FF4                     PRODH           equ	4084	;# 
  1888   000FF5                     TABLAT          equ	4085	;# 
  1889   000FF6                     TBLPTR          equ	4086	;# 
  1890   000FF6                     TBLPTRL         equ	4086	;# 
  1891   000FF7                     TBLPTRH         equ	4087	;# 
  1892   000FF8                     TBLPTRU         equ	4088	;# 
  1893   000FF9                     PCLAT           equ	4089	;# 
  1894   000FF9                     PC              equ	4089	;# 
  1895   000FF9                     PCL             equ	4089	;# 
  1896   000FFA                     PCLATH          equ	4090	;# 
  1897   000FFB                     PCLATU          equ	4091	;# 
  1898   000FFC                     STKPTR          equ	4092	;# 
  1899   000FFD                     TOS             equ	4093	;# 
  1900   000FFD                     TOSL            equ	4093	;# 
  1901   000FFE                     TOSH            equ	4094	;# 
  1902   000FFF                     TOSU            equ	4095	;# 
  1903                           
  1904                           	psect	idataCOMRAM
  1905   002F8A                     __pidataCOMRAM:
  1906                           	callstack 0
  1907                           
  1908                           ;initializer for _rr_quantum
  1909   002F8A  14                 	db	20
  1910   000F3A                     _ANSELCbits     set	3898
  1911   000F3B                     _ANSELDbits     set	3899
  1912   000F39                     _ANSELBbits     set	3897
  1913   000F38                     _ANSELAbits     set	3896
  1914   000FD6                     _TMR0           set	4054
  1915   000FD5                     _T0CONbits      set	4053
  1916   000F8C                     _LATDbits       set	3980
  1917   000F8C                     _LATD           set	3980
  1918   000FF1                     _INTCON2bits    set	4081
  1919   000F95                     _TRISDbits      set	3989
  1920   000F93                     _TRISBbits      set	3987
  1921   000F95                     _TRISD          set	3989
  1922   000FBD                     _CCP1CONbits    set	4029
  1923   000FBE                     _CCPR1L         set	4030
  1924   000FBA                     _T2CON          set	4026
  1925   000FBD                     _CCP1CON        set	4029
  1926   000FBB                     _PR2            set	4027
  1927   000FC3                     _ADRESL         set	4035
  1928   000FC4                     _ADRESH         set	4036
  1929   000F92                     _TRISAbits      set	3986
  1930   000FC0                     _ADCON2bits     set	4032
  1931   000FC1                     _ADCON1bits     set	4033
  1932   000FC2                     _ADCON0bits     set	4034
  1933   000F82                     _PORTCbits      set	3970
  1934   000F94                     _TRISCbits      set	3988
  1935   000FFC                     _STKPTR         set	4092
  1936   000FFF                     _TOSU           set	4095
  1937   000FFE                     _TOSH           set	4094
  1938   000FFD                     _TOSL           set	4093
  1939   000FE9                     _FSR0L          set	4073
  1940   000FEA                     _FSR0H          set	4074
  1941   000FD8                     _STATUS         set	4056
  1942   000FE8                     _WREG           set	4072
  1943   000FE0                     _BSR            set	4064
  1944   000FF2                     _INTCONbits     set	4082
  1945                           
  1946                           ; #config settings
  1947                           
  1948                           	psect	cinit
  1949   002C34                     __pcinit:
  1950                           	callstack 0
  1951   002C34                     start_initialization:
  1952                           	callstack 0
  1953   002C34                     __initialization:
  1954                           	callstack 0
  1955                           
  1956                           ; Initialize objects allocated to COMRAM (1 bytes)
  1957                           ; load TBLPTR registers with __pidataCOMRAM
  1958   002C34  0E8A               	movlw	low __pidataCOMRAM
  1959   002C36  6EF6               	movwf	tblptrl,c
  1960   002C38  0E2F               	movlw	high __pidataCOMRAM
  1961   002C3A  6EF7               	movwf	tblptrh,c
  1962   002C3C  0E00               	movlw	low (__pidataCOMRAM shr (0+16))
  1963   002C3E  6EF8               	movwf	tblptru,c
  1964   002C40  0009               	tblrd		*+	;fetch initializer
  1965   002C42  CFF5 F020          	movff	tablat,__pdataCOMRAM
  1966                           
  1967                           ; Clear objects allocated to BIGRAM (512 bytes)
  1968   002C46  EE02  F05C         	lfsr	0,__pbssBIGRAM
  1969   002C4A  EE12 F000          	lfsr	1,512
  1970   002C4E                     clear_0:
  1971   002C4E  6AEE               	clrf	postinc0,c
  1972   002C50  50E5               	movf	postdec1,w,c
  1973   002C52  50E1               	movf	fsr1l,w,c
  1974   002C54  E1FC               	bnz	clear_0
  1975   002C56  50E2               	movf	fsr1h,w,c
  1976   002C58  E1FA               	bnz	clear_0
  1977                           
  1978                           ; Clear objects allocated to BANK1 (212 bytes)
  1979   002C5A  EE01  F000         	lfsr	0,__pbssBANK1
  1980   002C5E  0ED4               	movlw	212
  1981   002C60                     clear_1:
  1982   002C60  6AEE               	clrf	postinc0,c
  1983   002C62  06E8               	decf	wreg,f,c
  1984   002C64  E1FD               	bnz	clear_1
  1985                           
  1986                           ; Clear objects allocated to BANK0 (41 bytes)
  1987   002C66  EE00  F060         	lfsr	0,__pbssBANK0
  1988   002C6A  0E29               	movlw	41
  1989   002C6C                     clear_2:
  1990   002C6C  6AEE               	clrf	postinc0,c
  1991   002C6E  06E8               	decf	wreg,f,c
  1992   002C70  E1FD               	bnz	clear_2
  1993                           
  1994                           ; Clear objects allocated to COMRAM (10 bytes)
  1995   002C72  EE00  F016         	lfsr	0,__pbssCOMRAM
  1996   002C76  0E0A               	movlw	10
  1997   002C78                     clear_3:
  1998   002C78  6AEE               	clrf	postinc0,c
  1999   002C7A  06E8               	decf	wreg,f,c
  2000   002C7C  E1FD               	bnz	clear_3
  2001   002C7E                     end_of_initialization:
  2002                           	callstack 0
  2003   002C7E                     __end_of__initialization:
  2004                           	callstack 0
  2005   002C7E  9001               	bcf	int$flags,0,c	;clear compiler interrupt flag (level 1)
  2006   002C80  9201               	bcf	int$flags,1,c	;clear compiler interrupt flag (level 2)
  2007   002C82  0100               	movlb	0
  2008   002C84  EFEA  F015         	goto	_main	;jump to C main() function
  2009                           
  2010                           	psect	bssCOMRAM
  2011   000016                     __pbssCOMRAM:
  2012                           	callstack 0
  2013   000016                     priority_rr_scheduler@idx:
  2014                           	callstack 0
  2015   000016                     	ds	1
  2016   000017                     priority_rr_scheduler@current:
  2017                           	callstack 0
  2018   000017                     	ds	1
  2019   000018                     priority_rr_scheduler@i:
  2020                           	callstack 0
  2021   000018                     	ds	1
  2022   000019                     priority_rr_scheduler@found:
  2023                           	callstack 0
  2024   000019                     	ds	1
  2025   00001A                     priority_rr_scheduler@max_prio:
  2026                           	callstack 0
  2027   00001A                     	ds	1
  2028   00001B                     priority_scheduler@current_task:
  2029                           	callstack 0
  2030   00001B                     	ds	1
  2031   00001C                     priority_scheduler@prox:
  2032                           	callstack 0
  2033   00001C                     	ds	1
  2034   00001D                     priority_scheduler@i:
  2035                           	callstack 0
  2036   00001D                     	ds	1
  2037   00001E                     RR_scheduler@tentativas:
  2038                           	callstack 0
  2039   00001E                     	ds	1
  2040   00001F                     RR_scheduler@prox:
  2041                           	callstack 0
  2042   00001F                     	ds	1
  2043                           
  2044                           	psect	dataCOMRAM
  2045   000020                     __pdataCOMRAM:
  2046                           	callstack 0
  2047   000020                     _rr_quantum:
  2048                           	callstack 0
  2049   000020                     	ds	1
  2050                           
  2051                           	psect	bssBANK0
  2052   000060                     __pbssBANK0:
  2053                           	callstack 0
  2054   000060                     _dado_processado:
  2055                           	callstack 0
  2056   000060                     	ds	1
  2057   000061                     _pipe_adc:
  2058                           	callstack 0
  2059   000061                     	ds	22
  2060   000077                     _mutex_recurso:
  2061                           	callstack 0
  2062   000077                     	ds	10
  2063   000081                     _sem_processamento:
  2064                           	callstack 0
  2065   000081                     	ds	8
  2066                           
  2067                           	psect	bssBANK1
  2068   000100                     __pbssBANK1:
  2069                           	callstack 0
  2070   000100                     _r_queue:
  2071                           	callstack 0
  2072   000100                     	ds	212
  2073                           
  2074                           	psect	bssBIGRAM
  2075   00025C                     __pbssBIGRAM:
  2076                           	callstack 0
  2077   00025C                     __uDynamicHeap:
  2078                           	callstack 0
  2079   00025C                     	ds	512
  2080                           
  2081                           	psect	cstackBANK2
  2082   000200                     __pcstackBANK2:
  2083                           	callstack 0
  2084   000200                     	ds	46
  2085   00022E                     ?___awmod:
  2086                           	callstack 0
  2087   00022E                     ___awmod@dividend:
  2088                           	callstack 0
  2089                           
  2090                           ; 2 bytes @ 0x2E
  2091   00022E                     	ds	2
  2092   000230                     ___awmod@divisor:
  2093                           	callstack 0
  2094                           
  2095                           ; 2 bytes @ 0x30
  2096   000230                     	ds	2
  2097   000232                     ??_sem_post:
  2098                           
  2099                           ; 1 bytes @ 0x32
  2100   000232                     	ds	4
  2101   000236                     pipe_read@p:
  2102                           	callstack 0
  2103                           
  2104                           ; 1 bytes @ 0x36
  2105   000236                     	ds	1
  2106   000237                     pipe_read@dado:
  2107                           	callstack 0
  2108                           
  2109                           ; 2 bytes @ 0x37
  2110   000237                     	ds	2
  2111   000239                     ??_pipe_read:
  2112                           
  2113                           ; 1 bytes @ 0x39
  2114   000239                     	ds	1
  2115   00023A                     tarefaProcessamento@dado:
  2116                           	callstack 0
  2117                           
  2118                           ; 1 bytes @ 0x3A
  2119   00023A                     	ds	1
  2120   00023B                     mutex_unlock@m:
  2121                           	callstack 0
  2122   00023B                     pwm_set_duty@duty:
  2123                           	callstack 0
  2124                           
  2125                           ; 2 bytes @ 0x3B
  2126   00023B                     	ds	1
  2127   00023C                     sem_wait@sem:
  2128                           	callstack 0
  2129   00023C                     mutex_lock@m:
  2130                           	callstack 0
  2131   00023C                     ??_mutex_unlock:
  2132                           
  2133                           ; 1 bytes @ 0x3C
  2134   00023C                     	ds	1
  2135   00023D                     ??_sem_wait:
  2136   00023D                     ??_mutex_lock:
  2137   00023D                     ??_pwm_set_duty:
  2138                           
  2139                           ; 1 bytes @ 0x3D
  2140   00023D                     	ds	1
  2141   00023E                     mutex_unlock@task_idx:
  2142                           	callstack 0
  2143                           
  2144                           ; 1 bytes @ 0x3E
  2145   00023E                     	ds	4
  2146   000242                     ??_tarefaControlePWM:
  2147                           
  2148                           ; 1 bytes @ 0x42
  2149   000242                     	ds	9
  2150   00024B                     ??_tarefaFeedbackLED:
  2151                           
  2152                           ; 1 bytes @ 0x4B
  2153   00024B                     	ds	1
  2154   00024C                     ??i1_priority_rr_scheduler:
  2155                           
  2156                           ; 1 bytes @ 0x4C
  2157   00024C                     	ds	1
  2158   00024D                     os_task_change_state@task_handle:
  2159                           	callstack 0
  2160   00024D                     ??_os_delay:
  2161                           
  2162                           ; 1 bytes @ 0x4D
  2163   00024D                     	ds	2
  2164   00024F                     ??_os_task_change_state:
  2165                           
  2166                           ; 1 bytes @ 0x4F
  2167   00024F                     	ds	3
  2168   000252                     os_delay@time:
  2169                           	callstack 0
  2170                           
  2171                           ; 1 bytes @ 0x52
  2172   000252                     	ds	2
  2173   000254                     os_task_change_state@new_state:
  2174                           	callstack 0
  2175                           
  2176                           ; 1 bytes @ 0x54
  2177   000254                     	ds	1
  2178   000255                     sem_init@sem:
  2179                           	callstack 0
  2180   000255                     mutex_init@m:
  2181                           	callstack 0
  2182   000255                     os_create_task@func:
  2183                           	callstack 0
  2184   000255                     ??_priority_rr_scheduler:
  2185                           
  2186                           ; 1 bytes @ 0x55
  2187   000255                     	ds	1
  2188   000256                     sem_init@valor:
  2189                           	callstack 0
  2190   000256                     ??_os_start:
  2191                           
  2192                           ; 1 bytes @ 0x56
  2193   000256                     	ds	1
  2194   000257                     os_create_task@prior:
  2195                           	callstack 0
  2196   000257                     pipe_init@p:
  2197                           	callstack 0
  2198                           
  2199                           ; 1 bytes @ 0x57
  2200   000257                     	ds	1
  2201   000258                     ??_os_create_task:
  2202                           
  2203                           ; 1 bytes @ 0x58
  2204   000258                     	ds	1
  2205   000259                     os_create_task@id:
  2206                           	callstack 0
  2207                           
  2208                           ; 1 bytes @ 0x59
  2209   000259                     	ds	1
  2210   00025A                     os_create_task@new_task:
  2211                           	callstack 0
  2212                           
  2213                           ; 2 bytes @ 0x5A
  2214   00025A                     	ds	2
  2215                           
  2216                           	psect	cstackBANK1
  2217   000000                     __pcstackBANK1:
  2218                           	callstack 0
  2219   000000                     
  2220                           ; 1 bytes @ 0x0
  2221                           
  2222                           	psect	cstackBANK0
  2223   000089                     __pcstackBANK0:
  2224                           	callstack 0
  2225   000089                     	ds	8
  2226   000091                     ?_adc_read:
  2227                           	callstack 0
  2228                           
  2229                           ; 2 bytes @ 0x8
  2230   000091                     	ds	3
  2231   000094                     pipe_write@p:
  2232                           	callstack 0
  2233                           
  2234                           ; 1 bytes @ 0xB
  2235   000094                     	ds	1
  2236   000095                     pipe_write@dado:
  2237                           	callstack 0
  2238                           
  2239                           ; 1 bytes @ 0xC
  2240   000095                     	ds	1
  2241   000096                     ___awmod@counter:
  2242                           	callstack 0
  2243                           
  2244                           ; 1 bytes @ 0xD
  2245   000096                     	ds	1
  2246   000097                     ___awmod@sign:
  2247                           	callstack 0
  2248                           
  2249                           ; 1 bytes @ 0xE
  2250   000097                     	ds	1
  2251   000098                     sem_post@sem:
  2252                           	callstack 0
  2253                           
  2254                           ; 1 bytes @ 0xF
  2255   000098                     	ds	1
  2256   000099                     
  2257                           ; 1 bytes @ 0x10
  2258                           
  2259                           	psect	cstackCOMRAM
  2260   000002                     __pcstackCOMRAM:
  2261                           	callstack 0
  2262   000002                     i2os_create_task@func:
  2263                           	callstack 0
  2264   000002                     ??_idle:
  2265   000002                     ??i2_priority_rr_scheduler:
  2266                           
  2267                           ; 1 bytes @ 0x0
  2268   000002                     	ds	1
  2269   000003                     
  2270                           ; 1 bytes @ 0x1
  2271   000003                     	ds	1
  2272   000004                     i2os_create_task@prior:
  2273                           	callstack 0
  2274                           
  2275                           ; 1 bytes @ 0x2
  2276   000004                     	ds	1
  2277   000005                     ??i2_os_create_task:
  2278                           
  2279                           ; 1 bytes @ 0x3
  2280   000005                     	ds	1
  2281   000006                     i2os_create_task@id:
  2282                           	callstack 0
  2283                           
  2284                           ; 1 bytes @ 0x4
  2285   000006                     	ds	1
  2286   000007                     i2os_create_task@new_task:
  2287                           	callstack 0
  2288   000007                     ??_pipe_write:
  2289   000007                     ??_adc_read:
  2290                           
  2291                           ; 1 bytes @ 0x5
  2292   000007                     	ds	2
  2293   000009                     adc_read@channel:
  2294                           	callstack 0
  2295   000009                     ??_ISR:
  2296                           
  2297                           ; 1 bytes @ 0x7
  2298   000009                     	ds	1
  2299   00000A                     tarefaLeituraADC@valor:
  2300                           	callstack 0
  2301   00000A                     
  2302                           ; 1 bytes @ 0x8
  2303   00000A                     	ds	1
  2304   00000B                     
  2305                           ; 1 bytes @ 0x9
  2306   00000B                     	ds	9
  2307   000014                     ISR@i:
  2308                           	callstack 0
  2309                           
  2310                           ; 2 bytes @ 0x12
  2311   000014                     	ds	2
  2312                           
  2313 ;;
  2314 ;;Main: autosize = 0, tempsize = 0, incstack = 0, save=0
  2315 ;;
  2316 ;; *************** function _main *****************
  2317 ;; Defined at:
  2318 ;;		line 8 in file "main.c"
  2319 ;; Parameters:    Size  Location     Type
  2320 ;;		None
  2321 ;; Auto vars:     Size  Location     Type
  2322 ;;		None
  2323 ;; Return value:  Size  Location     Type
  2324 ;;                  2   18[None  ] int 
  2325 ;; Registers used:
  2326 ;;		wreg, fsr1l, fsr1h, fsr2l, fsr2h, status,2, status,0, prodl, prodh, cstack
  2327 ;; Tracked objects:
  2328 ;;		On entry : 0/0
  2329 ;;		On exit  : 0/0
  2330 ;;		Unchanged: 0/0
  2331 ;; Data sizes:     COMRAM   BANK0   BANK1   BANK2   BANK3   BANK4   BANK5   BANK6   BANK7   BANK8   BANK9  BANK10  BANK1
      +1  BANK12  BANK13  BANK14  BANK15
  2332 ;;      Params:         0       0       0       0       0       0       0       0       0       0       0       0       
      +0       0       0       0       0
  2333 ;;      Locals:         0       0       0       0       0       0       0       0       0       0       0       0       
      +0       0       0       0       0
  2334 ;;      Temps:          0       0       0       0       0       0       0       0       0       0       0       0       
      +0       0       0       0       0
  2335 ;;      Totals:         0       0       0       0       0       0       0       0       0       0       0       0       
      +0       0       0       0       0
  2336 ;;Total ram usage:        0 bytes
  2337 ;; Hardware stack levels required when called: 11
  2338 ;; This function calls:
  2339 ;;		_os_config
  2340 ;;		_os_create_task
  2341 ;;		_os_start
  2342 ;; This function is called by:
  2343 ;;		Startup code after reset
  2344 ;; This function uses a non-reentrant model
  2345 ;;
  2346                           
  2347                           	psect	text0
  2348   002BD4                     __ptext0:
  2349                           	callstack 0
  2350   002BD4                     _main:
  2351                           	callstack 20
  2352   002BD4                     
  2353                           ;main.c: 9:     os_config();
  2354   002BD4  EC81  F017         	call	_os_config	;wreg free
  2355                           
  2356                           ;main.c: 11:     os_create_task(2, tarefaLeituraADC, 3);
  2357   002BD8  0E2C               	movlw	low _tarefaLeituraADC
  2358   002BDA  0102               	movlb	2	; () banked
  2359   002BDC  6F55               	movwf	os_create_task@func& (0+255),b
  2360   002BDE  0E2E               	movlw	high _tarefaLeituraADC
  2361   002BE0  6F56               	movwf	(os_create_task@func+1)& (0+255),b
  2362   002BE2  0E03               	movlw	3
  2363   002BE4  6F57               	movwf	os_create_task@prior& (0+255),b
  2364   002BE6  0E02               	movlw	2
  2365   002BE8  ECFE  F012         	call	_os_create_task
  2366                           
  2367                           ;main.c: 12:     os_create_task(3, tarefaProcessamento, 2);
  2368   002BEC  0E8C               	movlw	low _tarefaProcessamento
  2369   002BEE  0102               	movlb	2	; () banked
  2370   002BF0  6F55               	movwf	os_create_task@func& (0+255),b
  2371   002BF2  0E2D               	movlw	high _tarefaProcessamento
  2372   002BF4  6F56               	movwf	(os_create_task@func+1)& (0+255),b
  2373   002BF6  0E02               	movlw	2
  2374   002BF8  6F57               	movwf	os_create_task@prior& (0+255),b
  2375   002BFA  0E03               	movlw	3
  2376   002BFC  ECFE  F012         	call	_os_create_task
  2377                           
  2378                           ;main.c: 13:     os_create_task(4, tarefaControlePWM, 2);
  2379   002C00  0ED0               	movlw	low _tarefaControlePWM
  2380   002C02  0102               	movlb	2	; () banked
  2381   002C04  6F55               	movwf	os_create_task@func& (0+255),b
  2382   002C06  0E2C               	movlw	high _tarefaControlePWM
  2383   002C08  6F56               	movwf	(os_create_task@func+1)& (0+255),b
  2384   002C0A  0E02               	movlw	2
  2385   002C0C  6F57               	movwf	os_create_task@prior& (0+255),b
  2386   002C0E  0E04               	movlw	4
  2387   002C10  ECFE  F012         	call	_os_create_task
  2388                           
  2389                           ;main.c: 14:     os_create_task(5, tarefaFeedbackLED, 4);
  2390   002C14  0EFA               	movlw	low _tarefaFeedbackLED
  2391   002C16  0102               	movlb	2	; () banked
  2392   002C18  6F55               	movwf	os_create_task@func& (0+255),b
  2393   002C1A  0E2D               	movlw	high _tarefaFeedbackLED
  2394   002C1C  6F56               	movwf	(os_create_task@func+1)& (0+255),b
  2395   002C1E  0E04               	movlw	4
  2396   002C20  6F57               	movwf	os_create_task@prior& (0+255),b
  2397   002C22  0E05               	movlw	5
  2398   002C24  ECFE  F012         	call	_os_create_task
  2399                           
  2400                           ;main.c: 17:     os_start();
  2401   002C28  EC09  F010         	call	_os_start	;wreg free
  2402   002C2C                     l19:
  2403   002C2C  EF16  F016         	goto	l19
  2404   002C30  EF6C  F002         	goto	start
  2405   002C34                     __end_of_main:
  2406                           	callstack 0
  2407                           
  2408 ;; *************** function _os_start *****************
  2409 ;; Defined at:
  2410 ;;		line 87 in file "kernel.c"
  2411 ;; Parameters:    Size  Location     Type
  2412 ;;		None
  2413 ;; Auto vars:     Size  Location     Type
  2414 ;;		None
  2415 ;; Return value:  Size  Location     Type
  2416 ;;                  1    wreg      void 
  2417 ;; Registers used:
  2418 ;;		wreg, fsr1l, fsr1h, fsr2l, fsr2h, status,2, status,0, prodl, prodh, cstack
  2419 ;; Tracked objects:
  2420 ;;		On entry : 0/0
  2421 ;;		On exit  : 0/0
  2422 ;;		Unchanged: 0/0
  2423 ;; Data sizes:     COMRAM   BANK0   BANK1   BANK2   BANK3   BANK4   BANK5   BANK6   BANK7   BANK8   BANK9  BANK10  BANK1
      +1  BANK12  BANK13  BANK14  BANK15
  2424 ;;      Params:         0       0       0       0       0       0       0       0       0       0       0       0       
      +0       0       0       0       0
  2425 ;;      Locals:         0       0       0       0       0       0       0       0       0       0       0       0       
      +0       0       0       0       0
  2426 ;;      Temps:          0       0       0       5       0       0       0       0       0       0       0       0       
      +0       0       0       0       0
  2427 ;;      Totals:         0       0       0       5       0       0       0       0       0       0       0       0       
      +0       0       0       0       0
  2428 ;;Total ram usage:        5 bytes
  2429 ;; Hardware stack levels used: 1
  2430 ;; Hardware stack levels required when called: 9
  2431 ;; This function calls:
  2432 ;;		_scheduler
  2433 ;;		_setup_hardware
  2434 ;; This function is called by:
  2435 ;;		_main
  2436 ;; This function uses a non-reentrant model
  2437 ;;
  2438                           
  2439                           	psect	text1
  2440   002012                     __ptext1:
  2441                           	callstack 0
  2442   002012                     _os_start:
  2443                           	callstack 21
  2444   002012                     
  2445                           ;kernel.c: 89:     setup_hardware();
  2446   002012  ECA1  F017         	call	_setup_hardware	;wreg free
  2447   002016                     
  2448                           ;kernel.c: 90:     INTCONbits.GIE = 1;;
  2449   002016  8EF2               	bsf	242,7,c	;volatile
  2450   002018                     
  2451                           ;kernel.c: 91:     scheduler();
  2452   002018  ECB6  F017         	call	_scheduler	;wreg free
  2453   00201C                     
  2454                           ;kernel.c: 92:     { if (((r_queue.TASKS[r_queue.pos_task_running]).state_prio & 0x03) =
      +                          = READY) { ((r_queue.TASKS[r_queue.pos_task_running]).state_prio = (uint8_t)(((r_queue.T
      +                          ASKS[r_queue.pos_task_running]).state_prio & 0xFC) | (uint8_t)(RUNNING))); BSR = r_queue
      +                          .TASKS[r_queue.pos_task_running].BSR_REG; WREG = r_queue.TASKS[r_queue.pos_task_running]
      +                          .W_REG; STATUS = r_queue.TASKS[r_queue.pos_task_running].STATUS_REG; FSR0H = r_queue.TAS
      +                          KS[r_queue.pos_task_running].FSR0H_REG; FSR0L = r_queue.TASKS[r_queue.pos_task_running].
      +                          FSR0L_REG; while (r_queue.TASKS[r_queue.pos_task_running].task_stack.stack_size > 0) { r
      +                          _queue.TASKS[r_queue.pos_task_running].task_stack.stack_size--; TOSL = r_queue.TASKS[r_q
      +                          ueue.pos_task_running].task_stack.stack[r_queue.TASKS[r_queue.pos_task_running].task_sta
      +                          ck.stack_size].TOSL_REG; TOSH = r_queue.TASKS[r_queue.pos_task_running].task_stack.stack
      +                          [r_queue.TASKS[r_queue.pos_task_running].task_stack.stack_size].TOSH_REG; TOSU = r_queue
      +                          .TASKS[r_queue.pos_task_running].task_stack.stack[r_queue.TASKS[r_queue.pos_task_running
      +                          ].task_stack.stack_size].TOSU_REG; __asm("PUSH"); } __asm("RETURN"); } };
  2455   00201C  0101               	movlb	1	; () banked
  2456   00201E  51D3               	movf	(_r_queue+211)& (0+255),w,b
  2457   002020  0D23               	mullw	35
  2458   002022  0E04               	movlw	low (_r_queue+4)
  2459   002024  24F3               	addwf	243,w,c
  2460   002026  6ED9               	movwf	fsr2l,c
  2461   002028  0E01               	movlw	high (_r_queue+4)
  2462   00202A  20F4               	addwfc	prodh,w,c
  2463   00202C  6EDA               	movwf	fsr2h,c
  2464   00202E  50DF               	movf	indf2,w,c
  2465   002030  0102               	movlb	2	; () banked
  2466   002032  6F56               	movwf	??_os_start& (0+255),b
  2467   002034  0E03               	movlw	3
  2468   002036  1756               	andwf	??_os_start& (0+255),f,b
  2469   002038  A4D8               	btfss	status,2,c
  2470   00203A  EF21  F010         	goto	u3661
  2471   00203E  EF23  F010         	goto	u3660
  2472   002042                     u3661:
  2473   002042  EFF6  F010         	goto	l92
  2474   002046                     u3660:
  2475   002046                     
  2476                           ; BSR set to: 2
  2477   002046  0101               	movlb	1	; () banked
  2478   002048  51D3               	movf	(_r_queue+211)& (0+255),w,b
  2479   00204A  0D23               	mullw	35
  2480   00204C  0E04               	movlw	low (_r_queue+4)
  2481   00204E  24F3               	addwf	243,w,c
  2482   002050  6ED9               	movwf	fsr2l,c
  2483   002052  0E01               	movlw	high (_r_queue+4)
  2484   002054  20F4               	addwfc	prodh,w,c
  2485   002056  6EDA               	movwf	fsr2h,c
  2486   002058  51D3               	movf	(_r_queue+211)& (0+255),w,b
  2487   00205A  0D23               	mullw	35
  2488   00205C  0E04               	movlw	low (_r_queue+4)
  2489   00205E  24F3               	addwf	243,w,c
  2490   002060  6EE1               	movwf	fsr1l,c
  2491   002062  0E01               	movlw	high (_r_queue+4)
  2492   002064  20F4               	addwfc	prodh,w,c
  2493   002066  6EE2               	movwf	fsr1h,c
  2494   002068  50E7               	movf	indf1,w,c
  2495   00206A  0BFC               	andlw	252
  2496   00206C  0902               	iorlw	2
  2497   00206E  6EDF               	movwf	indf2,c
  2498   002070                     
  2499                           ; BSR set to: 1
  2500   002070  51D3               	movf	(_r_queue+211)& (0+255),w,b
  2501   002072  0D23               	mullw	35
  2502   002074  0E07               	movlw	low (_r_queue+7)
  2503   002076  24F3               	addwf	243,w,c
  2504   002078  6ED9               	movwf	fsr2l,c
  2505   00207A  0E01               	movlw	high (_r_queue+7)
  2506   00207C  20F4               	addwfc	prodh,w,c
  2507   00207E  6EDA               	movwf	fsr2h,c
  2508   002080  50DF               	movf	indf2,w,c
  2509   002082  6EE0               	movwf	224,c	;volatile
  2510   002084                     
  2511                           ; BSR set to: 1
  2512   002084  51D3               	movf	(_r_queue+211)& (0+255),w,b
  2513   002086  0D23               	mullw	35
  2514   002088  0E05               	movlw	low (_r_queue+5)
  2515   00208A  24F3               	addwf	243,w,c
  2516   00208C  6ED9               	movwf	fsr2l,c
  2517   00208E  0E01               	movlw	high (_r_queue+5)
  2518   002090  20F4               	addwfc	prodh,w,c
  2519   002092  6EDA               	movwf	fsr2h,c
  2520   002094  50DF               	movf	indf2,w,c
  2521   002096  0102               	movlb	2	; () banked
  2522   002098  6F56               	movwf	??_os_start& (0+255),b
  2523   00209A  5156               	movf	??_os_start& (0+255),w,b
  2524   00209C                     
  2525                           ; BSR set to: 2
  2526   00209C  0101               	movlb	1	; () banked
  2527   00209E  51D3               	movf	(_r_queue+211)& (0+255),w,b
  2528   0020A0  0D23               	mullw	35
  2529   0020A2  0E06               	movlw	low (_r_queue+6)
  2530   0020A4  24F3               	addwf	243,w,c
  2531   0020A6  6ED9               	movwf	fsr2l,c
  2532   0020A8  0E01               	movlw	high (_r_queue+6)
  2533   0020AA  20F4               	addwfc	prodh,w,c
  2534   0020AC  6EDA               	movwf	fsr2h,c
  2535   0020AE  50DF               	movf	indf2,w,c
  2536   0020B0  6ED8               	movwf	216,c	;volatile
  2537   0020B2                     
  2538                           ; BSR set to: 1
  2539   0020B2  51D3               	movf	(_r_queue+211)& (0+255),w,b
  2540   0020B4  0D23               	mullw	35
  2541   0020B6  0E09               	movlw	low (_r_queue+9)
  2542   0020B8  24F3               	addwf	243,w,c
  2543   0020BA  6ED9               	movwf	fsr2l,c
  2544   0020BC  0E01               	movlw	high (_r_queue+9)
  2545   0020BE  20F4               	addwfc	prodh,w,c
  2546   0020C0  6EDA               	movwf	fsr2h,c
  2547   0020C2  50DF               	movf	indf2,w,c
  2548   0020C4  6EEA               	movwf	234,c	;volatile
  2549   0020C6                     
  2550                           ; BSR set to: 1
  2551   0020C6  51D3               	movf	(_r_queue+211)& (0+255),w,b
  2552   0020C8  0D23               	mullw	35
  2553   0020CA  0E08               	movlw	low (_r_queue+8)
  2554   0020CC  24F3               	addwf	243,w,c
  2555   0020CE  6ED9               	movwf	fsr2l,c
  2556   0020D0  0E01               	movlw	high (_r_queue+8)
  2557   0020D2  20F4               	addwfc	prodh,w,c
  2558   0020D4  6EDA               	movwf	fsr2h,c
  2559   0020D6  50DF               	movf	indf2,w,c
  2560   0020D8  6EE9               	movwf	233,c	;volatile
  2561   0020DA  EFE4  F010         	goto	l89
  2562   0020DE                     l4371:
  2563                           
  2564                           ; BSR set to: 1
  2565   0020DE  51D3               	movf	(_r_queue+211)& (0+255),w,b
  2566   0020E0  0D23               	mullw	35
  2567   0020E2  0E22               	movlw	low (_r_queue+34)
  2568   0020E4  24F3               	addwf	243,w,c
  2569   0020E6  6ED9               	movwf	fsr2l,c
  2570   0020E8  0E01               	movlw	high (_r_queue+34)
  2571   0020EA  20F4               	addwfc	prodh,w,c
  2572   0020EC  6EDA               	movwf	fsr2h,c
  2573   0020EE  06DF               	decf	indf2,f,c
  2574   0020F0  51D3               	movf	(_r_queue+211)& (0+255),w,b
  2575   0020F2  0D23               	mullw	35
  2576   0020F4  0E22               	movlw	low (_r_queue+34)
  2577   0020F6  24F3               	addwf	243,w,c
  2578   0020F8  6ED9               	movwf	fsr2l,c
  2579   0020FA  0E01               	movlw	high (_r_queue+34)
  2580   0020FC  20F4               	addwfc	prodh,w,c
  2581   0020FE  6EDA               	movwf	fsr2h,c
  2582   002100  50DF               	movf	indf2,w,c
  2583   002102  0102               	movlb	2	; () banked
  2584   002104  6F56               	movwf	??_os_start& (0+255),b
  2585   002106  5156               	movf	??_os_start& (0+255),w,b
  2586   002108  0D03               	mullw	3
  2587   00210A  CFF3 F257          	movff	prodl,??_os_start+1
  2588   00210E  CFF4 F258          	movff	prodh,??_os_start+2
  2589   002112  0101               	movlb	1	; () banked
  2590   002114  51D3               	movf	(_r_queue+211)& (0+255),w,b
  2591   002116  0D23               	mullw	35
  2592   002118  0E0A               	movlw	low (_r_queue+10)
  2593   00211A  24F3               	addwf	243,w,c
  2594   00211C  0102               	movlb	2	; () banked
  2595   00211E  6F59               	movwf	(??_os_start+3)& (0+255),b
  2596   002120  0E01               	movlw	high (_r_queue+10)
  2597   002122  20F4               	addwfc	prodh,w,c
  2598   002124  6F5A               	movwf	(??_os_start+4)& (0+255),b
  2599   002126  5157               	movf	(??_os_start+1)& (0+255),w,b
  2600   002128  2559               	addwf	(??_os_start+3)& (0+255),w,b
  2601   00212A  6ED9               	movwf	fsr2l,c
  2602   00212C  5158               	movf	(??_os_start+2)& (0+255),w,b
  2603   00212E  215A               	addwfc	(??_os_start+4)& (0+255),w,b
  2604   002130  6EDA               	movwf	fsr2h,c
  2605   002132  50DF               	movf	indf2,w,c
  2606   002134  6EFD               	movwf	253,c	;volatile
  2607   002136  0101               	movlb	1	; () banked
  2608   002138  51D3               	movf	(_r_queue+211)& (0+255),w,b
  2609   00213A  0D23               	mullw	35
  2610   00213C  0E22               	movlw	low (_r_queue+34)
  2611   00213E  24F3               	addwf	243,w,c
  2612   002140  6ED9               	movwf	fsr2l,c
  2613   002142  0E01               	movlw	high (_r_queue+34)
  2614   002144  20F4               	addwfc	prodh,w,c
  2615   002146  6EDA               	movwf	fsr2h,c
  2616   002148  50DF               	movf	indf2,w,c
  2617   00214A  0102               	movlb	2	; () banked
  2618   00214C  6F56               	movwf	??_os_start& (0+255),b
  2619   00214E  5156               	movf	??_os_start& (0+255),w,b
  2620   002150  0D03               	mullw	3
  2621   002152  CFF3 F257          	movff	prodl,??_os_start+1
  2622   002156  CFF4 F258          	movff	prodh,??_os_start+2
  2623   00215A  0101               	movlb	1	; () banked
  2624   00215C  51D3               	movf	(_r_queue+211)& (0+255),w,b
  2625   00215E  0D23               	mullw	35
  2626   002160  0E0B               	movlw	low (_r_queue+11)
  2627   002162  24F3               	addwf	243,w,c
  2628   002164  0102               	movlb	2	; () banked
  2629   002166  6F59               	movwf	(??_os_start+3)& (0+255),b
  2630   002168  0E01               	movlw	high (_r_queue+11)
  2631   00216A  20F4               	addwfc	prodh,w,c
  2632   00216C  6F5A               	movwf	(??_os_start+4)& (0+255),b
  2633   00216E  5157               	movf	(??_os_start+1)& (0+255),w,b
  2634   002170  2559               	addwf	(??_os_start+3)& (0+255),w,b
  2635   002172  6ED9               	movwf	fsr2l,c
  2636   002174  5158               	movf	(??_os_start+2)& (0+255),w,b
  2637   002176  215A               	addwfc	(??_os_start+4)& (0+255),w,b
  2638   002178  6EDA               	movwf	fsr2h,c
  2639   00217A  50DF               	movf	indf2,w,c
  2640   00217C  6EFE               	movwf	254,c	;volatile
  2641   00217E  0101               	movlb	1	; () banked
  2642   002180  51D3               	movf	(_r_queue+211)& (0+255),w,b
  2643   002182  0D23               	mullw	35
  2644   002184  0E22               	movlw	low (_r_queue+34)
  2645   002186  24F3               	addwf	243,w,c
  2646   002188  6ED9               	movwf	fsr2l,c
  2647   00218A  0E01               	movlw	high (_r_queue+34)
  2648   00218C  20F4               	addwfc	prodh,w,c
  2649   00218E  6EDA               	movwf	fsr2h,c
  2650   002190  50DF               	movf	indf2,w,c
  2651   002192  0102               	movlb	2	; () banked
  2652   002194  6F56               	movwf	??_os_start& (0+255),b
  2653   002196  5156               	movf	??_os_start& (0+255),w,b
  2654   002198  0D03               	mullw	3
  2655   00219A  CFF3 F257          	movff	prodl,??_os_start+1
  2656   00219E  CFF4 F258          	movff	prodh,??_os_start+2
  2657   0021A2  0101               	movlb	1	; () banked
  2658   0021A4  51D3               	movf	(_r_queue+211)& (0+255),w,b
  2659   0021A6  0D23               	mullw	35
  2660   0021A8  0E0C               	movlw	low (_r_queue+12)
  2661   0021AA  24F3               	addwf	243,w,c
  2662   0021AC  0102               	movlb	2	; () banked
  2663   0021AE  6F59               	movwf	(??_os_start+3)& (0+255),b
  2664   0021B0  0E01               	movlw	high (_r_queue+12)
  2665   0021B2  20F4               	addwfc	prodh,w,c
  2666   0021B4  6F5A               	movwf	(??_os_start+4)& (0+255),b
  2667   0021B6  5157               	movf	(??_os_start+1)& (0+255),w,b
  2668   0021B8  2559               	addwf	(??_os_start+3)& (0+255),w,b
  2669   0021BA  6ED9               	movwf	fsr2l,c
  2670   0021BC  5158               	movf	(??_os_start+2)& (0+255),w,b
  2671   0021BE  215A               	addwfc	(??_os_start+4)& (0+255),w,b
  2672   0021C0  6EDA               	movwf	fsr2h,c
  2673   0021C2  50DF               	movf	indf2,w,c
  2674   0021C4  6EFF               	movwf	255,c	;volatile
  2675   0021C6  0005               	push		;# 
  2676   0021C8                     l89:
  2677   0021C8  0101               	movlb	1	; () banked
  2678   0021CA  51D3               	movf	(_r_queue+211)& (0+255),w,b
  2679   0021CC  0D23               	mullw	35
  2680   0021CE  0E22               	movlw	low (_r_queue+34)
  2681   0021D0  24F3               	addwf	243,w,c
  2682   0021D2  6ED9               	movwf	fsr2l,c
  2683   0021D4  0E01               	movlw	high (_r_queue+34)
  2684   0021D6  20F4               	addwfc	prodh,w,c
  2685   0021D8  6EDA               	movwf	fsr2h,c
  2686   0021DA  50DF               	movf	indf2,w,c
  2687   0021DC  A4D8               	btfss	status,2,c
  2688   0021DE  EFF3  F010         	goto	u3671
  2689   0021E2  EFF5  F010         	goto	u3670
  2690   0021E6                     u3671:
  2691   0021E6  EF6F  F010         	goto	l4371
  2692   0021EA                     u3670:
  2693   0021EA                     
  2694                           ; BSR set to: 1
  2695   0021EA  0012               	return		;# 
  2696   0021EC                     l92:
  2697   0021EC  0012               	return		;funcret
  2698   0021EE                     __end_of_os_start:
  2699                           	callstack 0
  2700                           
  2701 ;; *************** function _setup_hardware *****************
  2702 ;; Defined at:
  2703 ;;		line 11 in file "hw.c"
  2704 ;; Parameters:    Size  Location     Type
  2705 ;;		None
  2706 ;; Auto vars:     Size  Location     Type
  2707 ;;		None
  2708 ;; Return value:  Size  Location     Type
  2709 ;;                  1    wreg      void 
  2710 ;; Registers used:
  2711 ;;		wreg, status,2
  2712 ;; Tracked objects:
  2713 ;;		On entry : 0/0
  2714 ;;		On exit  : 0/0
  2715 ;;		Unchanged: 0/0
  2716 ;; Data sizes:     COMRAM   BANK0   BANK1   BANK2   BANK3   BANK4   BANK5   BANK6   BANK7   BANK8   BANK9  BANK10  BANK1
      +1  BANK12  BANK13  BANK14  BANK15
  2717 ;;      Params:         0       0       0       0       0       0       0       0       0       0       0       0       
      +0       0       0       0       0
  2718 ;;      Locals:         0       0       0       0       0       0       0       0       0       0       0       0       
      +0       0       0       0       0
  2719 ;;      Temps:          0       0       0       0       0       0       0       0       0       0       0       0       
      +0       0       0       0       0
  2720 ;;      Totals:         0       0       0       0       0       0       0       0       0       0       0       0       
      +0       0       0       0       0
  2721 ;;Total ram usage:        0 bytes
  2722 ;; Hardware stack levels used: 1
  2723 ;; Hardware stack levels required when called: 7
  2724 ;; This function calls:
  2725 ;;		Nothing
  2726 ;; This function is called by:
  2727 ;;		_os_start
  2728 ;; This function uses a non-reentrant model
  2729 ;;
  2730                           
  2731                           	psect	text2
  2732   002F42                     __ptext2:
  2733                           	callstack 0
  2734   002F42                     _setup_hardware:
  2735                           	callstack 22
  2736   002F42                     
  2737                           ;hw.c: 14:     INTCONbits.TMR0IE = 1;
  2738   002F42  8AF2               	bsf	242,5,c	;volatile
  2739                           
  2740                           ;hw.c: 15:     INTCONbits.TMR0IF = 0;
  2741   002F44  94F2               	bcf	242,2,c	;volatile
  2742                           
  2743                           ;hw.c: 16:     T0CONbits.T08BIT = 1;
  2744   002F46  8CD5               	bsf	213,6,c	;volatile
  2745                           
  2746                           ;hw.c: 17:     T0CONbits.T0CS = 0;
  2747   002F48  9AD5               	bcf	213,5,c	;volatile
  2748                           
  2749                           ;hw.c: 18:     T0CONbits.PSA = 0;
  2750   002F4A  96D5               	bcf	213,3,c	;volatile
  2751   002F4C                     
  2752                           ;hw.c: 19:     T0CONbits.T0PS = 0b111;
  2753   002F4C  0E07               	movlw	7
  2754   002F4E  12D5               	iorwf	213,f,c	;volatile
  2755   002F50                     
  2756                           ;hw.c: 20:     T0CONbits.TMR0ON = 1;
  2757   002F50  8ED5               	bsf	213,7,c	;volatile
  2758                           
  2759                           ;hw.c: 21:     TMR0 = 0;
  2760   002F52  6AD7               	clrf	215,c	;volatile
  2761   002F54  0E00               	movlw	0
  2762   002F56  6ED6               	movwf	214,c	;volatile
  2763   002F58                     
  2764                           ;hw.c: 22:     INTCONbits.GIE = 1;
  2765   002F58  8EF2               	bsf	242,7,c	;volatile
  2766   002F5A                     
  2767                           ;hw.c: 23:     INTCONbits.PEIE = 1;
  2768   002F5A  8CF2               	bsf	242,6,c	;volatile
  2769   002F5C  0012               	return		;funcret
  2770   002F5E                     __end_of_setup_hardware:
  2771                           	callstack 0
  2772                           
  2773 ;; *************** function _scheduler *****************
  2774 ;; Defined at:
  2775 ;;		line 9 in file "scheduler.c"
  2776 ;; Parameters:    Size  Location     Type
  2777 ;;		None
  2778 ;; Auto vars:     Size  Location     Type
  2779 ;;		None
  2780 ;; Return value:  Size  Location     Type
  2781 ;;                  1    wreg      void 
  2782 ;; Registers used:
  2783 ;;		wreg, fsr2l, fsr2h, status,2, status,0, prodl, prodh, cstack
  2784 ;; Tracked objects:
  2785 ;;		On entry : 0/0
  2786 ;;		On exit  : 0/0
  2787 ;;		Unchanged: 0/0
  2788 ;; Data sizes:     COMRAM   BANK0   BANK1   BANK2   BANK3   BANK4   BANK5   BANK6   BANK7   BANK8   BANK9  BANK10  BANK1
      +1  BANK12  BANK13  BANK14  BANK15
  2789 ;;      Params:         0       0       0       0       0       0       0       0       0       0       0       0       
      +0       0       0       0       0
  2790 ;;      Locals:         0       0       0       0       0       0       0       0       0       0       0       0       
      +0       0       0       0       0
  2791 ;;      Temps:          0       0       0       0       0       0       0       0       0       0       0       0       
      +0       0       0       0       0
  2792 ;;      Totals:         0       0       0       0       0       0       0       0       0       0       0       0       
      +0       0       0       0       0
  2793 ;;Total ram usage:        0 bytes
  2794 ;; Hardware stack levels used: 1
  2795 ;; Hardware stack levels required when called: 8
  2796 ;; This function calls:
  2797 ;;		_priority_rr_scheduler
  2798 ;; This function is called by:
  2799 ;;		_os_start
  2800 ;;		_os_yield
  2801 ;; This function uses a non-reentrant model
  2802 ;;
  2803                           
  2804                           	psect	text3
  2805   002F6C                     __ptext3:
  2806                           	callstack 0
  2807   002F6C                     _scheduler:
  2808                           	callstack 21
  2809   002F6C                     
  2810                           ;scheduler.c: 15:     r_queue.pos_task_running = priority_rr_scheduler();
  2811   002F6C  ECF7  F010         	call	_priority_rr_scheduler	;wreg free
  2812   002F70  0101               	movlb	1	; () banked
  2813   002F72  6FD3               	movwf	(_r_queue+211)& (0+255),b
  2814   002F74                     
  2815                           ; BSR set to: 1
  2816   002F74  0012               	return		;funcret
  2817   002F76                     __end_of_scheduler:
  2818                           	callstack 0
  2819                           
  2820 ;; *************** function _priority_rr_scheduler *****************
  2821 ;; Defined at:
  2822 ;;		line 69 in file "scheduler.c"
  2823 ;; Parameters:    Size  Location     Type
  2824 ;;		None
  2825 ;; Auto vars:     Size  Location     Type
  2826 ;;		None
  2827 ;; Return value:  Size  Location     Type
  2828 ;;                  1    wreg      unsigned char 
  2829 ;; Registers used:
  2830 ;;		wreg, fsr2l, fsr2h, status,2, status,0, prodl, prodh
  2831 ;; Tracked objects:
  2832 ;;		On entry : 0/0
  2833 ;;		On exit  : 0/0
  2834 ;;		Unchanged: 0/0
  2835 ;; Data sizes:     COMRAM   BANK0   BANK1   BANK2   BANK3   BANK4   BANK5   BANK6   BANK7   BANK8   BANK9  BANK10  BANK1
      +1  BANK12  BANK13  BANK14  BANK15
  2836 ;;      Params:         0       0       0       0       0       0       0       0       0       0       0       0       
      +0       0       0       0       0
  2837 ;;      Locals:         0       0       0       0       0       0       0       0       0       0       0       0       
      +0       0       0       0       0
  2838 ;;      Temps:          0       0       0       1       0       0       0       0       0       0       0       0       
      +0       0       0       0       0
  2839 ;;      Totals:         0       0       0       1       0       0       0       0       0       0       0       0       
      +0       0       0       0       0
  2840 ;;Total ram usage:        1 bytes
  2841 ;; Hardware stack levels used: 1
  2842 ;; Hardware stack levels required when called: 7
  2843 ;; This function calls:
  2844 ;;		Nothing
  2845 ;; This function is called by:
  2846 ;;		_scheduler
  2847 ;; This function uses a non-reentrant model
  2848 ;;
  2849                           
  2850                           	psect	text4
  2851   0021EE                     __ptext4:
  2852                           	callstack 0
  2853   0021EE                     _priority_rr_scheduler:
  2854                           	callstack 21
  2855   0021EE                     
  2856                           ;scheduler.c: 70:     static uint8_t max_prio;;scheduler.c: 71:     static uint8_t found
      +                          ;;scheduler.c: 72:     static uint8_t i;;scheduler.c: 73:     static uint8_t current;;sc
      +                          heduler.c: 74:     static uint8_t idx;;scheduler.c: 76:     max_prio = 0;
  2857   0021EE  6A1A               	clrf	priority_rr_scheduler@max_prio^0,c
  2858                           
  2859                           ;scheduler.c: 77:     found = 0;
  2860   0021F0  6A19               	clrf	priority_rr_scheduler@found^0,c
  2861                           
  2862                           ;scheduler.c: 80:     for (i = 0; i < r_queue.size; i++) {
  2863   0021F2  6A18               	clrf	priority_rr_scheduler@i^0,c
  2864   0021F4  EF41  F011         	goto	l4179
  2865   0021F8                     l4167:
  2866                           
  2867                           ; BSR set to: 1
  2868                           ;scheduler.c: 81:         if (((r_queue.TASKS[i]).state_prio & 0x03) == READY) {
  2869   0021F8  5018               	movf	priority_rr_scheduler@i^0,w,c
  2870   0021FA  0D23               	mullw	35
  2871   0021FC  0E04               	movlw	low (_r_queue+4)
  2872   0021FE  24F3               	addwf	243,w,c
  2873   002200  6ED9               	movwf	fsr2l,c
  2874   002202  0E01               	movlw	high (_r_queue+4)
  2875   002204  20F4               	addwfc	prodh,w,c
  2876   002206  6EDA               	movwf	fsr2h,c
  2877   002208  50DF               	movf	indf2,w,c
  2878   00220A  0102               	movlb	2	; () banked
  2879   00220C  6F55               	movwf	??_priority_rr_scheduler& (0+255),b
  2880   00220E  0E03               	movlw	3
  2881   002210  1755               	andwf	??_priority_rr_scheduler& (0+255),f,b
  2882   002212  A4D8               	btfss	status,2,c
  2883   002214  EF0E  F011         	goto	u3401
  2884   002218  EF10  F011         	goto	u3400
  2885   00221C                     u3401:
  2886   00221C  EF40  F011         	goto	l4177
  2887   002220                     u3400:
  2888   002220                     
  2889                           ; BSR set to: 2
  2890                           ;scheduler.c: 82:             if (!found || (((r_queue.TASKS[i]).state_prio >> 2) & 0x07
      +                          ) > max_prio) {
  2891   002220  5019               	movf	priority_rr_scheduler@found^0,w,c
  2892   002222  B4D8               	btfsc	status,2,c
  2893   002224  EF16  F011         	goto	u3411
  2894   002228  EF18  F011         	goto	u3410
  2895   00222C                     u3411:
  2896   00222C  EF2E  F011         	goto	l4173
  2897   002230                     u3410:
  2898   002230                     
  2899                           ; BSR set to: 2
  2900   002230  5018               	movf	priority_rr_scheduler@i^0,w,c
  2901   002232  0D23               	mullw	35
  2902   002234  0E04               	movlw	low (_r_queue+4)
  2903   002236  24F3               	addwf	243,w,c
  2904   002238  6ED9               	movwf	fsr2l,c
  2905   00223A  0E01               	movlw	high (_r_queue+4)
  2906   00223C  20F4               	addwfc	prodh,w,c
  2907   00223E  6EDA               	movwf	fsr2h,c
  2908   002240  50DF               	movf	indf2,w,c
  2909   002242  6F55               	movwf	??_priority_rr_scheduler& (0+255),b
  2910   002244  90D8               	bcf	status,0,c
  2911   002246  3355               	rrcf	??_priority_rr_scheduler& (0+255),f,b
  2912   002248  90D8               	bcf	status,0,c
  2913   00224A  3155               	rrcf	??_priority_rr_scheduler& (0+255),w,b
  2914   00224C  0B07               	andlw	7
  2915   00224E  601A               	cpfslt	priority_rr_scheduler@max_prio^0,c
  2916   002250  EF2C  F011         	goto	u3421
  2917   002254  EF2E  F011         	goto	u3420
  2918   002258                     u3421:
  2919   002258  EF40  F011         	goto	l4177
  2920   00225C                     u3420:
  2921   00225C                     l4173:
  2922                           
  2923                           ; BSR set to: 2
  2924                           ;scheduler.c: 83:                 max_prio = (((r_queue.TASKS[i]).state_prio >> 2) & 0x0
      +                          7);
  2925   00225C  5018               	movf	priority_rr_scheduler@i^0,w,c
  2926   00225E  0D23               	mullw	35
  2927   002260  0E04               	movlw	low (_r_queue+4)
  2928   002262  24F3               	addwf	243,w,c
  2929   002264  6ED9               	movwf	fsr2l,c
  2930   002266  0E01               	movlw	high (_r_queue+4)
  2931   002268  20F4               	addwfc	prodh,w,c
  2932   00226A  6EDA               	movwf	fsr2h,c
  2933   00226C  50DF               	movf	indf2,w,c
  2934   00226E  6F55               	movwf	??_priority_rr_scheduler& (0+255),b
  2935   002270  90D8               	bcf	status,0,c
  2936   002272  3355               	rrcf	??_priority_rr_scheduler& (0+255),f,b
  2937   002274  90D8               	bcf	status,0,c
  2938   002276  3155               	rrcf	??_priority_rr_scheduler& (0+255),w,b
  2939   002278  0B07               	andlw	7
  2940   00227A  6E1A               	movwf	priority_rr_scheduler@max_prio^0,c
  2941   00227C                     
  2942                           ; BSR set to: 2
  2943                           ;scheduler.c: 84:                 found = 1;
  2944   00227C  0E01               	movlw	1
  2945   00227E  6E19               	movwf	priority_rr_scheduler@found^0,c
  2946   002280                     l4177:
  2947                           
  2948                           ; BSR set to: 2
  2949                           ;scheduler.c: 87:     }
  2950   002280  2A18               	incf	priority_rr_scheduler@i^0,f,c
  2951   002282                     l4179:
  2952   002282  0101               	movlb	1	; () banked
  2953   002284  51D2               	movf	(_r_queue+210)& (0+255),w,b
  2954   002286  5C18               	subwf	priority_rr_scheduler@i^0,w,c
  2955   002288  A0D8               	btfss	status,0,c
  2956   00228A  EF49  F011         	goto	u3431
  2957   00228E  EF4B  F011         	goto	u3430
  2958   002292                     u3431:
  2959   002292  EFFC  F010         	goto	l4167
  2960   002296                     u3430:
  2961   002296                     
  2962                           ; BSR set to: 1
  2963                           ;scheduler.c: 88:     if (!found)return 0;
  2964   002296  5019               	movf	priority_rr_scheduler@found^0,w,c
  2965   002298  A4D8               	btfss	status,2,c
  2966   00229A  EF51  F011         	goto	u3441
  2967   00229E  EF53  F011         	goto	u3440
  2968   0022A2                     u3441:
  2969   0022A2  EF56  F011         	goto	l427
  2970   0022A6                     u3440:
  2971   0022A6                     l4183:
  2972                           
  2973                           ; BSR set to: 1
  2974   0022A6  0E00               	movlw	0
  2975   0022A8  EFA4  F011         	goto	l428
  2976   0022AC                     l427:
  2977                           
  2978                           ; BSR set to: 1
  2979                           ;scheduler.c: 89:     current = r_queue.pos_task_running;
  2980   0022AC  C1D3  F017         	movff	_r_queue+211,priority_rr_scheduler@current
  2981                           
  2982                           ;scheduler.c: 91:     for (i = 0; i < r_queue.size; i++) {
  2983   0022B0  6A18               	clrf	priority_rr_scheduler@i^0,c
  2984   0022B2  EF98  F011         	goto	l4201
  2985   0022B6                     l4187:
  2986                           
  2987                           ; BSR set to: 1
  2988                           ;scheduler.c: 93:         idx = current + i;
  2989   0022B6  5017               	movf	priority_rr_scheduler@current^0,w,c
  2990   0022B8  2418               	addwf	priority_rr_scheduler@i^0,w,c
  2991   0022BA  6E16               	movwf	priority_rr_scheduler@idx^0,c
  2992                           
  2993                           ;scheduler.c: 94:         if (idx >= r_queue.size)
  2994   0022BC  51D2               	movf	(_r_queue+210)& (0+255),w,b
  2995   0022BE  5C16               	subwf	priority_rr_scheduler@idx^0,w,c
  2996   0022C0  A0D8               	btfss	status,0,c
  2997   0022C2  EF65  F011         	goto	u3451
  2998   0022C6  EF67  F011         	goto	u3450
  2999   0022CA                     u3451:
  3000   0022CA  EF69  F011         	goto	l4191
  3001   0022CE                     u3450:
  3002   0022CE                     
  3003                           ; BSR set to: 1
  3004                           ;scheduler.c: 95:             idx -= r_queue.size;
  3005   0022CE  51D2               	movf	(_r_queue+210)& (0+255),w,b
  3006   0022D0  5E16               	subwf	priority_rr_scheduler@idx^0,f,c
  3007   0022D2                     l4191:
  3008                           
  3009                           ; BSR set to: 1
  3010                           ;scheduler.c: 96:         if (((r_queue.TASKS[i]).state_prio & 0x03) == READY &&
  3011   0022D2  5018               	movf	priority_rr_scheduler@i^0,w,c
  3012   0022D4  0D23               	mullw	35
  3013   0022D6  0E04               	movlw	low (_r_queue+4)
  3014   0022D8  24F3               	addwf	243,w,c
  3015   0022DA  6ED9               	movwf	fsr2l,c
  3016   0022DC  0E01               	movlw	high (_r_queue+4)
  3017   0022DE  20F4               	addwfc	prodh,w,c
  3018   0022E0  6EDA               	movwf	fsr2h,c
  3019   0022E2  50DF               	movf	indf2,w,c
  3020   0022E4  0102               	movlb	2	; () banked
  3021   0022E6  6F55               	movwf	??_priority_rr_scheduler& (0+255),b
  3022   0022E8  0E03               	movlw	3
  3023   0022EA  1755               	andwf	??_priority_rr_scheduler& (0+255),f,b
  3024   0022EC  A4D8               	btfss	status,2,c
  3025   0022EE  EF7B  F011         	goto	u3461
  3026   0022F2  EF7D  F011         	goto	u3460
  3027   0022F6                     u3461:
  3028   0022F6  EF97  F011         	goto	l4199
  3029   0022FA                     u3460:
  3030   0022FA                     
  3031                           ; BSR set to: 2
  3032   0022FA  5018               	movf	priority_rr_scheduler@i^0,w,c
  3033   0022FC  0D23               	mullw	35
  3034   0022FE  0E04               	movlw	low (_r_queue+4)
  3035   002300  24F3               	addwf	243,w,c
  3036   002302  6ED9               	movwf	fsr2l,c
  3037   002304  0E01               	movlw	high (_r_queue+4)
  3038   002306  20F4               	addwfc	prodh,w,c
  3039   002308  6EDA               	movwf	fsr2h,c
  3040   00230A  50DF               	movf	indf2,w,c
  3041   00230C  6F55               	movwf	??_priority_rr_scheduler& (0+255),b
  3042   00230E  90D8               	bcf	status,0,c
  3043   002310  3355               	rrcf	??_priority_rr_scheduler& (0+255),f,b
  3044   002312  90D8               	bcf	status,0,c
  3045   002314  3155               	rrcf	??_priority_rr_scheduler& (0+255),w,b
  3046   002316  0B07               	andlw	7
  3047   002318  181A               	xorwf	priority_rr_scheduler@max_prio^0,w,c
  3048   00231A  A4D8               	btfss	status,2,c
  3049   00231C  EF92  F011         	goto	u3471
  3050   002320  EF94  F011         	goto	u3470
  3051   002324                     u3471:
  3052   002324  EF97  F011         	goto	l4199
  3053   002328                     u3470:
  3054   002328                     
  3055                           ; BSR set to: 2
  3056                           ;scheduler.c: 97:             (((r_queue.TASKS[i]).state_prio >> 2) & 0x07) == max_prio)
      +                           {;scheduler.c: 98:             return idx;
  3057   002328  5016               	movf	priority_rr_scheduler@idx^0,w,c
  3058   00232A  EFA4  F011         	goto	l428
  3059   00232E                     l4199:
  3060                           
  3061                           ; BSR set to: 2
  3062                           ;scheduler.c: 100:     }
  3063   00232E  2A18               	incf	priority_rr_scheduler@i^0,f,c
  3064   002330                     l4201:
  3065   002330  0101               	movlb	1	; () banked
  3066   002332  51D2               	movf	(_r_queue+210)& (0+255),w,b
  3067   002334  5C18               	subwf	priority_rr_scheduler@i^0,w,c
  3068   002336  A0D8               	btfss	status,0,c
  3069   002338  EFA0  F011         	goto	u3481
  3070   00233C  EFA2  F011         	goto	u3480
  3071   002340                     u3481:
  3072   002340  EF5B  F011         	goto	l4187
  3073   002344                     u3480:
  3074   002344  EF53  F011         	goto	l4183
  3075   002348                     l428:
  3076   002348  0012               	return		;funcret
  3077   00234A                     __end_of_priority_rr_scheduler:
  3078                           	callstack 0
  3079                           
  3080 ;; *************** function _os_config *****************
  3081 ;; Defined at:
  3082 ;;		line 71 in file "kernel.c"
  3083 ;; Parameters:    Size  Location     Type
  3084 ;;		None
  3085 ;; Auto vars:     Size  Location     Type
  3086 ;;		None
  3087 ;; Return value:  Size  Location     Type
  3088 ;;                  1    wreg      void 
  3089 ;; Registers used:
  3090 ;;		wreg, fsr1l, fsr1h, fsr2l, fsr2h, status,2, status,0, prodl, prodh, cstack
  3091 ;; Tracked objects:
  3092 ;;		On entry : 0/0
  3093 ;;		On exit  : 0/0
  3094 ;;		Unchanged: 0/0
  3095 ;; Data sizes:     COMRAM   BANK0   BANK1   BANK2   BANK3   BANK4   BANK5   BANK6   BANK7   BANK8   BANK9  BANK10  BANK1
      +1  BANK12  BANK13  BANK14  BANK15
  3096 ;;      Params:         0       0       0       0       0       0       0       0       0       0       0       0       
      +0       0       0       0       0
  3097 ;;      Locals:         0       0       0       0       0       0       0       0       0       0       0       0       
      +0       0       0       0       0
  3098 ;;      Temps:          0       0       0       0       0       0       0       0       0       0       0       0       
      +0       0       0       0       0
  3099 ;;      Totals:         0       0       0       0       0       0       0       0       0       0       0       0       
      +0       0       0       0       0
  3100 ;;Total ram usage:        0 bytes
  3101 ;; Hardware stack levels used: 1
  3102 ;; Hardware stack levels required when called: 10
  3103 ;; This function calls:
  3104 ;;		_config_user
  3105 ;;		_os_create_task
  3106 ;; This function is called by:
  3107 ;;		_main
  3108 ;; This function uses a non-reentrant model
  3109 ;;
  3110                           
  3111                           	psect	text5
  3112   002F02                     __ptext5:
  3113                           	callstack 0
  3114   002F02                     _os_config:
  3115                           	callstack 20
  3116   002F02                     
  3117                           ;kernel.c: 73:     r_queue.size = 0;
  3118   002F02  0101               	movlb	1	; () banked
  3119   002F04  6BD2               	clrf	(_r_queue+210)& (0+255),b
  3120                           
  3121                           ;kernel.c: 75:     r_queue.pos_task_running = 0;
  3122   002F06  6BD3               	clrf	(_r_queue+211)& (0+255),b
  3123   002F08                     
  3124                           ; BSR set to: 1
  3125                           ;kernel.c: 81:     os_create_task(1, idle, 0);
  3126   002F08  0EB4               	movlw	low _idle
  3127   002F0A  0102               	movlb	2	; () banked
  3128   002F0C  6F55               	movwf	os_create_task@func& (0+255),b
  3129   002F0E  0E2E               	movlw	high _idle
  3130   002F10  6F56               	movwf	(os_create_task@func+1)& (0+255),b
  3131   002F12  0E00               	movlw	0
  3132   002F14  6F57               	movwf	os_create_task@prior& (0+255),b
  3133   002F16  0E01               	movlw	1
  3134   002F18  ECFE  F012         	call	_os_create_task	;# 
  3135   002F1C                     
  3136                           ;kernel.c: 84:     config_user();
  3137   002F1C  EC44  F016         	call	_config_user	;wreg free
  3138   002F20  0012               	return		;funcret
  3139   002F22                     __end_of_os_config:
  3140                           	callstack 0
  3141                           
  3142 ;; *************** function _os_create_task *****************
  3143 ;; Defined at:
  3144 ;;		line 25 in file "kernel.c"
  3145 ;; Parameters:    Size  Location     Type
  3146 ;;  id              1    wreg     unsigned char 
  3147 ;;  func            2   85[BANK2 ] PTR FTN()void 
  3148 ;;		 -> tarefaOneShot(1), idle(1), tarefaFeedbackLED(1), tarefaControlePWM(1), 
  3149 ;;		 -> tarefaProcessamento(1), tarefaLeituraADC(1), 
  3150 ;;  prior           1   87[BANK2 ] unsigned char 
  3151 ;; Auto vars:     Size  Location     Type
  3152 ;;  id              1   89[BANK2 ] unsigned char 
  3153 ;;  new_task        2   90[BANK2 ] PTR struct tcb
  3154 ;;		 -> r_queue$TASKS(210), r_queue(212), 
  3155 ;; Return value:  Size  Location     Type
  3156 ;;                  1    wreg      void 
  3157 ;; Registers used:
  3158 ;;		wreg, fsr1l, fsr1h, fsr2l, fsr2h, status,2, status,0, prodl, prodh
  3159 ;; Tracked objects:
  3160 ;;		On entry : 0/0
  3161 ;;		On exit  : 0/0
  3162 ;;		Unchanged: 0/0
  3163 ;; Data sizes:     COMRAM   BANK0   BANK1   BANK2   BANK3   BANK4   BANK5   BANK6   BANK7   BANK8   BANK9  BANK10  BANK1
      +1  BANK12  BANK13  BANK14  BANK15
  3164 ;;      Params:         0       0       0       3       0       0       0       0       0       0       0       0       
      +0       0       0       0       0
  3165 ;;      Locals:         0       0       0       3       0       0       0       0       0       0       0       0       
      +0       0       0       0       0
  3166 ;;      Temps:          0       0       0       1       0       0       0       0       0       0       0       0       
      +0       0       0       0       0
  3167 ;;      Totals:         0       0       0       7       0       0       0       0       0       0       0       0       
      +0       0       0       0       0
  3168 ;;Total ram usage:        7 bytes
  3169 ;; Hardware stack levels used: 1
  3170 ;; Hardware stack levels required when called: 7
  3171 ;; This function calls:
  3172 ;;		Nothing
  3173 ;; This function is called by:
  3174 ;;		_main
  3175 ;;		_os_config
  3176 ;; This function uses a non-reentrant model
  3177 ;;
  3178                           
  3179                           	psect	text6
  3180   0025FC                     __ptext6:
  3181                           	callstack 0
  3182   0025FC                     _os_create_task:
  3183                           	callstack 22
  3184                           
  3185                           ;incstack = 0
  3186                           ;os_create_task@id stored from wreg
  3187   0025FC  0102               	movlb	2	; () banked
  3188   0025FE  6F59               	movwf	os_create_task@id& (0+255),b
  3189   002600                     
  3190                           ;kernel.c: 25: void os_create_task(uint8_t id, f_ptr func, uint8_t prior);kernel.c: 26: 
      +                          {;kernel.c: 27:     tcb_t *new_task;;kernel.c: 29:     if (r_queue.size >= 5 +1)
  3191   002600  0E05               	movlw	5
  3192   002602  0101               	movlb	1	; () banked
  3193   002604  65D2               	cpfsgt	(_r_queue+210)& (0+255),b
  3194   002606  EF07  F013         	goto	u3641
  3195   00260A  EF09  F013         	goto	u3640
  3196   00260E                     u3641:
  3197   00260E  EF0B  F013         	goto	l4289
  3198   002612                     u3640:
  3199   002612  EF94  F013         	goto	l71
  3200   002616                     l4289:
  3201                           
  3202                           ; BSR set to: 1
  3203                           ;kernel.c: 32:     new_task = &r_queue.TASKS[r_queue.size];
  3204   002616  51D2               	movf	(_r_queue+210)& (0+255),w,b
  3205   002618  0D23               	mullw	35
  3206   00261A  0E00               	movlw	low _r_queue
  3207   00261C  24F3               	addwf	243,w,c
  3208   00261E  0102               	movlb	2	; () banked
  3209   002620  6F5A               	movwf	os_create_task@new_task& (0+255),b
  3210   002622  0E01               	movlw	high _r_queue
  3211   002624  20F4               	addwfc	prodh,w,c
  3212   002626  6F5B               	movwf	(os_create_task@new_task+1)& (0+255),b
  3213   002628                     
  3214                           ; BSR set to: 2
  3215                           ;kernel.c: 34:     new_task->task_id = id;
  3216   002628  C25A  FFD9         	movff	os_create_task@new_task,fsr2l
  3217   00262C  C25B  FFDA         	movff	os_create_task@new_task+1,fsr2h
  3218   002630  C259  FFDF         	movff	os_create_task@id,indf2
  3219   002634                     
  3220                           ; BSR set to: 2
  3221                           ;kernel.c: 35:     new_task->task_delay = 0;
  3222   002634  EE20 F003          	lfsr	2,3
  3223   002638  515A               	movf	os_create_task@new_task& (0+255),w,b
  3224   00263A  26D9               	addwf	fsr2l,f,c
  3225   00263C  515B               	movf	(os_create_task@new_task+1)& (0+255),w,b
  3226   00263E  22DA               	addwfc	fsr2h,f,c
  3227   002640  6ADF               	clrf	indf2,c
  3228   002642                     
  3229                           ; BSR set to: 2
  3230                           ;kernel.c: 36:     new_task->task_ptr = func;
  3231   002642  EE20 F001          	lfsr	2,1
  3232   002646  515A               	movf	os_create_task@new_task& (0+255),w,b
  3233   002648  26D9               	addwf	fsr2l,f,c
  3234   00264A  515B               	movf	(os_create_task@new_task+1)& (0+255),w,b
  3235   00264C  22DA               	addwfc	fsr2h,f,c
  3236   00264E  C255  FFDE         	movff	os_create_task@func,postinc2
  3237   002652  C256  FFDD         	movff	os_create_task@func+1,postdec2
  3238   002656                     
  3239                           ; BSR set to: 2
  3240                           ;kernel.c: 37:     (((*new_task)).state_prio = (uint8_t)((((*new_task)).state_prio & 0xF
      +                          C) | (uint8_t)(READY)));
  3241   002656  EE20 F004          	lfsr	2,4
  3242   00265A  515A               	movf	os_create_task@new_task& (0+255),w,b
  3243   00265C  26D9               	addwf	fsr2l,f,c
  3244   00265E  515B               	movf	(os_create_task@new_task+1)& (0+255),w,b
  3245   002660  22DA               	addwfc	fsr2h,f,c
  3246   002662  EE10 F004          	lfsr	1,4
  3247   002666  515A               	movf	os_create_task@new_task& (0+255),w,b
  3248   002668  26E1               	addwf	fsr1l,f,c
  3249   00266A  515B               	movf	(os_create_task@new_task+1)& (0+255),w,b
  3250   00266C  22E2               	addwfc	fsr1h,f,c
  3251   00266E  50E7               	movf	indf1,w,c
  3252   002670  0BFC               	andlw	252
  3253   002672  6EDF               	movwf	indf2,c
  3254   002674                     
  3255                           ; BSR set to: 2
  3256                           ;kernel.c: 38:     (((*new_task)).state_prio = (uint8_t)((((*new_task)).state_prio & 0x0
      +                          3) | ((uint8_t)(prior) << 2)));
  3257   002674  EE20 F004          	lfsr	2,4
  3258   002678  515A               	movf	os_create_task@new_task& (0+255),w,b
  3259   00267A  26D9               	addwf	fsr2l,f,c
  3260   00267C  515B               	movf	(os_create_task@new_task+1)& (0+255),w,b
  3261   00267E  22DA               	addwfc	fsr2h,f,c
  3262   002680  C257  F258         	movff	os_create_task@prior,??_os_create_task
  3263   002684  90D8               	bcf	status,0,c
  3264   002686  3758               	rlcf	??_os_create_task& (0+255),f,b
  3265   002688  90D8               	bcf	status,0,c
  3266   00268A  3758               	rlcf	??_os_create_task& (0+255),f,b
  3267   00268C  EE10 F004          	lfsr	1,4
  3268   002690  515A               	movf	os_create_task@new_task& (0+255),w,b
  3269   002692  26E1               	addwf	fsr1l,f,c
  3270   002694  515B               	movf	(os_create_task@new_task+1)& (0+255),w,b
  3271   002696  22E2               	addwfc	fsr1h,f,c
  3272   002698  50E7               	movf	indf1,w,c
  3273   00269A  0B03               	andlw	3
  3274   00269C  1158               	iorwf	??_os_create_task& (0+255),w,b
  3275   00269E  6EDF               	movwf	indf2,c
  3276   0026A0                     
  3277                           ; BSR set to: 2
  3278                           ;kernel.c: 40:     new_task->BSR_REG = 0;
  3279   0026A0  EE20 F007          	lfsr	2,7
  3280   0026A4  515A               	movf	os_create_task@new_task& (0+255),w,b
  3281   0026A6  26D9               	addwf	fsr2l,f,c
  3282   0026A8  515B               	movf	(os_create_task@new_task+1)& (0+255),w,b
  3283   0026AA  22DA               	addwfc	fsr2h,f,c
  3284   0026AC  6ADF               	clrf	indf2,c
  3285   0026AE                     
  3286                           ; BSR set to: 2
  3287                           ;kernel.c: 41:     new_task->STATUS_REG = 0;
  3288   0026AE  EE20 F006          	lfsr	2,6
  3289   0026B2  515A               	movf	os_create_task@new_task& (0+255),w,b
  3290   0026B4  26D9               	addwf	fsr2l,f,c
  3291   0026B6  515B               	movf	(os_create_task@new_task+1)& (0+255),w,b
  3292   0026B8  22DA               	addwfc	fsr2h,f,c
  3293   0026BA  6ADF               	clrf	indf2,c
  3294   0026BC                     
  3295                           ; BSR set to: 2
  3296                           ;kernel.c: 42:     new_task->W_REG = 0;
  3297   0026BC  EE20 F005          	lfsr	2,5
  3298   0026C0  515A               	movf	os_create_task@new_task& (0+255),w,b
  3299   0026C2  26D9               	addwf	fsr2l,f,c
  3300   0026C4  515B               	movf	(os_create_task@new_task+1)& (0+255),w,b
  3301   0026C6  22DA               	addwfc	fsr2h,f,c
  3302   0026C8  6ADF               	clrf	indf2,c
  3303   0026CA                     
  3304                           ; BSR set to: 2
  3305                           ;kernel.c: 43:     new_task->FSR0H_REG = 0;
  3306   0026CA  EE20 F009          	lfsr	2,9
  3307   0026CE  515A               	movf	os_create_task@new_task& (0+255),w,b
  3308   0026D0  26D9               	addwf	fsr2l,f,c
  3309   0026D2  515B               	movf	(os_create_task@new_task+1)& (0+255),w,b
  3310   0026D4  22DA               	addwfc	fsr2h,f,c
  3311   0026D6  6ADF               	clrf	indf2,c
  3312   0026D8                     
  3313                           ; BSR set to: 2
  3314                           ;kernel.c: 44:     new_task->FSR0L_REG = 0;
  3315   0026D8  EE20 F008          	lfsr	2,8
  3316   0026DC  515A               	movf	os_create_task@new_task& (0+255),w,b
  3317   0026DE  26D9               	addwf	fsr2l,f,c
  3318   0026E0  515B               	movf	(os_create_task@new_task+1)& (0+255),w,b
  3319   0026E2  22DA               	addwfc	fsr2h,f,c
  3320   0026E4  6ADF               	clrf	indf2,c
  3321   0026E6                     
  3322                           ; BSR set to: 2
  3323                           ;kernel.c: 47:     new_task->task_stack.stack[0].TOSL_REG =
  3324   0026E6  EE20 F00A          	lfsr	2,10
  3325   0026EA  515A               	movf	os_create_task@new_task& (0+255),w,b
  3326   0026EC  26D9               	addwf	fsr2l,f,c
  3327   0026EE  515B               	movf	(os_create_task@new_task+1)& (0+255),w,b
  3328   0026F0  22DA               	addwfc	fsr2h,f,c
  3329   0026F2  C255  FFDF         	movff	os_create_task@func,indf2
  3330   0026F6                     
  3331                           ; BSR set to: 2
  3332                           ;kernel.c: 50:     new_task->task_stack.stack[0].TOSH_REG =
  3333   0026F6  EE20 F00B          	lfsr	2,11
  3334   0026FA  515A               	movf	os_create_task@new_task& (0+255),w,b
  3335   0026FC  26D9               	addwf	fsr2l,f,c
  3336   0026FE  515B               	movf	(os_create_task@new_task+1)& (0+255),w,b
  3337   002700  22DA               	addwfc	fsr2h,f,c
  3338   002702  5156               	movf	(os_create_task@func+1)& (0+255),w,b
  3339   002704  6EDF               	movwf	indf2,c
  3340   002706                     
  3341                           ; BSR set to: 2
  3342                           ;kernel.c: 53:     new_task->task_stack.stack[0].TOSU_REG = 0;
  3343   002706  EE20 F00C          	lfsr	2,12
  3344   00270A  515A               	movf	os_create_task@new_task& (0+255),w,b
  3345   00270C  26D9               	addwf	fsr2l,f,c
  3346   00270E  515B               	movf	(os_create_task@new_task+1)& (0+255),w,b
  3347   002710  22DA               	addwfc	fsr2h,f,c
  3348   002712  6ADF               	clrf	indf2,c
  3349   002714                     
  3350                           ; BSR set to: 2
  3351                           ;kernel.c: 55:     new_task->task_stack.stack_size = 1;
  3352   002714  EE20 F022          	lfsr	2,34
  3353   002718  515A               	movf	os_create_task@new_task& (0+255),w,b
  3354   00271A  26D9               	addwf	fsr2l,f,c
  3355   00271C  515B               	movf	(os_create_task@new_task+1)& (0+255),w,b
  3356   00271E  22DA               	addwfc	fsr2h,f,c
  3357   002720  0E01               	movlw	1
  3358   002722  6EDF               	movwf	indf2,c
  3359   002724                     
  3360                           ; BSR set to: 2
  3361                           ;kernel.c: 57:     r_queue.size++;
  3362   002724  0101               	movlb	1	; () banked
  3363   002726  2BD2               	incf	(_r_queue+210)& (0+255),f,b
  3364   002728                     l71:
  3365                           
  3366                           ; BSR set to: 1
  3367   002728  0012               	return		;funcret
  3368   00272A                     __end_of_os_create_task:
  3369                           	callstack 0
  3370                           
  3371 ;; *************** function _config_user *****************
  3372 ;; Defined at:
  3373 ;;		line 15 in file "user.c"
  3374 ;; Parameters:    Size  Location     Type
  3375 ;;		None
  3376 ;; Auto vars:     Size  Location     Type
  3377 ;;		None
  3378 ;; Return value:  Size  Location     Type
  3379 ;;                  1    wreg      void 
  3380 ;; Registers used:
  3381 ;;		wreg, fsr2l, fsr2h, status,2, status,0, cstack
  3382 ;; Tracked objects:
  3383 ;;		On entry : 0/0
  3384 ;;		On exit  : 0/0
  3385 ;;		Unchanged: 0/0
  3386 ;; Data sizes:     COMRAM   BANK0   BANK1   BANK2   BANK3   BANK4   BANK5   BANK6   BANK7   BANK8   BANK9  BANK10  BANK1
      +1  BANK12  BANK13  BANK14  BANK15
  3387 ;;      Params:         0       0       0       0       0       0       0       0       0       0       0       0       
      +0       0       0       0       0
  3388 ;;      Locals:         0       0       0       0       0       0       0       0       0       0       0       0       
      +0       0       0       0       0
  3389 ;;      Temps:          0       0       0       0       0       0       0       0       0       0       0       0       
      +0       0       0       0       0
  3390 ;;      Totals:         0       0       0       0       0       0       0       0       0       0       0       0       
      +0       0       0       0       0
  3391 ;;Total ram usage:        0 bytes
  3392 ;; Hardware stack levels used: 1
  3393 ;; Hardware stack levels required when called: 9
  3394 ;; This function calls:
  3395 ;;		_adc_config
  3396 ;;		_mutex_init
  3397 ;;		_pipe_init
  3398 ;;		_pwm_init
  3399 ;;		_sem_init
  3400 ;; This function is called by:
  3401 ;;		_os_config
  3402 ;; This function uses a non-reentrant model
  3403 ;;
  3404                           
  3405                           	psect	text7
  3406   002C88                     __ptext7:
  3407                           	callstack 0
  3408   002C88                     _config_user:
  3409                           	callstack 20
  3410   002C88                     
  3411                           ;user.c: 18:     TRISD = 0x00;
  3412   002C88  6A95               	clrf	149,c	;volatile
  3413                           
  3414                           ;user.c: 19:     ANSELBbits.ANSB0 = 0;
  3415   002C8A  010F               	movlb	15	; () banked
  3416   002C8C  9139               	bcf	57,0,b	;volatile
  3417                           
  3418                           ;user.c: 20:     TRISBbits.RB0 = 1;
  3419   002C8E  8093               	bsf	147,0,c	;volatile
  3420                           
  3421                           ;user.c: 21:     TRISCbits.RC6 = 0;
  3422   002C90  9C94               	bcf	148,6,c	;volatile
  3423                           
  3424                           ;user.c: 22:     TRISCbits.RC7 = 0;
  3425   002C92  9E94               	bcf	148,7,c	;volatile
  3426                           
  3427                           ;user.c: 23:     TRISDbits.RD0 = 0;
  3428   002C94  9095               	bcf	149,0,c	;volatile
  3429                           
  3430                           ;user.c: 24:     TRISDbits.RD1 = 0;
  3431   002C96  9295               	bcf	149,1,c	;volatile
  3432                           
  3433                           ;user.c: 25:     ANSELDbits.ANSD0 = 0;
  3434   002C98  913B               	bcf	59,0,b	;volatile
  3435                           
  3436                           ;user.c: 26:     ANSELCbits.ANSC6 = 0;
  3437   002C9A  9D3A               	bcf	58,6,b	;volatile
  3438                           
  3439                           ;user.c: 27:     ANSELCbits.ANSC7 = 0;
  3440   002C9C  9F3A               	bcf	58,7,b	;volatile
  3441                           
  3442                           ;user.c: 28:     INTCONbits.INT0IE = 1;
  3443   002C9E  88F2               	bsf	242,4,c	;volatile
  3444                           
  3445                           ;user.c: 29:     INTCON2bits.INTEDG0 = 0;
  3446   002CA0  9CF1               	bcf	241,6,c	;volatile
  3447                           
  3448                           ;user.c: 30:     INTCONbits.INT0IF = 0;
  3449   002CA2  92F2               	bcf	242,1,c	;volatile
  3450   002CA4                     
  3451                           ; BSR set to: 15
  3452                           ;user.c: 33:     adc_config();
  3453   002CA4  EC46  F017         	call	_adc_config	;wreg free
  3454                           
  3455                           ;user.c: 34:     pwm_init();
  3456   002CA8  ECAF  F017         	call	_pwm_init	;wreg free
  3457   002CAC                     
  3458                           ;user.c: 37:     pipe_init(&pipe_adc);
  3459   002CAC  0E61               	movlw	low _pipe_adc
  3460   002CAE  0102               	movlb	2	; () banked
  3461   002CB0  6F57               	movwf	pipe_init@p& (0+255),b
  3462   002CB2  ECA9  F016         	call	_pipe_init	;wreg free
  3463   002CB6                     
  3464                           ;user.c: 38:     mutex_init(&mutex_recurso);
  3465   002CB6  0E77               	movlw	low _mutex_recurso
  3466   002CB8  0102               	movlb	2	; () banked
  3467   002CBA  6F55               	movwf	mutex_init@m& (0+255),b
  3468   002CBC  EC8B  F016         	call	_mutex_init	;wreg free
  3469   002CC0                     
  3470                           ;user.c: 39:     sem_init(&sem_processamento, 0);
  3471   002CC0  0E81               	movlw	low _sem_processamento
  3472   002CC2  0102               	movlb	2	; () banked
  3473   002CC4  6F55               	movwf	sem_init@sem& (0+255),b
  3474   002CC6  0E00               	movlw	0
  3475   002CC8  6F56               	movwf	sem_init@valor& (0+255),b
  3476   002CCA  EC6E  F017         	call	_sem_init	;# 
  3477   002CCE  0012               	return		;funcret
  3478   002CD0                     __end_of_config_user:
  3479                           	callstack 0
  3480                           
  3481 ;; *************** function _pwm_init *****************
  3482 ;; Defined at:
  3483 ;;		line 24 in file "io.c"
  3484 ;; Parameters:    Size  Location     Type
  3485 ;;		None
  3486 ;; Auto vars:     Size  Location     Type
  3487 ;;		None
  3488 ;; Return value:  Size  Location     Type
  3489 ;;                  1    wreg      void 
  3490 ;; Registers used:
  3491 ;;		wreg, status,2
  3492 ;; Tracked objects:
  3493 ;;		On entry : 0/0
  3494 ;;		On exit  : 0/0
  3495 ;;		Unchanged: 0/0
  3496 ;; Data sizes:     COMRAM   BANK0   BANK1   BANK2   BANK3   BANK4   BANK5   BANK6   BANK7   BANK8   BANK9  BANK10  BANK1
      +1  BANK12  BANK13  BANK14  BANK15
  3497 ;;      Params:         0       0       0       0       0       0       0       0       0       0       0       0       
      +0       0       0       0       0
  3498 ;;      Locals:         0       0       0       0       0       0       0       0       0       0       0       0       
      +0       0       0       0       0
  3499 ;;      Temps:          0       0       0       0       0       0       0       0       0       0       0       0       
      +0       0       0       0       0
  3500 ;;      Totals:         0       0       0       0       0       0       0       0       0       0       0       0       
      +0       0       0       0       0
  3501 ;;Total ram usage:        0 bytes
  3502 ;; Hardware stack levels used: 1
  3503 ;; Hardware stack levels required when called: 7
  3504 ;; This function calls:
  3505 ;;		Nothing
  3506 ;; This function is called by:
  3507 ;;		_config_user
  3508 ;; This function uses a non-reentrant model
  3509 ;;
  3510                           
  3511                           	psect	text8
  3512   002F5E                     __ptext8:
  3513                           	callstack 0
  3514   002F5E                     _pwm_init:
  3515                           	callstack 21
  3516   002F5E                     
  3517                           ;io.c: 26:     PR2 = 0xFF;
  3518   002F5E  68BB               	setf	187,c	;volatile
  3519   002F60                     
  3520                           ;io.c: 27:     CCP1CON = 0x0C;
  3521   002F60  0E0C               	movlw	12
  3522   002F62  6EBD               	movwf	189,c	;volatile
  3523                           
  3524                           ;io.c: 28:     T2CON = 0x04;
  3525   002F64  0E04               	movlw	4
  3526   002F66  6EBA               	movwf	186,c	;volatile
  3527   002F68                     
  3528                           ;io.c: 29:     TRISCbits.RC2 = 0;
  3529   002F68  9494               	bcf	148,2,c	;volatile
  3530   002F6A  0012               	return		;funcret
  3531   002F6C                     __end_of_pwm_init:
  3532                           	callstack 0
  3533                           
  3534 ;; *************** function _pipe_init *****************
  3535 ;; Defined at:
  3536 ;;		line 3 in file "com.c"
  3537 ;; Parameters:    Size  Location     Type
  3538 ;;  p               1   87[BANK2 ] PTR struct pipe
  3539 ;;		 -> pipe_adc(22), 
  3540 ;; Auto vars:     Size  Location     Type
  3541 ;;		None
  3542 ;; Return value:  Size  Location     Type
  3543 ;;                  1    wreg      void 
  3544 ;; Registers used:
  3545 ;;		wreg, fsr2l, fsr2h, status,2, status,0, cstack
  3546 ;; Tracked objects:
  3547 ;;		On entry : 0/0
  3548 ;;		On exit  : 0/0
  3549 ;;		Unchanged: 0/0
  3550 ;; Data sizes:     COMRAM   BANK0   BANK1   BANK2   BANK3   BANK4   BANK5   BANK6   BANK7   BANK8   BANK9  BANK10  BANK1
      +1  BANK12  BANK13  BANK14  BANK15
  3551 ;;      Params:         0       0       0       1       0       0       0       0       0       0       0       0       
      +0       0       0       0       0
  3552 ;;      Locals:         0       0       0       0       0       0       0       0       0       0       0       0       
      +0       0       0       0       0
  3553 ;;      Temps:          0       0       0       0       0       0       0       0       0       0       0       0       
      +0       0       0       0       0
  3554 ;;      Totals:         0       0       0       1       0       0       0       0       0       0       0       0       
      +0       0       0       0       0
  3555 ;;Total ram usage:        1 bytes
  3556 ;; Hardware stack levels used: 1
  3557 ;; Hardware stack levels required when called: 8
  3558 ;; This function calls:
  3559 ;;		_sem_init
  3560 ;; This function is called by:
  3561 ;;		_config_user
  3562 ;; This function uses a non-reentrant model
  3563 ;;
  3564                           
  3565                           	psect	text9
  3566   002D52                     __ptext9:
  3567                           	callstack 0
  3568   002D52                     _pipe_init:
  3569                           	callstack 20
  3570   002D52                     
  3571                           ;com.c: 3: void pipe_init(pipe_t *p);com.c: 4: {;com.c: 5:     p->pos_input = 0;
  3572   002D52  0102               	movlb	2	; () banked
  3573   002D54  5157               	movf	pipe_init@p& (0+255),w,b
  3574   002D56  6ED9               	movwf	fsr2l,c
  3575   002D58  6ADA               	clrf	fsr2h,c
  3576   002D5A  0E04               	movlw	4
  3577   002D5C  26D9               	addwf	fsr2l,f,c
  3578   002D5E  6ADF               	clrf	indf2,c
  3579                           
  3580                           ;com.c: 6:     p->pos_output = 0;
  3581   002D60  5157               	movf	pipe_init@p& (0+255),w,b
  3582   002D62  6ED9               	movwf	fsr2l,c
  3583   002D64  6ADA               	clrf	fsr2h,c
  3584   002D66  0E05               	movlw	5
  3585   002D68  26D9               	addwf	fsr2l,f,c
  3586   002D6A  6ADF               	clrf	indf2,c
  3587   002D6C                     
  3588                           ; BSR set to: 2
  3589                           ;com.c: 7:     sem_init(&p->s_input, 4);
  3590   002D6C  5157               	movf	pipe_init@p& (0+255),w,b
  3591   002D6E  0F06               	addlw	6
  3592   002D70  6F55               	movwf	sem_init@sem& (0+255),b
  3593   002D72  0E04               	movlw	4
  3594   002D74  6F56               	movwf	sem_init@valor& (0+255),b
  3595   002D76  EC6E  F017         	call	_sem_init	;wreg free
  3596   002D7A                     
  3597                           ;com.c: 8:     sem_init(&p->s_output, 0);
  3598   002D7A  0102               	movlb	2	; () banked
  3599   002D7C  5157               	movf	pipe_init@p& (0+255),w,b
  3600   002D7E  0F0E               	addlw	14
  3601   002D80  6F55               	movwf	sem_init@sem& (0+255),b
  3602   002D82  0E00               	movlw	0
  3603   002D84  6F56               	movwf	sem_init@valor& (0+255),b
  3604   002D86  EC6E  F017         	call	_sem_init	;wreg free
  3605   002D8A  0012               	return		;funcret
  3606   002D8C                     __end_of_pipe_init:
  3607                           	callstack 0
  3608                           
  3609 ;; *************** function _sem_init *****************
  3610 ;; Defined at:
  3611 ;;		line 8 in file "sync.c"
  3612 ;; Parameters:    Size  Location     Type
  3613 ;;  sem             1   85[BANK2 ] PTR struct sem
  3614 ;;		 -> sem_processamento(8), pipe_adc(22), 
  3615 ;;  valor           1   86[BANK2 ] char 
  3616 ;; Auto vars:     Size  Location     Type
  3617 ;;		None
  3618 ;; Return value:  Size  Location     Type
  3619 ;;                  1    wreg      void 
  3620 ;; Registers used:
  3621 ;;		wreg, fsr2l, fsr2h, status,2, status,0
  3622 ;; Tracked objects:
  3623 ;;		On entry : 0/0
  3624 ;;		On exit  : 0/0
  3625 ;;		Unchanged: 0/0
  3626 ;; Data sizes:     COMRAM   BANK0   BANK1   BANK2   BANK3   BANK4   BANK5   BANK6   BANK7   BANK8   BANK9  BANK10  BANK1
      +1  BANK12  BANK13  BANK14  BANK15
  3627 ;;      Params:         0       0       0       2       0       0       0       0       0       0       0       0       
      +0       0       0       0       0
  3628 ;;      Locals:         0       0       0       0       0       0       0       0       0       0       0       0       
      +0       0       0       0       0
  3629 ;;      Temps:          0       0       0       0       0       0       0       0       0       0       0       0       
      +0       0       0       0       0
  3630 ;;      Totals:         0       0       0       2       0       0       0       0       0       0       0       0       
      +0       0       0       0       0
  3631 ;;Total ram usage:        2 bytes
  3632 ;; Hardware stack levels used: 1
  3633 ;; Hardware stack levels required when called: 7
  3634 ;; This function calls:
  3635 ;;		Nothing
  3636 ;; This function is called by:
  3637 ;;		_pipe_init
  3638 ;;		_config_user
  3639 ;; This function uses a non-reentrant model
  3640 ;;
  3641                           
  3642                           	psect	text10
  3643   002EDC                     __ptext10:
  3644                           	callstack 0
  3645   002EDC                     _sem_init:
  3646                           	callstack 20
  3647   002EDC                     
  3648                           ;sync.c: 9:     sem->contador = valor;
  3649   002EDC  0102               	movlb	2	; () banked
  3650   002EDE  5155               	movf	sem_init@sem& (0+255),w,b
  3651   002EE0  6ED9               	movwf	fsr2l,c
  3652   002EE2  6ADA               	clrf	fsr2h,c
  3653   002EE4  C256  FFDF         	movff	sem_init@valor,indf2
  3654   002EE8                     
  3655                           ; BSR set to: 2
  3656                           ;sync.c: 10:     sem->pos_input = 0;
  3657   002EE8  5155               	movf	sem_init@sem& (0+255),w,b
  3658   002EEA  6ED9               	movwf	fsr2l,c
  3659   002EEC  6ADA               	clrf	fsr2h,c
  3660   002EEE  0E06               	movlw	6
  3661   002EF0  26D9               	addwf	fsr2l,f,c
  3662   002EF2  6ADF               	clrf	indf2,c
  3663   002EF4                     
  3664                           ; BSR set to: 2
  3665                           ;sync.c: 11:     sem->pos_output = 0;
  3666   002EF4  5155               	movf	sem_init@sem& (0+255),w,b
  3667   002EF6  6ED9               	movwf	fsr2l,c
  3668   002EF8  6ADA               	clrf	fsr2h,c
  3669   002EFA  0E07               	movlw	7
  3670   002EFC  26D9               	addwf	fsr2l,f,c
  3671   002EFE  6ADF               	clrf	indf2,c
  3672   002F00                     
  3673                           ; BSR set to: 2
  3674   002F00  0012               	return		;funcret
  3675   002F02                     __end_of_sem_init:
  3676                           	callstack 0
  3677                           
  3678 ;; *************** function _mutex_init *****************
  3679 ;; Defined at:
  3680 ;;		line 48 in file "sync.c"
  3681 ;; Parameters:    Size  Location     Type
  3682 ;;  m               1   85[BANK2 ] PTR struct mutex
  3683 ;;		 -> mutex_recurso(10), 
  3684 ;; Auto vars:     Size  Location     Type
  3685 ;;		None
  3686 ;; Return value:  Size  Location     Type
  3687 ;;                  1    wreg      void 
  3688 ;; Registers used:
  3689 ;;		wreg, fsr2l, fsr2h, status,2, status,0
  3690 ;; Tracked objects:
  3691 ;;		On entry : 0/0
  3692 ;;		On exit  : 0/0
  3693 ;;		Unchanged: 0/0
  3694 ;; Data sizes:     COMRAM   BANK0   BANK1   BANK2   BANK3   BANK4   BANK5   BANK6   BANK7   BANK8   BANK9  BANK10  BANK1
      +1  BANK12  BANK13  BANK14  BANK15
  3695 ;;      Params:         0       0       0       1       0       0       0       0       0       0       0       0       
      +0       0       0       0       0
  3696 ;;      Locals:         0       0       0       0       0       0       0       0       0       0       0       0       
      +0       0       0       0       0
  3697 ;;      Temps:          0       0       0       0       0       0       0       0       0       0       0       0       
      +0       0       0       0       0
  3698 ;;      Totals:         0       0       0       1       0       0       0       0       0       0       0       0       
      +0       0       0       0       0
  3699 ;;Total ram usage:        1 bytes
  3700 ;; Hardware stack levels used: 1
  3701 ;; Hardware stack levels required when called: 7
  3702 ;; This function calls:
  3703 ;;		Nothing
  3704 ;; This function is called by:
  3705 ;;		_config_user
  3706 ;; This function uses a non-reentrant model
  3707 ;;
  3708                           
  3709                           	psect	text11
  3710   002D16                     __ptext11:
  3711                           	callstack 0
  3712   002D16                     _mutex_init:
  3713                           	callstack 21
  3714   002D16                     
  3715                           ;sync.c: 49:     m->locked = 0;
  3716   002D16  0102               	movlb	2	; () banked
  3717   002D18  5155               	movf	mutex_init@m& (0+255),w,b
  3718   002D1A  6ED9               	movwf	fsr2l,c
  3719   002D1C  6ADA               	clrf	fsr2h,c
  3720   002D1E  6ADF               	clrf	indf2,c
  3721   002D20                     
  3722                           ; BSR set to: 2
  3723                           ;sync.c: 50:     m->owner_id = 0;
  3724   002D20  5155               	movf	mutex_init@m& (0+255),w,b
  3725   002D22  6ED9               	movwf	fsr2l,c
  3726   002D24  6ADA               	clrf	fsr2h,c
  3727   002D26  0E01               	movlw	1
  3728   002D28  26D9               	addwf	fsr2l,f,c
  3729   002D2A  6ADF               	clrf	indf2,c
  3730   002D2C                     
  3731                           ; BSR set to: 2
  3732                           ;sync.c: 51:     m->pos_input = 0;
  3733   002D2C  5155               	movf	mutex_init@m& (0+255),w,b
  3734   002D2E  6ED9               	movwf	fsr2l,c
  3735   002D30  6ADA               	clrf	fsr2h,c
  3736   002D32  0E07               	movlw	7
  3737   002D34  26D9               	addwf	fsr2l,f,c
  3738   002D36  6ADF               	clrf	indf2,c
  3739   002D38                     
  3740                           ; BSR set to: 2
  3741                           ;sync.c: 52:     m->pos_output = 0;
  3742   002D38  5155               	movf	mutex_init@m& (0+255),w,b
  3743   002D3A  6ED9               	movwf	fsr2l,c
  3744   002D3C  6ADA               	clrf	fsr2h,c
  3745   002D3E  0E08               	movlw	8
  3746   002D40  26D9               	addwf	fsr2l,f,c
  3747   002D42  6ADF               	clrf	indf2,c
  3748   002D44                     
  3749                           ; BSR set to: 2
  3750                           ;sync.c: 53:     m->waiting_count = 0;
  3751   002D44  5155               	movf	mutex_init@m& (0+255),w,b
  3752   002D46  6ED9               	movwf	fsr2l,c
  3753   002D48  6ADA               	clrf	fsr2h,c
  3754   002D4A  0E09               	movlw	9
  3755   002D4C  26D9               	addwf	fsr2l,f,c
  3756   002D4E  6ADF               	clrf	indf2,c
  3757   002D50                     
  3758                           ; BSR set to: 2
  3759   002D50  0012               	return		;funcret
  3760   002D52                     __end_of_mutex_init:
  3761                           	callstack 0
  3762                           
  3763 ;; *************** function _adc_config *****************
  3764 ;; Defined at:
  3765 ;;		line 4 in file "io.c"
  3766 ;; Parameters:    Size  Location     Type
  3767 ;;		None
  3768 ;; Auto vars:     Size  Location     Type
  3769 ;;		None
  3770 ;; Return value:  Size  Location     Type
  3771 ;;                  1    wreg      void 
  3772 ;; Registers used:
  3773 ;;		wreg, status,2
  3774 ;; Tracked objects:
  3775 ;;		On entry : 0/0
  3776 ;;		On exit  : 0/0
  3777 ;;		Unchanged: 0/0
  3778 ;; Data sizes:     COMRAM   BANK0   BANK1   BANK2   BANK3   BANK4   BANK5   BANK6   BANK7   BANK8   BANK9  BANK10  BANK1
      +1  BANK12  BANK13  BANK14  BANK15
  3779 ;;      Params:         0       0       0       0       0       0       0       0       0       0       0       0       
      +0       0       0       0       0
  3780 ;;      Locals:         0       0       0       0       0       0       0       0       0       0       0       0       
      +0       0       0       0       0
  3781 ;;      Temps:          0       0       0       0       0       0       0       0       0       0       0       0       
      +0       0       0       0       0
  3782 ;;      Totals:         0       0       0       0       0       0       0       0       0       0       0       0       
      +0       0       0       0       0
  3783 ;;Total ram usage:        0 bytes
  3784 ;; Hardware stack levels used: 1
  3785 ;; Hardware stack levels required when called: 7
  3786 ;; This function calls:
  3787 ;;		Nothing
  3788 ;; This function is called by:
  3789 ;;		_config_user
  3790 ;; This function uses a non-reentrant model
  3791 ;;
  3792                           
  3793                           	psect	text12
  3794   002E8C                     __ptext12:
  3795                           	callstack 0
  3796   002E8C                     _adc_config:
  3797                           	callstack 21
  3798   002E8C                     
  3799                           ;io.c: 5:     ADCON0bits.CHS = 0b00000;
  3800   002E8C  0E83               	movlw	-125
  3801   002E8E  16C2               	andwf	194,f,c	;volatile
  3802                           
  3803                           ;io.c: 6:     ADCON1bits.PVCFG = 0b00;
  3804   002E90  0EF3               	movlw	-13
  3805   002E92  16C1               	andwf	193,f,c	;volatile
  3806                           
  3807                           ;io.c: 7:     ADCON1bits.NVCFG = 0b00;
  3808   002E94  0EFC               	movlw	-4
  3809   002E96  16C1               	andwf	193,f,c	;volatile
  3810   002E98                     
  3811                           ;io.c: 8:     ADCON2bits.ADFM = 1;
  3812   002E98  8EC0               	bsf	192,7,c	;volatile
  3813                           
  3814                           ;io.c: 9:     ADCON2bits.ACQT = 0b110;
  3815   002E9A  50C0               	movf	192,w,c	;volatile
  3816   002E9C  0BC7               	andlw	-57
  3817   002E9E  0930               	iorlw	48
  3818   002EA0  6EC0               	movwf	192,c	;volatile
  3819                           
  3820                           ;io.c: 10:     ADCON2bits.ADCS = 0b100;
  3821   002EA2  50C0               	movf	192,w,c	;volatile
  3822   002EA4  0BF8               	andlw	-8
  3823   002EA6  0904               	iorlw	4
  3824   002EA8  6EC0               	movwf	192,c	;volatile
  3825   002EAA                     
  3826                           ;io.c: 11:     TRISAbits.RA0 = 1;
  3827   002EAA  8092               	bsf	146,0,c	;volatile
  3828   002EAC                     
  3829                           ;io.c: 12:     ANSELAbits.ANSA0 = 1;
  3830   002EAC  010F               	movlb	15	; () banked
  3831   002EAE  8138               	bsf	56,0,b	;volatile
  3832   002EB0                     
  3833                           ; BSR set to: 15
  3834                           ;io.c: 13:     ADCON0bits.ADON = 1;
  3835   002EB0  80C2               	bsf	194,0,c	;volatile
  3836   002EB2                     
  3837                           ; BSR set to: 15
  3838   002EB2  0012               	return		;funcret
  3839   002EB4                     __end_of_adc_config:
  3840                           	callstack 0
  3841                           
  3842 ;; *************** function _idle *****************
  3843 ;; Defined at:
  3844 ;;		line 112 in file "kernel.c"
  3845 ;; Parameters:    Size  Location     Type
  3846 ;;		None
  3847 ;; Auto vars:     Size  Location     Type
  3848 ;;		None
  3849 ;; Return value:  Size  Location     Type
  3850 ;;                  1    wreg      void 
  3851 ;; Registers used:
  3852 ;;		wreg, status,2, status,0
  3853 ;; Tracked objects:
  3854 ;;		On entry : 0/0
  3855 ;;		On exit  : 0/0
  3856 ;;		Unchanged: 0/0
  3857 ;; Data sizes:     COMRAM   BANK0   BANK1   BANK2   BANK3   BANK4   BANK5   BANK6   BANK7   BANK8   BANK9  BANK10  BANK1
      +1  BANK12  BANK13  BANK14  BANK15
  3858 ;;      Params:         0       0       0       0       0       0       0       0       0       0       0       0       
      +0       0       0       0       0
  3859 ;;      Locals:         0       0       0       0       0       0       0       0       0       0       0       0       
      +0       0       0       0       0
  3860 ;;      Temps:          1       0       0       0       0       0       0       0       0       0       0       0       
      +0       0       0       0       0
  3861 ;;      Totals:         1       0       0       0       0       0       0       0       0       0       0       0       
      +0       0       0       0       0
  3862 ;;Total ram usage:        1 bytes
  3863 ;; Hardware stack levels used: 1
  3864 ;; Hardware stack levels required when called: 3
  3865 ;; This function calls:
  3866 ;;		Nothing
  3867 ;; This function is called by:
  3868 ;;		_os_config
  3869 ;;		_RR_scheduler
  3870 ;; This function uses a non-reentrant model
  3871 ;;
  3872                           
  3873                           	psect	text13
  3874   002EB4                     __ptext13:
  3875                           	callstack 0
  3876   002EB4                     _idle:
  3877                           	callstack 23
  3878   002EB4                     
  3879                           ;kernel.c: 114:     TRISCbits.RC0 = 0;
  3880   002EB4  9094               	bcf	148,0,c	;volatile
  3881   002EB6                     l1903:
  3882                           
  3883                           ;kernel.c: 117:         PORTCbits.RC0 = ~PORTCbits.RC0;
  3884   002EB6  B082               	btfsc	130,0,c	;volatile
  3885   002EB8  EF60  F017         	goto	u71_21
  3886   002EBC  EF63  F017         	goto	u71_20
  3887   002EC0                     u71_21:
  3888   002EC0  0E01               	movlw	1
  3889   002EC2  EF64  F017         	goto	u71_26
  3890   002EC6                     u71_20:
  3891   002EC6  0E00               	movlw	0
  3892   002EC8                     u71_26:
  3893   002EC8  0AFF               	xorlw	255
  3894   002ECA  6E02               	movwf	??_idle^0,c
  3895   002ECC  5082               	movf	130,w,c	;volatile
  3896   002ECE  1802               	xorwf	??_idle^0,w,c
  3897   002ED0  0BFE               	andlw	-2
  3898   002ED2  1802               	xorwf	??_idle^0,w,c
  3899   002ED4  6E82               	movwf	130,c	;volatile
  3900   002ED6  EF5B  F017         	goto	l1903
  3901   002EDA  0012               	return		;funcret
  3902   002EDC                     __end_of_idle:
  3903                           	callstack 0
  3904                           
  3905 ;; *************** function _tarefaLeituraADC *****************
  3906 ;; Defined at:
  3907 ;;		line 50 in file "user.c"
  3908 ;; Parameters:    Size  Location     Type
  3909 ;;		None
  3910 ;; Auto vars:     Size  Location     Type
  3911 ;;  valor           1    8[COMRAM] unsigned char 
  3912 ;; Return value:  Size  Location     Type
  3913 ;;                  1    wreg      void 
  3914 ;; Registers used:
  3915 ;;		wreg, fsr1l, fsr1h, fsr2l, fsr2h, status,2, status,0, prodl, prodh, cstack
  3916 ;; Tracked objects:
  3917 ;;		On entry : 0/0
  3918 ;;		On exit  : 0/0
  3919 ;;		Unchanged: 0/0
  3920 ;; Data sizes:     COMRAM   BANK0   BANK1   BANK2   BANK3   BANK4   BANK5   BANK6   BANK7   BANK8   BANK9  BANK10  BANK1
      +1  BANK12  BANK13  BANK14  BANK15
  3921 ;;      Params:         0       0       0       0       0       0       0       0       0       0       0       0       
      +0       0       0       0       0
  3922 ;;      Locals:         1       0       0       0       0       0       0       0       0       0       0       0       
      +0       0       0       0       0
  3923 ;;      Temps:          0       0       0       0       0       0       0       0       0       0       0       0       
      +0       0       0       0       0
  3924 ;;      Totals:         1       0       0       0       0       0       0       0       0       0       0       0       
      +0       0       0       0       0
  3925 ;;Total ram usage:        1 bytes
  3926 ;; Hardware stack levels used: 1
  3927 ;; Hardware stack levels required when called: 6
  3928 ;; This function calls:
  3929 ;;		_adc_read
  3930 ;;		_os_delay
  3931 ;;		_pipe_write
  3932 ;; This function is called by:
  3933 ;;		_main
  3934 ;; This function uses a non-reentrant model
  3935 ;;
  3936                           
  3937                           	psect	text14
  3938   002E2C                     __ptext14:
  3939                           	callstack 0
  3940   002E2C                     _tarefaLeituraADC:
  3941                           	callstack 20
  3942   002E2C                     l303:
  3943   002E2C                     
  3944                           ;user.c: 52:         uint8_t valor = (uint8_t)(adc_read(0) >> 2);
  3945   002E2C  0E00               	movlw	0
  3946   002E2E  ECE3  F016         	call	_adc_read
  3947   002E32  0100               	movlb	0	; () banked
  3948   002E34  90D8               	bcf	status,0,c
  3949   002E36  3392               	rrcf	(?_adc_read+1)& (0+255),f,b
  3950   002E38  3391               	rrcf	?_adc_read& (0+255),f,b
  3951   002E3A  90D8               	bcf	status,0,c
  3952   002E3C  3392               	rrcf	(?_adc_read+1)& (0+255),f,b
  3953   002E3E  3391               	rrcf	?_adc_read& (0+255),f,b
  3954   002E40  5191               	movf	?_adc_read& (0+255),w,b
  3955   002E42  6E0A               	movwf	tarefaLeituraADC@valor^0,c
  3956   002E44                     
  3957                           ; BSR set to: 0
  3958                           ;user.c: 53:         pipe_write(&pipe_adc, valor);
  3959   002E44  0E61               	movlw	low _pipe_adc
  3960   002E46  6F94               	movwf	pipe_write@p& (0+255),b
  3961   002E48  C00A  F095         	movff	tarefaLeituraADC@valor,pipe_write@dado
  3962   002E4C  ECB6  F015         	call	_pipe_write	;wreg free
  3963   002E50                     
  3964                           ;user.c: 54:         os_delay(10);
  3965   002E50  0E0A               	movlw	10
  3966   002E52  EC2C  F00E         	call	_os_delay
  3967   002E56  EF16  F017         	goto	l303
  3968   002E5A  0012               	return		;funcret
  3969   002E5C                     __end_of_tarefaLeituraADC:
  3970                           	callstack 0
  3971                           
  3972 ;; *************** function _pipe_write *****************
  3973 ;; Defined at:
  3974 ;;		line 11 in file "com.c"
  3975 ;; Parameters:    Size  Location     Type
  3976 ;;  p               1   11[BANK0 ] PTR struct pipe
  3977 ;;		 -> pipe_adc(22), 
  3978 ;;  dado            1   12[BANK0 ] unsigned char 
  3979 ;; Auto vars:     Size  Location     Type
  3980 ;;		None
  3981 ;; Return value:  Size  Location     Type
  3982 ;;                  1    wreg      void 
  3983 ;; Registers used:
  3984 ;;		wreg, fsr1l, fsr1h, fsr2l, fsr2h, status,2, status,0, prodl, prodh, cstack
  3985 ;; Tracked objects:
  3986 ;;		On entry : 0/0
  3987 ;;		On exit  : 0/0
  3988 ;;		Unchanged: 0/0
  3989 ;; Data sizes:     COMRAM   BANK0   BANK1   BANK2   BANK3   BANK4   BANK5   BANK6   BANK7   BANK8   BANK9  BANK10  BANK1
      +1  BANK12  BANK13  BANK14  BANK15
  3990 ;;      Params:         0       2       0       0       0       0       0       0       0       0       0       0       
      +0       0       0       0       0
  3991 ;;      Locals:         0       0       0       0       0       0       0       0       0       0       0       0       
      +0       0       0       0       0
  3992 ;;      Temps:          1       0       0       0       0       0       0       0       0       0       0       0       
      +0       0       0       0       0
  3993 ;;      Totals:         1       2       0       0       0       0       0       0       0       0       0       0       
      +0       0       0       0       0
  3994 ;;Total ram usage:        3 bytes
  3995 ;; Hardware stack levels used: 1
  3996 ;; Hardware stack levels required when called: 5
  3997 ;; This function calls:
  3998 ;;		_sem_post
  3999 ;;		_sem_wait
  4000 ;; This function is called by:
  4001 ;;		_tarefaLeituraADC
  4002 ;; This function uses a non-reentrant model
  4003 ;;
  4004                           
  4005                           	psect	text15
  4006   002B6C                     __ptext15:
  4007                           	callstack 0
  4008   002B6C                     _pipe_write:
  4009                           	callstack 20
  4010   002B6C                     
  4011                           ;com.c: 11: void pipe_write(pipe_t *p, char dado);com.c: 12: {;com.c: 13:     sem_wait(&
      +                          p->s_input);
  4012   002B6C  0100               	movlb	0	; () banked
  4013   002B6E  5194               	movf	pipe_write@p& (0+255),w,b
  4014   002B70  0F06               	addlw	6
  4015   002B72  0102               	movlb	2	; () banked
  4016   002B74  6F3C               	movwf	sem_wait@sem& (0+255),b
  4017   002B76  EC34  F00A         	call	_sem_wait	;wreg free
  4018   002B7A                     
  4019                           ;com.c: 14:     p->fila_dados[p->pos_input] = dado;
  4020   002B7A  0100               	movlb	0	; () banked
  4021   002B7C  5194               	movf	pipe_write@p& (0+255),w,b
  4022   002B7E  6ED9               	movwf	fsr2l,c
  4023   002B80  6ADA               	clrf	fsr2h,c
  4024   002B82  0E04               	movlw	4
  4025   002B84  26D9               	addwf	fsr2l,f,c
  4026   002B86  50DF               	movf	indf2,w,c
  4027   002B88  6E07               	movwf	??_pipe_write^0,c
  4028   002B8A  5194               	movf	pipe_write@p& (0+255),w,b
  4029   002B8C  2407               	addwf	??_pipe_write^0,w,c
  4030   002B8E  6ED9               	movwf	fsr2l,c
  4031   002B90  6ADA               	clrf	fsr2h,c
  4032   002B92  C095  FFDF         	movff	pipe_write@dado,indf2
  4033   002B96                     
  4034                           ; BSR set to: 0
  4035                           ;com.c: 17:     p->pos_input++;
  4036   002B96  5194               	movf	pipe_write@p& (0+255),w,b
  4037   002B98  6ED9               	movwf	fsr2l,c
  4038   002B9A  6ADA               	clrf	fsr2h,c
  4039   002B9C  0E04               	movlw	4
  4040   002B9E  26D9               	addwf	fsr2l,f,c
  4041   002BA0  2ADF               	incf	indf2,f,c
  4042   002BA2                     
  4043                           ; BSR set to: 0
  4044                           ;com.c: 18:     if (p->pos_input >= 4)
  4045   002BA2  5194               	movf	pipe_write@p& (0+255),w,b
  4046   002BA4  6ED9               	movwf	fsr2l,c
  4047   002BA6  6ADA               	clrf	fsr2h,c
  4048   002BA8  0E04               	movlw	4
  4049   002BAA  26D9               	addwf	fsr2l,f,c
  4050   002BAC  0E03               	movlw	3
  4051   002BAE  64DF               	cpfsgt	indf2,c
  4052   002BB0  EFDC  F015         	goto	i1u451_21
  4053   002BB4  EFDE  F015         	goto	i1u451_20
  4054   002BB8                     i1u451_21:
  4055   002BB8  EFE4  F015         	goto	i1l5055
  4056   002BBC                     i1u451_20:
  4057   002BBC                     
  4058                           ; BSR set to: 0
  4059                           ;com.c: 19:         p->pos_input = 0;
  4060   002BBC  5194               	movf	pipe_write@p& (0+255),w,b
  4061   002BBE  6ED9               	movwf	fsr2l,c
  4062   002BC0  6ADA               	clrf	fsr2h,c
  4063   002BC2  0E04               	movlw	4
  4064   002BC4  26D9               	addwf	fsr2l,f,c
  4065   002BC6  6ADF               	clrf	indf2,c
  4066   002BC8                     i1l5055:
  4067                           
  4068                           ; BSR set to: 0
  4069                           ;com.c: 21:     sem_post(&p->s_output);
  4070   002BC8  5194               	movf	pipe_write@p& (0+255),w,b
  4071   002BCA  0F0E               	addlw	14
  4072   002BCC  6F98               	movwf	sem_post@sem& (0+255),b
  4073   002BCE  ECB3  F014         	call	_sem_post	;wreg free
  4074   002BD2  0012               	return		;funcret
  4075   002BD4                     __end_of_pipe_write:
  4076                           	callstack 0
  4077                           
  4078 ;; *************** function _sem_wait *****************
  4079 ;; Defined at:
  4080 ;;		line 14 in file "sync.c"
  4081 ;; Parameters:    Size  Location     Type
  4082 ;;  sem             1   60[BANK2 ] PTR struct sem
  4083 ;;		 -> sem_processamento(8), pipe_adc(22), 
  4084 ;; Auto vars:     Size  Location     Type
  4085 ;;		None
  4086 ;; Return value:  Size  Location     Type
  4087 ;;                  1    wreg      void 
  4088 ;; Registers used:
  4089 ;;		wreg, fsr1l, fsr1h, fsr2l, fsr2h, status,2, status,0, prodl, prodh, cstack
  4090 ;; Tracked objects:
  4091 ;;		On entry : 0/0
  4092 ;;		On exit  : 0/0
  4093 ;;		Unchanged: 0/0
  4094 ;; Data sizes:     COMRAM   BANK0   BANK1   BANK2   BANK3   BANK4   BANK5   BANK6   BANK7   BANK8   BANK9  BANK10  BANK1
      +1  BANK12  BANK13  BANK14  BANK15
  4095 ;;      Params:         0       0       0       1       0       0       0       0       0       0       0       0       
      +0       0       0       0       0
  4096 ;;      Locals:         0       0       0       0       0       0       0       0       0       0       0       0       
      +0       0       0       0       0
  4097 ;;      Temps:          0       0       0       5       0       0       0       0       0       0       0       0       
      +0       0       0       0       0
  4098 ;;      Totals:         0       0       0       6       0       0       0       0       0       0       0       0       
      +0       0       0       0       0
  4099 ;;Total ram usage:        6 bytes
  4100 ;; Hardware stack levels used: 1
  4101 ;; Hardware stack levels required when called: 4
  4102 ;; This function calls:
  4103 ;;		i1_scheduler
  4104 ;; This function is called by:
  4105 ;;		_pipe_write
  4106 ;;		_pipe_read
  4107 ;;		_tarefaControlePWM
  4108 ;; This function uses a non-reentrant model
  4109 ;;
  4110                           
  4111                           	psect	text16
  4112   001468                     __ptext16:
  4113                           	callstack 0
  4114   001468                     _sem_wait:
  4115                           	callstack 20
  4116   001468                     
  4117                           ;sync.c: 15:     INTCONbits.GIE = 0;;
  4118   001468  9EF2               	bcf	242,7,c	;volatile
  4119   00146A                     
  4120                           ;sync.c: 17:     sem->contador--;
  4121   00146A  0102               	movlb	2	; () banked
  4122   00146C  513C               	movf	sem_wait@sem& (0+255),w,b
  4123   00146E  6ED9               	movwf	fsr2l,c
  4124   001470  6ADA               	clrf	fsr2h,c
  4125   001472  06DF               	decf	indf2,f,c
  4126                           
  4127                           ;sync.c: 18:     if (sem->contador < 0) {
  4128   001474  513C               	movf	sem_wait@sem& (0+255),w,b
  4129   001476  6ED9               	movwf	fsr2l,c
  4130   001478  6ADA               	clrf	fsr2h,c
  4131   00147A  0E00               	movlw	0
  4132   00147C  BEDB               	btfsc	plusw2,7,c
  4133   00147E  EF45  F00A         	goto	i1u435_20
  4134   001482  EF43  F00A         	goto	i1u435_21
  4135   001486                     i1u435_21:
  4136   001486  EF3A  F00C         	goto	i1l141
  4137   00148A                     i1u435_20:
  4138   00148A                     
  4139                           ; BSR set to: 2
  4140                           ;sync.c: 19:         sem->fila[sem->pos_input] = r_queue.pos_task_running;
  4141   00148A  513C               	movf	sem_wait@sem& (0+255),w,b
  4142   00148C  6ED9               	movwf	fsr2l,c
  4143   00148E  6ADA               	clrf	fsr2h,c
  4144   001490  0E06               	movlw	6
  4145   001492  26D9               	addwf	fsr2l,f,c
  4146   001494  50DF               	movf	indf2,w,c
  4147   001496  6F3D               	movwf	??_sem_wait& (0+255),b
  4148   001498  513C               	movf	sem_wait@sem& (0+255),w,b
  4149   00149A  253D               	addwf	??_sem_wait& (0+255),w,b
  4150   00149C  6ED9               	movwf	fsr2l,c
  4151   00149E  6ADA               	clrf	fsr2h,c
  4152   0014A0  0E01               	movlw	1
  4153   0014A2  26D9               	addwf	fsr2l,f,c
  4154   0014A4  C1D3  FFDF         	movff	_r_queue+211,indf2
  4155                           
  4156                           ;sync.c: 22:         sem->pos_input++;
  4157   0014A8  513C               	movf	sem_wait@sem& (0+255),w,b
  4158   0014AA  6ED9               	movwf	fsr2l,c
  4159   0014AC  6ADA               	clrf	fsr2h,c
  4160   0014AE  0E06               	movlw	6
  4161   0014B0  26D9               	addwf	fsr2l,f,c
  4162   0014B2  2ADF               	incf	indf2,f,c
  4163                           
  4164                           ;sync.c: 23:     if (sem->pos_input >= 5)
  4165   0014B4  513C               	movf	sem_wait@sem& (0+255),w,b
  4166   0014B6  6ED9               	movwf	fsr2l,c
  4167   0014B8  6ADA               	clrf	fsr2h,c
  4168   0014BA  0E06               	movlw	6
  4169   0014BC  26D9               	addwf	fsr2l,f,c
  4170   0014BE  0E04               	movlw	4
  4171   0014C0  64DF               	cpfsgt	indf2,c
  4172   0014C2  EF65  F00A         	goto	i1u436_21
  4173   0014C6  EF67  F00A         	goto	i1u436_20
  4174   0014CA                     i1u436_21:
  4175   0014CA  EF6D  F00A         	goto	i1l4929
  4176   0014CE                     i1u436_20:
  4177   0014CE                     
  4178                           ; BSR set to: 2
  4179                           ;sync.c: 24:         sem->pos_input = 0;
  4180   0014CE  513C               	movf	sem_wait@sem& (0+255),w,b
  4181   0014D0  6ED9               	movwf	fsr2l,c
  4182   0014D2  6ADA               	clrf	fsr2h,c
  4183   0014D4  0E06               	movlw	6
  4184   0014D6  26D9               	addwf	fsr2l,f,c
  4185   0014D8  6ADF               	clrf	indf2,c
  4186   0014DA                     i1l4929:
  4187                           
  4188                           ; BSR set to: 2
  4189                           ;sync.c: 27:         { if (((r_queue.TASKS[r_queue.pos_task_running]).state_prio & 0x03)
      +                           == RUNNING) { ((r_queue.TASKS[r_queue.pos_task_running]).state_prio = (uint8_t)(((r_que
      +                          ue.TASKS[r_queue.pos_task_running]).state_prio & 0xFC) | (uint8_t)(WAITING_SEM))); r_que
      +                          ue.TASKS[r_queue.pos_task_running].BSR_REG = BSR; r_queue.TASKS[r_queue.pos_task_running
      +                          ].W_REG = WREG; r_queue.TASKS[r_queue.pos_task_running].STATUS_REG = STATUS; r_queue.TAS
      +                          KS[r_queue.pos_task_running].FSR0H_REG = FSR0H; r_queue.TASKS[r_queue.pos_task_running].
      +                          FSR0L_REG = FSR0L; r_queue.TASKS[r_queue.pos_task_running].task_stack.stack_size = 0; wh
      +                          ile (STKPTR > 0) { r_queue.TASKS[r_queue.pos_task_running].task_stack.stack[r_queue.TASK
      +                          S[r_queue.pos_task_running].task_stack.stack_size].TOSL_REG = TOSL; r_queue.TASKS[r_queu
      +                          e.pos_task_running].task_stack.stack[r_queue.TASKS[r_queue.pos_task_running].task_stack.
      +                          stack_size].TOSH_REG = TOSH; r_queue.TASKS[r_queue.pos_task_running].task_stack.stack[r_
      +                          queue.TASKS[r_queue.pos_task_running].task_stack.stack_size].TOSU_REG = TOSU; r_queue.TA
      +                          SKS[r_queue.pos_task_running].task_stack.stack_size++; __asm("POP"); } } };
  4190   0014DA  0101               	movlb	1	; () banked
  4191   0014DC  51D3               	movf	(_r_queue+211)& (0+255),w,b
  4192   0014DE  0D23               	mullw	35
  4193   0014E0  0E04               	movlw	low (_r_queue+4)
  4194   0014E2  24F3               	addwf	243,w,c
  4195   0014E4  6ED9               	movwf	fsr2l,c
  4196   0014E6  0E01               	movlw	high (_r_queue+4)
  4197   0014E8  20F4               	addwfc	prodh,w,c
  4198   0014EA  6EDA               	movwf	fsr2h,c
  4199   0014EC  50DF               	movf	indf2,w,c
  4200   0014EE  0B03               	andlw	3
  4201   0014F0  0A02               	xorlw	2
  4202   0014F2  A4D8               	btfss	status,2,c
  4203   0014F4  EF7E  F00A         	goto	i1u437_21
  4204   0014F8  EF80  F00A         	goto	i1u437_20
  4205   0014FC                     i1u437_21:
  4206   0014FC  EF50  F00B         	goto	i1l4949
  4207   001500                     i1u437_20:
  4208   001500                     
  4209                           ; BSR set to: 1
  4210   001500  51D3               	movf	(_r_queue+211)& (0+255),w,b
  4211   001502  0D23               	mullw	35
  4212   001504  0E04               	movlw	low (_r_queue+4)
  4213   001506  24F3               	addwf	243,w,c
  4214   001508  6ED9               	movwf	fsr2l,c
  4215   00150A  0E01               	movlw	high (_r_queue+4)
  4216   00150C  20F4               	addwfc	prodh,w,c
  4217   00150E  6EDA               	movwf	fsr2h,c
  4218   001510  51D3               	movf	(_r_queue+211)& (0+255),w,b
  4219   001512  0D23               	mullw	35
  4220   001514  0E04               	movlw	low (_r_queue+4)
  4221   001516  24F3               	addwf	243,w,c
  4222   001518  6EE1               	movwf	fsr1l,c
  4223   00151A  0E01               	movlw	high (_r_queue+4)
  4224   00151C  20F4               	addwfc	prodh,w,c
  4225   00151E  6EE2               	movwf	fsr1h,c
  4226   001520  50E7               	movf	indf1,w,c
  4227   001522  0BFC               	andlw	252
  4228   001524  0903               	iorlw	3
  4229   001526  6EDF               	movwf	indf2,c
  4230   001528                     
  4231                           ; BSR set to: 1
  4232   001528  51D3               	movf	(_r_queue+211)& (0+255),w,b
  4233   00152A  0D23               	mullw	35
  4234   00152C  0E07               	movlw	low (_r_queue+7)
  4235   00152E  24F3               	addwf	243,w,c
  4236   001530  6ED9               	movwf	fsr2l,c
  4237   001532  0E01               	movlw	high (_r_queue+7)
  4238   001534  20F4               	addwfc	prodh,w,c
  4239   001536  6EDA               	movwf	fsr2h,c
  4240   001538  CFE0 FFDF          	movff	bsr,indf2	;volatile
  4241   00153C                     
  4242                           ; BSR set to: 1
  4243   00153C  51D3               	movf	(_r_queue+211)& (0+255),w,b
  4244   00153E  0D23               	mullw	35
  4245   001540  0E05               	movlw	low (_r_queue+5)
  4246   001542  24F3               	addwf	243,w,c
  4247   001544  6ED9               	movwf	fsr2l,c
  4248   001546  0E01               	movlw	high (_r_queue+5)
  4249   001548  20F4               	addwfc	prodh,w,c
  4250   00154A  6EDA               	movwf	fsr2h,c
  4251   00154C  CFE8 FFDF          	movff	wreg,indf2	;volatile
  4252   001550                     
  4253                           ; BSR set to: 1
  4254   001550  51D3               	movf	(_r_queue+211)& (0+255),w,b
  4255   001552  0D23               	mullw	35
  4256   001554  0E06               	movlw	low (_r_queue+6)
  4257   001556  24F3               	addwf	243,w,c
  4258   001558  6ED9               	movwf	fsr2l,c
  4259   00155A  0E01               	movlw	high (_r_queue+6)
  4260   00155C  20F4               	addwfc	prodh,w,c
  4261   00155E  6EDA               	movwf	fsr2h,c
  4262   001560  CFD8 FFDF          	movff	status,indf2	;volatile
  4263   001564                     
  4264                           ; BSR set to: 1
  4265   001564  51D3               	movf	(_r_queue+211)& (0+255),w,b
  4266   001566  0D23               	mullw	35
  4267   001568  0E09               	movlw	low (_r_queue+9)
  4268   00156A  24F3               	addwf	243,w,c
  4269   00156C  6ED9               	movwf	fsr2l,c
  4270   00156E  0E01               	movlw	high (_r_queue+9)
  4271   001570  20F4               	addwfc	prodh,w,c
  4272   001572  6EDA               	movwf	fsr2h,c
  4273   001574  CFEA FFDF          	movff	fsr0h,indf2	;volatile
  4274   001578                     
  4275                           ; BSR set to: 1
  4276   001578  51D3               	movf	(_r_queue+211)& (0+255),w,b
  4277   00157A  0D23               	mullw	35
  4278   00157C  0E08               	movlw	low (_r_queue+8)
  4279   00157E  24F3               	addwf	243,w,c
  4280   001580  6ED9               	movwf	fsr2l,c
  4281   001582  0E01               	movlw	high (_r_queue+8)
  4282   001584  20F4               	addwfc	prodh,w,c
  4283   001586  6EDA               	movwf	fsr2h,c
  4284   001588  CFE9 FFDF          	movff	fsr0l,indf2	;volatile
  4285   00158C                     
  4286                           ; BSR set to: 1
  4287   00158C  51D3               	movf	(_r_queue+211)& (0+255),w,b
  4288   00158E  0D23               	mullw	35
  4289   001590  0E22               	movlw	low (_r_queue+34)
  4290   001592  24F3               	addwf	243,w,c
  4291   001594  6ED9               	movwf	fsr2l,c
  4292   001596  0E01               	movlw	high (_r_queue+34)
  4293   001598  20F4               	addwfc	prodh,w,c
  4294   00159A  6EDA               	movwf	fsr2h,c
  4295   00159C  6ADF               	clrf	indf2,c
  4296   00159E  EF48  F00B         	goto	i1l4947
  4297   0015A2                     i1l4945:
  4298   0015A2  0101               	movlb	1	; () banked
  4299   0015A4  51D3               	movf	(_r_queue+211)& (0+255),w,b
  4300   0015A6  0D23               	mullw	35
  4301   0015A8  0E22               	movlw	low (_r_queue+34)
  4302   0015AA  24F3               	addwf	243,w,c
  4303   0015AC  6ED9               	movwf	fsr2l,c
  4304   0015AE  0E01               	movlw	high (_r_queue+34)
  4305   0015B0  20F4               	addwfc	prodh,w,c
  4306   0015B2  6EDA               	movwf	fsr2h,c
  4307   0015B4  50DF               	movf	indf2,w,c
  4308   0015B6  0102               	movlb	2	; () banked
  4309   0015B8  6F3D               	movwf	??_sem_wait& (0+255),b
  4310   0015BA  513D               	movf	??_sem_wait& (0+255),w,b
  4311   0015BC  0D03               	mullw	3
  4312   0015BE  CFF3 F23E          	movff	prodl,??_sem_wait+1
  4313   0015C2  CFF4 F23F          	movff	prodh,??_sem_wait+2
  4314   0015C6  0101               	movlb	1	; () banked
  4315   0015C8  51D3               	movf	(_r_queue+211)& (0+255),w,b
  4316   0015CA  0D23               	mullw	35
  4317   0015CC  0E0A               	movlw	low (_r_queue+10)
  4318   0015CE  24F3               	addwf	243,w,c
  4319   0015D0  0102               	movlb	2	; () banked
  4320   0015D2  6F40               	movwf	(??_sem_wait+3)& (0+255),b
  4321   0015D4  0E01               	movlw	high (_r_queue+10)
  4322   0015D6  20F4               	addwfc	prodh,w,c
  4323   0015D8  6F41               	movwf	(??_sem_wait+4)& (0+255),b
  4324   0015DA  513E               	movf	(??_sem_wait+1)& (0+255),w,b
  4325   0015DC  2540               	addwf	(??_sem_wait+3)& (0+255),w,b
  4326   0015DE  6ED9               	movwf	fsr2l,c
  4327   0015E0  513F               	movf	(??_sem_wait+2)& (0+255),w,b
  4328   0015E2  2141               	addwfc	(??_sem_wait+4)& (0+255),w,b
  4329   0015E4  6EDA               	movwf	fsr2h,c
  4330   0015E6  CFFD FFDF          	movff	tosl,indf2	;volatile
  4331   0015EA  0101               	movlb	1	; () banked
  4332   0015EC  51D3               	movf	(_r_queue+211)& (0+255),w,b
  4333   0015EE  0D23               	mullw	35
  4334   0015F0  0E22               	movlw	low (_r_queue+34)
  4335   0015F2  24F3               	addwf	243,w,c
  4336   0015F4  6ED9               	movwf	fsr2l,c
  4337   0015F6  0E01               	movlw	high (_r_queue+34)
  4338   0015F8  20F4               	addwfc	prodh,w,c
  4339   0015FA  6EDA               	movwf	fsr2h,c
  4340   0015FC  50DF               	movf	indf2,w,c
  4341   0015FE  0102               	movlb	2	; () banked
  4342   001600  6F3D               	movwf	??_sem_wait& (0+255),b
  4343   001602  513D               	movf	??_sem_wait& (0+255),w,b
  4344   001604  0D03               	mullw	3
  4345   001606  CFF3 F23E          	movff	prodl,??_sem_wait+1
  4346   00160A  CFF4 F23F          	movff	prodh,??_sem_wait+2
  4347   00160E  0101               	movlb	1	; () banked
  4348   001610  51D3               	movf	(_r_queue+211)& (0+255),w,b
  4349   001612  0D23               	mullw	35
  4350   001614  0E0B               	movlw	low (_r_queue+11)
  4351   001616  24F3               	addwf	243,w,c
  4352   001618  0102               	movlb	2	; () banked
  4353   00161A  6F40               	movwf	(??_sem_wait+3)& (0+255),b
  4354   00161C  0E01               	movlw	high (_r_queue+11)
  4355   00161E  20F4               	addwfc	prodh,w,c
  4356   001620  6F41               	movwf	(??_sem_wait+4)& (0+255),b
  4357   001622  513E               	movf	(??_sem_wait+1)& (0+255),w,b
  4358   001624  2540               	addwf	(??_sem_wait+3)& (0+255),w,b
  4359   001626  6ED9               	movwf	fsr2l,c
  4360   001628  513F               	movf	(??_sem_wait+2)& (0+255),w,b
  4361   00162A  2141               	addwfc	(??_sem_wait+4)& (0+255),w,b
  4362   00162C  6EDA               	movwf	fsr2h,c
  4363   00162E  CFFE FFDF          	movff	tosh,indf2	;volatile
  4364   001632  0101               	movlb	1	; () banked
  4365   001634  51D3               	movf	(_r_queue+211)& (0+255),w,b
  4366   001636  0D23               	mullw	35
  4367   001638  0E22               	movlw	low (_r_queue+34)
  4368   00163A  24F3               	addwf	243,w,c
  4369   00163C  6ED9               	movwf	fsr2l,c
  4370   00163E  0E01               	movlw	high (_r_queue+34)
  4371   001640  20F4               	addwfc	prodh,w,c
  4372   001642  6EDA               	movwf	fsr2h,c
  4373   001644  50DF               	movf	indf2,w,c
  4374   001646  0102               	movlb	2	; () banked
  4375   001648  6F3D               	movwf	??_sem_wait& (0+255),b
  4376   00164A  513D               	movf	??_sem_wait& (0+255),w,b
  4377   00164C  0D03               	mullw	3
  4378   00164E  CFF3 F23E          	movff	prodl,??_sem_wait+1
  4379   001652  CFF4 F23F          	movff	prodh,??_sem_wait+2
  4380   001656  0101               	movlb	1	; () banked
  4381   001658  51D3               	movf	(_r_queue+211)& (0+255),w,b
  4382   00165A  0D23               	mullw	35
  4383   00165C  0E0C               	movlw	low (_r_queue+12)
  4384   00165E  24F3               	addwf	243,w,c
  4385   001660  0102               	movlb	2	; () banked
  4386   001662  6F40               	movwf	(??_sem_wait+3)& (0+255),b
  4387   001664  0E01               	movlw	high (_r_queue+12)
  4388   001666  20F4               	addwfc	prodh,w,c
  4389   001668  6F41               	movwf	(??_sem_wait+4)& (0+255),b
  4390   00166A  513E               	movf	(??_sem_wait+1)& (0+255),w,b
  4391   00166C  2540               	addwf	(??_sem_wait+3)& (0+255),w,b
  4392   00166E  6ED9               	movwf	fsr2l,c
  4393   001670  513F               	movf	(??_sem_wait+2)& (0+255),w,b
  4394   001672  2141               	addwfc	(??_sem_wait+4)& (0+255),w,b
  4395   001674  6EDA               	movwf	fsr2h,c
  4396   001676  CFFF FFDF          	movff	tosu,indf2	;volatile
  4397   00167A  0101               	movlb	1	; () banked
  4398   00167C  51D3               	movf	(_r_queue+211)& (0+255),w,b
  4399   00167E  0D23               	mullw	35
  4400   001680  0E22               	movlw	low (_r_queue+34)
  4401   001682  24F3               	addwf	243,w,c
  4402   001684  6ED9               	movwf	fsr2l,c
  4403   001686  0E01               	movlw	high (_r_queue+34)
  4404   001688  20F4               	addwfc	prodh,w,c
  4405   00168A  6EDA               	movwf	fsr2h,c
  4406   00168C  2ADF               	incf	indf2,f,c
  4407   00168E  0006               	pop		;# 
  4408   001690                     i1l4947:
  4409   001690  50FC               	movf	252,w,c	;volatile
  4410   001692  A4D8               	btfss	status,2,c
  4411   001694  EF4E  F00B         	goto	i1u438_21
  4412   001698  EF50  F00B         	goto	i1u438_20
  4413   00169C                     i1u438_21:
  4414   00169C  EFD1  F00A         	goto	i1l4945
  4415   0016A0                     i1u438_20:
  4416   0016A0                     i1l4949:
  4417                           
  4418                           ;sync.c: 28:         scheduler();
  4419   0016A0  ECBB  F017         	call	i1_scheduler	;wreg free
  4420   0016A4                     
  4421                           ;sync.c: 29:         { if (((r_queue.TASKS[r_queue.pos_task_running]).state_prio & 0x03)
      +                           == READY) { ((r_queue.TASKS[r_queue.pos_task_running]).state_prio = (uint8_t)(((r_queue
      +                          .TASKS[r_queue.pos_task_running]).state_prio & 0xFC) | (uint8_t)(RUNNING))); BSR = r_que
      +                          ue.TASKS[r_queue.pos_task_running].BSR_REG; WREG = r_queue.TASKS[r_queue.pos_task_runnin
      +                          g].W_REG; STATUS = r_queue.TASKS[r_queue.pos_task_running].STATUS_REG; FSR0H = r_queue.T
      +                          ASKS[r_queue.pos_task_running].FSR0H_REG; FSR0L = r_queue.TASKS[r_queue.pos_task_running
      +                          ].FSR0L_REG; while (r_queue.TASKS[r_queue.pos_task_running].task_stack.stack_size > 0) {
      +                           r_queue.TASKS[r_queue.pos_task_running].task_stack.stack_size--; TOSL = r_queue.TASKS[r
      +                          _queue.pos_task_running].task_stack.stack[r_queue.TASKS[r_queue.pos_task_running].task_s
      +                          tack.stack_size].TOSL_REG; TOSH = r_queue.TASKS[r_queue.pos_task_running].task_stack.sta
      +                          ck[r_queue.TASKS[r_queue.pos_task_running].task_stack.stack_size].TOSH_REG; TOSU = r_que
      +                          ue.TASKS[r_queue.pos_task_running].task_stack.stack[r_queue.TASKS[r_queue.pos_task_runni
      +                          ng].task_stack.stack_size].TOSU_REG; __asm("PUSH"); } __asm("RETURN"); } };
  4422   0016A4  0101               	movlb	1	; () banked
  4423   0016A6  51D3               	movf	(_r_queue+211)& (0+255),w,b
  4424   0016A8  0D23               	mullw	35
  4425   0016AA  0E04               	movlw	low (_r_queue+4)
  4426   0016AC  24F3               	addwf	243,w,c
  4427   0016AE  6ED9               	movwf	fsr2l,c
  4428   0016B0  0E01               	movlw	high (_r_queue+4)
  4429   0016B2  20F4               	addwfc	prodh,w,c
  4430   0016B4  6EDA               	movwf	fsr2h,c
  4431   0016B6  50DF               	movf	indf2,w,c
  4432   0016B8  0102               	movlb	2	; () banked
  4433   0016BA  6F3D               	movwf	??_sem_wait& (0+255),b
  4434   0016BC  0E03               	movlw	3
  4435   0016BE  173D               	andwf	??_sem_wait& (0+255),f,b
  4436   0016C0  A4D8               	btfss	status,2,c
  4437   0016C2  EF65  F00B         	goto	i1u439_21
  4438   0016C6  EF67  F00B         	goto	i1u439_20
  4439   0016CA                     i1u439_21:
  4440   0016CA  EF3A  F00C         	goto	i1l141
  4441   0016CE                     i1u439_20:
  4442   0016CE                     
  4443                           ; BSR set to: 2
  4444   0016CE  0101               	movlb	1	; () banked
  4445   0016D0  51D3               	movf	(_r_queue+211)& (0+255),w,b
  4446   0016D2  0D23               	mullw	35
  4447   0016D4  0E04               	movlw	low (_r_queue+4)
  4448   0016D6  24F3               	addwf	243,w,c
  4449   0016D8  6ED9               	movwf	fsr2l,c
  4450   0016DA  0E01               	movlw	high (_r_queue+4)
  4451   0016DC  20F4               	addwfc	prodh,w,c
  4452   0016DE  6EDA               	movwf	fsr2h,c
  4453   0016E0  51D3               	movf	(_r_queue+211)& (0+255),w,b
  4454   0016E2  0D23               	mullw	35
  4455   0016E4  0E04               	movlw	low (_r_queue+4)
  4456   0016E6  24F3               	addwf	243,w,c
  4457   0016E8  6EE1               	movwf	fsr1l,c
  4458   0016EA  0E01               	movlw	high (_r_queue+4)
  4459   0016EC  20F4               	addwfc	prodh,w,c
  4460   0016EE  6EE2               	movwf	fsr1h,c
  4461   0016F0  50E7               	movf	indf1,w,c
  4462   0016F2  0BFC               	andlw	252
  4463   0016F4  0902               	iorlw	2
  4464   0016F6  6EDF               	movwf	indf2,c
  4465   0016F8                     
  4466                           ; BSR set to: 1
  4467   0016F8  51D3               	movf	(_r_queue+211)& (0+255),w,b
  4468   0016FA  0D23               	mullw	35
  4469   0016FC  0E07               	movlw	low (_r_queue+7)
  4470   0016FE  24F3               	addwf	243,w,c
  4471   001700  6ED9               	movwf	fsr2l,c
  4472   001702  0E01               	movlw	high (_r_queue+7)
  4473   001704  20F4               	addwfc	prodh,w,c
  4474   001706  6EDA               	movwf	fsr2h,c
  4475   001708  50DF               	movf	indf2,w,c
  4476   00170A  6EE0               	movwf	224,c	;volatile
  4477   00170C                     
  4478                           ; BSR set to: 1
  4479   00170C  51D3               	movf	(_r_queue+211)& (0+255),w,b
  4480   00170E  0D23               	mullw	35
  4481   001710  0E05               	movlw	low (_r_queue+5)
  4482   001712  24F3               	addwf	243,w,c
  4483   001714  6ED9               	movwf	fsr2l,c
  4484   001716  0E01               	movlw	high (_r_queue+5)
  4485   001718  20F4               	addwfc	prodh,w,c
  4486   00171A  6EDA               	movwf	fsr2h,c
  4487   00171C  50DF               	movf	indf2,w,c
  4488   00171E  0102               	movlb	2	; () banked
  4489   001720  6F3D               	movwf	??_sem_wait& (0+255),b
  4490   001722  513D               	movf	??_sem_wait& (0+255),w,b
  4491   001724                     
  4492                           ; BSR set to: 2
  4493   001724  0101               	movlb	1	; () banked
  4494   001726  51D3               	movf	(_r_queue+211)& (0+255),w,b
  4495   001728  0D23               	mullw	35
  4496   00172A  0E06               	movlw	low (_r_queue+6)
  4497   00172C  24F3               	addwf	243,w,c
  4498   00172E  6ED9               	movwf	fsr2l,c
  4499   001730  0E01               	movlw	high (_r_queue+6)
  4500   001732  20F4               	addwfc	prodh,w,c
  4501   001734  6EDA               	movwf	fsr2h,c
  4502   001736  50DF               	movf	indf2,w,c
  4503   001738  6ED8               	movwf	216,c	;volatile
  4504   00173A                     
  4505                           ; BSR set to: 1
  4506   00173A  51D3               	movf	(_r_queue+211)& (0+255),w,b
  4507   00173C  0D23               	mullw	35
  4508   00173E  0E09               	movlw	low (_r_queue+9)
  4509   001740  24F3               	addwf	243,w,c
  4510   001742  6ED9               	movwf	fsr2l,c
  4511   001744  0E01               	movlw	high (_r_queue+9)
  4512   001746  20F4               	addwfc	prodh,w,c
  4513   001748  6EDA               	movwf	fsr2h,c
  4514   00174A  50DF               	movf	indf2,w,c
  4515   00174C  6EEA               	movwf	234,c	;volatile
  4516   00174E                     
  4517                           ; BSR set to: 1
  4518   00174E  51D3               	movf	(_r_queue+211)& (0+255),w,b
  4519   001750  0D23               	mullw	35
  4520   001752  0E08               	movlw	low (_r_queue+8)
  4521   001754  24F3               	addwf	243,w,c
  4522   001756  6ED9               	movwf	fsr2l,c
  4523   001758  0E01               	movlw	high (_r_queue+8)
  4524   00175A  20F4               	addwfc	prodh,w,c
  4525   00175C  6EDA               	movwf	fsr2h,c
  4526   00175E  50DF               	movf	indf2,w,c
  4527   001760  6EE9               	movwf	233,c	;volatile
  4528   001762  EF28  F00C         	goto	i1l148
  4529   001766                     i1l4965:
  4530                           
  4531                           ; BSR set to: 1
  4532   001766  51D3               	movf	(_r_queue+211)& (0+255),w,b
  4533   001768  0D23               	mullw	35
  4534   00176A  0E22               	movlw	low (_r_queue+34)
  4535   00176C  24F3               	addwf	243,w,c
  4536   00176E  6ED9               	movwf	fsr2l,c
  4537   001770  0E01               	movlw	high (_r_queue+34)
  4538   001772  20F4               	addwfc	prodh,w,c
  4539   001774  6EDA               	movwf	fsr2h,c
  4540   001776  06DF               	decf	indf2,f,c
  4541   001778  51D3               	movf	(_r_queue+211)& (0+255),w,b
  4542   00177A  0D23               	mullw	35
  4543   00177C  0E22               	movlw	low (_r_queue+34)
  4544   00177E  24F3               	addwf	243,w,c
  4545   001780  6ED9               	movwf	fsr2l,c
  4546   001782  0E01               	movlw	high (_r_queue+34)
  4547   001784  20F4               	addwfc	prodh,w,c
  4548   001786  6EDA               	movwf	fsr2h,c
  4549   001788  50DF               	movf	indf2,w,c
  4550   00178A  0102               	movlb	2	; () banked
  4551   00178C  6F3D               	movwf	??_sem_wait& (0+255),b
  4552   00178E  513D               	movf	??_sem_wait& (0+255),w,b
  4553   001790  0D03               	mullw	3
  4554   001792  CFF3 F23E          	movff	prodl,??_sem_wait+1
  4555   001796  CFF4 F23F          	movff	prodh,??_sem_wait+2
  4556   00179A  0101               	movlb	1	; () banked
  4557   00179C  51D3               	movf	(_r_queue+211)& (0+255),w,b
  4558   00179E  0D23               	mullw	35
  4559   0017A0  0E0A               	movlw	low (_r_queue+10)
  4560   0017A2  24F3               	addwf	243,w,c
  4561   0017A4  0102               	movlb	2	; () banked
  4562   0017A6  6F40               	movwf	(??_sem_wait+3)& (0+255),b
  4563   0017A8  0E01               	movlw	high (_r_queue+10)
  4564   0017AA  20F4               	addwfc	prodh,w,c
  4565   0017AC  6F41               	movwf	(??_sem_wait+4)& (0+255),b
  4566   0017AE  513E               	movf	(??_sem_wait+1)& (0+255),w,b
  4567   0017B0  2540               	addwf	(??_sem_wait+3)& (0+255),w,b
  4568   0017B2  6ED9               	movwf	fsr2l,c
  4569   0017B4  513F               	movf	(??_sem_wait+2)& (0+255),w,b
  4570   0017B6  2141               	addwfc	(??_sem_wait+4)& (0+255),w,b
  4571   0017B8  6EDA               	movwf	fsr2h,c
  4572   0017BA  50DF               	movf	indf2,w,c
  4573   0017BC  6EFD               	movwf	253,c	;volatile
  4574   0017BE  0101               	movlb	1	; () banked
  4575   0017C0  51D3               	movf	(_r_queue+211)& (0+255),w,b
  4576   0017C2  0D23               	mullw	35
  4577   0017C4  0E22               	movlw	low (_r_queue+34)
  4578   0017C6  24F3               	addwf	243,w,c
  4579   0017C8  6ED9               	movwf	fsr2l,c
  4580   0017CA  0E01               	movlw	high (_r_queue+34)
  4581   0017CC  20F4               	addwfc	prodh,w,c
  4582   0017CE  6EDA               	movwf	fsr2h,c
  4583   0017D0  50DF               	movf	indf2,w,c
  4584   0017D2  0102               	movlb	2	; () banked
  4585   0017D4  6F3D               	movwf	??_sem_wait& (0+255),b
  4586   0017D6  513D               	movf	??_sem_wait& (0+255),w,b
  4587   0017D8  0D03               	mullw	3
  4588   0017DA  CFF3 F23E          	movff	prodl,??_sem_wait+1
  4589   0017DE  CFF4 F23F          	movff	prodh,??_sem_wait+2
  4590   0017E2  0101               	movlb	1	; () banked
  4591   0017E4  51D3               	movf	(_r_queue+211)& (0+255),w,b
  4592   0017E6  0D23               	mullw	35
  4593   0017E8  0E0B               	movlw	low (_r_queue+11)
  4594   0017EA  24F3               	addwf	243,w,c
  4595   0017EC  0102               	movlb	2	; () banked
  4596   0017EE  6F40               	movwf	(??_sem_wait+3)& (0+255),b
  4597   0017F0  0E01               	movlw	high (_r_queue+11)
  4598   0017F2  20F4               	addwfc	prodh,w,c
  4599   0017F4  6F41               	movwf	(??_sem_wait+4)& (0+255),b
  4600   0017F6  513E               	movf	(??_sem_wait+1)& (0+255),w,b
  4601   0017F8  2540               	addwf	(??_sem_wait+3)& (0+255),w,b
  4602   0017FA  6ED9               	movwf	fsr2l,c
  4603   0017FC  513F               	movf	(??_sem_wait+2)& (0+255),w,b
  4604   0017FE  2141               	addwfc	(??_sem_wait+4)& (0+255),w,b
  4605   001800  6EDA               	movwf	fsr2h,c
  4606   001802  50DF               	movf	indf2,w,c
  4607   001804  6EFE               	movwf	254,c	;volatile
  4608   001806  0101               	movlb	1	; () banked
  4609   001808  51D3               	movf	(_r_queue+211)& (0+255),w,b
  4610   00180A  0D23               	mullw	35
  4611   00180C  0E22               	movlw	low (_r_queue+34)
  4612   00180E  24F3               	addwf	243,w,c
  4613   001810  6ED9               	movwf	fsr2l,c
  4614   001812  0E01               	movlw	high (_r_queue+34)
  4615   001814  20F4               	addwfc	prodh,w,c
  4616   001816  6EDA               	movwf	fsr2h,c
  4617   001818  50DF               	movf	indf2,w,c
  4618   00181A  0102               	movlb	2	; () banked
  4619   00181C  6F3D               	movwf	??_sem_wait& (0+255),b
  4620   00181E  513D               	movf	??_sem_wait& (0+255),w,b
  4621   001820  0D03               	mullw	3
  4622   001822  CFF3 F23E          	movff	prodl,??_sem_wait+1
  4623   001826  CFF4 F23F          	movff	prodh,??_sem_wait+2
  4624   00182A  0101               	movlb	1	; () banked
  4625   00182C  51D3               	movf	(_r_queue+211)& (0+255),w,b
  4626   00182E  0D23               	mullw	35
  4627   001830  0E0C               	movlw	low (_r_queue+12)
  4628   001832  24F3               	addwf	243,w,c
  4629   001834  0102               	movlb	2	; () banked
  4630   001836  6F40               	movwf	(??_sem_wait+3)& (0+255),b
  4631   001838  0E01               	movlw	high (_r_queue+12)
  4632   00183A  20F4               	addwfc	prodh,w,c
  4633   00183C  6F41               	movwf	(??_sem_wait+4)& (0+255),b
  4634   00183E  513E               	movf	(??_sem_wait+1)& (0+255),w,b
  4635   001840  2540               	addwf	(??_sem_wait+3)& (0+255),w,b
  4636   001842  6ED9               	movwf	fsr2l,c
  4637   001844  513F               	movf	(??_sem_wait+2)& (0+255),w,b
  4638   001846  2141               	addwfc	(??_sem_wait+4)& (0+255),w,b
  4639   001848  6EDA               	movwf	fsr2h,c
  4640   00184A  50DF               	movf	indf2,w,c
  4641   00184C  6EFF               	movwf	255,c	;volatile
  4642   00184E  0005               	push		;# 
  4643   001850                     i1l148:
  4644   001850  0101               	movlb	1	; () banked
  4645   001852  51D3               	movf	(_r_queue+211)& (0+255),w,b
  4646   001854  0D23               	mullw	35
  4647   001856  0E22               	movlw	low (_r_queue+34)
  4648   001858  24F3               	addwf	243,w,c
  4649   00185A  6ED9               	movwf	fsr2l,c
  4650   00185C  0E01               	movlw	high (_r_queue+34)
  4651   00185E  20F4               	addwfc	prodh,w,c
  4652   001860  6EDA               	movwf	fsr2h,c
  4653   001862  50DF               	movf	indf2,w,c
  4654   001864  A4D8               	btfss	status,2,c
  4655   001866  EF37  F00C         	goto	i1u440_21
  4656   00186A  EF39  F00C         	goto	i1u440_20
  4657   00186E                     i1u440_21:
  4658   00186E  EFB3  F00B         	goto	i1l4965
  4659   001872                     i1u440_20:
  4660   001872                     
  4661                           ; BSR set to: 1
  4662   001872  0012               	return		;# 
  4663   001874                     i1l141:
  4664                           
  4665                           ;sync.c: 32:     INTCONbits.GIE = 1;;
  4666   001874  8EF2               	bsf	242,7,c	;volatile
  4667   001876  0012               	return		;funcret
  4668   001878                     __end_of_sem_wait:
  4669                           	callstack 0
  4670                           
  4671 ;; *************** function _sem_post *****************
  4672 ;; Defined at:
  4673 ;;		line 35 in file "sync.c"
  4674 ;; Parameters:    Size  Location     Type
  4675 ;;  sem             1   15[BANK0 ] PTR struct sem
  4676 ;;		 -> sem_processamento(8), pipe_adc(22), 
  4677 ;; Auto vars:     Size  Location     Type
  4678 ;;		None
  4679 ;; Return value:  Size  Location     Type
  4680 ;;                  1    wreg      void 
  4681 ;; Registers used:
  4682 ;;		wreg, fsr1l, fsr1h, fsr2l, fsr2h, status,2, status,0, prodl, prodh, cstack
  4683 ;; Tracked objects:
  4684 ;;		On entry : 0/0
  4685 ;;		On exit  : 0/0
  4686 ;;		Unchanged: 0/0
  4687 ;; Data sizes:     COMRAM   BANK0   BANK1   BANK2   BANK3   BANK4   BANK5   BANK6   BANK7   BANK8   BANK9  BANK10  BANK1
      +1  BANK12  BANK13  BANK14  BANK15
  4688 ;;      Params:         0       1       0       0       0       0       0       0       0       0       0       0       
      +0       0       0       0       0
  4689 ;;      Locals:         0       0       0       0       0       0       0       0       0       0       0       0       
      +0       0       0       0       0
  4690 ;;      Temps:          0       0       0       4       0       0       0       0       0       0       0       0       
      +0       0       0       0       0
  4691 ;;      Totals:         0       1       0       4       0       0       0       0       0       0       0       0       
      +0       0       0       0       0
  4692 ;;Total ram usage:        5 bytes
  4693 ;; Hardware stack levels used: 1
  4694 ;; Hardware stack levels required when called: 3
  4695 ;; This function calls:
  4696 ;;		___awmod
  4697 ;; This function is called by:
  4698 ;;		_pipe_write
  4699 ;;		_pipe_read
  4700 ;;		_tarefaProcessamento
  4701 ;; This function uses a non-reentrant model
  4702 ;;
  4703                           
  4704                           	psect	text17
  4705   002966                     __ptext17:
  4706                           	callstack 0
  4707   002966                     _sem_post:
  4708                           	callstack 21
  4709   002966                     
  4710                           ;sync.c: 36:     INTCONbits.GIE = 0;;
  4711   002966  9EF2               	bcf	242,7,c	;volatile
  4712   002968                     
  4713                           ;sync.c: 38:     sem->contador++;
  4714   002968  0100               	movlb	0	; () banked
  4715   00296A  5198               	movf	sem_post@sem& (0+255),w,b
  4716   00296C  6ED9               	movwf	fsr2l,c
  4717   00296E  6ADA               	clrf	fsr2h,c
  4718   002970  2ADF               	incf	indf2,f,c
  4719                           
  4720                           ;sync.c: 39:     if (sem->contador <= 0) {
  4721   002972  5198               	movf	sem_post@sem& (0+255),w,b
  4722   002974  6ED9               	movwf	fsr2l,c
  4723   002976  6ADA               	clrf	fsr2h,c
  4724   002978  50DF               	movf	indf2,w,c
  4725   00297A  0A80               	xorlw	128
  4726   00297C  0F7F               	addlw	-129
  4727   00297E  B0D8               	btfsc	status,0,c
  4728   002980  EFC4  F014         	goto	i1u425_21
  4729   002984  EFC6  F014         	goto	i1u425_20
  4730   002988                     i1u425_21:
  4731   002988  EF1A  F015         	goto	i1l4829
  4732   00298C                     i1u425_20:
  4733   00298C                     
  4734                           ; BSR set to: 0
  4735                           ;sync.c: 41:         ((r_queue.TASKS[sem->fila[sem->pos_output]]).state_prio = (uint8_t)
      +                          (((r_queue.TASKS[sem->fila[sem->pos_output]]).state_prio & 0xFC) | (uint8_t)(READY)));
  4736   00298C  5198               	movf	sem_post@sem& (0+255),w,b
  4737   00298E  6ED9               	movwf	fsr2l,c
  4738   002990  6ADA               	clrf	fsr2h,c
  4739   002992  0E07               	movlw	7
  4740   002994  26D9               	addwf	fsr2l,f,c
  4741   002996  50DF               	movf	indf2,w,c
  4742   002998  0102               	movlb	2	; () banked
  4743   00299A  6F32               	movwf	??_sem_post& (0+255),b
  4744   00299C  0100               	movlb	0	; () banked
  4745   00299E  5198               	movf	sem_post@sem& (0+255),w,b
  4746   0029A0  0102               	movlb	2	; () banked
  4747   0029A2  2532               	addwf	??_sem_post& (0+255),w,b
  4748   0029A4  6ED9               	movwf	fsr2l,c
  4749   0029A6  6ADA               	clrf	fsr2h,c
  4750   0029A8  0E01               	movlw	1
  4751   0029AA  26D9               	addwf	fsr2l,f,c
  4752   0029AC  50DF               	movf	indf2,w,c
  4753   0029AE  6F33               	movwf	(??_sem_post+1)& (0+255),b
  4754   0029B0  5133               	movf	(??_sem_post+1)& (0+255),w,b
  4755   0029B2  0D23               	mullw	35
  4756   0029B4  0E04               	movlw	low (_r_queue+4)
  4757   0029B6  24F3               	addwf	243,w,c
  4758   0029B8  6ED9               	movwf	fsr2l,c
  4759   0029BA  0E01               	movlw	high (_r_queue+4)
  4760   0029BC  20F4               	addwfc	prodh,w,c
  4761   0029BE  6EDA               	movwf	fsr2h,c
  4762   0029C0  0100               	movlb	0	; () banked
  4763   0029C2  5198               	movf	sem_post@sem& (0+255),w,b
  4764   0029C4  6EE1               	movwf	fsr1l,c
  4765   0029C6  6AE2               	clrf	fsr1h,c
  4766   0029C8  0E07               	movlw	7
  4767   0029CA  26E1               	addwf	fsr1l,f,c
  4768   0029CC  50E7               	movf	indf1,w,c
  4769   0029CE  0102               	movlb	2	; () banked
  4770   0029D0  6F34               	movwf	(??_sem_post+2)& (0+255),b
  4771   0029D2  0100               	movlb	0	; () banked
  4772   0029D4  5198               	movf	sem_post@sem& (0+255),w,b
  4773   0029D6  0102               	movlb	2	; () banked
  4774   0029D8  2534               	addwf	(??_sem_post+2)& (0+255),w,b
  4775   0029DA  6EE1               	movwf	fsr1l,c
  4776   0029DC  6AE2               	clrf	fsr1h,c
  4777   0029DE  0E01               	movlw	1
  4778   0029E0  26E1               	addwf	fsr1l,f,c
  4779   0029E2  50E7               	movf	indf1,w,c
  4780   0029E4  6F35               	movwf	(??_sem_post+3)& (0+255),b
  4781   0029E6  5135               	movf	(??_sem_post+3)& (0+255),w,b
  4782   0029E8  0D23               	mullw	35
  4783   0029EA  0E04               	movlw	low (_r_queue+4)
  4784   0029EC  24F3               	addwf	243,w,c
  4785   0029EE  6EE1               	movwf	fsr1l,c
  4786   0029F0  0E01               	movlw	high (_r_queue+4)
  4787   0029F2  20F4               	addwfc	prodh,w,c
  4788   0029F4  6EE2               	movwf	fsr1h,c
  4789   0029F6  50E7               	movf	indf1,w,c
  4790   0029F8  0BFC               	andlw	252
  4791   0029FA  6EDF               	movwf	indf2,c
  4792   0029FC                     
  4793                           ; BSR set to: 2
  4794                           ;sync.c: 42:         sem->pos_output = (sem->pos_output + 1) % 5;
  4795   0029FC  0100               	movlb	0	; () banked
  4796   0029FE  5198               	movf	sem_post@sem& (0+255),w,b
  4797   002A00  6ED9               	movwf	fsr2l,c
  4798   002A02  6ADA               	clrf	fsr2h,c
  4799   002A04  0E07               	movlw	7
  4800   002A06  26D9               	addwf	fsr2l,f,c
  4801   002A08  5198               	movf	sem_post@sem& (0+255),w,b
  4802   002A0A  6EE1               	movwf	fsr1l,c
  4803   002A0C  6AE2               	clrf	fsr1h,c
  4804   002A0E  0E07               	movlw	7
  4805   002A10  26E1               	addwf	fsr1l,f,c
  4806   002A12  50E7               	movf	indf1,w,c
  4807   002A14  0102               	movlb	2	; () banked
  4808   002A16  6F32               	movwf	??_sem_post& (0+255),b
  4809   002A18  0E01               	movlw	1
  4810   002A1A  2532               	addwf	??_sem_post& (0+255),w,b
  4811   002A1C  6F2E               	movwf	___awmod@dividend& (0+255),b
  4812   002A1E  6B2F               	clrf	(___awmod@dividend+1)& (0+255),b
  4813   002A20  0E00               	movlw	0
  4814   002A22  232F               	addwfc	(___awmod@dividend+1)& (0+255),f,b
  4815   002A24  6B31               	clrf	(___awmod@divisor+1)& (0+255),b
  4816   002A26  0E05               	movlw	5
  4817   002A28  6F30               	movwf	___awmod@divisor& (0+255),b
  4818   002A2A  EC1C  F015         	call	___awmod	;wreg free
  4819   002A2E  0102               	movlb	2	; () banked
  4820   002A30  512E               	movf	?___awmod& (0+255),w,b
  4821   002A32  6EDF               	movwf	indf2,c
  4822   002A34                     i1l4829:
  4823                           
  4824                           ;sync.c: 45:     INTCONbits.GIE = 1;;
  4825   002A34  8EF2               	bsf	242,7,c	;volatile
  4826   002A36  0012               	return		;funcret
  4827   002A38                     __end_of_sem_post:
  4828                           	callstack 0
  4829                           
  4830 ;; *************** function ___awmod *****************
  4831 ;; Defined at:
  4832 ;;		line 7 in file "C:\Program Files\Microchip\xc8\v3.10\pic\sources\c99\common\awmod.c"
  4833 ;; Parameters:    Size  Location     Type
  4834 ;;  dividend        2   46[BANK2 ] int 
  4835 ;;  divisor         2   48[BANK2 ] int 
  4836 ;; Auto vars:     Size  Location     Type
  4837 ;;  sign            1   14[BANK0 ] unsigned char 
  4838 ;;  counter         1   13[BANK0 ] unsigned char 
  4839 ;; Return value:  Size  Location     Type
  4840 ;;                  2   46[BANK2 ] int 
  4841 ;; Registers used:
  4842 ;;		wreg, status,2, status,0
  4843 ;; Tracked objects:
  4844 ;;		On entry : 0/0
  4845 ;;		On exit  : 0/0
  4846 ;;		Unchanged: 0/0
  4847 ;; Data sizes:     COMRAM   BANK0   BANK1   BANK2   BANK3   BANK4   BANK5   BANK6   BANK7   BANK8   BANK9  BANK10  BANK1
      +1  BANK12  BANK13  BANK14  BANK15
  4848 ;;      Params:         0       0       0       4       0       0       0       0       0       0       0       0       
      +0       0       0       0       0
  4849 ;;      Locals:         0       2       0       0       0       0       0       0       0       0       0       0       
      +0       0       0       0       0
  4850 ;;      Temps:          0       0       0       0       0       0       0       0       0       0       0       0       
      +0       0       0       0       0
  4851 ;;      Totals:         0       2       0       4       0       0       0       0       0       0       0       0       
      +0       0       0       0       0
  4852 ;;Total ram usage:        6 bytes
  4853 ;; Hardware stack levels used: 1
  4854 ;; Hardware stack levels required when called: 3
  4855 ;; This function calls:
  4856 ;;		Nothing
  4857 ;; This function is called by:
  4858 ;;		_sem_post
  4859 ;; This function uses a non-reentrant model
  4860 ;;
  4861                           
  4862                           	psect	text18
  4863   002A38                     __ptext18:
  4864                           	callstack 0
  4865   002A38                     ___awmod:
  4866                           	callstack 20
  4867   002A38  0100               	movlb	0	; () banked
  4868   002A3A  6B97               	clrf	___awmod@sign& (0+255),b
  4869   002A3C                     
  4870                           ; BSR set to: 0
  4871   002A3C  0102               	movlb	2	; () banked
  4872   002A3E  BF2F               	btfsc	(___awmod@dividend+1)& (0+255),7,b
  4873   002A40  EF26  F015         	goto	i1u410_20
  4874   002A44  EF24  F015         	goto	i1u410_21
  4875   002A48                     i1u410_21:
  4876   002A48  EF2D  F015         	goto	i1l4751
  4877   002A4C                     i1u410_20:
  4878   002A4C                     
  4879                           ; BSR set to: 2
  4880   002A4C  6D2E               	negf	___awmod@dividend& (0+255),b
  4881   002A4E  1F2F               	comf	(___awmod@dividend+1)& (0+255),f,b
  4882   002A50  B0D8               	btfsc	status,0,c
  4883   002A52  2B2F               	incf	(___awmod@dividend+1)& (0+255),f,b
  4884   002A54                     
  4885                           ; BSR set to: 2
  4886   002A54  0E01               	movlw	1
  4887   002A56  0100               	movlb	0	; () banked
  4888   002A58  6F97               	movwf	___awmod@sign& (0+255),b
  4889   002A5A                     i1l4751:
  4890   002A5A  0102               	movlb	2	; () banked
  4891   002A5C  BF31               	btfsc	(___awmod@divisor+1)& (0+255),7,b
  4892   002A5E  EF35  F015         	goto	i1u411_20
  4893   002A62  EF33  F015         	goto	i1u411_21
  4894   002A66                     i1u411_21:
  4895   002A66  EF39  F015         	goto	i1l4755
  4896   002A6A                     i1u411_20:
  4897   002A6A                     
  4898                           ; BSR set to: 2
  4899   002A6A  6D30               	negf	___awmod@divisor& (0+255),b
  4900   002A6C  1F31               	comf	(___awmod@divisor+1)& (0+255),f,b
  4901   002A6E  B0D8               	btfsc	status,0,c
  4902   002A70  2B31               	incf	(___awmod@divisor+1)& (0+255),f,b
  4903   002A72                     i1l4755:
  4904                           
  4905                           ; BSR set to: 2
  4906   002A72  5130               	movf	___awmod@divisor& (0+255),w,b
  4907   002A74  1131               	iorwf	(___awmod@divisor+1)& (0+255),w,b
  4908   002A76  B4D8               	btfsc	status,2,c
  4909   002A78  EF40  F015         	goto	i1u412_21
  4910   002A7C  EF42  F015         	goto	i1u412_20
  4911   002A80                     i1u412_21:
  4912   002A80  EF6B  F015         	goto	i1l4771
  4913   002A84                     i1u412_20:
  4914   002A84                     
  4915                           ; BSR set to: 2
  4916   002A84  0E01               	movlw	1
  4917   002A86  0100               	movlb	0	; () banked
  4918   002A88  6F96               	movwf	___awmod@counter& (0+255),b
  4919   002A8A  EF4C  F015         	goto	i1l4761
  4920   002A8E                     i1l4759:
  4921                           
  4922                           ; BSR set to: 2
  4923   002A8E  90D8               	bcf	status,0,c
  4924   002A90  3730               	rlcf	___awmod@divisor& (0+255),f,b
  4925   002A92  3731               	rlcf	(___awmod@divisor+1)& (0+255),f,b
  4926   002A94  0100               	movlb	0	; () banked
  4927   002A96  2B96               	incf	___awmod@counter& (0+255),f,b
  4928   002A98                     i1l4761:
  4929                           
  4930                           ; BSR set to: 0
  4931   002A98  0102               	movlb	2	; () banked
  4932   002A9A  AF31               	btfss	(___awmod@divisor+1)& (0+255),7,b
  4933   002A9C  EF52  F015         	goto	i1u413_21
  4934   002AA0  EF54  F015         	goto	i1u413_20
  4935   002AA4                     i1u413_21:
  4936   002AA4  EF47  F015         	goto	i1l4759
  4937   002AA8                     i1u413_20:
  4938   002AA8                     i1l4763:
  4939   002AA8  0102               	movlb	2	; () banked
  4940   002AAA  5130               	movf	___awmod@divisor& (0+255),w,b
  4941   002AAC  5D2E               	subwf	___awmod@dividend& (0+255),w,b
  4942   002AAE  5131               	movf	(___awmod@divisor+1)& (0+255),w,b
  4943   002AB0  592F               	subwfb	(___awmod@dividend+1)& (0+255),w,b
  4944   002AB2  A0D8               	btfss	status,0,c
  4945   002AB4  EF5E  F015         	goto	i1u414_21
  4946   002AB8  EF60  F015         	goto	i1u414_20
  4947   002ABC                     i1u414_21:
  4948   002ABC  EF64  F015         	goto	i1l4767
  4949   002AC0                     i1u414_20:
  4950   002AC0                     
  4951                           ; BSR set to: 2
  4952   002AC0  5130               	movf	___awmod@divisor& (0+255),w,b
  4953   002AC2  5F2E               	subwf	___awmod@dividend& (0+255),f,b
  4954   002AC4  5131               	movf	(___awmod@divisor+1)& (0+255),w,b
  4955   002AC6  5B2F               	subwfb	(___awmod@dividend+1)& (0+255),f,b
  4956   002AC8                     i1l4767:
  4957                           
  4958                           ; BSR set to: 2
  4959   002AC8  90D8               	bcf	status,0,c
  4960   002ACA  3331               	rrcf	(___awmod@divisor+1)& (0+255),f,b
  4961   002ACC  3330               	rrcf	___awmod@divisor& (0+255),f,b
  4962   002ACE                     
  4963                           ; BSR set to: 2
  4964   002ACE  0100               	movlb	0	; () banked
  4965   002AD0  2F96               	decfsz	___awmod@counter& (0+255),f,b
  4966   002AD2  EF54  F015         	goto	i1l4763
  4967   002AD6                     i1l4771:
  4968   002AD6  0100               	movlb	0	; () banked
  4969   002AD8  5197               	movf	___awmod@sign& (0+255),w,b
  4970   002ADA  B4D8               	btfsc	status,2,c
  4971   002ADC  EF72  F015         	goto	i1u415_21
  4972   002AE0  EF74  F015         	goto	i1u415_20
  4973   002AE4                     i1u415_21:
  4974   002AE4  EF79  F015         	goto	i1l4775
  4975   002AE8                     i1u415_20:
  4976   002AE8                     
  4977                           ; BSR set to: 0
  4978   002AE8  0102               	movlb	2	; () banked
  4979   002AEA  6D2E               	negf	___awmod@dividend& (0+255),b
  4980   002AEC  1F2F               	comf	(___awmod@dividend+1)& (0+255),f,b
  4981   002AEE  B0D8               	btfsc	status,0,c
  4982   002AF0  2B2F               	incf	(___awmod@dividend+1)& (0+255),f,b
  4983   002AF2                     i1l4775:
  4984   002AF2  C22E  F22E         	movff	___awmod@dividend,?___awmod
  4985   002AF6  C22F  F22F         	movff	___awmod@dividend+1,?___awmod+1
  4986   002AFA  0012               	return		;funcret
  4987   002AFC                     __end_of___awmod:
  4988                           	callstack 0
  4989                           
  4990 ;; *************** function _os_delay *****************
  4991 ;; Defined at:
  4992 ;;		line 12 in file "kernel.c"
  4993 ;; Parameters:    Size  Location     Type
  4994 ;;  time            1    wreg     unsigned char 
  4995 ;; Auto vars:     Size  Location     Type
  4996 ;;  time            1   82[BANK2 ] unsigned char 
  4997 ;; Return value:  Size  Location     Type
  4998 ;;                  1    wreg      void 
  4999 ;; Registers used:
  5000 ;;		wreg, fsr1l, fsr1h, fsr2l, fsr2h, status,2, status,0, prodl, prodh, cstack
  5001 ;; Tracked objects:
  5002 ;;		On entry : 0/0
  5003 ;;		On exit  : 0/0
  5004 ;;		Unchanged: 0/0
  5005 ;; Data sizes:     COMRAM   BANK0   BANK1   BANK2   BANK3   BANK4   BANK5   BANK6   BANK7   BANK8   BANK9  BANK10  BANK1
      +1  BANK12  BANK13  BANK14  BANK15
  5006 ;;      Params:         0       0       0       0       0       0       0       0       0       0       0       0       
      +0       0       0       0       0
  5007 ;;      Locals:         0       0       0       1       0       0       0       0       0       0       0       0       
      +0       0       0       0       0
  5008 ;;      Temps:          0       0       0       5       0       0       0       0       0       0       0       0       
      +0       0       0       0       0
  5009 ;;      Totals:         0       0       0       6       0       0       0       0       0       0       0       0       
      +0       0       0       0       0
  5010 ;;Total ram usage:        6 bytes
  5011 ;; Hardware stack levels used: 1
  5012 ;; Hardware stack levels required when called: 5
  5013 ;; This function calls:
  5014 ;;		i1_scheduler
  5015 ;; This function is called by:
  5016 ;;		_tarefaLeituraADC
  5017 ;;		_tarefaFeedbackLED
  5018 ;;		_tarefaOneShot
  5019 ;; This function uses a non-reentrant model
  5020 ;;
  5021                           
  5022                           	psect	text19
  5023   001C58                     __ptext19:
  5024                           	callstack 0
  5025   001C58                     _os_delay:
  5026                           	callstack 20
  5027                           
  5028                           ;incstack = 0
  5029                           ;os_delay@time stored from wreg
  5030   001C58  0102               	movlb	2	; () banked
  5031   001C5A  6F52               	movwf	os_delay@time& (0+255),b
  5032   001C5C                     
  5033                           ;kernel.c: 12: void os_delay(uint8_t time);kernel.c: 13: {;kernel.c: 14:     INTCONbits.
      +                          GIE = 0;;
  5034   001C5C  9EF2               	bcf	242,7,c	;volatile
  5035   001C5E                     
  5036                           ;kernel.c: 16:     { if (((r_queue.TASKS[r_queue.pos_task_running]).state_prio & 0x03) =
      +                          = RUNNING) { ((r_queue.TASKS[r_queue.pos_task_running]).state_prio = (uint8_t)(((r_queue
      +                          .TASKS[r_queue.pos_task_running]).state_prio & 0xFC) | (uint8_t)(WAITING))); r_queue.TAS
      +                          KS[r_queue.pos_task_running].BSR_REG = BSR; r_queue.TASKS[r_queue.pos_task_running].W_RE
      +                          G = WREG; r_queue.TASKS[r_queue.pos_task_running].STATUS_REG = STATUS; r_queue.TASKS[r_q
      +                          ueue.pos_task_running].FSR0H_REG = FSR0H; r_queue.TASKS[r_queue.pos_task_running].FSR0L_
      +                          REG = FSR0L; r_queue.TASKS[r_queue.pos_task_running].task_stack.stack_size = 0; while (S
      +                          TKPTR > 0) { r_queue.TASKS[r_queue.pos_task_running].task_stack.stack[r_queue.TASKS[r_qu
      +                          eue.pos_task_running].task_stack.stack_size].TOSL_REG = TOSL; r_queue.TASKS[r_queue.pos_
      +                          task_running].task_stack.stack[r_queue.TASKS[r_queue.pos_task_running].task_stack.stack_
      +                          size].TOSH_REG = TOSH; r_queue.TASKS[r_queue.pos_task_running].task_stack.stack[r_queue.
      +                          TASKS[r_queue.pos_task_running].task_stack.stack_size].TOSU_REG = TOSU; r_queue.TASKS[r_
      +                          queue.pos_task_running].task_stack.stack_size++; __asm("POP"); } } };
  5037   001C5E  0101               	movlb	1	; () banked
  5038   001C60  51D3               	movf	(_r_queue+211)& (0+255),w,b
  5039   001C62  0D23               	mullw	35
  5040   001C64  0E04               	movlw	low (_r_queue+4)
  5041   001C66  24F3               	addwf	243,w,c
  5042   001C68  6ED9               	movwf	fsr2l,c
  5043   001C6A  0E01               	movlw	high (_r_queue+4)
  5044   001C6C  20F4               	addwfc	prodh,w,c
  5045   001C6E  6EDA               	movwf	fsr2h,c
  5046   001C70  50DF               	movf	indf2,w,c
  5047   001C72  0B03               	andlw	3
  5048   001C74  0A02               	xorlw	2
  5049   001C76  A4D8               	btfss	status,2,c
  5050   001C78  EF40  F00E         	goto	i1u426_21
  5051   001C7C  EF42  F00E         	goto	i1u426_20
  5052   001C80                     i1u426_21:
  5053   001C80  EF12  F00F         	goto	i1l4855
  5054   001C84                     i1u426_20:
  5055   001C84                     
  5056                           ; BSR set to: 1
  5057   001C84  51D3               	movf	(_r_queue+211)& (0+255),w,b
  5058   001C86  0D23               	mullw	35
  5059   001C88  0E04               	movlw	low (_r_queue+4)
  5060   001C8A  24F3               	addwf	243,w,c
  5061   001C8C  6ED9               	movwf	fsr2l,c
  5062   001C8E  0E01               	movlw	high (_r_queue+4)
  5063   001C90  20F4               	addwfc	prodh,w,c
  5064   001C92  6EDA               	movwf	fsr2h,c
  5065   001C94  51D3               	movf	(_r_queue+211)& (0+255),w,b
  5066   001C96  0D23               	mullw	35
  5067   001C98  0E04               	movlw	low (_r_queue+4)
  5068   001C9A  24F3               	addwf	243,w,c
  5069   001C9C  6EE1               	movwf	fsr1l,c
  5070   001C9E  0E01               	movlw	high (_r_queue+4)
  5071   001CA0  20F4               	addwfc	prodh,w,c
  5072   001CA2  6EE2               	movwf	fsr1h,c
  5073   001CA4  50E7               	movf	indf1,w,c
  5074   001CA6  0BFC               	andlw	252
  5075   001CA8  0901               	iorlw	1
  5076   001CAA  6EDF               	movwf	indf2,c
  5077   001CAC                     
  5078                           ; BSR set to: 1
  5079   001CAC  51D3               	movf	(_r_queue+211)& (0+255),w,b
  5080   001CAE  0D23               	mullw	35
  5081   001CB0  0E07               	movlw	low (_r_queue+7)
  5082   001CB2  24F3               	addwf	243,w,c
  5083   001CB4  6ED9               	movwf	fsr2l,c
  5084   001CB6  0E01               	movlw	high (_r_queue+7)
  5085   001CB8  20F4               	addwfc	prodh,w,c
  5086   001CBA  6EDA               	movwf	fsr2h,c
  5087   001CBC  CFE0 FFDF          	movff	bsr,indf2	;volatile
  5088   001CC0                     
  5089                           ; BSR set to: 1
  5090   001CC0  51D3               	movf	(_r_queue+211)& (0+255),w,b
  5091   001CC2  0D23               	mullw	35
  5092   001CC4  0E05               	movlw	low (_r_queue+5)
  5093   001CC6  24F3               	addwf	243,w,c
  5094   001CC8  6ED9               	movwf	fsr2l,c
  5095   001CCA  0E01               	movlw	high (_r_queue+5)
  5096   001CCC  20F4               	addwfc	prodh,w,c
  5097   001CCE  6EDA               	movwf	fsr2h,c
  5098   001CD0  CFE8 FFDF          	movff	wreg,indf2	;volatile
  5099   001CD4                     
  5100                           ; BSR set to: 1
  5101   001CD4  51D3               	movf	(_r_queue+211)& (0+255),w,b
  5102   001CD6  0D23               	mullw	35
  5103   001CD8  0E06               	movlw	low (_r_queue+6)
  5104   001CDA  24F3               	addwf	243,w,c
  5105   001CDC  6ED9               	movwf	fsr2l,c
  5106   001CDE  0E01               	movlw	high (_r_queue+6)
  5107   001CE0  20F4               	addwfc	prodh,w,c
  5108   001CE2  6EDA               	movwf	fsr2h,c
  5109   001CE4  CFD8 FFDF          	movff	status,indf2	;volatile
  5110   001CE8                     
  5111                           ; BSR set to: 1
  5112   001CE8  51D3               	movf	(_r_queue+211)& (0+255),w,b
  5113   001CEA  0D23               	mullw	35
  5114   001CEC  0E09               	movlw	low (_r_queue+9)
  5115   001CEE  24F3               	addwf	243,w,c
  5116   001CF0  6ED9               	movwf	fsr2l,c
  5117   001CF2  0E01               	movlw	high (_r_queue+9)
  5118   001CF4  20F4               	addwfc	prodh,w,c
  5119   001CF6  6EDA               	movwf	fsr2h,c
  5120   001CF8  CFEA FFDF          	movff	fsr0h,indf2	;volatile
  5121   001CFC                     
  5122                           ; BSR set to: 1
  5123   001CFC  51D3               	movf	(_r_queue+211)& (0+255),w,b
  5124   001CFE  0D23               	mullw	35
  5125   001D00  0E08               	movlw	low (_r_queue+8)
  5126   001D02  24F3               	addwf	243,w,c
  5127   001D04  6ED9               	movwf	fsr2l,c
  5128   001D06  0E01               	movlw	high (_r_queue+8)
  5129   001D08  20F4               	addwfc	prodh,w,c
  5130   001D0A  6EDA               	movwf	fsr2h,c
  5131   001D0C  CFE9 FFDF          	movff	fsr0l,indf2	;volatile
  5132   001D10                     
  5133                           ; BSR set to: 1
  5134   001D10  51D3               	movf	(_r_queue+211)& (0+255),w,b
  5135   001D12  0D23               	mullw	35
  5136   001D14  0E22               	movlw	low (_r_queue+34)
  5137   001D16  24F3               	addwf	243,w,c
  5138   001D18  6ED9               	movwf	fsr2l,c
  5139   001D1A  0E01               	movlw	high (_r_queue+34)
  5140   001D1C  20F4               	addwfc	prodh,w,c
  5141   001D1E  6EDA               	movwf	fsr2h,c
  5142   001D20  6ADF               	clrf	indf2,c
  5143   001D22  EF0A  F00F         	goto	i1l4853
  5144   001D26                     i1l4851:
  5145   001D26  0101               	movlb	1	; () banked
  5146   001D28  51D3               	movf	(_r_queue+211)& (0+255),w,b
  5147   001D2A  0D23               	mullw	35
  5148   001D2C  0E22               	movlw	low (_r_queue+34)
  5149   001D2E  24F3               	addwf	243,w,c
  5150   001D30  6ED9               	movwf	fsr2l,c
  5151   001D32  0E01               	movlw	high (_r_queue+34)
  5152   001D34  20F4               	addwfc	prodh,w,c
  5153   001D36  6EDA               	movwf	fsr2h,c
  5154   001D38  50DF               	movf	indf2,w,c
  5155   001D3A  0102               	movlb	2	; () banked
  5156   001D3C  6F4D               	movwf	??_os_delay& (0+255),b
  5157   001D3E  514D               	movf	??_os_delay& (0+255),w,b
  5158   001D40  0D03               	mullw	3
  5159   001D42  CFF3 F24E          	movff	prodl,??_os_delay+1
  5160   001D46  CFF4 F24F          	movff	prodh,??_os_delay+2
  5161   001D4A  0101               	movlb	1	; () banked
  5162   001D4C  51D3               	movf	(_r_queue+211)& (0+255),w,b
  5163   001D4E  0D23               	mullw	35
  5164   001D50  0E0A               	movlw	low (_r_queue+10)
  5165   001D52  24F3               	addwf	243,w,c
  5166   001D54  0102               	movlb	2	; () banked
  5167   001D56  6F50               	movwf	(??_os_delay+3)& (0+255),b
  5168   001D58  0E01               	movlw	high (_r_queue+10)
  5169   001D5A  20F4               	addwfc	prodh,w,c
  5170   001D5C  6F51               	movwf	(??_os_delay+4)& (0+255),b
  5171   001D5E  514E               	movf	(??_os_delay+1)& (0+255),w,b
  5172   001D60  2550               	addwf	(??_os_delay+3)& (0+255),w,b
  5173   001D62  6ED9               	movwf	fsr2l,c
  5174   001D64  514F               	movf	(??_os_delay+2)& (0+255),w,b
  5175   001D66  2151               	addwfc	(??_os_delay+4)& (0+255),w,b
  5176   001D68  6EDA               	movwf	fsr2h,c
  5177   001D6A  CFFD FFDF          	movff	tosl,indf2	;volatile
  5178   001D6E  0101               	movlb	1	; () banked
  5179   001D70  51D3               	movf	(_r_queue+211)& (0+255),w,b
  5180   001D72  0D23               	mullw	35
  5181   001D74  0E22               	movlw	low (_r_queue+34)
  5182   001D76  24F3               	addwf	243,w,c
  5183   001D78  6ED9               	movwf	fsr2l,c
  5184   001D7A  0E01               	movlw	high (_r_queue+34)
  5185   001D7C  20F4               	addwfc	prodh,w,c
  5186   001D7E  6EDA               	movwf	fsr2h,c
  5187   001D80  50DF               	movf	indf2,w,c
  5188   001D82  0102               	movlb	2	; () banked
  5189   001D84  6F4D               	movwf	??_os_delay& (0+255),b
  5190   001D86  514D               	movf	??_os_delay& (0+255),w,b
  5191   001D88  0D03               	mullw	3
  5192   001D8A  CFF3 F24E          	movff	prodl,??_os_delay+1
  5193   001D8E  CFF4 F24F          	movff	prodh,??_os_delay+2
  5194   001D92  0101               	movlb	1	; () banked
  5195   001D94  51D3               	movf	(_r_queue+211)& (0+255),w,b
  5196   001D96  0D23               	mullw	35
  5197   001D98  0E0B               	movlw	low (_r_queue+11)
  5198   001D9A  24F3               	addwf	243,w,c
  5199   001D9C  0102               	movlb	2	; () banked
  5200   001D9E  6F50               	movwf	(??_os_delay+3)& (0+255),b
  5201   001DA0  0E01               	movlw	high (_r_queue+11)
  5202   001DA2  20F4               	addwfc	prodh,w,c
  5203   001DA4  6F51               	movwf	(??_os_delay+4)& (0+255),b
  5204   001DA6  514E               	movf	(??_os_delay+1)& (0+255),w,b
  5205   001DA8  2550               	addwf	(??_os_delay+3)& (0+255),w,b
  5206   001DAA  6ED9               	movwf	fsr2l,c
  5207   001DAC  514F               	movf	(??_os_delay+2)& (0+255),w,b
  5208   001DAE  2151               	addwfc	(??_os_delay+4)& (0+255),w,b
  5209   001DB0  6EDA               	movwf	fsr2h,c
  5210   001DB2  CFFE FFDF          	movff	tosh,indf2	;volatile
  5211   001DB6  0101               	movlb	1	; () banked
  5212   001DB8  51D3               	movf	(_r_queue+211)& (0+255),w,b
  5213   001DBA  0D23               	mullw	35
  5214   001DBC  0E22               	movlw	low (_r_queue+34)
  5215   001DBE  24F3               	addwf	243,w,c
  5216   001DC0  6ED9               	movwf	fsr2l,c
  5217   001DC2  0E01               	movlw	high (_r_queue+34)
  5218   001DC4  20F4               	addwfc	prodh,w,c
  5219   001DC6  6EDA               	movwf	fsr2h,c
  5220   001DC8  50DF               	movf	indf2,w,c
  5221   001DCA  0102               	movlb	2	; () banked
  5222   001DCC  6F4D               	movwf	??_os_delay& (0+255),b
  5223   001DCE  514D               	movf	??_os_delay& (0+255),w,b
  5224   001DD0  0D03               	mullw	3
  5225   001DD2  CFF3 F24E          	movff	prodl,??_os_delay+1
  5226   001DD6  CFF4 F24F          	movff	prodh,??_os_delay+2
  5227   001DDA  0101               	movlb	1	; () banked
  5228   001DDC  51D3               	movf	(_r_queue+211)& (0+255),w,b
  5229   001DDE  0D23               	mullw	35
  5230   001DE0  0E0C               	movlw	low (_r_queue+12)
  5231   001DE2  24F3               	addwf	243,w,c
  5232   001DE4  0102               	movlb	2	; () banked
  5233   001DE6  6F50               	movwf	(??_os_delay+3)& (0+255),b
  5234   001DE8  0E01               	movlw	high (_r_queue+12)
  5235   001DEA  20F4               	addwfc	prodh,w,c
  5236   001DEC  6F51               	movwf	(??_os_delay+4)& (0+255),b
  5237   001DEE  514E               	movf	(??_os_delay+1)& (0+255),w,b
  5238   001DF0  2550               	addwf	(??_os_delay+3)& (0+255),w,b
  5239   001DF2  6ED9               	movwf	fsr2l,c
  5240   001DF4  514F               	movf	(??_os_delay+2)& (0+255),w,b
  5241   001DF6  2151               	addwfc	(??_os_delay+4)& (0+255),w,b
  5242   001DF8  6EDA               	movwf	fsr2h,c
  5243   001DFA  CFFF FFDF          	movff	tosu,indf2	;volatile
  5244   001DFE  0101               	movlb	1	; () banked
  5245   001E00  51D3               	movf	(_r_queue+211)& (0+255),w,b
  5246   001E02  0D23               	mullw	35
  5247   001E04  0E22               	movlw	low (_r_queue+34)
  5248   001E06  24F3               	addwf	243,w,c
  5249   001E08  6ED9               	movwf	fsr2l,c
  5250   001E0A  0E01               	movlw	high (_r_queue+34)
  5251   001E0C  20F4               	addwfc	prodh,w,c
  5252   001E0E  6EDA               	movwf	fsr2h,c
  5253   001E10  2ADF               	incf	indf2,f,c
  5254   001E12  0006               	pop		;# 
  5255   001E14                     i1l4853:
  5256   001E14  50FC               	movf	252,w,c	;volatile
  5257   001E16  A4D8               	btfss	status,2,c
  5258   001E18  EF10  F00F         	goto	i1u427_21
  5259   001E1C  EF12  F00F         	goto	i1u427_20
  5260   001E20                     i1u427_21:
  5261   001E20  EF93  F00E         	goto	i1l4851
  5262   001E24                     i1u427_20:
  5263   001E24                     i1l4855:
  5264                           
  5265                           ;kernel.c: 17:     r_queue.TASKS[r_queue.pos_task_running].task_delay = time;
  5266   001E24  0101               	movlb	1	; () banked
  5267   001E26  51D3               	movf	(_r_queue+211)& (0+255),w,b
  5268   001E28  0D23               	mullw	35
  5269   001E2A  0E03               	movlw	low (_r_queue+3)
  5270   001E2C  24F3               	addwf	243,w,c
  5271   001E2E  6ED9               	movwf	fsr2l,c
  5272   001E30  0E01               	movlw	high (_r_queue+3)
  5273   001E32  20F4               	addwfc	prodh,w,c
  5274   001E34  6EDA               	movwf	fsr2h,c
  5275   001E36  C252  FFDF         	movff	os_delay@time,indf2
  5276   001E3A                     
  5277                           ; BSR set to: 1
  5278                           ;kernel.c: 18:     scheduler();
  5279   001E3A  ECBB  F017         	call	i1_scheduler	;wreg free
  5280   001E3E                     
  5281                           ;kernel.c: 19:     { if (((r_queue.TASKS[r_queue.pos_task_running]).state_prio & 0x03) =
      +                          = READY) { ((r_queue.TASKS[r_queue.pos_task_running]).state_prio = (uint8_t)(((r_queue.T
      +                          ASKS[r_queue.pos_task_running]).state_prio & 0xFC) | (uint8_t)(RUNNING))); BSR = r_queue
      +                          .TASKS[r_queue.pos_task_running].BSR_REG; WREG = r_queue.TASKS[r_queue.pos_task_running]
      +                          .W_REG; STATUS = r_queue.TASKS[r_queue.pos_task_running].STATUS_REG; FSR0H = r_queue.TAS
      +                          KS[r_queue.pos_task_running].FSR0H_REG; FSR0L = r_queue.TASKS[r_queue.pos_task_running].
      +                          FSR0L_REG; while (r_queue.TASKS[r_queue.pos_task_running].task_stack.stack_size > 0) { r
      +                          _queue.TASKS[r_queue.pos_task_running].task_stack.stack_size--; TOSL = r_queue.TASKS[r_q
      +                          ueue.pos_task_running].task_stack.stack[r_queue.TASKS[r_queue.pos_task_running].task_sta
      +                          ck.stack_size].TOSL_REG; TOSH = r_queue.TASKS[r_queue.pos_task_running].task_stack.stack
      +                          [r_queue.TASKS[r_queue.pos_task_running].task_stack.stack_size].TOSH_REG; TOSU = r_queue
      +                          .TASKS[r_queue.pos_task_running].task_stack.stack[r_queue.TASKS[r_queue.pos_task_running
      +                          ].task_stack.stack_size].TOSU_REG; __asm("PUSH"); } __asm("RETURN"); } };
  5282   001E3E  0101               	movlb	1	; () banked
  5283   001E40  51D3               	movf	(_r_queue+211)& (0+255),w,b
  5284   001E42  0D23               	mullw	35
  5285   001E44  0E04               	movlw	low (_r_queue+4)
  5286   001E46  24F3               	addwf	243,w,c
  5287   001E48  6ED9               	movwf	fsr2l,c
  5288   001E4A  0E01               	movlw	high (_r_queue+4)
  5289   001E4C  20F4               	addwfc	prodh,w,c
  5290   001E4E  6EDA               	movwf	fsr2h,c
  5291   001E50  50DF               	movf	indf2,w,c
  5292   001E52  0102               	movlb	2	; () banked
  5293   001E54  6F4D               	movwf	??_os_delay& (0+255),b
  5294   001E56  0E03               	movlw	3
  5295   001E58  174D               	andwf	??_os_delay& (0+255),f,b
  5296   001E5A  A4D8               	btfss	status,2,c
  5297   001E5C  EF32  F00F         	goto	i1u428_21
  5298   001E60  EF34  F00F         	goto	i1u428_20
  5299   001E64                     i1u428_21:
  5300   001E64  EF07  F010         	goto	i1l63
  5301   001E68                     i1u428_20:
  5302   001E68                     
  5303                           ; BSR set to: 2
  5304   001E68  0101               	movlb	1	; () banked
  5305   001E6A  51D3               	movf	(_r_queue+211)& (0+255),w,b
  5306   001E6C  0D23               	mullw	35
  5307   001E6E  0E04               	movlw	low (_r_queue+4)
  5308   001E70  24F3               	addwf	243,w,c
  5309   001E72  6ED9               	movwf	fsr2l,c
  5310   001E74  0E01               	movlw	high (_r_queue+4)
  5311   001E76  20F4               	addwfc	prodh,w,c
  5312   001E78  6EDA               	movwf	fsr2h,c
  5313   001E7A  51D3               	movf	(_r_queue+211)& (0+255),w,b
  5314   001E7C  0D23               	mullw	35
  5315   001E7E  0E04               	movlw	low (_r_queue+4)
  5316   001E80  24F3               	addwf	243,w,c
  5317   001E82  6EE1               	movwf	fsr1l,c
  5318   001E84  0E01               	movlw	high (_r_queue+4)
  5319   001E86  20F4               	addwfc	prodh,w,c
  5320   001E88  6EE2               	movwf	fsr1h,c
  5321   001E8A  50E7               	movf	indf1,w,c
  5322   001E8C  0BFC               	andlw	252
  5323   001E8E  0902               	iorlw	2
  5324   001E90  6EDF               	movwf	indf2,c
  5325   001E92                     
  5326                           ; BSR set to: 1
  5327   001E92  51D3               	movf	(_r_queue+211)& (0+255),w,b
  5328   001E94  0D23               	mullw	35
  5329   001E96  0E07               	movlw	low (_r_queue+7)
  5330   001E98  24F3               	addwf	243,w,c
  5331   001E9A  6ED9               	movwf	fsr2l,c
  5332   001E9C  0E01               	movlw	high (_r_queue+7)
  5333   001E9E  20F4               	addwfc	prodh,w,c
  5334   001EA0  6EDA               	movwf	fsr2h,c
  5335   001EA2  50DF               	movf	indf2,w,c
  5336   001EA4  6EE0               	movwf	224,c	;volatile
  5337   001EA6                     
  5338                           ; BSR set to: 1
  5339   001EA6  51D3               	movf	(_r_queue+211)& (0+255),w,b
  5340   001EA8  0D23               	mullw	35
  5341   001EAA  0E05               	movlw	low (_r_queue+5)
  5342   001EAC  24F3               	addwf	243,w,c
  5343   001EAE  6ED9               	movwf	fsr2l,c
  5344   001EB0  0E01               	movlw	high (_r_queue+5)
  5345   001EB2  20F4               	addwfc	prodh,w,c
  5346   001EB4  6EDA               	movwf	fsr2h,c
  5347   001EB6  50DF               	movf	indf2,w,c
  5348   001EB8  0102               	movlb	2	; () banked
  5349   001EBA  6F4D               	movwf	??_os_delay& (0+255),b
  5350   001EBC  514D               	movf	??_os_delay& (0+255),w,b
  5351   001EBE                     
  5352                           ; BSR set to: 2
  5353   001EBE  0101               	movlb	1	; () banked
  5354   001EC0  51D3               	movf	(_r_queue+211)& (0+255),w,b
  5355   001EC2  0D23               	mullw	35
  5356   001EC4  0E06               	movlw	low (_r_queue+6)
  5357   001EC6  24F3               	addwf	243,w,c
  5358   001EC8  6ED9               	movwf	fsr2l,c
  5359   001ECA  0E01               	movlw	high (_r_queue+6)
  5360   001ECC  20F4               	addwfc	prodh,w,c
  5361   001ECE  6EDA               	movwf	fsr2h,c
  5362   001ED0  50DF               	movf	indf2,w,c
  5363   001ED2  6ED8               	movwf	216,c	;volatile
  5364   001ED4                     
  5365                           ; BSR set to: 1
  5366   001ED4  51D3               	movf	(_r_queue+211)& (0+255),w,b
  5367   001ED6  0D23               	mullw	35
  5368   001ED8  0E09               	movlw	low (_r_queue+9)
  5369   001EDA  24F3               	addwf	243,w,c
  5370   001EDC  6ED9               	movwf	fsr2l,c
  5371   001EDE  0E01               	movlw	high (_r_queue+9)
  5372   001EE0  20F4               	addwfc	prodh,w,c
  5373   001EE2  6EDA               	movwf	fsr2h,c
  5374   001EE4  50DF               	movf	indf2,w,c
  5375   001EE6  6EEA               	movwf	234,c	;volatile
  5376   001EE8                     
  5377                           ; BSR set to: 1
  5378   001EE8  51D3               	movf	(_r_queue+211)& (0+255),w,b
  5379   001EEA  0D23               	mullw	35
  5380   001EEC  0E08               	movlw	low (_r_queue+8)
  5381   001EEE  24F3               	addwf	243,w,c
  5382   001EF0  6ED9               	movwf	fsr2l,c
  5383   001EF2  0E01               	movlw	high (_r_queue+8)
  5384   001EF4  20F4               	addwfc	prodh,w,c
  5385   001EF6  6EDA               	movwf	fsr2h,c
  5386   001EF8  50DF               	movf	indf2,w,c
  5387   001EFA  6EE9               	movwf	233,c	;volatile
  5388   001EFC  EFF5  F00F         	goto	i1l64
  5389   001F00                     i1l4873:
  5390                           
  5391                           ; BSR set to: 1
  5392   001F00  51D3               	movf	(_r_queue+211)& (0+255),w,b
  5393   001F02  0D23               	mullw	35
  5394   001F04  0E22               	movlw	low (_r_queue+34)
  5395   001F06  24F3               	addwf	243,w,c
  5396   001F08  6ED9               	movwf	fsr2l,c
  5397   001F0A  0E01               	movlw	high (_r_queue+34)
  5398   001F0C  20F4               	addwfc	prodh,w,c
  5399   001F0E  6EDA               	movwf	fsr2h,c
  5400   001F10  06DF               	decf	indf2,f,c
  5401   001F12  51D3               	movf	(_r_queue+211)& (0+255),w,b
  5402   001F14  0D23               	mullw	35
  5403   001F16  0E22               	movlw	low (_r_queue+34)
  5404   001F18  24F3               	addwf	243,w,c
  5405   001F1A  6ED9               	movwf	fsr2l,c
  5406   001F1C  0E01               	movlw	high (_r_queue+34)
  5407   001F1E  20F4               	addwfc	prodh,w,c
  5408   001F20  6EDA               	movwf	fsr2h,c
  5409   001F22  50DF               	movf	indf2,w,c
  5410   001F24  0102               	movlb	2	; () banked
  5411   001F26  6F4D               	movwf	??_os_delay& (0+255),b
  5412   001F28  514D               	movf	??_os_delay& (0+255),w,b
  5413   001F2A  0D03               	mullw	3
  5414   001F2C  CFF3 F24E          	movff	prodl,??_os_delay+1
  5415   001F30  CFF4 F24F          	movff	prodh,??_os_delay+2
  5416   001F34  0101               	movlb	1	; () banked
  5417   001F36  51D3               	movf	(_r_queue+211)& (0+255),w,b
  5418   001F38  0D23               	mullw	35
  5419   001F3A  0E0A               	movlw	low (_r_queue+10)
  5420   001F3C  24F3               	addwf	243,w,c
  5421   001F3E  0102               	movlb	2	; () banked
  5422   001F40  6F50               	movwf	(??_os_delay+3)& (0+255),b
  5423   001F42  0E01               	movlw	high (_r_queue+10)
  5424   001F44  20F4               	addwfc	prodh,w,c
  5425   001F46  6F51               	movwf	(??_os_delay+4)& (0+255),b
  5426   001F48  514E               	movf	(??_os_delay+1)& (0+255),w,b
  5427   001F4A  2550               	addwf	(??_os_delay+3)& (0+255),w,b
  5428   001F4C  6ED9               	movwf	fsr2l,c
  5429   001F4E  514F               	movf	(??_os_delay+2)& (0+255),w,b
  5430   001F50  2151               	addwfc	(??_os_delay+4)& (0+255),w,b
  5431   001F52  6EDA               	movwf	fsr2h,c
  5432   001F54  50DF               	movf	indf2,w,c
  5433   001F56  6EFD               	movwf	253,c	;volatile
  5434   001F58  0101               	movlb	1	; () banked
  5435   001F5A  51D3               	movf	(_r_queue+211)& (0+255),w,b
  5436   001F5C  0D23               	mullw	35
  5437   001F5E  0E22               	movlw	low (_r_queue+34)
  5438   001F60  24F3               	addwf	243,w,c
  5439   001F62  6ED9               	movwf	fsr2l,c
  5440   001F64  0E01               	movlw	high (_r_queue+34)
  5441   001F66  20F4               	addwfc	prodh,w,c
  5442   001F68  6EDA               	movwf	fsr2h,c
  5443   001F6A  50DF               	movf	indf2,w,c
  5444   001F6C  0102               	movlb	2	; () banked
  5445   001F6E  6F4D               	movwf	??_os_delay& (0+255),b
  5446   001F70  514D               	movf	??_os_delay& (0+255),w,b
  5447   001F72  0D03               	mullw	3
  5448   001F74  CFF3 F24E          	movff	prodl,??_os_delay+1
  5449   001F78  CFF4 F24F          	movff	prodh,??_os_delay+2
  5450   001F7C  0101               	movlb	1	; () banked
  5451   001F7E  51D3               	movf	(_r_queue+211)& (0+255),w,b
  5452   001F80  0D23               	mullw	35
  5453   001F82  0E0B               	movlw	low (_r_queue+11)
  5454   001F84  24F3               	addwf	243,w,c
  5455   001F86  0102               	movlb	2	; () banked
  5456   001F88  6F50               	movwf	(??_os_delay+3)& (0+255),b
  5457   001F8A  0E01               	movlw	high (_r_queue+11)
  5458   001F8C  20F4               	addwfc	prodh,w,c
  5459   001F8E  6F51               	movwf	(??_os_delay+4)& (0+255),b
  5460   001F90  514E               	movf	(??_os_delay+1)& (0+255),w,b
  5461   001F92  2550               	addwf	(??_os_delay+3)& (0+255),w,b
  5462   001F94  6ED9               	movwf	fsr2l,c
  5463   001F96  514F               	movf	(??_os_delay+2)& (0+255),w,b
  5464   001F98  2151               	addwfc	(??_os_delay+4)& (0+255),w,b
  5465   001F9A  6EDA               	movwf	fsr2h,c
  5466   001F9C  50DF               	movf	indf2,w,c
  5467   001F9E  6EFE               	movwf	254,c	;volatile
  5468   001FA0  0101               	movlb	1	; () banked
  5469   001FA2  51D3               	movf	(_r_queue+211)& (0+255),w,b
  5470   001FA4  0D23               	mullw	35
  5471   001FA6  0E22               	movlw	low (_r_queue+34)
  5472   001FA8  24F3               	addwf	243,w,c
  5473   001FAA  6ED9               	movwf	fsr2l,c
  5474   001FAC  0E01               	movlw	high (_r_queue+34)
  5475   001FAE  20F4               	addwfc	prodh,w,c
  5476   001FB0  6EDA               	movwf	fsr2h,c
  5477   001FB2  50DF               	movf	indf2,w,c
  5478   001FB4  0102               	movlb	2	; () banked
  5479   001FB6  6F4D               	movwf	??_os_delay& (0+255),b
  5480   001FB8  514D               	movf	??_os_delay& (0+255),w,b
  5481   001FBA  0D03               	mullw	3
  5482   001FBC  CFF3 F24E          	movff	prodl,??_os_delay+1
  5483   001FC0  CFF4 F24F          	movff	prodh,??_os_delay+2
  5484   001FC4  0101               	movlb	1	; () banked
  5485   001FC6  51D3               	movf	(_r_queue+211)& (0+255),w,b
  5486   001FC8  0D23               	mullw	35
  5487   001FCA  0E0C               	movlw	low (_r_queue+12)
  5488   001FCC  24F3               	addwf	243,w,c
  5489   001FCE  0102               	movlb	2	; () banked
  5490   001FD0  6F50               	movwf	(??_os_delay+3)& (0+255),b
  5491   001FD2  0E01               	movlw	high (_r_queue+12)
  5492   001FD4  20F4               	addwfc	prodh,w,c
  5493   001FD6  6F51               	movwf	(??_os_delay+4)& (0+255),b
  5494   001FD8  514E               	movf	(??_os_delay+1)& (0+255),w,b
  5495   001FDA  2550               	addwf	(??_os_delay+3)& (0+255),w,b
  5496   001FDC  6ED9               	movwf	fsr2l,c
  5497   001FDE  514F               	movf	(??_os_delay+2)& (0+255),w,b
  5498   001FE0  2151               	addwfc	(??_os_delay+4)& (0+255),w,b
  5499   001FE2  6EDA               	movwf	fsr2h,c
  5500   001FE4  50DF               	movf	indf2,w,c
  5501   001FE6  6EFF               	movwf	255,c	;volatile
  5502   001FE8  0005               	push		;# 
  5503   001FEA                     i1l64:
  5504   001FEA  0101               	movlb	1	; () banked
  5505   001FEC  51D3               	movf	(_r_queue+211)& (0+255),w,b
  5506   001FEE  0D23               	mullw	35
  5507   001FF0  0E22               	movlw	low (_r_queue+34)
  5508   001FF2  24F3               	addwf	243,w,c
  5509   001FF4  6ED9               	movwf	fsr2l,c
  5510   001FF6  0E01               	movlw	high (_r_queue+34)
  5511   001FF8  20F4               	addwfc	prodh,w,c
  5512   001FFA  6EDA               	movwf	fsr2h,c
  5513   001FFC  50DF               	movf	indf2,w,c
  5514   001FFE  A4D8               	btfss	status,2,c
  5515   002000  EF04  F010         	goto	i1u429_21
  5516   002004  EF06  F010         	goto	i1u429_20
  5517   002008                     i1u429_21:
  5518   002008  EF80  F00F         	goto	i1l4873
  5519   00200C                     i1u429_20:
  5520   00200C                     
  5521                           ; BSR set to: 1
  5522   00200C  0012               	return		;# 
  5523   00200E                     i1l63:
  5524                           
  5525                           ;kernel.c: 21:     INTCONbits.GIE = 1;;
  5526   00200E  8EF2               	bsf	242,7,c	;volatile
  5527   002010  0012               	return		;funcret
  5528   002012                     __end_of_os_delay:
  5529                           	callstack 0
  5530                           
  5531 ;; *************** function i1_scheduler *****************
  5532 ;; Defined at:
  5533 ;;		line 9 in file "scheduler.c"
  5534 ;; Parameters:    Size  Location     Type
  5535 ;;		None
  5536 ;; Auto vars:     Size  Location     Type
  5537 ;;		None
  5538 ;; Return value:  Size  Location     Type
  5539 ;;                  1    wreg      void 
  5540 ;; Registers used:
  5541 ;;		wreg, fsr2l, fsr2h, status,2, status,0, prodl, prodh, cstack
  5542 ;; Tracked objects:
  5543 ;;		On entry : 0/0
  5544 ;;		On exit  : 0/0
  5545 ;;		Unchanged: 0/0
  5546 ;; Data sizes:     COMRAM   BANK0   BANK1   BANK2   BANK3   BANK4   BANK5   BANK6   BANK7   BANK8   BANK9  BANK10  BANK1
      +1  BANK12  BANK13  BANK14  BANK15
  5547 ;;      Params:         0       0       0       0       0       0       0       0       0       0       0       0       
      +0       0       0       0       0
  5548 ;;      Locals:         0       0       0       0       0       0       0       0       0       0       0       0       
      +0       0       0       0       0
  5549 ;;      Temps:          0       0       0       0       0       0       0       0       0       0       0       0       
      +0       0       0       0       0
  5550 ;;      Totals:         0       0       0       0       0       0       0       0       0       0       0       0       
      +0       0       0       0       0
  5551 ;;Total ram usage:        0 bytes
  5552 ;; Hardware stack levels used: 1
  5553 ;; Hardware stack levels required when called: 3
  5554 ;; This function calls:
  5555 ;;		i1_priority_rr_scheduler
  5556 ;; This function is called by:
  5557 ;;		_os_delay
  5558 ;;		_os_task_change_state
  5559 ;;		_sem_wait
  5560 ;;		_mutex_lock
  5561 ;; This function uses a non-reentrant model
  5562 ;;
  5563                           
  5564                           	psect	text20
  5565   002F76                     __ptext20:
  5566                           	callstack 0
  5567   002F76                     i1_scheduler:
  5568                           	callstack 20
  5569   002F76                     
  5570                           ;scheduler.c: 15:     r_queue.pos_task_running = priority_rr_scheduler();
  5571   002F76  ECA5  F011         	call	i1_priority_rr_scheduler	;wreg free
  5572   002F7A  0101               	movlb	1	; () banked
  5573   002F7C  6FD3               	movwf	(_r_queue+211)& (0+255),b
  5574   002F7E                     
  5575                           ; BSR set to: 1
  5576   002F7E  0012               	return		;funcret
  5577   002F80                     __end_ofi1_scheduler:
  5578                           	callstack 0
  5579                           
  5580 ;; *************** function i1_priority_rr_scheduler *****************
  5581 ;; Defined at:
  5582 ;;		line 69 in file "scheduler.c"
  5583 ;; Parameters:    Size  Location     Type
  5584 ;;		None
  5585 ;; Auto vars:     Size  Location     Type
  5586 ;;		None
  5587 ;; Return value:  Size  Location     Type
  5588 ;;                  1    wreg      unsigned char 
  5589 ;; Registers used:
  5590 ;;		wreg, fsr2l, fsr2h, status,2, status,0, prodl, prodh
  5591 ;; Tracked objects:
  5592 ;;		On entry : 0/0
  5593 ;;		On exit  : 0/0
  5594 ;;		Unchanged: 0/0
  5595 ;; Data sizes:     COMRAM   BANK0   BANK1   BANK2   BANK3   BANK4   BANK5   BANK6   BANK7   BANK8   BANK9  BANK10  BANK1
      +1  BANK12  BANK13  BANK14  BANK15
  5596 ;;      Params:         0       0       0       0       0       0       0       0       0       0       0       0       
      +0       0       0       0       0
  5597 ;;      Locals:         0       0       0       0       0       0       0       0       0       0       0       0       
      +0       0       0       0       0
  5598 ;;      Temps:          0       0       0       1       0       0       0       0       0       0       0       0       
      +0       0       0       0       0
  5599 ;;      Totals:         0       0       0       1       0       0       0       0       0       0       0       0       
      +0       0       0       0       0
  5600 ;;Total ram usage:        1 bytes
  5601 ;; Hardware stack levels used: 1
  5602 ;; Hardware stack levels required when called: 3
  5603 ;; This function calls:
  5604 ;;		Nothing
  5605 ;; This function is called by:
  5606 ;;		i1_scheduler
  5607 ;; This function uses a non-reentrant model
  5608 ;;
  5609                           
  5610                           	psect	text21
  5611   00234A                     __ptext21:
  5612                           	callstack 0
  5613   00234A                     i1_priority_rr_scheduler:
  5614                           	callstack 19
  5615   00234A                     
  5616                           ;scheduler.c: 70:     static uint8_t max_prio;;scheduler.c: 71:     static uint8_t found
      +                          ;;scheduler.c: 72:     static uint8_t i;;scheduler.c: 73:     static uint8_t current;;sc
      +                          heduler.c: 74:     static uint8_t idx;;scheduler.c: 76:     max_prio = 0;
  5617   00234A  6A1A               	clrf	priority_rr_scheduler@max_prio^0,c
  5618                           
  5619                           ;scheduler.c: 77:     found = 0;
  5620   00234C  6A19               	clrf	priority_rr_scheduler@found^0,c
  5621                           
  5622                           ;scheduler.c: 80:     for (i = 0; i < r_queue.size; i++) {
  5623   00234E  6A18               	clrf	priority_rr_scheduler@i^0,c
  5624   002350  EFEF  F011         	goto	i1l4793
  5625   002354                     i1l4781:
  5626                           
  5627                           ; BSR set to: 1
  5628                           ;scheduler.c: 81:         if (((r_queue.TASKS[i]).state_prio & 0x03) == READY) {
  5629   002354  5018               	movf	priority_rr_scheduler@i^0,w,c
  5630   002356  0D23               	mullw	35
  5631   002358  0E04               	movlw	low (_r_queue+4)
  5632   00235A  24F3               	addwf	243,w,c
  5633   00235C  6ED9               	movwf	fsr2l,c
  5634   00235E  0E01               	movlw	high (_r_queue+4)
  5635   002360  20F4               	addwfc	prodh,w,c
  5636   002362  6EDA               	movwf	fsr2h,c
  5637   002364  50DF               	movf	indf2,w,c
  5638   002366  0102               	movlb	2	; () banked
  5639   002368  6F4C               	movwf	??i1_priority_rr_scheduler& (0+255),b
  5640   00236A  0E03               	movlw	3
  5641   00236C  174C               	andwf	??i1_priority_rr_scheduler& (0+255),f,b
  5642   00236E  A4D8               	btfss	status,2,c
  5643   002370  EFBC  F011         	goto	i1u416_21
  5644   002374  EFBE  F011         	goto	i1u416_20
  5645   002378                     i1u416_21:
  5646   002378  EFEE  F011         	goto	i1l4791
  5647   00237C                     i1u416_20:
  5648   00237C                     
  5649                           ; BSR set to: 2
  5650                           ;scheduler.c: 82:             if (!found || (((r_queue.TASKS[i]).state_prio >> 2) & 0x07
      +                          ) > max_prio) {
  5651   00237C  5019               	movf	priority_rr_scheduler@found^0,w,c
  5652   00237E  B4D8               	btfsc	status,2,c
  5653   002380  EFC4  F011         	goto	i1u417_21
  5654   002384  EFC6  F011         	goto	i1u417_20
  5655   002388                     i1u417_21:
  5656   002388  EFDC  F011         	goto	i1l4787
  5657   00238C                     i1u417_20:
  5658   00238C                     
  5659                           ; BSR set to: 2
  5660   00238C  5018               	movf	priority_rr_scheduler@i^0,w,c
  5661   00238E  0D23               	mullw	35
  5662   002390  0E04               	movlw	low (_r_queue+4)
  5663   002392  24F3               	addwf	243,w,c
  5664   002394  6ED9               	movwf	fsr2l,c
  5665   002396  0E01               	movlw	high (_r_queue+4)
  5666   002398  20F4               	addwfc	prodh,w,c
  5667   00239A  6EDA               	movwf	fsr2h,c
  5668   00239C  50DF               	movf	indf2,w,c
  5669   00239E  6F4C               	movwf	??i1_priority_rr_scheduler& (0+255),b
  5670   0023A0  90D8               	bcf	status,0,c
  5671   0023A2  334C               	rrcf	??i1_priority_rr_scheduler& (0+255),f,b
  5672   0023A4  90D8               	bcf	status,0,c
  5673   0023A6  314C               	rrcf	??i1_priority_rr_scheduler& (0+255),w,b
  5674   0023A8  0B07               	andlw	7
  5675   0023AA  601A               	cpfslt	priority_rr_scheduler@max_prio^0,c
  5676   0023AC  EFDA  F011         	goto	i1u418_21
  5677   0023B0  EFDC  F011         	goto	i1u418_20
  5678   0023B4                     i1u418_21:
  5679   0023B4  EFEE  F011         	goto	i1l4791
  5680   0023B8                     i1u418_20:
  5681   0023B8                     i1l4787:
  5682                           
  5683                           ; BSR set to: 2
  5684                           ;scheduler.c: 83:                 max_prio = (((r_queue.TASKS[i]).state_prio >> 2) & 0x0
      +                          7);
  5685   0023B8  5018               	movf	priority_rr_scheduler@i^0,w,c
  5686   0023BA  0D23               	mullw	35
  5687   0023BC  0E04               	movlw	low (_r_queue+4)
  5688   0023BE  24F3               	addwf	243,w,c
  5689   0023C0  6ED9               	movwf	fsr2l,c
  5690   0023C2  0E01               	movlw	high (_r_queue+4)
  5691   0023C4  20F4               	addwfc	prodh,w,c
  5692   0023C6  6EDA               	movwf	fsr2h,c
  5693   0023C8  50DF               	movf	indf2,w,c
  5694   0023CA  6F4C               	movwf	??i1_priority_rr_scheduler& (0+255),b
  5695   0023CC  90D8               	bcf	status,0,c
  5696   0023CE  334C               	rrcf	??i1_priority_rr_scheduler& (0+255),f,b
  5697   0023D0  90D8               	bcf	status,0,c
  5698   0023D2  314C               	rrcf	??i1_priority_rr_scheduler& (0+255),w,b
  5699   0023D4  0B07               	andlw	7
  5700   0023D6  6E1A               	movwf	priority_rr_scheduler@max_prio^0,c
  5701   0023D8                     
  5702                           ; BSR set to: 2
  5703                           ;scheduler.c: 84:                 found = 1;
  5704   0023D8  0E01               	movlw	1
  5705   0023DA  6E19               	movwf	priority_rr_scheduler@found^0,c
  5706   0023DC                     i1l4791:
  5707                           
  5708                           ; BSR set to: 2
  5709                           ;scheduler.c: 87:     }
  5710   0023DC  2A18               	incf	priority_rr_scheduler@i^0,f,c
  5711   0023DE                     i1l4793:
  5712   0023DE  0101               	movlb	1	; () banked
  5713   0023E0  51D2               	movf	(_r_queue+210)& (0+255),w,b
  5714   0023E2  5C18               	subwf	priority_rr_scheduler@i^0,w,c
  5715   0023E4  A0D8               	btfss	status,0,c
  5716   0023E6  EFF7  F011         	goto	i1u419_21
  5717   0023EA  EFF9  F011         	goto	i1u419_20
  5718   0023EE                     i1u419_21:
  5719   0023EE  EFAA  F011         	goto	i1l4781
  5720   0023F2                     i1u419_20:
  5721   0023F2                     
  5722                           ; BSR set to: 1
  5723                           ;scheduler.c: 88:     if (!found)return 0;
  5724   0023F2  5019               	movf	priority_rr_scheduler@found^0,w,c
  5725   0023F4  A4D8               	btfss	status,2,c
  5726   0023F6  EFFF  F011         	goto	i1u420_21
  5727   0023FA  EF01  F012         	goto	i1u420_20
  5728   0023FE                     i1u420_21:
  5729   0023FE  EF04  F012         	goto	i1l427
  5730   002402                     i1u420_20:
  5731   002402                     i1l4797:
  5732                           
  5733                           ; BSR set to: 1
  5734   002402  0E00               	movlw	0
  5735   002404  EF52  F012         	goto	i1l428
  5736   002408                     i1l427:
  5737                           
  5738                           ; BSR set to: 1
  5739                           ;scheduler.c: 89:     current = r_queue.pos_task_running;
  5740   002408  C1D3  F017         	movff	_r_queue+211,priority_rr_scheduler@current
  5741                           
  5742                           ;scheduler.c: 91:     for (i = 0; i < r_queue.size; i++) {
  5743   00240C  6A18               	clrf	priority_rr_scheduler@i^0,c
  5744   00240E  EF46  F012         	goto	i1l4815
  5745   002412                     i1l4801:
  5746                           
  5747                           ; BSR set to: 1
  5748                           ;scheduler.c: 93:         idx = current + i;
  5749   002412  5017               	movf	priority_rr_scheduler@current^0,w,c
  5750   002414  2418               	addwf	priority_rr_scheduler@i^0,w,c
  5751   002416  6E16               	movwf	priority_rr_scheduler@idx^0,c
  5752                           
  5753                           ;scheduler.c: 94:         if (idx >= r_queue.size)
  5754   002418  51D2               	movf	(_r_queue+210)& (0+255),w,b
  5755   00241A  5C16               	subwf	priority_rr_scheduler@idx^0,w,c
  5756   00241C  A0D8               	btfss	status,0,c
  5757   00241E  EF13  F012         	goto	i1u421_21
  5758   002422  EF15  F012         	goto	i1u421_20
  5759   002426                     i1u421_21:
  5760   002426  EF17  F012         	goto	i1l4805
  5761   00242A                     i1u421_20:
  5762   00242A                     
  5763                           ; BSR set to: 1
  5764                           ;scheduler.c: 95:             idx -= r_queue.size;
  5765   00242A  51D2               	movf	(_r_queue+210)& (0+255),w,b
  5766   00242C  5E16               	subwf	priority_rr_scheduler@idx^0,f,c
  5767   00242E                     i1l4805:
  5768                           
  5769                           ; BSR set to: 1
  5770                           ;scheduler.c: 96:         if (((r_queue.TASKS[i]).state_prio & 0x03) == READY &&
  5771   00242E  5018               	movf	priority_rr_scheduler@i^0,w,c
  5772   002430  0D23               	mullw	35
  5773   002432  0E04               	movlw	low (_r_queue+4)
  5774   002434  24F3               	addwf	243,w,c
  5775   002436  6ED9               	movwf	fsr2l,c
  5776   002438  0E01               	movlw	high (_r_queue+4)
  5777   00243A  20F4               	addwfc	prodh,w,c
  5778   00243C  6EDA               	movwf	fsr2h,c
  5779   00243E  50DF               	movf	indf2,w,c
  5780   002440  0102               	movlb	2	; () banked
  5781   002442  6F4C               	movwf	??i1_priority_rr_scheduler& (0+255),b
  5782   002444  0E03               	movlw	3
  5783   002446  174C               	andwf	??i1_priority_rr_scheduler& (0+255),f,b
  5784   002448  A4D8               	btfss	status,2,c
  5785   00244A  EF29  F012         	goto	i1u422_21
  5786   00244E  EF2B  F012         	goto	i1u422_20
  5787   002452                     i1u422_21:
  5788   002452  EF45  F012         	goto	i1l4813
  5789   002456                     i1u422_20:
  5790   002456                     
  5791                           ; BSR set to: 2
  5792   002456  5018               	movf	priority_rr_scheduler@i^0,w,c
  5793   002458  0D23               	mullw	35
  5794   00245A  0E04               	movlw	low (_r_queue+4)
  5795   00245C  24F3               	addwf	243,w,c
  5796   00245E  6ED9               	movwf	fsr2l,c
  5797   002460  0E01               	movlw	high (_r_queue+4)
  5798   002462  20F4               	addwfc	prodh,w,c
  5799   002464  6EDA               	movwf	fsr2h,c
  5800   002466  50DF               	movf	indf2,w,c
  5801   002468  6F4C               	movwf	??i1_priority_rr_scheduler& (0+255),b
  5802   00246A  90D8               	bcf	status,0,c
  5803   00246C  334C               	rrcf	??i1_priority_rr_scheduler& (0+255),f,b
  5804   00246E  90D8               	bcf	status,0,c
  5805   002470  314C               	rrcf	??i1_priority_rr_scheduler& (0+255),w,b
  5806   002472  0B07               	andlw	7
  5807   002474  181A               	xorwf	priority_rr_scheduler@max_prio^0,w,c
  5808   002476  A4D8               	btfss	status,2,c
  5809   002478  EF40  F012         	goto	i1u423_21
  5810   00247C  EF42  F012         	goto	i1u423_20
  5811   002480                     i1u423_21:
  5812   002480  EF45  F012         	goto	i1l4813
  5813   002484                     i1u423_20:
  5814   002484                     
  5815                           ; BSR set to: 2
  5816                           ;scheduler.c: 97:             (((r_queue.TASKS[i]).state_prio >> 2) & 0x07) == max_prio)
      +                           {;scheduler.c: 98:             return idx;
  5817   002484  5016               	movf	priority_rr_scheduler@idx^0,w,c
  5818   002486  EF52  F012         	goto	i1l428
  5819   00248A                     i1l4813:
  5820                           
  5821                           ; BSR set to: 2
  5822                           ;scheduler.c: 100:     }
  5823   00248A  2A18               	incf	priority_rr_scheduler@i^0,f,c
  5824   00248C                     i1l4815:
  5825   00248C  0101               	movlb	1	; () banked
  5826   00248E  51D2               	movf	(_r_queue+210)& (0+255),w,b
  5827   002490  5C18               	subwf	priority_rr_scheduler@i^0,w,c
  5828   002492  A0D8               	btfss	status,0,c
  5829   002494  EF4E  F012         	goto	i1u424_21
  5830   002498  EF50  F012         	goto	i1u424_20
  5831   00249C                     i1u424_21:
  5832   00249C  EF09  F012         	goto	i1l4801
  5833   0024A0                     i1u424_20:
  5834   0024A0  EF01  F012         	goto	i1l4797
  5835   0024A4                     i1l428:
  5836   0024A4  0012               	return		;funcret
  5837   0024A6                     __end_ofi1_priority_rr_scheduler:
  5838                           	callstack 0
  5839                           
  5840 ;; *************** function _adc_read *****************
  5841 ;; Defined at:
  5842 ;;		line 16 in file "io.c"
  5843 ;; Parameters:    Size  Location     Type
  5844 ;;  channel         1    wreg     unsigned char 
  5845 ;; Auto vars:     Size  Location     Type
  5846 ;;  channel         1    7[COMRAM] unsigned char 
  5847 ;; Return value:  Size  Location     Type
  5848 ;;                  2    8[BANK0 ] unsigned short 
  5849 ;; Registers used:
  5850 ;;		wreg, status,2, status,0
  5851 ;; Tracked objects:
  5852 ;;		On entry : 0/0
  5853 ;;		On exit  : 0/0
  5854 ;;		Unchanged: 0/0
  5855 ;; Data sizes:     COMRAM   BANK0   BANK1   BANK2   BANK3   BANK4   BANK5   BANK6   BANK7   BANK8   BANK9  BANK10  BANK1
      +1  BANK12  BANK13  BANK14  BANK15
  5856 ;;      Params:         0       2       0       0       0       0       0       0       0       0       0       0       
      +0       0       0       0       0
  5857 ;;      Locals:         1       0       0       0       0       0       0       0       0       0       0       0       
      +0       0       0       0       0
  5858 ;;      Temps:          2       0       0       0       0       0       0       0       0       0       0       0       
      +0       0       0       0       0
  5859 ;;      Totals:         3       2       0       0       0       0       0       0       0       0       0       0       
      +0       0       0       0       0
  5860 ;;Total ram usage:        5 bytes
  5861 ;; Hardware stack levels used: 1
  5862 ;; Hardware stack levels required when called: 3
  5863 ;; This function calls:
  5864 ;;		Nothing
  5865 ;; This function is called by:
  5866 ;;		_tarefaLeituraADC
  5867 ;; This function uses a non-reentrant model
  5868 ;;
  5869                           
  5870                           	psect	text22
  5871   002DC6                     __ptext22:
  5872                           	callstack 0
  5873   002DC6                     _adc_read:
  5874                           	callstack 22
  5875                           
  5876                           ;incstack = 0
  5877                           ;adc_read@channel stored from wreg
  5878   002DC6  6E09               	movwf	adc_read@channel^0,c
  5879   002DC8                     
  5880                           ;io.c: 17:     ADCON0bits.CHS = channel;
  5881   002DC8  C009  F007         	movff	adc_read@channel,??_adc_read
  5882   002DCC  4607               	rlncf	??_adc_read^0,f,c
  5883   002DCE  4607               	rlncf	??_adc_read^0,f,c
  5884   002DD0  50C2               	movf	194,w,c	;volatile
  5885   002DD2  1807               	xorwf	??_adc_read^0,w,c
  5886   002DD4  0B83               	andlw	-125
  5887   002DD6  1807               	xorwf	??_adc_read^0,w,c
  5888   002DD8  6EC2               	movwf	194,c	;volatile
  5889   002DDA                     
  5890                           ;io.c: 18:     ADCON0bits.GO = 1;
  5891   002DDA  82C2               	bsf	194,1,c	;volatile
  5892   002DDC                     i1l228:
  5893   002DDC  B2C2               	btfsc	194,1,c	;volatile
  5894   002DDE  EFF3  F016         	goto	i1u216_21
  5895   002DE2  EFF5  F016         	goto	i1u216_20
  5896   002DE6                     i1u216_21:
  5897   002DE6  EFEE  F016         	goto	i1l228
  5898   002DEA                     i1u216_20:
  5899   002DEA                     
  5900                           ;io.c: 20:     return ((uint16_t) ADRESH << 8) | ADRESL;
  5901   002DEA  50C4               	movf	196,w,c	;volatile
  5902   002DEC  6E07               	movwf	??_adc_read^0,c
  5903   002DEE  50C3               	movf	195,w,c	;volatile
  5904   002DF0  0100               	movlb	0	; () banked
  5905   002DF2  6F91               	movwf	?_adc_read& (0+255),b
  5906   002DF4  C007  F092         	movff	??_adc_read,?_adc_read+1
  5907   002DF8                     
  5908                           ; BSR set to: 0
  5909   002DF8  0012               	return		;funcret
  5910   002DFA                     __end_of_adc_read:
  5911                           	callstack 0
  5912                           
  5913 ;; *************** function _tarefaProcessamento *****************
  5914 ;; Defined at:
  5915 ;;		line 59 in file "user.c"
  5916 ;; Parameters:    Size  Location     Type
  5917 ;;		None
  5918 ;; Auto vars:     Size  Location     Type
  5919 ;;  dado            1   58[BANK2 ] unsigned char 
  5920 ;; Return value:  Size  Location     Type
  5921 ;;                  1    wreg      void 
  5922 ;; Registers used:
  5923 ;;		wreg, fsr1l, fsr1h, fsr2l, fsr2h, status,2, status,0, prodl, prodh, cstack
  5924 ;; Tracked objects:
  5925 ;;		On entry : 0/0
  5926 ;;		On exit  : 0/0
  5927 ;;		Unchanged: 0/0
  5928 ;; Data sizes:     COMRAM   BANK0   BANK1   BANK2   BANK3   BANK4   BANK5   BANK6   BANK7   BANK8   BANK9  BANK10  BANK1
      +1  BANK12  BANK13  BANK14  BANK15
  5929 ;;      Params:         0       0       0       0       0       0       0       0       0       0       0       0       
      +0       0       0       0       0
  5930 ;;      Locals:         0       0       0       1       0       0       0       0       0       0       0       0       
      +0       0       0       0       0
  5931 ;;      Temps:          0       0       0       0       0       0       0       0       0       0       0       0       
      +0       0       0       0       0
  5932 ;;      Totals:         0       0       0       1       0       0       0       0       0       0       0       0       
      +0       0       0       0       0
  5933 ;;Total ram usage:        1 bytes
  5934 ;; Hardware stack levels used: 1
  5935 ;; Hardware stack levels required when called: 6
  5936 ;; This function calls:
  5937 ;;		_os_task_change_state
  5938 ;;		_pipe_read
  5939 ;;		_sem_post
  5940 ;; This function is called by:
  5941 ;;		_main
  5942 ;; This function uses a non-reentrant model
  5943 ;;
  5944                           
  5945                           	psect	text23
  5946   002D8C                     __ptext23:
  5947                           	callstack 0
  5948   002D8C                     _tarefaProcessamento:
  5949                           	callstack 20
  5950   002D8C                     l309:
  5951   002D8C                     
  5952                           ;user.c: 62:         pipe_read(&pipe_adc, &dado);
  5953   002D8C  0E61               	movlw	low _pipe_adc
  5954   002D8E  0102               	movlb	2	; () banked
  5955   002D90  6F36               	movwf	pipe_read@p& (0+255),b
  5956   002D92  0E3A               	movlw	low tarefaProcessamento@dado
  5957   002D94  6F37               	movwf	pipe_read@dado& (0+255),b
  5958   002D96  0E02               	movlw	high tarefaProcessamento@dado
  5959   002D98  6F38               	movwf	(pipe_read@dado+1)& (0+255),b
  5960   002D9A  EC7E  F015         	call	_pipe_read	;wreg free
  5961   002D9E                     
  5962                           ;user.c: 65:         dado_processado = dado;
  5963   002D9E  C23A  F060         	movff	tarefaProcessamento@dado,_dado_processado	;volatile
  5964   002DA2                     
  5965                           ;user.c: 66:         LATD = dado;
  5966   002DA2  C23A  FF8C         	movff	tarefaProcessamento@dado,3980	;volatile
  5967                           
  5968                           ;user.c: 67:         sem_post(&sem_processamento);
  5969   002DA6  0E81               	movlw	low _sem_processamento
  5970   002DA8  0100               	movlb	0	; () banked
  5971   002DAA  6F98               	movwf	sem_post@sem& (0+255),b
  5972   002DAC  ECB3  F014         	call	_sem_post	;wreg free
  5973                           
  5974                           ;user.c: 70:         os_task_change_state(READY, 0);
  5975   002DB0  0E00               	movlw	0
  5976   002DB2  0102               	movlb	2	; () banked
  5977   002DB4  6F4D               	movwf	os_task_change_state@task_handle& (0+255),b
  5978   002DB6  0E00               	movlw	0
  5979   002DB8  6F4E               	movwf	(os_task_change_state@task_handle+1)& (0+255),b
  5980   002DBA  0E00               	movlw	0
  5981   002DBC  EC3C  F00C         	call	_os_task_change_state
  5982   002DC0  EFC6  F016         	goto	l309
  5983   002DC4  0012               	return		;funcret
  5984   002DC6                     __end_of_tarefaProcessamento:
  5985                           	callstack 0
  5986                           
  5987 ;; *************** function _pipe_read *****************
  5988 ;; Defined at:
  5989 ;;		line 24 in file "com.c"
  5990 ;; Parameters:    Size  Location     Type
  5991 ;;  p               1   54[BANK2 ] PTR struct pipe
  5992 ;;		 -> pipe_adc(22), 
  5993 ;;  dado            2   55[BANK2 ] PTR unsigned char 
  5994 ;;		 -> tarefaProcessamento@dado(1), 
  5995 ;; Auto vars:     Size  Location     Type
  5996 ;;		None
  5997 ;; Return value:  Size  Location     Type
  5998 ;;                  1    wreg      void 
  5999 ;; Registers used:
  6000 ;;		wreg, fsr1l, fsr1h, fsr2l, fsr2h, status,2, status,0, prodl, prodh, cstack
  6001 ;; Tracked objects:
  6002 ;;		On entry : 0/0
  6003 ;;		On exit  : 0/0
  6004 ;;		Unchanged: 0/0
  6005 ;; Data sizes:     COMRAM   BANK0   BANK1   BANK2   BANK3   BANK4   BANK5   BANK6   BANK7   BANK8   BANK9  BANK10  BANK1
      +1  BANK12  BANK13  BANK14  BANK15
  6006 ;;      Params:         0       0       0       3       0       0       0       0       0       0       0       0       
      +0       0       0       0       0
  6007 ;;      Locals:         0       0       0       0       0       0       0       0       0       0       0       0       
      +0       0       0       0       0
  6008 ;;      Temps:          0       0       0       1       0       0       0       0       0       0       0       0       
      +0       0       0       0       0
  6009 ;;      Totals:         0       0       0       4       0       0       0       0       0       0       0       0       
      +0       0       0       0       0
  6010 ;;Total ram usage:        4 bytes
  6011 ;; Hardware stack levels used: 1
  6012 ;; Hardware stack levels required when called: 5
  6013 ;; This function calls:
  6014 ;;		_sem_post
  6015 ;;		_sem_wait
  6016 ;; This function is called by:
  6017 ;;		_tarefaProcessamento
  6018 ;; This function uses a non-reentrant model
  6019 ;;
  6020                           
  6021                           	psect	text24
  6022   002AFC                     __ptext24:
  6023                           	callstack 0
  6024   002AFC                     _pipe_read:
  6025                           	callstack 20
  6026   002AFC                     
  6027                           ;com.c: 24: void pipe_read(pipe_t *p, uint8_t *dado);com.c: 25: {;com.c: 26:     sem_wai
      +                          t(&p->s_output);
  6028   002AFC  0102               	movlb	2	; () banked
  6029   002AFE  5136               	movf	pipe_read@p& (0+255),w,b
  6030   002B00  0F0E               	addlw	14
  6031   002B02  6F3C               	movwf	sem_wait@sem& (0+255),b
  6032   002B04  EC34  F00A         	call	_sem_wait	;wreg free
  6033   002B08                     
  6034                           ;com.c: 27:     *dado = p->fila_dados[p->pos_output];
  6035   002B08  0102               	movlb	2	; () banked
  6036   002B0A  5136               	movf	pipe_read@p& (0+255),w,b
  6037   002B0C  6ED9               	movwf	fsr2l,c
  6038   002B0E  6ADA               	clrf	fsr2h,c
  6039   002B10  0E05               	movlw	5
  6040   002B12  26D9               	addwf	fsr2l,f,c
  6041   002B14  50DF               	movf	indf2,w,c
  6042   002B16  6F39               	movwf	??_pipe_read& (0+255),b
  6043   002B18  5136               	movf	pipe_read@p& (0+255),w,b
  6044   002B1A  2539               	addwf	??_pipe_read& (0+255),w,b
  6045   002B1C  6ED9               	movwf	fsr2l,c
  6046   002B1E  6ADA               	clrf	fsr2h,c
  6047   002B20  C237  FFE1         	movff	pipe_read@dado,fsr1l
  6048   002B24  C238  FFE2         	movff	pipe_read@dado+1,fsr1h
  6049   002B28  CFDF FFE7          	movff	indf2,indf1
  6050   002B2C                     
  6051                           ; BSR set to: 2
  6052                           ;com.c: 30:     p->pos_input++;
  6053   002B2C  5136               	movf	pipe_read@p& (0+255),w,b
  6054   002B2E  6ED9               	movwf	fsr2l,c
  6055   002B30  6ADA               	clrf	fsr2h,c
  6056   002B32  0E04               	movlw	4
  6057   002B34  26D9               	addwf	fsr2l,f,c
  6058   002B36  2ADF               	incf	indf2,f,c
  6059   002B38                     
  6060                           ; BSR set to: 2
  6061                           ;com.c: 31:     if (p->pos_input >= 4)
  6062   002B38  5136               	movf	pipe_read@p& (0+255),w,b
  6063   002B3A  6ED9               	movwf	fsr2l,c
  6064   002B3C  6ADA               	clrf	fsr2h,c
  6065   002B3E  0E04               	movlw	4
  6066   002B40  26D9               	addwf	fsr2l,f,c
  6067   002B42  0E03               	movlw	3
  6068   002B44  64DF               	cpfsgt	indf2,c
  6069   002B46  EFA7  F015         	goto	i1u452_21
  6070   002B4A  EFA9  F015         	goto	i1u452_20
  6071   002B4E                     i1u452_21:
  6072   002B4E  EFAF  F015         	goto	i1l5067
  6073   002B52                     i1u452_20:
  6074   002B52                     
  6075                           ; BSR set to: 2
  6076                           ;com.c: 32:         p->pos_input = 0;
  6077   002B52  5136               	movf	pipe_read@p& (0+255),w,b
  6078   002B54  6ED9               	movwf	fsr2l,c
  6079   002B56  6ADA               	clrf	fsr2h,c
  6080   002B58  0E04               	movlw	4
  6081   002B5A  26D9               	addwf	fsr2l,f,c
  6082   002B5C  6ADF               	clrf	indf2,c
  6083   002B5E                     i1l5067:
  6084                           
  6085                           ; BSR set to: 2
  6086                           ;com.c: 34:     sem_post(&p->s_input);
  6087   002B5E  5136               	movf	pipe_read@p& (0+255),w,b
  6088   002B60  0F06               	addlw	6
  6089   002B62  0100               	movlb	0	; () banked
  6090   002B64  6F98               	movwf	sem_post@sem& (0+255),b
  6091   002B66  ECB3  F014         	call	_sem_post	;wreg free
  6092   002B6A  0012               	return		;funcret
  6093   002B6C                     __end_of_pipe_read:
  6094                           	callstack 0
  6095                           
  6096 ;; *************** function _os_task_change_state *****************
  6097 ;; Defined at:
  6098 ;;		line 95 in file "kernel.c"
  6099 ;; Parameters:    Size  Location     Type
  6100 ;;  new_state       1    wreg     enum E37
  6101 ;;  task_handle     2   77[BANK2 ] PTR struct tcb
  6102 ;;		 -> NULL(0), 
  6103 ;; Auto vars:     Size  Location     Type
  6104 ;;  new_state       1   84[BANK2 ] enum E37
  6105 ;; Return value:  Size  Location     Type
  6106 ;;                  1    wreg      void 
  6107 ;; Registers used:
  6108 ;;		wreg, fsr1l, fsr1h, fsr2l, fsr2h, status,2, status,0, prodl, prodh, cstack
  6109 ;; Tracked objects:
  6110 ;;		On entry : 0/0
  6111 ;;		On exit  : 0/0
  6112 ;;		Unchanged: 0/0
  6113 ;; Data sizes:     COMRAM   BANK0   BANK1   BANK2   BANK3   BANK4   BANK5   BANK6   BANK7   BANK8   BANK9  BANK10  BANK1
      +1  BANK12  BANK13  BANK14  BANK15
  6114 ;;      Params:         0       0       0       2       0       0       0       0       0       0       0       0       
      +0       0       0       0       0
  6115 ;;      Locals:         0       0       0       1       0       0       0       0       0       0       0       0       
      +0       0       0       0       0
  6116 ;;      Temps:          0       0       0       5       0       0       0       0       0       0       0       0       
      +0       0       0       0       0
  6117 ;;      Totals:         0       0       0       8       0       0       0       0       0       0       0       0       
      +0       0       0       0       0
  6118 ;;Total ram usage:        8 bytes
  6119 ;; Hardware stack levels used: 1
  6120 ;; Hardware stack levels required when called: 4
  6121 ;; This function calls:
  6122 ;;		i1_scheduler
  6123 ;; This function is called by:
  6124 ;;		_tarefaProcessamento
  6125 ;;		_tarefaOneShot
  6126 ;; This function uses a non-reentrant model
  6127 ;;
  6128                           
  6129                           	psect	text25
  6130   001878                     __ptext25:
  6131                           	callstack 0
  6132   001878                     _os_task_change_state:
  6133                           	callstack 21
  6134                           
  6135                           ;incstack = 0
  6136                           ;os_task_change_state@new_state stored from wreg
  6137   001878  0102               	movlb	2	; () banked
  6138   00187A  6F54               	movwf	os_task_change_state@new_state& (0+255),b
  6139   00187C                     
  6140                           ;kernel.c: 95: void os_task_change_state(state_t new_state, tcb_t *task_handle);kernel.c
      +                          : 96: {;kernel.c: 97:     INTCONbits.GIE = 0;;
  6141   00187C  9EF2               	bcf	242,7,c	;volatile
  6142   00187E                     
  6143                           ;kernel.c: 99:     if (task_handle == ((void*)0)) {
  6144   00187E  0102               	movlb	2	; () banked
  6145   001880  514D               	movf	os_task_change_state@task_handle& (0+255),w,b
  6146   001882  114E               	iorwf	(os_task_change_state@task_handle+1)& (0+255),w,b
  6147   001884  A4D8               	btfss	status,2,c
  6148   001886  EF47  F00C         	goto	i1u430_21
  6149   00188A  EF49  F00C         	goto	i1u430_20
  6150   00188E                     i1u430_21:
  6151   00188E  EF1A  F00E         	goto	i1l4917
  6152   001892                     i1u430_20:
  6153   001892                     
  6154                           ; BSR set to: 2
  6155                           ;kernel.c: 100:         { if (((r_queue.TASKS[r_queue.pos_task_running]).state_prio & 0x
      +                          03) == RUNNING) { ((r_queue.TASKS[r_queue.pos_task_running]).state_prio = (uint8_t)(((r_
      +                          queue.TASKS[r_queue.pos_task_running]).state_prio & 0xFC) | (uint8_t)(new_state))); r_qu
      +                          eue.TASKS[r_queue.pos_task_running].BSR_REG = BSR; r_queue.TASKS[r_queue.pos_task_runnin
      +                          g].W_REG = WREG; r_queue.TASKS[r_queue.pos_task_running].STATUS_REG = STATUS; r_queue.TA
      +                          SKS[r_queue.pos_task_running].FSR0H_REG = FSR0H; r_queue.TASKS[r_queue.pos_task_running]
      +                          .FSR0L_REG = FSR0L; r_queue.TASKS[r_queue.pos_task_running].task_stack.stack_size = 0; w
      +                          hile (STKPTR > 0) { r_queue.TASKS[r_queue.pos_task_running].task_stack.stack[r_queue.TAS
      +                          KS[r_queue.pos_task_running].task_stack.stack_size].TOSL_REG = TOSL; r_queue.TASKS[r_que
      +                          ue.pos_task_running].task_stack.stack[r_queue.TASKS[r_queue.pos_task_running].task_stack
      +                          .stack_size].TOSH_REG = TOSH; r_queue.TASKS[r_queue.pos_task_running].task_stack.stack[r
      +                          _queue.TASKS[r_queue.pos_task_running].task_stack.stack_size].TOSU_REG = TOSU; r_queue.T
      +                          ASKS[r_queue.pos_task_running].task_stack.stack_size++; __asm("POP"); } } };
  6156   001892  0101               	movlb	1	; () banked
  6157   001894  51D3               	movf	(_r_queue+211)& (0+255),w,b
  6158   001896  0D23               	mullw	35
  6159   001898  0E04               	movlw	low (_r_queue+4)
  6160   00189A  24F3               	addwf	243,w,c
  6161   00189C  6ED9               	movwf	fsr2l,c
  6162   00189E  0E01               	movlw	high (_r_queue+4)
  6163   0018A0  20F4               	addwfc	prodh,w,c
  6164   0018A2  6EDA               	movwf	fsr2h,c
  6165   0018A4  50DF               	movf	indf2,w,c
  6166   0018A6  0B03               	andlw	3
  6167   0018A8  0A02               	xorlw	2
  6168   0018AA  A4D8               	btfss	status,2,c
  6169   0018AC  EF5A  F00C         	goto	i1u431_21
  6170   0018B0  EF5C  F00C         	goto	i1u431_20
  6171   0018B4                     i1u431_21:
  6172   0018B4  EF2E  F00D         	goto	i1l4899
  6173   0018B8                     i1u431_20:
  6174   0018B8                     
  6175                           ; BSR set to: 1
  6176   0018B8  51D3               	movf	(_r_queue+211)& (0+255),w,b
  6177   0018BA  0D23               	mullw	35
  6178   0018BC  0E04               	movlw	low (_r_queue+4)
  6179   0018BE  24F3               	addwf	243,w,c
  6180   0018C0  6ED9               	movwf	fsr2l,c
  6181   0018C2  0E01               	movlw	high (_r_queue+4)
  6182   0018C4  20F4               	addwfc	prodh,w,c
  6183   0018C6  6EDA               	movwf	fsr2h,c
  6184   0018C8  51D3               	movf	(_r_queue+211)& (0+255),w,b
  6185   0018CA  0D23               	mullw	35
  6186   0018CC  0E04               	movlw	low (_r_queue+4)
  6187   0018CE  24F3               	addwf	243,w,c
  6188   0018D0  6EE1               	movwf	fsr1l,c
  6189   0018D2  0E01               	movlw	high (_r_queue+4)
  6190   0018D4  20F4               	addwfc	prodh,w,c
  6191   0018D6  6EE2               	movwf	fsr1h,c
  6192   0018D8  50E7               	movf	indf1,w,c
  6193   0018DA  0BFC               	andlw	252
  6194   0018DC  0102               	movlb	2	; () banked
  6195   0018DE  1154               	iorwf	os_task_change_state@new_state& (0+255),w,b
  6196   0018E0  6EDF               	movwf	indf2,c
  6197   0018E2                     
  6198                           ; BSR set to: 2
  6199   0018E2  0101               	movlb	1	; () banked
  6200   0018E4  51D3               	movf	(_r_queue+211)& (0+255),w,b
  6201   0018E6  0D23               	mullw	35
  6202   0018E8  0E07               	movlw	low (_r_queue+7)
  6203   0018EA  24F3               	addwf	243,w,c
  6204   0018EC  6ED9               	movwf	fsr2l,c
  6205   0018EE  0E01               	movlw	high (_r_queue+7)
  6206   0018F0  20F4               	addwfc	prodh,w,c
  6207   0018F2  6EDA               	movwf	fsr2h,c
  6208   0018F4  CFE0 FFDF          	movff	bsr,indf2	;volatile
  6209   0018F8                     
  6210                           ; BSR set to: 1
  6211   0018F8  51D3               	movf	(_r_queue+211)& (0+255),w,b
  6212   0018FA  0D23               	mullw	35
  6213   0018FC  0E05               	movlw	low (_r_queue+5)
  6214   0018FE  24F3               	addwf	243,w,c
  6215   001900  6ED9               	movwf	fsr2l,c
  6216   001902  0E01               	movlw	high (_r_queue+5)
  6217   001904  20F4               	addwfc	prodh,w,c
  6218   001906  6EDA               	movwf	fsr2h,c
  6219   001908  CFE8 FFDF          	movff	wreg,indf2	;volatile
  6220   00190C                     
  6221                           ; BSR set to: 1
  6222   00190C  51D3               	movf	(_r_queue+211)& (0+255),w,b
  6223   00190E  0D23               	mullw	35
  6224   001910  0E06               	movlw	low (_r_queue+6)
  6225   001912  24F3               	addwf	243,w,c
  6226   001914  6ED9               	movwf	fsr2l,c
  6227   001916  0E01               	movlw	high (_r_queue+6)
  6228   001918  20F4               	addwfc	prodh,w,c
  6229   00191A  6EDA               	movwf	fsr2h,c
  6230   00191C  CFD8 FFDF          	movff	status,indf2	;volatile
  6231   001920                     
  6232                           ; BSR set to: 1
  6233   001920  51D3               	movf	(_r_queue+211)& (0+255),w,b
  6234   001922  0D23               	mullw	35
  6235   001924  0E09               	movlw	low (_r_queue+9)
  6236   001926  24F3               	addwf	243,w,c
  6237   001928  6ED9               	movwf	fsr2l,c
  6238   00192A  0E01               	movlw	high (_r_queue+9)
  6239   00192C  20F4               	addwfc	prodh,w,c
  6240   00192E  6EDA               	movwf	fsr2h,c
  6241   001930  CFEA FFDF          	movff	fsr0h,indf2	;volatile
  6242   001934                     
  6243                           ; BSR set to: 1
  6244   001934  51D3               	movf	(_r_queue+211)& (0+255),w,b
  6245   001936  0D23               	mullw	35
  6246   001938  0E08               	movlw	low (_r_queue+8)
  6247   00193A  24F3               	addwf	243,w,c
  6248   00193C  6ED9               	movwf	fsr2l,c
  6249   00193E  0E01               	movlw	high (_r_queue+8)
  6250   001940  20F4               	addwfc	prodh,w,c
  6251   001942  6EDA               	movwf	fsr2h,c
  6252   001944  CFE9 FFDF          	movff	fsr0l,indf2	;volatile
  6253   001948                     
  6254                           ; BSR set to: 1
  6255   001948  51D3               	movf	(_r_queue+211)& (0+255),w,b
  6256   00194A  0D23               	mullw	35
  6257   00194C  0E22               	movlw	low (_r_queue+34)
  6258   00194E  24F3               	addwf	243,w,c
  6259   001950  6ED9               	movwf	fsr2l,c
  6260   001952  0E01               	movlw	high (_r_queue+34)
  6261   001954  20F4               	addwfc	prodh,w,c
  6262   001956  6EDA               	movwf	fsr2h,c
  6263   001958  6ADF               	clrf	indf2,c
  6264   00195A  EF26  F00D         	goto	i1l4897
  6265   00195E                     i1l4895:
  6266   00195E  0101               	movlb	1	; () banked
  6267   001960  51D3               	movf	(_r_queue+211)& (0+255),w,b
  6268   001962  0D23               	mullw	35
  6269   001964  0E22               	movlw	low (_r_queue+34)
  6270   001966  24F3               	addwf	243,w,c
  6271   001968  6ED9               	movwf	fsr2l,c
  6272   00196A  0E01               	movlw	high (_r_queue+34)
  6273   00196C  20F4               	addwfc	prodh,w,c
  6274   00196E  6EDA               	movwf	fsr2h,c
  6275   001970  50DF               	movf	indf2,w,c
  6276   001972  0102               	movlb	2	; () banked
  6277   001974  6F4F               	movwf	??_os_task_change_state& (0+255),b
  6278   001976  514F               	movf	??_os_task_change_state& (0+255),w,b
  6279   001978  0D03               	mullw	3
  6280   00197A  CFF3 F250          	movff	prodl,??_os_task_change_state+1
  6281   00197E  CFF4 F251          	movff	prodh,??_os_task_change_state+2
  6282   001982  0101               	movlb	1	; () banked
  6283   001984  51D3               	movf	(_r_queue+211)& (0+255),w,b
  6284   001986  0D23               	mullw	35
  6285   001988  0E0A               	movlw	low (_r_queue+10)
  6286   00198A  24F3               	addwf	243,w,c
  6287   00198C  0102               	movlb	2	; () banked
  6288   00198E  6F52               	movwf	(??_os_task_change_state+3)& (0+255),b
  6289   001990  0E01               	movlw	high (_r_queue+10)
  6290   001992  20F4               	addwfc	prodh,w,c
  6291   001994  6F53               	movwf	(??_os_task_change_state+4)& (0+255),b
  6292   001996  5150               	movf	(??_os_task_change_state+1)& (0+255),w,b
  6293   001998  2552               	addwf	(??_os_task_change_state+3)& (0+255),w,b
  6294   00199A  6ED9               	movwf	fsr2l,c
  6295   00199C  5151               	movf	(??_os_task_change_state+2)& (0+255),w,b
  6296   00199E  2153               	addwfc	(??_os_task_change_state+4)& (0+255),w,b
  6297   0019A0  6EDA               	movwf	fsr2h,c
  6298   0019A2  CFFD FFDF          	movff	tosl,indf2	;volatile
  6299   0019A6  0101               	movlb	1	; () banked
  6300   0019A8  51D3               	movf	(_r_queue+211)& (0+255),w,b
  6301   0019AA  0D23               	mullw	35
  6302   0019AC  0E22               	movlw	low (_r_queue+34)
  6303   0019AE  24F3               	addwf	243,w,c
  6304   0019B0  6ED9               	movwf	fsr2l,c
  6305   0019B2  0E01               	movlw	high (_r_queue+34)
  6306   0019B4  20F4               	addwfc	prodh,w,c
  6307   0019B6  6EDA               	movwf	fsr2h,c
  6308   0019B8  50DF               	movf	indf2,w,c
  6309   0019BA  0102               	movlb	2	; () banked
  6310   0019BC  6F4F               	movwf	??_os_task_change_state& (0+255),b
  6311   0019BE  514F               	movf	??_os_task_change_state& (0+255),w,b
  6312   0019C0  0D03               	mullw	3
  6313   0019C2  CFF3 F250          	movff	prodl,??_os_task_change_state+1
  6314   0019C6  CFF4 F251          	movff	prodh,??_os_task_change_state+2
  6315   0019CA  0101               	movlb	1	; () banked
  6316   0019CC  51D3               	movf	(_r_queue+211)& (0+255),w,b
  6317   0019CE  0D23               	mullw	35
  6318   0019D0  0E0B               	movlw	low (_r_queue+11)
  6319   0019D2  24F3               	addwf	243,w,c
  6320   0019D4  0102               	movlb	2	; () banked
  6321   0019D6  6F52               	movwf	(??_os_task_change_state+3)& (0+255),b
  6322   0019D8  0E01               	movlw	high (_r_queue+11)
  6323   0019DA  20F4               	addwfc	prodh,w,c
  6324   0019DC  6F53               	movwf	(??_os_task_change_state+4)& (0+255),b
  6325   0019DE  5150               	movf	(??_os_task_change_state+1)& (0+255),w,b
  6326   0019E0  2552               	addwf	(??_os_task_change_state+3)& (0+255),w,b
  6327   0019E2  6ED9               	movwf	fsr2l,c
  6328   0019E4  5151               	movf	(??_os_task_change_state+2)& (0+255),w,b
  6329   0019E6  2153               	addwfc	(??_os_task_change_state+4)& (0+255),w,b
  6330   0019E8  6EDA               	movwf	fsr2h,c
  6331   0019EA  CFFE FFDF          	movff	tosh,indf2	;volatile
  6332   0019EE  0101               	movlb	1	; () banked
  6333   0019F0  51D3               	movf	(_r_queue+211)& (0+255),w,b
  6334   0019F2  0D23               	mullw	35
  6335   0019F4  0E22               	movlw	low (_r_queue+34)
  6336   0019F6  24F3               	addwf	243,w,c
  6337   0019F8  6ED9               	movwf	fsr2l,c
  6338   0019FA  0E01               	movlw	high (_r_queue+34)
  6339   0019FC  20F4               	addwfc	prodh,w,c
  6340   0019FE  6EDA               	movwf	fsr2h,c
  6341   001A00  50DF               	movf	indf2,w,c
  6342   001A02  0102               	movlb	2	; () banked
  6343   001A04  6F4F               	movwf	??_os_task_change_state& (0+255),b
  6344   001A06  514F               	movf	??_os_task_change_state& (0+255),w,b
  6345   001A08  0D03               	mullw	3
  6346   001A0A  CFF3 F250          	movff	prodl,??_os_task_change_state+1
  6347   001A0E  CFF4 F251          	movff	prodh,??_os_task_change_state+2
  6348   001A12  0101               	movlb	1	; () banked
  6349   001A14  51D3               	movf	(_r_queue+211)& (0+255),w,b
  6350   001A16  0D23               	mullw	35
  6351   001A18  0E0C               	movlw	low (_r_queue+12)
  6352   001A1A  24F3               	addwf	243,w,c
  6353   001A1C  0102               	movlb	2	; () banked
  6354   001A1E  6F52               	movwf	(??_os_task_change_state+3)& (0+255),b
  6355   001A20  0E01               	movlw	high (_r_queue+12)
  6356   001A22  20F4               	addwfc	prodh,w,c
  6357   001A24  6F53               	movwf	(??_os_task_change_state+4)& (0+255),b
  6358   001A26  5150               	movf	(??_os_task_change_state+1)& (0+255),w,b
  6359   001A28  2552               	addwf	(??_os_task_change_state+3)& (0+255),w,b
  6360   001A2A  6ED9               	movwf	fsr2l,c
  6361   001A2C  5151               	movf	(??_os_task_change_state+2)& (0+255),w,b
  6362   001A2E  2153               	addwfc	(??_os_task_change_state+4)& (0+255),w,b
  6363   001A30  6EDA               	movwf	fsr2h,c
  6364   001A32  CFFF FFDF          	movff	tosu,indf2	;volatile
  6365   001A36  0101               	movlb	1	; () banked
  6366   001A38  51D3               	movf	(_r_queue+211)& (0+255),w,b
  6367   001A3A  0D23               	mullw	35
  6368   001A3C  0E22               	movlw	low (_r_queue+34)
  6369   001A3E  24F3               	addwf	243,w,c
  6370   001A40  6ED9               	movwf	fsr2l,c
  6371   001A42  0E01               	movlw	high (_r_queue+34)
  6372   001A44  20F4               	addwfc	prodh,w,c
  6373   001A46  6EDA               	movwf	fsr2h,c
  6374   001A48  2ADF               	incf	indf2,f,c
  6375   001A4A  0006               	pop		;# 
  6376   001A4C                     i1l4897:
  6377   001A4C  50FC               	movf	252,w,c	;volatile
  6378   001A4E  A4D8               	btfss	status,2,c
  6379   001A50  EF2C  F00D         	goto	i1u432_21
  6380   001A54  EF2E  F00D         	goto	i1u432_20
  6381   001A58                     i1u432_21:
  6382   001A58  EFAF  F00C         	goto	i1l4895
  6383   001A5C                     i1u432_20:
  6384   001A5C                     i1l4899:
  6385                           
  6386                           ;kernel.c: 101:         scheduler();
  6387   001A5C  ECBB  F017         	call	i1_scheduler	;wreg free
  6388   001A60                     
  6389                           ;kernel.c: 102:         { if (((r_queue.TASKS[r_queue.pos_task_running]).state_prio & 0x
      +                          03) == READY) { ((r_queue.TASKS[r_queue.pos_task_running]).state_prio = (uint8_t)(((r_qu
      +                          eue.TASKS[r_queue.pos_task_running]).state_prio & 0xFC) | (uint8_t)(RUNNING))); BSR = r_
      +                          queue.TASKS[r_queue.pos_task_running].BSR_REG; WREG = r_queue.TASKS[r_queue.pos_task_run
      +                          ning].W_REG; STATUS = r_queue.TASKS[r_queue.pos_task_running].STATUS_REG; FSR0H = r_queu
      +                          e.TASKS[r_queue.pos_task_running].FSR0H_REG; FSR0L = r_queue.TASKS[r_queue.pos_task_runn
      +                          ing].FSR0L_REG; while (r_queue.TASKS[r_queue.pos_task_running].task_stack.stack_size > 0
      +                          ) { r_queue.TASKS[r_queue.pos_task_running].task_stack.stack_size--; TOSL = r_queue.TASK
      +                          S[r_queue.pos_task_running].task_stack.stack[r_queue.TASKS[r_queue.pos_task_running].tas
      +                          k_stack.stack_size].TOSL_REG; TOSH = r_queue.TASKS[r_queue.pos_task_running].task_stack.
      +                          stack[r_queue.TASKS[r_queue.pos_task_running].task_stack.stack_size].TOSH_REG; TOSU = r_
      +                          queue.TASKS[r_queue.pos_task_running].task_stack.stack[r_queue.TASKS[r_queue.pos_task_ru
      +                          nning].task_stack.stack_size].TOSU_REG; __asm("PUSH"); } __asm("RETURN"); } };
  6390   001A60  0101               	movlb	1	; () banked
  6391   001A62  51D3               	movf	(_r_queue+211)& (0+255),w,b
  6392   001A64  0D23               	mullw	35
  6393   001A66  0E04               	movlw	low (_r_queue+4)
  6394   001A68  24F3               	addwf	243,w,c
  6395   001A6A  6ED9               	movwf	fsr2l,c
  6396   001A6C  0E01               	movlw	high (_r_queue+4)
  6397   001A6E  20F4               	addwfc	prodh,w,c
  6398   001A70  6EDA               	movwf	fsr2h,c
  6399   001A72  50DF               	movf	indf2,w,c
  6400   001A74  0102               	movlb	2	; () banked
  6401   001A76  6F4F               	movwf	??_os_task_change_state& (0+255),b
  6402   001A78  0E03               	movlw	3
  6403   001A7A  174F               	andwf	??_os_task_change_state& (0+255),f,b
  6404   001A7C  A4D8               	btfss	status,2,c
  6405   001A7E  EF43  F00D         	goto	i1u433_21
  6406   001A82  EF45  F00D         	goto	i1u433_20
  6407   001A86                     i1u433_21:
  6408   001A86  EF2A  F00E         	goto	i1l4919
  6409   001A8A                     i1u433_20:
  6410   001A8A                     
  6411                           ; BSR set to: 2
  6412   001A8A  0101               	movlb	1	; () banked
  6413   001A8C  51D3               	movf	(_r_queue+211)& (0+255),w,b
  6414   001A8E  0D23               	mullw	35
  6415   001A90  0E04               	movlw	low (_r_queue+4)
  6416   001A92  24F3               	addwf	243,w,c
  6417   001A94  6ED9               	movwf	fsr2l,c
  6418   001A96  0E01               	movlw	high (_r_queue+4)
  6419   001A98  20F4               	addwfc	prodh,w,c
  6420   001A9A  6EDA               	movwf	fsr2h,c
  6421   001A9C  51D3               	movf	(_r_queue+211)& (0+255),w,b
  6422   001A9E  0D23               	mullw	35
  6423   001AA0  0E04               	movlw	low (_r_queue+4)
  6424   001AA2  24F3               	addwf	243,w,c
  6425   001AA4  6EE1               	movwf	fsr1l,c
  6426   001AA6  0E01               	movlw	high (_r_queue+4)
  6427   001AA8  20F4               	addwfc	prodh,w,c
  6428   001AAA  6EE2               	movwf	fsr1h,c
  6429   001AAC  50E7               	movf	indf1,w,c
  6430   001AAE  0BFC               	andlw	252
  6431   001AB0  0902               	iorlw	2
  6432   001AB2  6EDF               	movwf	indf2,c
  6433   001AB4                     
  6434                           ; BSR set to: 1
  6435   001AB4  51D3               	movf	(_r_queue+211)& (0+255),w,b
  6436   001AB6  0D23               	mullw	35
  6437   001AB8  0E07               	movlw	low (_r_queue+7)
  6438   001ABA  24F3               	addwf	243,w,c
  6439   001ABC  6ED9               	movwf	fsr2l,c
  6440   001ABE  0E01               	movlw	high (_r_queue+7)
  6441   001AC0  20F4               	addwfc	prodh,w,c
  6442   001AC2  6EDA               	movwf	fsr2h,c
  6443   001AC4  50DF               	movf	indf2,w,c
  6444   001AC6  6EE0               	movwf	224,c	;volatile
  6445   001AC8                     
  6446                           ; BSR set to: 1
  6447   001AC8  51D3               	movf	(_r_queue+211)& (0+255),w,b
  6448   001ACA  0D23               	mullw	35
  6449   001ACC  0E05               	movlw	low (_r_queue+5)
  6450   001ACE  24F3               	addwf	243,w,c
  6451   001AD0  6ED9               	movwf	fsr2l,c
  6452   001AD2  0E01               	movlw	high (_r_queue+5)
  6453   001AD4  20F4               	addwfc	prodh,w,c
  6454   001AD6  6EDA               	movwf	fsr2h,c
  6455   001AD8  50DF               	movf	indf2,w,c
  6456   001ADA  0102               	movlb	2	; () banked
  6457   001ADC  6F4F               	movwf	??_os_task_change_state& (0+255),b
  6458   001ADE  514F               	movf	??_os_task_change_state& (0+255),w,b
  6459   001AE0                     
  6460                           ; BSR set to: 2
  6461   001AE0  0101               	movlb	1	; () banked
  6462   001AE2  51D3               	movf	(_r_queue+211)& (0+255),w,b
  6463   001AE4  0D23               	mullw	35
  6464   001AE6  0E06               	movlw	low (_r_queue+6)
  6465   001AE8  24F3               	addwf	243,w,c
  6466   001AEA  6ED9               	movwf	fsr2l,c
  6467   001AEC  0E01               	movlw	high (_r_queue+6)
  6468   001AEE  20F4               	addwfc	prodh,w,c
  6469   001AF0  6EDA               	movwf	fsr2h,c
  6470   001AF2  50DF               	movf	indf2,w,c
  6471   001AF4  6ED8               	movwf	216,c	;volatile
  6472   001AF6                     
  6473                           ; BSR set to: 1
  6474   001AF6  51D3               	movf	(_r_queue+211)& (0+255),w,b
  6475   001AF8  0D23               	mullw	35
  6476   001AFA  0E09               	movlw	low (_r_queue+9)
  6477   001AFC  24F3               	addwf	243,w,c
  6478   001AFE  6ED9               	movwf	fsr2l,c
  6479   001B00  0E01               	movlw	high (_r_queue+9)
  6480   001B02  20F4               	addwfc	prodh,w,c
  6481   001B04  6EDA               	movwf	fsr2h,c
  6482   001B06  50DF               	movf	indf2,w,c
  6483   001B08  6EEA               	movwf	234,c	;volatile
  6484   001B0A                     
  6485                           ; BSR set to: 1
  6486   001B0A  51D3               	movf	(_r_queue+211)& (0+255),w,b
  6487   001B0C  0D23               	mullw	35
  6488   001B0E  0E08               	movlw	low (_r_queue+8)
  6489   001B10  24F3               	addwf	243,w,c
  6490   001B12  6ED9               	movwf	fsr2l,c
  6491   001B14  0E01               	movlw	high (_r_queue+8)
  6492   001B16  20F4               	addwfc	prodh,w,c
  6493   001B18  6EDA               	movwf	fsr2h,c
  6494   001B1A  50DF               	movf	indf2,w,c
  6495   001B1C  6EE9               	movwf	233,c	;volatile
  6496   001B1E  EF06  F00E         	goto	i1l101
  6497   001B22                     i1l4915:
  6498                           
  6499                           ; BSR set to: 1
  6500   001B22  51D3               	movf	(_r_queue+211)& (0+255),w,b
  6501   001B24  0D23               	mullw	35
  6502   001B26  0E22               	movlw	low (_r_queue+34)
  6503   001B28  24F3               	addwf	243,w,c
  6504   001B2A  6ED9               	movwf	fsr2l,c
  6505   001B2C  0E01               	movlw	high (_r_queue+34)
  6506   001B2E  20F4               	addwfc	prodh,w,c
  6507   001B30  6EDA               	movwf	fsr2h,c
  6508   001B32  06DF               	decf	indf2,f,c
  6509   001B34  51D3               	movf	(_r_queue+211)& (0+255),w,b
  6510   001B36  0D23               	mullw	35
  6511   001B38  0E22               	movlw	low (_r_queue+34)
  6512   001B3A  24F3               	addwf	243,w,c
  6513   001B3C  6ED9               	movwf	fsr2l,c
  6514   001B3E  0E01               	movlw	high (_r_queue+34)
  6515   001B40  20F4               	addwfc	prodh,w,c
  6516   001B42  6EDA               	movwf	fsr2h,c
  6517   001B44  50DF               	movf	indf2,w,c
  6518   001B46  0102               	movlb	2	; () banked
  6519   001B48  6F4F               	movwf	??_os_task_change_state& (0+255),b
  6520   001B4A  514F               	movf	??_os_task_change_state& (0+255),w,b
  6521   001B4C  0D03               	mullw	3
  6522   001B4E  CFF3 F250          	movff	prodl,??_os_task_change_state+1
  6523   001B52  CFF4 F251          	movff	prodh,??_os_task_change_state+2
  6524   001B56  0101               	movlb	1	; () banked
  6525   001B58  51D3               	movf	(_r_queue+211)& (0+255),w,b
  6526   001B5A  0D23               	mullw	35
  6527   001B5C  0E0A               	movlw	low (_r_queue+10)
  6528   001B5E  24F3               	addwf	243,w,c
  6529   001B60  0102               	movlb	2	; () banked
  6530   001B62  6F52               	movwf	(??_os_task_change_state+3)& (0+255),b
  6531   001B64  0E01               	movlw	high (_r_queue+10)
  6532   001B66  20F4               	addwfc	prodh,w,c
  6533   001B68  6F53               	movwf	(??_os_task_change_state+4)& (0+255),b
  6534   001B6A  5150               	movf	(??_os_task_change_state+1)& (0+255),w,b
  6535   001B6C  2552               	addwf	(??_os_task_change_state+3)& (0+255),w,b
  6536   001B6E  6ED9               	movwf	fsr2l,c
  6537   001B70  5151               	movf	(??_os_task_change_state+2)& (0+255),w,b
  6538   001B72  2153               	addwfc	(??_os_task_change_state+4)& (0+255),w,b
  6539   001B74  6EDA               	movwf	fsr2h,c
  6540   001B76  50DF               	movf	indf2,w,c
  6541   001B78  6EFD               	movwf	253,c	;volatile
  6542   001B7A  0101               	movlb	1	; () banked
  6543   001B7C  51D3               	movf	(_r_queue+211)& (0+255),w,b
  6544   001B7E  0D23               	mullw	35
  6545   001B80  0E22               	movlw	low (_r_queue+34)
  6546   001B82  24F3               	addwf	243,w,c
  6547   001B84  6ED9               	movwf	fsr2l,c
  6548   001B86  0E01               	movlw	high (_r_queue+34)
  6549   001B88  20F4               	addwfc	prodh,w,c
  6550   001B8A  6EDA               	movwf	fsr2h,c
  6551   001B8C  50DF               	movf	indf2,w,c
  6552   001B8E  0102               	movlb	2	; () banked
  6553   001B90  6F4F               	movwf	??_os_task_change_state& (0+255),b
  6554   001B92  514F               	movf	??_os_task_change_state& (0+255),w,b
  6555   001B94  0D03               	mullw	3
  6556   001B96  CFF3 F250          	movff	prodl,??_os_task_change_state+1
  6557   001B9A  CFF4 F251          	movff	prodh,??_os_task_change_state+2
  6558   001B9E  0101               	movlb	1	; () banked
  6559   001BA0  51D3               	movf	(_r_queue+211)& (0+255),w,b
  6560   001BA2  0D23               	mullw	35
  6561   001BA4  0E0B               	movlw	low (_r_queue+11)
  6562   001BA6  24F3               	addwf	243,w,c
  6563   001BA8  0102               	movlb	2	; () banked
  6564   001BAA  6F52               	movwf	(??_os_task_change_state+3)& (0+255),b
  6565   001BAC  0E01               	movlw	high (_r_queue+11)
  6566   001BAE  20F4               	addwfc	prodh,w,c
  6567   001BB0  6F53               	movwf	(??_os_task_change_state+4)& (0+255),b
  6568   001BB2  5150               	movf	(??_os_task_change_state+1)& (0+255),w,b
  6569   001BB4  2552               	addwf	(??_os_task_change_state+3)& (0+255),w,b
  6570   001BB6  6ED9               	movwf	fsr2l,c
  6571   001BB8  5151               	movf	(??_os_task_change_state+2)& (0+255),w,b
  6572   001BBA  2153               	addwfc	(??_os_task_change_state+4)& (0+255),w,b
  6573   001BBC  6EDA               	movwf	fsr2h,c
  6574   001BBE  50DF               	movf	indf2,w,c
  6575   001BC0  6EFE               	movwf	254,c	;volatile
  6576   001BC2  0101               	movlb	1	; () banked
  6577   001BC4  51D3               	movf	(_r_queue+211)& (0+255),w,b
  6578   001BC6  0D23               	mullw	35
  6579   001BC8  0E22               	movlw	low (_r_queue+34)
  6580   001BCA  24F3               	addwf	243,w,c
  6581   001BCC  6ED9               	movwf	fsr2l,c
  6582   001BCE  0E01               	movlw	high (_r_queue+34)
  6583   001BD0  20F4               	addwfc	prodh,w,c
  6584   001BD2  6EDA               	movwf	fsr2h,c
  6585   001BD4  50DF               	movf	indf2,w,c
  6586   001BD6  0102               	movlb	2	; () banked
  6587   001BD8  6F4F               	movwf	??_os_task_change_state& (0+255),b
  6588   001BDA  514F               	movf	??_os_task_change_state& (0+255),w,b
  6589   001BDC  0D03               	mullw	3
  6590   001BDE  CFF3 F250          	movff	prodl,??_os_task_change_state+1
  6591   001BE2  CFF4 F251          	movff	prodh,??_os_task_change_state+2
  6592   001BE6  0101               	movlb	1	; () banked
  6593   001BE8  51D3               	movf	(_r_queue+211)& (0+255),w,b
  6594   001BEA  0D23               	mullw	35
  6595   001BEC  0E0C               	movlw	low (_r_queue+12)
  6596   001BEE  24F3               	addwf	243,w,c
  6597   001BF0  0102               	movlb	2	; () banked
  6598   001BF2  6F52               	movwf	(??_os_task_change_state+3)& (0+255),b
  6599   001BF4  0E01               	movlw	high (_r_queue+12)
  6600   001BF6  20F4               	addwfc	prodh,w,c
  6601   001BF8  6F53               	movwf	(??_os_task_change_state+4)& (0+255),b
  6602   001BFA  5150               	movf	(??_os_task_change_state+1)& (0+255),w,b
  6603   001BFC  2552               	addwf	(??_os_task_change_state+3)& (0+255),w,b
  6604   001BFE  6ED9               	movwf	fsr2l,c
  6605   001C00  5151               	movf	(??_os_task_change_state+2)& (0+255),w,b
  6606   001C02  2153               	addwfc	(??_os_task_change_state+4)& (0+255),w,b
  6607   001C04  6EDA               	movwf	fsr2h,c
  6608   001C06  50DF               	movf	indf2,w,c
  6609   001C08  6EFF               	movwf	255,c	;volatile
  6610   001C0A  0005               	push		;# 
  6611   001C0C                     i1l101:
  6612   001C0C  0101               	movlb	1	; () banked
  6613   001C0E  51D3               	movf	(_r_queue+211)& (0+255),w,b
  6614   001C10  0D23               	mullw	35
  6615   001C12  0E22               	movlw	low (_r_queue+34)
  6616   001C14  24F3               	addwf	243,w,c
  6617   001C16  6ED9               	movwf	fsr2l,c
  6618   001C18  0E01               	movlw	high (_r_queue+34)
  6619   001C1A  20F4               	addwfc	prodh,w,c
  6620   001C1C  6EDA               	movwf	fsr2h,c
  6621   001C1E  50DF               	movf	indf2,w,c
  6622   001C20  A4D8               	btfss	status,2,c
  6623   001C22  EF15  F00E         	goto	i1u434_21
  6624   001C26  EF17  F00E         	goto	i1u434_20
  6625   001C2A                     i1u434_21:
  6626   001C2A  EF91  F00D         	goto	i1l4915
  6627   001C2E                     i1u434_20:
  6628   001C2E                     
  6629                           ; BSR set to: 1
  6630   001C2E  0012               	return		;# 
  6631   001C30  EF2A  F00E         	goto	i1l4919
  6632   001C34                     i1l4917:
  6633                           
  6634                           ; BSR set to: 2
  6635                           ;kernel.c: 105:         (((*task_handle)).state_prio = (uint8_t)((((*task_handle)).state
      +                          _prio & 0xFC) | (uint8_t)(new_state)));
  6636   001C34  EE20 F004          	lfsr	2,4
  6637   001C38  514D               	movf	os_task_change_state@task_handle& (0+255),w,b
  6638   001C3A  26D9               	addwf	fsr2l,f,c
  6639   001C3C  514E               	movf	(os_task_change_state@task_handle+1)& (0+255),w,b
  6640   001C3E  22DA               	addwfc	fsr2h,f,c
  6641   001C40  EE10 F004          	lfsr	1,4
  6642   001C44  514D               	movf	os_task_change_state@task_handle& (0+255),w,b
  6643   001C46  26E1               	addwf	fsr1l,f,c
  6644   001C48  514E               	movf	(os_task_change_state@task_handle+1)& (0+255),w,b
  6645   001C4A  22E2               	addwfc	fsr1h,f,c
  6646   001C4C  50E7               	movf	indf1,w,c
  6647   001C4E  0BFC               	andlw	252
  6648   001C50  1154               	iorwf	os_task_change_state@new_state& (0+255),w,b
  6649   001C52  6EDF               	movwf	indf2,c
  6650   001C54                     i1l4919:
  6651                           
  6652                           ;kernel.c: 108:     INTCONbits.GIE = 1;;
  6653   001C54  8EF2               	bsf	242,7,c	;volatile
  6654   001C56  0012               	return		;funcret
  6655   001C58                     __end_of_os_task_change_state:
  6656                           	callstack 0
  6657                           
  6658 ;; *************** function _tarefaControlePWM *****************
  6659 ;; Defined at:
  6660 ;;		line 76 in file "user.c"
  6661 ;; Parameters:    Size  Location     Type
  6662 ;;		None
  6663 ;; Auto vars:     Size  Location     Type
  6664 ;;		None
  6665 ;; Return value:  Size  Location     Type
  6666 ;;                  1    wreg      void 
  6667 ;; Registers used:
  6668 ;;		wreg, fsr1l, fsr1h, fsr2l, fsr2h, status,2, status,0, prodl, prodh, cstack
  6669 ;; Tracked objects:
  6670 ;;		On entry : 0/0
  6671 ;;		On exit  : 0/0
  6672 ;;		Unchanged: 0/0
  6673 ;; Data sizes:     COMRAM   BANK0   BANK1   BANK2   BANK3   BANK4   BANK5   BANK6   BANK7   BANK8   BANK9  BANK10  BANK1
      +1  BANK12  BANK13  BANK14  BANK15
  6674 ;;      Params:         0       0       0       0       0       0       0       0       0       0       0       0       
      +0       0       0       0       0
  6675 ;;      Locals:         0       0       0       0       0       0       0       0       0       0       0       0       
      +0       0       0       0       0
  6676 ;;      Temps:          0       0       0       2       0       0       0       0       0       0       0       0       
      +0       0       0       0       0
  6677 ;;      Totals:         0       0       0       2       0       0       0       0       0       0       0       0       
      +0       0       0       0       0
  6678 ;;Total ram usage:        2 bytes
  6679 ;; Hardware stack levels used: 1
  6680 ;; Hardware stack levels required when called: 6
  6681 ;; This function calls:
  6682 ;;		_mutex_lock
  6683 ;;		_mutex_unlock
  6684 ;;		_pwm_set_duty
  6685 ;;		_sem_wait
  6686 ;; This function is called by:
  6687 ;;		_main
  6688 ;; This function uses a non-reentrant model
  6689 ;;
  6690                           
  6691                           	psect	text26
  6692   002CD0                     __ptext26:
  6693                           	callstack 0
  6694   002CD0                     _tarefaControlePWM:
  6695                           	callstack 20
  6696   002CD0                     l315:
  6697   002CD0                     
  6698                           ;user.c: 78:         sem_wait(&sem_processamento);
  6699   002CD0  0E81               	movlw	low _sem_processamento
  6700   002CD2  0102               	movlb	2	; () banked
  6701   002CD4  6F3C               	movwf	sem_wait@sem& (0+255),b
  6702   002CD6  EC34  F00A         	call	_sem_wait	;wreg free
  6703                           
  6704                           ;user.c: 80:         mutex_lock(&mutex_recurso);
  6705   002CDA  0E77               	movlw	low _mutex_recurso
  6706   002CDC  0102               	movlb	2	; () banked
  6707   002CDE  6F3C               	movwf	mutex_lock@m& (0+255),b
  6708   002CE0  EC01  F008         	call	_mutex_lock	;wreg free
  6709   002CE4                     
  6710                           ;user.c: 81:         pwm_set_duty(((uint16_t)dado_processado) << 2);
  6711   002CE4  0100               	movlb	0	; () banked
  6712   002CE6  5160               	movf	_dado_processado& (0+255),w,b	;volatile
  6713   002CE8  0102               	movlb	2	; () banked
  6714   002CEA  6F42               	movwf	??_tarefaControlePWM& (0+255),b
  6715   002CEC  6B43               	clrf	(??_tarefaControlePWM+1)& (0+255),b
  6716   002CEE  90D8               	bcf	status,0,c
  6717   002CF0  3742               	rlcf	??_tarefaControlePWM& (0+255),f,b
  6718   002CF2  3743               	rlcf	(??_tarefaControlePWM+1)& (0+255),f,b
  6719   002CF4  90D8               	bcf	status,0,c
  6720   002CF6  3742               	rlcf	??_tarefaControlePWM& (0+255),f,b
  6721   002CF8  3743               	rlcf	(??_tarefaControlePWM+1)& (0+255),f,b
  6722   002CFA  C242  F23B         	movff	??_tarefaControlePWM,pwm_set_duty@duty
  6723   002CFE  C243  F23C         	movff	??_tarefaControlePWM+1,pwm_set_duty@duty+1
  6724   002D02  EC2E  F017         	call	_pwm_set_duty	;wreg free
  6725   002D06                     
  6726                           ;user.c: 82:         mutex_unlock(&mutex_recurso);
  6727   002D06  0E77               	movlw	low _mutex_recurso
  6728   002D08  0102               	movlb	2	; () banked
  6729   002D0A  6F3B               	movwf	mutex_unlock@m& (0+255),b
  6730   002D0C  EC29  F014         	call	_mutex_unlock	;wreg free
  6731   002D10  EF68  F016         	goto	l315
  6732   002D14  0012               	return		;funcret
  6733   002D16                     __end_of_tarefaControlePWM:
  6734                           	callstack 0
  6735                           
  6736 ;; *************** function _pwm_set_duty *****************
  6737 ;; Defined at:
  6738 ;;		line 32 in file "io.c"
  6739 ;; Parameters:    Size  Location     Type
  6740 ;;  duty            2   59[BANK2 ] unsigned short 
  6741 ;; Auto vars:     Size  Location     Type
  6742 ;;		None
  6743 ;; Return value:  Size  Location     Type
  6744 ;;                  1    wreg      void 
  6745 ;; Registers used:
  6746 ;;		wreg, status,2, status,0
  6747 ;; Tracked objects:
  6748 ;;		On entry : 0/0
  6749 ;;		On exit  : 0/0
  6750 ;;		Unchanged: 0/0
  6751 ;; Data sizes:     COMRAM   BANK0   BANK1   BANK2   BANK3   BANK4   BANK5   BANK6   BANK7   BANK8   BANK9  BANK10  BANK1
      +1  BANK12  BANK13  BANK14  BANK15
  6752 ;;      Params:         0       0       0       2       0       0       0       0       0       0       0       0       
      +0       0       0       0       0
  6753 ;;      Locals:         0       0       0       0       0       0       0       0       0       0       0       0       
      +0       0       0       0       0
  6754 ;;      Temps:          0       0       0       2       0       0       0       0       0       0       0       0       
      +0       0       0       0       0
  6755 ;;      Totals:         0       0       0       4       0       0       0       0       0       0       0       0       
      +0       0       0       0       0
  6756 ;;Total ram usage:        4 bytes
  6757 ;; Hardware stack levels used: 1
  6758 ;; Hardware stack levels required when called: 3
  6759 ;; This function calls:
  6760 ;;		Nothing
  6761 ;; This function is called by:
  6762 ;;		_tarefaControlePWM
  6763 ;; This function uses a non-reentrant model
  6764 ;;
  6765                           
  6766                           	psect	text27
  6767   002E5C                     __ptext27:
  6768                           	callstack 0
  6769   002E5C                     _pwm_set_duty:
  6770                           	callstack 22
  6771   002E5C                     
  6772                           ;io.c: 34:     CCPR1L = (duty >> 2) & 0xFF;
  6773   002E5C  C23B  F23D         	movff	pwm_set_duty@duty,??_pwm_set_duty
  6774   002E60  C23C  F23E         	movff	pwm_set_duty@duty+1,??_pwm_set_duty+1
  6775   002E64  0102               	movlb	2	; () banked
  6776   002E66  90D8               	bcf	status,0,c
  6777   002E68  333E               	rrcf	(??_pwm_set_duty+1)& (0+255),f,b
  6778   002E6A  333D               	rrcf	??_pwm_set_duty& (0+255),f,b
  6779   002E6C  90D8               	bcf	status,0,c
  6780   002E6E  333E               	rrcf	(??_pwm_set_duty+1)& (0+255),f,b
  6781   002E70  333D               	rrcf	??_pwm_set_duty& (0+255),f,b
  6782   002E72  513D               	movf	??_pwm_set_duty& (0+255),w,b
  6783   002E74  6EBE               	movwf	190,c	;volatile
  6784                           
  6785                           ;io.c: 35:     CCP1CONbits.DC1B = duty & 0x03;
  6786   002E76  C23B  F23D         	movff	pwm_set_duty@duty,??_pwm_set_duty
  6787   002E7A  0E03               	movlw	3
  6788   002E7C  173D               	andwf	??_pwm_set_duty& (0+255),f,b
  6789   002E7E  3B3D               	swapf	??_pwm_set_duty& (0+255),f,b
  6790   002E80  50BD               	movf	189,w,c	;volatile
  6791   002E82  193D               	xorwf	??_pwm_set_duty& (0+255),w,b
  6792   002E84  0BCF               	andlw	-49
  6793   002E86  193D               	xorwf	??_pwm_set_duty& (0+255),w,b
  6794   002E88  6EBD               	movwf	189,c	;volatile
  6795   002E8A                     
  6796                           ; BSR set to: 2
  6797   002E8A  0012               	return		;funcret
  6798   002E8C                     __end_of_pwm_set_duty:
  6799                           	callstack 0
  6800                           
  6801 ;; *************** function _mutex_unlock *****************
  6802 ;; Defined at:
  6803 ;;		line 82 in file "sync.c"
  6804 ;; Parameters:    Size  Location     Type
  6805 ;;  m               1   59[BANK2 ] PTR struct mutex
  6806 ;;		 -> mutex_recurso(10), 
  6807 ;; Auto vars:     Size  Location     Type
  6808 ;;  task_idx        1   62[BANK2 ] unsigned char 
  6809 ;; Return value:  Size  Location     Type
  6810 ;;                  1    wreg      void 
  6811 ;; Registers used:
  6812 ;;		wreg, fsr1l, fsr1h, fsr2l, fsr2h, status,2, status,0, prodl, prodh
  6813 ;; Tracked objects:
  6814 ;;		On entry : 0/0
  6815 ;;		On exit  : 0/0
  6816 ;;		Unchanged: 0/0
  6817 ;; Data sizes:     COMRAM   BANK0   BANK1   BANK2   BANK3   BANK4   BANK5   BANK6   BANK7   BANK8   BANK9  BANK10  BANK1
      +1  BANK12  BANK13  BANK14  BANK15
  6818 ;;      Params:         0       0       0       1       0       0       0       0       0       0       0       0       
      +0       0       0       0       0
  6819 ;;      Locals:         0       0       0       1       0       0       0       0       0       0       0       0       
      +0       0       0       0       0
  6820 ;;      Temps:          0       0       0       2       0       0       0       0       0       0       0       0       
      +0       0       0       0       0
  6821 ;;      Totals:         0       0       0       4       0       0       0       0       0       0       0       0       
      +0       0       0       0       0
  6822 ;;Total ram usage:        4 bytes
  6823 ;; Hardware stack levels used: 1
  6824 ;; Hardware stack levels required when called: 3
  6825 ;; This function calls:
  6826 ;;		Nothing
  6827 ;; This function is called by:
  6828 ;;		_tarefaControlePWM
  6829 ;; This function uses a non-reentrant model
  6830 ;;
  6831                           
  6832                           	psect	text28
  6833   002852                     __ptext28:
  6834                           	callstack 0
  6835   002852                     _mutex_unlock:
  6836                           	callstack 22
  6837   002852                     
  6838                           ;sync.c: 83:     INTCONbits.GIE = 0;;
  6839   002852  9EF2               	bcf	242,7,c	;volatile
  6840   002854                     
  6841                           ;sync.c: 84:     if(m->locked && m->owner_id == r_queue.TASKS[r_queue.pos_task_running].
      +                          task_id)
  6842   002854  0102               	movlb	2	; () banked
  6843   002856  513B               	movf	mutex_unlock@m& (0+255),w,b
  6844   002858  6ED9               	movwf	fsr2l,c
  6845   00285A  6ADA               	clrf	fsr2h,c
  6846   00285C  50DF               	movf	indf2,w,c
  6847   00285E  B4D8               	btfsc	status,2,c
  6848   002860  EF34  F014         	goto	i1u447_21
  6849   002864  EF36  F014         	goto	i1u447_20
  6850   002868                     i1u447_21:
  6851   002868  EFB1  F014         	goto	i1l5043
  6852   00286C                     i1u447_20:
  6853   00286C                     
  6854                           ; BSR set to: 2
  6855   00286C  0101               	movlb	1	; () banked
  6856   00286E  51D3               	movf	(_r_queue+211)& (0+255),w,b
  6857   002870  0D23               	mullw	35
  6858   002872  0E00               	movlw	low _r_queue
  6859   002874  24F3               	addwf	243,w,c
  6860   002876  6ED9               	movwf	fsr2l,c
  6861   002878  0E01               	movlw	high _r_queue
  6862   00287A  20F4               	addwfc	prodh,w,c
  6863   00287C  6EDA               	movwf	fsr2h,c
  6864   00287E  0102               	movlb	2	; () banked
  6865   002880  513B               	movf	mutex_unlock@m& (0+255),w,b
  6866   002882  6EE1               	movwf	fsr1l,c
  6867   002884  6AE2               	clrf	fsr1h,c
  6868   002886  0E01               	movlw	1
  6869   002888  26E1               	addwf	fsr1l,f,c
  6870   00288A  50DE               	movf	postinc2,w,c
  6871   00288C  18E6               	xorwf	postinc1,w,c
  6872   00288E  A4D8               	btfss	status,2,c
  6873   002890  EF4C  F014         	goto	i1u448_21
  6874   002894  EF4E  F014         	goto	i1u448_20
  6875   002898                     i1u448_21:
  6876   002898  EFB1  F014         	goto	i1l5043
  6877   00289C                     i1u448_20:
  6878   00289C                     
  6879                           ; BSR set to: 2
  6880                           ;sync.c: 85:     {;sync.c: 86:         if(m->waiting_count>0){
  6881   00289C  513B               	movf	mutex_unlock@m& (0+255),w,b
  6882   00289E  6ED9               	movwf	fsr2l,c
  6883   0028A0  6ADA               	clrf	fsr2h,c
  6884   0028A2  0E09               	movlw	9
  6885   0028A4  26D9               	addwf	fsr2l,f,c
  6886   0028A6  50DF               	movf	indf2,w,c
  6887   0028A8  B4D8               	btfsc	status,2,c
  6888   0028AA  EF59  F014         	goto	i1u449_21
  6889   0028AE  EF5B  F014         	goto	i1u449_20
  6890   0028B2                     i1u449_21:
  6891   0028B2  EFAD  F014         	goto	i1l5041
  6892   0028B6                     i1u449_20:
  6893   0028B6                     
  6894                           ; BSR set to: 2
  6895                           ;sync.c: 87:             uint8_t task_idx =m->fila[m->pos_output];
  6896   0028B6  513B               	movf	mutex_unlock@m& (0+255),w,b
  6897   0028B8  6ED9               	movwf	fsr2l,c
  6898   0028BA  6ADA               	clrf	fsr2h,c
  6899   0028BC  0E08               	movlw	8
  6900   0028BE  26D9               	addwf	fsr2l,f,c
  6901   0028C0  50DF               	movf	indf2,w,c
  6902   0028C2  6F3C               	movwf	??_mutex_unlock& (0+255),b
  6903   0028C4  513B               	movf	mutex_unlock@m& (0+255),w,b
  6904   0028C6  253C               	addwf	??_mutex_unlock& (0+255),w,b
  6905   0028C8  6ED9               	movwf	fsr2l,c
  6906   0028CA  6ADA               	clrf	fsr2h,c
  6907   0028CC  0E02               	movlw	2
  6908   0028CE  26D9               	addwf	fsr2l,f,c
  6909   0028D0  50DF               	movf	indf2,w,c
  6910   0028D2  6F3E               	movwf	mutex_unlock@task_idx& (0+255),b
  6911   0028D4                     
  6912                           ; BSR set to: 2
  6913                           ;sync.c: 88:             ((r_queue.TASKS[task_idx]).state_prio = (uint8_t)(((r_queue.TAS
      +                          KS[task_idx]).state_prio & 0xFC) | (uint8_t)(READY)));
  6914   0028D4  513E               	movf	mutex_unlock@task_idx& (0+255),w,b
  6915   0028D6  0D23               	mullw	35
  6916   0028D8  0E04               	movlw	low (_r_queue+4)
  6917   0028DA  24F3               	addwf	243,w,c
  6918   0028DC  6ED9               	movwf	fsr2l,c
  6919   0028DE  0E01               	movlw	high (_r_queue+4)
  6920   0028E0  20F4               	addwfc	prodh,w,c
  6921   0028E2  6EDA               	movwf	fsr2h,c
  6922   0028E4  513E               	movf	mutex_unlock@task_idx& (0+255),w,b
  6923   0028E6  0D23               	mullw	35
  6924   0028E8  0E04               	movlw	low (_r_queue+4)
  6925   0028EA  24F3               	addwf	243,w,c
  6926   0028EC  6EE1               	movwf	fsr1l,c
  6927   0028EE  0E01               	movlw	high (_r_queue+4)
  6928   0028F0  20F4               	addwfc	prodh,w,c
  6929   0028F2  6EE2               	movwf	fsr1h,c
  6930   0028F4  50E7               	movf	indf1,w,c
  6931   0028F6  0BFC               	andlw	252
  6932   0028F8  6EDF               	movwf	indf2,c
  6933   0028FA                     
  6934                           ; BSR set to: 2
  6935                           ;sync.c: 91:             m->pos_input++;
  6936   0028FA  513B               	movf	mutex_unlock@m& (0+255),w,b
  6937   0028FC  6ED9               	movwf	fsr2l,c
  6938   0028FE  6ADA               	clrf	fsr2h,c
  6939   002900  0E07               	movlw	7
  6940   002902  26D9               	addwf	fsr2l,f,c
  6941   002904  2ADF               	incf	indf2,f,c
  6942   002906                     
  6943                           ; BSR set to: 2
  6944                           ;sync.c: 92:             if (m->pos_input >= 5)
  6945   002906  513B               	movf	mutex_unlock@m& (0+255),w,b
  6946   002908  6ED9               	movwf	fsr2l,c
  6947   00290A  6ADA               	clrf	fsr2h,c
  6948   00290C  0E07               	movlw	7
  6949   00290E  26D9               	addwf	fsr2l,f,c
  6950   002910  0E04               	movlw	4
  6951   002912  64DF               	cpfsgt	indf2,c
  6952   002914  EF8E  F014         	goto	i1u450_21
  6953   002918  EF90  F014         	goto	i1u450_20
  6954   00291C                     i1u450_21:
  6955   00291C  EF96  F014         	goto	i1l177
  6956   002920                     i1u450_20:
  6957   002920                     
  6958                           ; BSR set to: 2
  6959                           ;sync.c: 93:                 m->pos_input = 0;
  6960   002920  513B               	movf	mutex_unlock@m& (0+255),w,b
  6961   002922  6ED9               	movwf	fsr2l,c
  6962   002924  6ADA               	clrf	fsr2h,c
  6963   002926  0E07               	movlw	7
  6964   002928  26D9               	addwf	fsr2l,f,c
  6965   00292A  6ADF               	clrf	indf2,c
  6966   00292C                     i1l177:
  6967                           
  6968                           ; BSR set to: 2
  6969                           ;sync.c: 95:             m->waiting_count--;
  6970   00292C  513B               	movf	mutex_unlock@m& (0+255),w,b
  6971   00292E  6ED9               	movwf	fsr2l,c
  6972   002930  6ADA               	clrf	fsr2h,c
  6973   002932  0E09               	movlw	9
  6974   002934  26D9               	addwf	fsr2l,f,c
  6975   002936  06DF               	decf	indf2,f,c
  6976   002938                     
  6977                           ; BSR set to: 2
  6978                           ;sync.c: 96:             m->owner_id = r_queue.TASKS[task_idx].task_id;
  6979   002938  513E               	movf	mutex_unlock@task_idx& (0+255),w,b
  6980   00293A  0D23               	mullw	35
  6981   00293C  0E00               	movlw	low _r_queue
  6982   00293E  24F3               	addwf	243,w,c
  6983   002940  6ED9               	movwf	fsr2l,c
  6984   002942  0E01               	movlw	high _r_queue
  6985   002944  20F4               	addwfc	prodh,w,c
  6986   002946  6EDA               	movwf	fsr2h,c
  6987   002948  513B               	movf	mutex_unlock@m& (0+255),w,b
  6988   00294A  6EE1               	movwf	fsr1l,c
  6989   00294C  6AE2               	clrf	fsr1h,c
  6990   00294E  0E01               	movlw	1
  6991   002950  26E1               	addwf	fsr1l,f,c
  6992   002952  CFDF FFE7          	movff	indf2,indf1
  6993                           
  6994                           ;sync.c: 97:         }
  6995   002956  EFB1  F014         	goto	i1l5043
  6996   00295A                     i1l5041:
  6997                           
  6998                           ; BSR set to: 2
  6999                           ;sync.c: 99:             m->locked=0;
  7000   00295A  513B               	movf	mutex_unlock@m& (0+255),w,b
  7001   00295C  6ED9               	movwf	fsr2l,c
  7002   00295E  6ADA               	clrf	fsr2h,c
  7003   002960  6ADF               	clrf	indf2,c
  7004   002962                     i1l5043:
  7005                           
  7006                           ; BSR set to: 2
  7007                           ;sync.c: 103:     INTCONbits.GIE = 1;;
  7008   002962  8EF2               	bsf	242,7,c	;volatile
  7009   002964                     
  7010                           ; BSR set to: 2
  7011   002964  0012               	return		;funcret
  7012   002966                     __end_of_mutex_unlock:
  7013                           	callstack 0
  7014                           
  7015 ;; *************** function _mutex_lock *****************
  7016 ;; Defined at:
  7017 ;;		line 56 in file "sync.c"
  7018 ;; Parameters:    Size  Location     Type
  7019 ;;  m               1   60[BANK2 ] PTR struct mutex
  7020 ;;		 -> mutex_recurso(10), 
  7021 ;; Auto vars:     Size  Location     Type
  7022 ;;		None
  7023 ;; Return value:  Size  Location     Type
  7024 ;;                  1    wreg      void 
  7025 ;; Registers used:
  7026 ;;		wreg, fsr1l, fsr1h, fsr2l, fsr2h, status,2, status,0, prodl, prodh, cstack
  7027 ;; Tracked objects:
  7028 ;;		On entry : 0/0
  7029 ;;		On exit  : 0/0
  7030 ;;		Unchanged: 0/0
  7031 ;; Data sizes:     COMRAM   BANK0   BANK1   BANK2   BANK3   BANK4   BANK5   BANK6   BANK7   BANK8   BANK9  BANK10  BANK1
      +1  BANK12  BANK13  BANK14  BANK15
  7032 ;;      Params:         0       0       0       1       0       0       0       0       0       0       0       0       
      +0       0       0       0       0
  7033 ;;      Locals:         0       0       0       0       0       0       0       0       0       0       0       0       
      +0       0       0       0       0
  7034 ;;      Temps:          0       0       0       5       0       0       0       0       0       0       0       0       
      +0       0       0       0       0
  7035 ;;      Totals:         0       0       0       6       0       0       0       0       0       0       0       0       
      +0       0       0       0       0
  7036 ;;Total ram usage:        6 bytes
  7037 ;; Hardware stack levels used: 1
  7038 ;; Hardware stack levels required when called: 5
  7039 ;; This function calls:
  7040 ;;		i1_scheduler
  7041 ;; This function is called by:
  7042 ;;		_tarefaControlePWM
  7043 ;; This function uses a non-reentrant model
  7044 ;;
  7045                           
  7046                           	psect	text29
  7047   001002                     __ptext29:
  7048                           	callstack 0
  7049   001002                     _mutex_lock:
  7050                           	callstack 20
  7051   001002                     
  7052                           ;sync.c: 57:     INTCONbits.GIE = 0;;
  7053   001002  9EF2               	bcf	242,7,c	;volatile
  7054   001004                     
  7055                           ;sync.c: 59:     if (m->locked) {
  7056   001004  0102               	movlb	2	; () banked
  7057   001006  513C               	movf	mutex_lock@m& (0+255),w,b
  7058   001008  6ED9               	movwf	fsr2l,c
  7059   00100A  6ADA               	clrf	fsr2h,c
  7060   00100C  50DF               	movf	indf2,w,c
  7061   00100E  B4D8               	btfsc	status,2,c
  7062   001010  EF0C  F008         	goto	i1u441_21
  7063   001014  EF0E  F008         	goto	i1u441_20
  7064   001018                     i1u441_21:
  7065   001018  EF1C  F00A         	goto	i1l5015
  7066   00101C                     i1u441_20:
  7067   00101C                     
  7068                           ; BSR set to: 2
  7069                           ;sync.c: 60:         m->fila[m->pos_input] = r_queue.pos_task_running;
  7070   00101C  513C               	movf	mutex_lock@m& (0+255),w,b
  7071   00101E  6ED9               	movwf	fsr2l,c
  7072   001020  6ADA               	clrf	fsr2h,c
  7073   001022  0E07               	movlw	7
  7074   001024  26D9               	addwf	fsr2l,f,c
  7075   001026  50DF               	movf	indf2,w,c
  7076   001028  6F3D               	movwf	??_mutex_lock& (0+255),b
  7077   00102A  513C               	movf	mutex_lock@m& (0+255),w,b
  7078   00102C  253D               	addwf	??_mutex_lock& (0+255),w,b
  7079   00102E  6ED9               	movwf	fsr2l,c
  7080   001030  6ADA               	clrf	fsr2h,c
  7081   001032  0E02               	movlw	2
  7082   001034  26D9               	addwf	fsr2l,f,c
  7083   001036  C1D3  FFDF         	movff	_r_queue+211,indf2
  7084                           
  7085                           ;sync.c: 63:         m->pos_input++;
  7086   00103A  513C               	movf	mutex_lock@m& (0+255),w,b
  7087   00103C  6ED9               	movwf	fsr2l,c
  7088   00103E  6ADA               	clrf	fsr2h,c
  7089   001040  0E07               	movlw	7
  7090   001042  26D9               	addwf	fsr2l,f,c
  7091   001044  2ADF               	incf	indf2,f,c
  7092                           
  7093                           ;sync.c: 64:         if (m->pos_input >= 5)
  7094   001046  513C               	movf	mutex_lock@m& (0+255),w,b
  7095   001048  6ED9               	movwf	fsr2l,c
  7096   00104A  6ADA               	clrf	fsr2h,c
  7097   00104C  0E07               	movlw	7
  7098   00104E  26D9               	addwf	fsr2l,f,c
  7099   001050  0E04               	movlw	4
  7100   001052  64DF               	cpfsgt	indf2,c
  7101   001054  EF2E  F008         	goto	i1u442_21
  7102   001058  EF30  F008         	goto	i1u442_20
  7103   00105C                     i1u442_21:
  7104   00105C  EF36  F008         	goto	i1l162
  7105   001060                     i1u442_20:
  7106   001060                     
  7107                           ; BSR set to: 2
  7108                           ;sync.c: 65:             m->pos_input = 0;
  7109   001060  513C               	movf	mutex_lock@m& (0+255),w,b
  7110   001062  6ED9               	movwf	fsr2l,c
  7111   001064  6ADA               	clrf	fsr2h,c
  7112   001066  0E07               	movlw	7
  7113   001068  26D9               	addwf	fsr2l,f,c
  7114   00106A  6ADF               	clrf	indf2,c
  7115   00106C                     i1l162:
  7116                           
  7117                           ; BSR set to: 2
  7118                           ;sync.c: 67:         m->waiting_count++;
  7119   00106C  513C               	movf	mutex_lock@m& (0+255),w,b
  7120   00106E  6ED9               	movwf	fsr2l,c
  7121   001070  6ADA               	clrf	fsr2h,c
  7122   001072  0E09               	movlw	9
  7123   001074  26D9               	addwf	fsr2l,f,c
  7124   001076  2ADF               	incf	indf2,f,c
  7125   001078                     
  7126                           ; BSR set to: 2
  7127                           ;sync.c: 69:         { if (((r_queue.TASKS[r_queue.pos_task_running]).state_prio & 0x03)
      +                           == RUNNING) { ((r_queue.TASKS[r_queue.pos_task_running]).state_prio = (uint8_t)(((r_que
      +                          ue.TASKS[r_queue.pos_task_running]).state_prio & 0xFC) | (uint8_t)(WAITING))); r_queue.T
      +                          ASKS[r_queue.pos_task_running].BSR_REG = BSR; r_queue.TASKS[r_queue.pos_task_running].W_
      +                          REG = WREG; r_queue.TASKS[r_queue.pos_task_running].STATUS_REG = STATUS; r_queue.TASKS[r
      +                          _queue.pos_task_running].FSR0H_REG = FSR0H; r_queue.TASKS[r_queue.pos_task_running].FSR0
      +                          L_REG = FSR0L; r_queue.TASKS[r_queue.pos_task_running].task_stack.stack_size = 0; while 
      +                          (STKPTR > 0) { r_queue.TASKS[r_queue.pos_task_running].task_stack.stack[r_queue.TASKS[r_
      +                          queue.pos_task_running].task_stack.stack_size].TOSL_REG = TOSL; r_queue.TASKS[r_queue.po
      +                          s_task_running].task_stack.stack[r_queue.TASKS[r_queue.pos_task_running].task_stack.stac
      +                          k_size].TOSH_REG = TOSH; r_queue.TASKS[r_queue.pos_task_running].task_stack.stack[r_queu
      +                          e.TASKS[r_queue.pos_task_running].task_stack.stack_size].TOSU_REG = TOSU; r_queue.TASKS[
      +                          r_queue.pos_task_running].task_stack.stack_size++; __asm("POP"); } } };
  7128   001078  0101               	movlb	1	; () banked
  7129   00107A  51D3               	movf	(_r_queue+211)& (0+255),w,b
  7130   00107C  0D23               	mullw	35
  7131   00107E  0E04               	movlw	low (_r_queue+4)
  7132   001080  24F3               	addwf	243,w,c
  7133   001082  6ED9               	movwf	fsr2l,c
  7134   001084  0E01               	movlw	high (_r_queue+4)
  7135   001086  20F4               	addwfc	prodh,w,c
  7136   001088  6EDA               	movwf	fsr2h,c
  7137   00108A  50DF               	movf	indf2,w,c
  7138   00108C  0B03               	andlw	3
  7139   00108E  0A02               	xorlw	2
  7140   001090  A4D8               	btfss	status,2,c
  7141   001092  EF4D  F008         	goto	i1u443_21
  7142   001096  EF4F  F008         	goto	i1u443_20
  7143   00109A                     i1u443_21:
  7144   00109A  EF1F  F009         	goto	i1l4995
  7145   00109E                     i1u443_20:
  7146   00109E                     
  7147                           ; BSR set to: 1
  7148   00109E  51D3               	movf	(_r_queue+211)& (0+255),w,b
  7149   0010A0  0D23               	mullw	35
  7150   0010A2  0E04               	movlw	low (_r_queue+4)
  7151   0010A4  24F3               	addwf	243,w,c
  7152   0010A6  6ED9               	movwf	fsr2l,c
  7153   0010A8  0E01               	movlw	high (_r_queue+4)
  7154   0010AA  20F4               	addwfc	prodh,w,c
  7155   0010AC  6EDA               	movwf	fsr2h,c
  7156   0010AE  51D3               	movf	(_r_queue+211)& (0+255),w,b
  7157   0010B0  0D23               	mullw	35
  7158   0010B2  0E04               	movlw	low (_r_queue+4)
  7159   0010B4  24F3               	addwf	243,w,c
  7160   0010B6  6EE1               	movwf	fsr1l,c
  7161   0010B8  0E01               	movlw	high (_r_queue+4)
  7162   0010BA  20F4               	addwfc	prodh,w,c
  7163   0010BC  6EE2               	movwf	fsr1h,c
  7164   0010BE  50E7               	movf	indf1,w,c
  7165   0010C0  0BFC               	andlw	252
  7166   0010C2  0901               	iorlw	1
  7167   0010C4  6EDF               	movwf	indf2,c
  7168   0010C6                     
  7169                           ; BSR set to: 1
  7170   0010C6  51D3               	movf	(_r_queue+211)& (0+255),w,b
  7171   0010C8  0D23               	mullw	35
  7172   0010CA  0E07               	movlw	low (_r_queue+7)
  7173   0010CC  24F3               	addwf	243,w,c
  7174   0010CE  6ED9               	movwf	fsr2l,c
  7175   0010D0  0E01               	movlw	high (_r_queue+7)
  7176   0010D2  20F4               	addwfc	prodh,w,c
  7177   0010D4  6EDA               	movwf	fsr2h,c
  7178   0010D6  CFE0 FFDF          	movff	bsr,indf2	;volatile
  7179   0010DA                     
  7180                           ; BSR set to: 1
  7181   0010DA  51D3               	movf	(_r_queue+211)& (0+255),w,b
  7182   0010DC  0D23               	mullw	35
  7183   0010DE  0E05               	movlw	low (_r_queue+5)
  7184   0010E0  24F3               	addwf	243,w,c
  7185   0010E2  6ED9               	movwf	fsr2l,c
  7186   0010E4  0E01               	movlw	high (_r_queue+5)
  7187   0010E6  20F4               	addwfc	prodh,w,c
  7188   0010E8  6EDA               	movwf	fsr2h,c
  7189   0010EA  CFE8 FFDF          	movff	wreg,indf2	;volatile
  7190   0010EE                     
  7191                           ; BSR set to: 1
  7192   0010EE  51D3               	movf	(_r_queue+211)& (0+255),w,b
  7193   0010F0  0D23               	mullw	35
  7194   0010F2  0E06               	movlw	low (_r_queue+6)
  7195   0010F4  24F3               	addwf	243,w,c
  7196   0010F6  6ED9               	movwf	fsr2l,c
  7197   0010F8  0E01               	movlw	high (_r_queue+6)
  7198   0010FA  20F4               	addwfc	prodh,w,c
  7199   0010FC  6EDA               	movwf	fsr2h,c
  7200   0010FE  CFD8 FFDF          	movff	status,indf2	;volatile
  7201   001102                     
  7202                           ; BSR set to: 1
  7203   001102  51D3               	movf	(_r_queue+211)& (0+255),w,b
  7204   001104  0D23               	mullw	35
  7205   001106  0E09               	movlw	low (_r_queue+9)
  7206   001108  24F3               	addwf	243,w,c
  7207   00110A  6ED9               	movwf	fsr2l,c
  7208   00110C  0E01               	movlw	high (_r_queue+9)
  7209   00110E  20F4               	addwfc	prodh,w,c
  7210   001110  6EDA               	movwf	fsr2h,c
  7211   001112  CFEA FFDF          	movff	fsr0h,indf2	;volatile
  7212   001116                     
  7213                           ; BSR set to: 1
  7214   001116  51D3               	movf	(_r_queue+211)& (0+255),w,b
  7215   001118  0D23               	mullw	35
  7216   00111A  0E08               	movlw	low (_r_queue+8)
  7217   00111C  24F3               	addwf	243,w,c
  7218   00111E  6ED9               	movwf	fsr2l,c
  7219   001120  0E01               	movlw	high (_r_queue+8)
  7220   001122  20F4               	addwfc	prodh,w,c
  7221   001124  6EDA               	movwf	fsr2h,c
  7222   001126  CFE9 FFDF          	movff	fsr0l,indf2	;volatile
  7223   00112A                     
  7224                           ; BSR set to: 1
  7225   00112A  51D3               	movf	(_r_queue+211)& (0+255),w,b
  7226   00112C  0D23               	mullw	35
  7227   00112E  0E22               	movlw	low (_r_queue+34)
  7228   001130  24F3               	addwf	243,w,c
  7229   001132  6ED9               	movwf	fsr2l,c
  7230   001134  0E01               	movlw	high (_r_queue+34)
  7231   001136  20F4               	addwfc	prodh,w,c
  7232   001138  6EDA               	movwf	fsr2h,c
  7233   00113A  6ADF               	clrf	indf2,c
  7234   00113C  EF17  F009         	goto	i1l4993
  7235   001140                     i1l4991:
  7236   001140  0101               	movlb	1	; () banked
  7237   001142  51D3               	movf	(_r_queue+211)& (0+255),w,b
  7238   001144  0D23               	mullw	35
  7239   001146  0E22               	movlw	low (_r_queue+34)
  7240   001148  24F3               	addwf	243,w,c
  7241   00114A  6ED9               	movwf	fsr2l,c
  7242   00114C  0E01               	movlw	high (_r_queue+34)
  7243   00114E  20F4               	addwfc	prodh,w,c
  7244   001150  6EDA               	movwf	fsr2h,c
  7245   001152  50DF               	movf	indf2,w,c
  7246   001154  0102               	movlb	2	; () banked
  7247   001156  6F3D               	movwf	??_mutex_lock& (0+255),b
  7248   001158  513D               	movf	??_mutex_lock& (0+255),w,b
  7249   00115A  0D03               	mullw	3
  7250   00115C  CFF3 F23E          	movff	prodl,??_mutex_lock+1
  7251   001160  CFF4 F23F          	movff	prodh,??_mutex_lock+2
  7252   001164  0101               	movlb	1	; () banked
  7253   001166  51D3               	movf	(_r_queue+211)& (0+255),w,b
  7254   001168  0D23               	mullw	35
  7255   00116A  0E0A               	movlw	low (_r_queue+10)
  7256   00116C  24F3               	addwf	243,w,c
  7257   00116E  0102               	movlb	2	; () banked
  7258   001170  6F40               	movwf	(??_mutex_lock+3)& (0+255),b
  7259   001172  0E01               	movlw	high (_r_queue+10)
  7260   001174  20F4               	addwfc	prodh,w,c
  7261   001176  6F41               	movwf	(??_mutex_lock+4)& (0+255),b
  7262   001178  513E               	movf	(??_mutex_lock+1)& (0+255),w,b
  7263   00117A  2540               	addwf	(??_mutex_lock+3)& (0+255),w,b
  7264   00117C  6ED9               	movwf	fsr2l,c
  7265   00117E  513F               	movf	(??_mutex_lock+2)& (0+255),w,b
  7266   001180  2141               	addwfc	(??_mutex_lock+4)& (0+255),w,b
  7267   001182  6EDA               	movwf	fsr2h,c
  7268   001184  CFFD FFDF          	movff	tosl,indf2	;volatile
  7269   001188  0101               	movlb	1	; () banked
  7270   00118A  51D3               	movf	(_r_queue+211)& (0+255),w,b
  7271   00118C  0D23               	mullw	35
  7272   00118E  0E22               	movlw	low (_r_queue+34)
  7273   001190  24F3               	addwf	243,w,c
  7274   001192  6ED9               	movwf	fsr2l,c
  7275   001194  0E01               	movlw	high (_r_queue+34)
  7276   001196  20F4               	addwfc	prodh,w,c
  7277   001198  6EDA               	movwf	fsr2h,c
  7278   00119A  50DF               	movf	indf2,w,c
  7279   00119C  0102               	movlb	2	; () banked
  7280   00119E  6F3D               	movwf	??_mutex_lock& (0+255),b
  7281   0011A0  513D               	movf	??_mutex_lock& (0+255),w,b
  7282   0011A2  0D03               	mullw	3
  7283   0011A4  CFF3 F23E          	movff	prodl,??_mutex_lock+1
  7284   0011A8  CFF4 F23F          	movff	prodh,??_mutex_lock+2
  7285   0011AC  0101               	movlb	1	; () banked
  7286   0011AE  51D3               	movf	(_r_queue+211)& (0+255),w,b
  7287   0011B0  0D23               	mullw	35
  7288   0011B2  0E0B               	movlw	low (_r_queue+11)
  7289   0011B4  24F3               	addwf	243,w,c
  7290   0011B6  0102               	movlb	2	; () banked
  7291   0011B8  6F40               	movwf	(??_mutex_lock+3)& (0+255),b
  7292   0011BA  0E01               	movlw	high (_r_queue+11)
  7293   0011BC  20F4               	addwfc	prodh,w,c
  7294   0011BE  6F41               	movwf	(??_mutex_lock+4)& (0+255),b
  7295   0011C0  513E               	movf	(??_mutex_lock+1)& (0+255),w,b
  7296   0011C2  2540               	addwf	(??_mutex_lock+3)& (0+255),w,b
  7297   0011C4  6ED9               	movwf	fsr2l,c
  7298   0011C6  513F               	movf	(??_mutex_lock+2)& (0+255),w,b
  7299   0011C8  2141               	addwfc	(??_mutex_lock+4)& (0+255),w,b
  7300   0011CA  6EDA               	movwf	fsr2h,c
  7301   0011CC  CFFE FFDF          	movff	tosh,indf2	;volatile
  7302   0011D0  0101               	movlb	1	; () banked
  7303   0011D2  51D3               	movf	(_r_queue+211)& (0+255),w,b
  7304   0011D4  0D23               	mullw	35
  7305   0011D6  0E22               	movlw	low (_r_queue+34)
  7306   0011D8  24F3               	addwf	243,w,c
  7307   0011DA  6ED9               	movwf	fsr2l,c
  7308   0011DC  0E01               	movlw	high (_r_queue+34)
  7309   0011DE  20F4               	addwfc	prodh,w,c
  7310   0011E0  6EDA               	movwf	fsr2h,c
  7311   0011E2  50DF               	movf	indf2,w,c
  7312   0011E4  0102               	movlb	2	; () banked
  7313   0011E6  6F3D               	movwf	??_mutex_lock& (0+255),b
  7314   0011E8  513D               	movf	??_mutex_lock& (0+255),w,b
  7315   0011EA  0D03               	mullw	3
  7316   0011EC  CFF3 F23E          	movff	prodl,??_mutex_lock+1
  7317   0011F0  CFF4 F23F          	movff	prodh,??_mutex_lock+2
  7318   0011F4  0101               	movlb	1	; () banked
  7319   0011F6  51D3               	movf	(_r_queue+211)& (0+255),w,b
  7320   0011F8  0D23               	mullw	35
  7321   0011FA  0E0C               	movlw	low (_r_queue+12)
  7322   0011FC  24F3               	addwf	243,w,c
  7323   0011FE  0102               	movlb	2	; () banked
  7324   001200  6F40               	movwf	(??_mutex_lock+3)& (0+255),b
  7325   001202  0E01               	movlw	high (_r_queue+12)
  7326   001204  20F4               	addwfc	prodh,w,c
  7327   001206  6F41               	movwf	(??_mutex_lock+4)& (0+255),b
  7328   001208  513E               	movf	(??_mutex_lock+1)& (0+255),w,b
  7329   00120A  2540               	addwf	(??_mutex_lock+3)& (0+255),w,b
  7330   00120C  6ED9               	movwf	fsr2l,c
  7331   00120E  513F               	movf	(??_mutex_lock+2)& (0+255),w,b
  7332   001210  2141               	addwfc	(??_mutex_lock+4)& (0+255),w,b
  7333   001212  6EDA               	movwf	fsr2h,c
  7334   001214  CFFF FFDF          	movff	tosu,indf2	;volatile
  7335   001218  0101               	movlb	1	; () banked
  7336   00121A  51D3               	movf	(_r_queue+211)& (0+255),w,b
  7337   00121C  0D23               	mullw	35
  7338   00121E  0E22               	movlw	low (_r_queue+34)
  7339   001220  24F3               	addwf	243,w,c
  7340   001222  6ED9               	movwf	fsr2l,c
  7341   001224  0E01               	movlw	high (_r_queue+34)
  7342   001226  20F4               	addwfc	prodh,w,c
  7343   001228  6EDA               	movwf	fsr2h,c
  7344   00122A  2ADF               	incf	indf2,f,c
  7345   00122C  0006               	pop		;# 
  7346   00122E                     i1l4993:
  7347   00122E  50FC               	movf	252,w,c	;volatile
  7348   001230  A4D8               	btfss	status,2,c
  7349   001232  EF1D  F009         	goto	i1u444_21
  7350   001236  EF1F  F009         	goto	i1u444_20
  7351   00123A                     i1u444_21:
  7352   00123A  EFA0  F008         	goto	i1l4991
  7353   00123E                     i1u444_20:
  7354   00123E                     i1l4995:
  7355                           
  7356                           ;sync.c: 70:         scheduler();
  7357   00123E  ECBB  F017         	call	i1_scheduler	;wreg free
  7358   001242                     
  7359                           ;sync.c: 71:         { if (((r_queue.TASKS[r_queue.pos_task_running]).state_prio & 0x03)
      +                           == READY) { ((r_queue.TASKS[r_queue.pos_task_running]).state_prio = (uint8_t)(((r_queue
      +                          .TASKS[r_queue.pos_task_running]).state_prio & 0xFC) | (uint8_t)(RUNNING))); BSR = r_que
      +                          ue.TASKS[r_queue.pos_task_running].BSR_REG; WREG = r_queue.TASKS[r_queue.pos_task_runnin
      +                          g].W_REG; STATUS = r_queue.TASKS[r_queue.pos_task_running].STATUS_REG; FSR0H = r_queue.T
      +                          ASKS[r_queue.pos_task_running].FSR0H_REG; FSR0L = r_queue.TASKS[r_queue.pos_task_running
      +                          ].FSR0L_REG; while (r_queue.TASKS[r_queue.pos_task_running].task_stack.stack_size > 0) {
      +                           r_queue.TASKS[r_queue.pos_task_running].task_stack.stack_size--; TOSL = r_queue.TASKS[r
      +                          _queue.pos_task_running].task_stack.stack[r_queue.TASKS[r_queue.pos_task_running].task_s
      +                          tack.stack_size].TOSL_REG; TOSH = r_queue.TASKS[r_queue.pos_task_running].task_stack.sta
      +                          ck[r_queue.TASKS[r_queue.pos_task_running].task_stack.stack_size].TOSH_REG; TOSU = r_que
      +                          ue.TASKS[r_queue.pos_task_running].task_stack.stack[r_queue.TASKS[r_queue.pos_task_runni
      +                          ng].task_stack.stack_size].TOSU_REG; __asm("PUSH"); } __asm("RETURN"); } };
  7360   001242  0101               	movlb	1	; () banked
  7361   001244  51D3               	movf	(_r_queue+211)& (0+255),w,b
  7362   001246  0D23               	mullw	35
  7363   001248  0E04               	movlw	low (_r_queue+4)
  7364   00124A  24F3               	addwf	243,w,c
  7365   00124C  6ED9               	movwf	fsr2l,c
  7366   00124E  0E01               	movlw	high (_r_queue+4)
  7367   001250  20F4               	addwfc	prodh,w,c
  7368   001252  6EDA               	movwf	fsr2h,c
  7369   001254  50DF               	movf	indf2,w,c
  7370   001256  0102               	movlb	2	; () banked
  7371   001258  6F3D               	movwf	??_mutex_lock& (0+255),b
  7372   00125A  0E03               	movlw	3
  7373   00125C  173D               	andwf	??_mutex_lock& (0+255),f,b
  7374   00125E  A4D8               	btfss	status,2,c
  7375   001260  EF34  F009         	goto	i1u445_21
  7376   001264  EF36  F009         	goto	i1u445_20
  7377   001268                     i1u445_21:
  7378   001268  EF09  F00A         	goto	i1l5013
  7379   00126C                     i1u445_20:
  7380   00126C                     
  7381                           ; BSR set to: 2
  7382   00126C  0101               	movlb	1	; () banked
  7383   00126E  51D3               	movf	(_r_queue+211)& (0+255),w,b
  7384   001270  0D23               	mullw	35
  7385   001272  0E04               	movlw	low (_r_queue+4)
  7386   001274  24F3               	addwf	243,w,c
  7387   001276  6ED9               	movwf	fsr2l,c
  7388   001278  0E01               	movlw	high (_r_queue+4)
  7389   00127A  20F4               	addwfc	prodh,w,c
  7390   00127C  6EDA               	movwf	fsr2h,c
  7391   00127E  51D3               	movf	(_r_queue+211)& (0+255),w,b
  7392   001280  0D23               	mullw	35
  7393   001282  0E04               	movlw	low (_r_queue+4)
  7394   001284  24F3               	addwf	243,w,c
  7395   001286  6EE1               	movwf	fsr1l,c
  7396   001288  0E01               	movlw	high (_r_queue+4)
  7397   00128A  20F4               	addwfc	prodh,w,c
  7398   00128C  6EE2               	movwf	fsr1h,c
  7399   00128E  50E7               	movf	indf1,w,c
  7400   001290  0BFC               	andlw	252
  7401   001292  0902               	iorlw	2
  7402   001294  6EDF               	movwf	indf2,c
  7403   001296                     
  7404                           ; BSR set to: 1
  7405   001296  51D3               	movf	(_r_queue+211)& (0+255),w,b
  7406   001298  0D23               	mullw	35
  7407   00129A  0E07               	movlw	low (_r_queue+7)
  7408   00129C  24F3               	addwf	243,w,c
  7409   00129E  6ED9               	movwf	fsr2l,c
  7410   0012A0  0E01               	movlw	high (_r_queue+7)
  7411   0012A2  20F4               	addwfc	prodh,w,c
  7412   0012A4  6EDA               	movwf	fsr2h,c
  7413   0012A6  50DF               	movf	indf2,w,c
  7414   0012A8  6EE0               	movwf	224,c	;volatile
  7415   0012AA                     
  7416                           ; BSR set to: 1
  7417   0012AA  51D3               	movf	(_r_queue+211)& (0+255),w,b
  7418   0012AC  0D23               	mullw	35
  7419   0012AE  0E05               	movlw	low (_r_queue+5)
  7420   0012B0  24F3               	addwf	243,w,c
  7421   0012B2  6ED9               	movwf	fsr2l,c
  7422   0012B4  0E01               	movlw	high (_r_queue+5)
  7423   0012B6  20F4               	addwfc	prodh,w,c
  7424   0012B8  6EDA               	movwf	fsr2h,c
  7425   0012BA  50DF               	movf	indf2,w,c
  7426   0012BC  0102               	movlb	2	; () banked
  7427   0012BE  6F3D               	movwf	??_mutex_lock& (0+255),b
  7428   0012C0  513D               	movf	??_mutex_lock& (0+255),w,b
  7429   0012C2                     
  7430                           ; BSR set to: 2
  7431   0012C2  0101               	movlb	1	; () banked
  7432   0012C4  51D3               	movf	(_r_queue+211)& (0+255),w,b
  7433   0012C6  0D23               	mullw	35
  7434   0012C8  0E06               	movlw	low (_r_queue+6)
  7435   0012CA  24F3               	addwf	243,w,c
  7436   0012CC  6ED9               	movwf	fsr2l,c
  7437   0012CE  0E01               	movlw	high (_r_queue+6)
  7438   0012D0  20F4               	addwfc	prodh,w,c
  7439   0012D2  6EDA               	movwf	fsr2h,c
  7440   0012D4  50DF               	movf	indf2,w,c
  7441   0012D6  6ED8               	movwf	216,c	;volatile
  7442   0012D8                     
  7443                           ; BSR set to: 1
  7444   0012D8  51D3               	movf	(_r_queue+211)& (0+255),w,b
  7445   0012DA  0D23               	mullw	35
  7446   0012DC  0E09               	movlw	low (_r_queue+9)
  7447   0012DE  24F3               	addwf	243,w,c
  7448   0012E0  6ED9               	movwf	fsr2l,c
  7449   0012E2  0E01               	movlw	high (_r_queue+9)
  7450   0012E4  20F4               	addwfc	prodh,w,c
  7451   0012E6  6EDA               	movwf	fsr2h,c
  7452   0012E8  50DF               	movf	indf2,w,c
  7453   0012EA  6EEA               	movwf	234,c	;volatile
  7454   0012EC                     
  7455                           ; BSR set to: 1
  7456   0012EC  51D3               	movf	(_r_queue+211)& (0+255),w,b
  7457   0012EE  0D23               	mullw	35
  7458   0012F0  0E08               	movlw	low (_r_queue+8)
  7459   0012F2  24F3               	addwf	243,w,c
  7460   0012F4  6ED9               	movwf	fsr2l,c
  7461   0012F6  0E01               	movlw	high (_r_queue+8)
  7462   0012F8  20F4               	addwfc	prodh,w,c
  7463   0012FA  6EDA               	movwf	fsr2h,c
  7464   0012FC  50DF               	movf	indf2,w,c
  7465   0012FE  6EE9               	movwf	233,c	;volatile
  7466   001300  EFF7  F009         	goto	i1l168
  7467   001304                     i1l5011:
  7468                           
  7469                           ; BSR set to: 1
  7470   001304  51D3               	movf	(_r_queue+211)& (0+255),w,b
  7471   001306  0D23               	mullw	35
  7472   001308  0E22               	movlw	low (_r_queue+34)
  7473   00130A  24F3               	addwf	243,w,c
  7474   00130C  6ED9               	movwf	fsr2l,c
  7475   00130E  0E01               	movlw	high (_r_queue+34)
  7476   001310  20F4               	addwfc	prodh,w,c
  7477   001312  6EDA               	movwf	fsr2h,c
  7478   001314  06DF               	decf	indf2,f,c
  7479   001316  51D3               	movf	(_r_queue+211)& (0+255),w,b
  7480   001318  0D23               	mullw	35
  7481   00131A  0E22               	movlw	low (_r_queue+34)
  7482   00131C  24F3               	addwf	243,w,c
  7483   00131E  6ED9               	movwf	fsr2l,c
  7484   001320  0E01               	movlw	high (_r_queue+34)
  7485   001322  20F4               	addwfc	prodh,w,c
  7486   001324  6EDA               	movwf	fsr2h,c
  7487   001326  50DF               	movf	indf2,w,c
  7488   001328  0102               	movlb	2	; () banked
  7489   00132A  6F3D               	movwf	??_mutex_lock& (0+255),b
  7490   00132C  513D               	movf	??_mutex_lock& (0+255),w,b
  7491   00132E  0D03               	mullw	3
  7492   001330  CFF3 F23E          	movff	prodl,??_mutex_lock+1
  7493   001334  CFF4 F23F          	movff	prodh,??_mutex_lock+2
  7494   001338  0101               	movlb	1	; () banked
  7495   00133A  51D3               	movf	(_r_queue+211)& (0+255),w,b
  7496   00133C  0D23               	mullw	35
  7497   00133E  0E0A               	movlw	low (_r_queue+10)
  7498   001340  24F3               	addwf	243,w,c
  7499   001342  0102               	movlb	2	; () banked
  7500   001344  6F40               	movwf	(??_mutex_lock+3)& (0+255),b
  7501   001346  0E01               	movlw	high (_r_queue+10)
  7502   001348  20F4               	addwfc	prodh,w,c
  7503   00134A  6F41               	movwf	(??_mutex_lock+4)& (0+255),b
  7504   00134C  513E               	movf	(??_mutex_lock+1)& (0+255),w,b
  7505   00134E  2540               	addwf	(??_mutex_lock+3)& (0+255),w,b
  7506   001350  6ED9               	movwf	fsr2l,c
  7507   001352  513F               	movf	(??_mutex_lock+2)& (0+255),w,b
  7508   001354  2141               	addwfc	(??_mutex_lock+4)& (0+255),w,b
  7509   001356  6EDA               	movwf	fsr2h,c
  7510   001358  50DF               	movf	indf2,w,c
  7511   00135A  6EFD               	movwf	253,c	;volatile
  7512   00135C  0101               	movlb	1	; () banked
  7513   00135E  51D3               	movf	(_r_queue+211)& (0+255),w,b
  7514   001360  0D23               	mullw	35
  7515   001362  0E22               	movlw	low (_r_queue+34)
  7516   001364  24F3               	addwf	243,w,c
  7517   001366  6ED9               	movwf	fsr2l,c
  7518   001368  0E01               	movlw	high (_r_queue+34)
  7519   00136A  20F4               	addwfc	prodh,w,c
  7520   00136C  6EDA               	movwf	fsr2h,c
  7521   00136E  50DF               	movf	indf2,w,c
  7522   001370  0102               	movlb	2	; () banked
  7523   001372  6F3D               	movwf	??_mutex_lock& (0+255),b
  7524   001374  513D               	movf	??_mutex_lock& (0+255),w,b
  7525   001376  0D03               	mullw	3
  7526   001378  CFF3 F23E          	movff	prodl,??_mutex_lock+1
  7527   00137C  CFF4 F23F          	movff	prodh,??_mutex_lock+2
  7528   001380  0101               	movlb	1	; () banked
  7529   001382  51D3               	movf	(_r_queue+211)& (0+255),w,b
  7530   001384  0D23               	mullw	35
  7531   001386  0E0B               	movlw	low (_r_queue+11)
  7532   001388  24F3               	addwf	243,w,c
  7533   00138A  0102               	movlb	2	; () banked
  7534   00138C  6F40               	movwf	(??_mutex_lock+3)& (0+255),b
  7535   00138E  0E01               	movlw	high (_r_queue+11)
  7536   001390  20F4               	addwfc	prodh,w,c
  7537   001392  6F41               	movwf	(??_mutex_lock+4)& (0+255),b
  7538   001394  513E               	movf	(??_mutex_lock+1)& (0+255),w,b
  7539   001396  2540               	addwf	(??_mutex_lock+3)& (0+255),w,b
  7540   001398  6ED9               	movwf	fsr2l,c
  7541   00139A  513F               	movf	(??_mutex_lock+2)& (0+255),w,b
  7542   00139C  2141               	addwfc	(??_mutex_lock+4)& (0+255),w,b
  7543   00139E  6EDA               	movwf	fsr2h,c
  7544   0013A0  50DF               	movf	indf2,w,c
  7545   0013A2  6EFE               	movwf	254,c	;volatile
  7546   0013A4  0101               	movlb	1	; () banked
  7547   0013A6  51D3               	movf	(_r_queue+211)& (0+255),w,b
  7548   0013A8  0D23               	mullw	35
  7549   0013AA  0E22               	movlw	low (_r_queue+34)
  7550   0013AC  24F3               	addwf	243,w,c
  7551   0013AE  6ED9               	movwf	fsr2l,c
  7552   0013B0  0E01               	movlw	high (_r_queue+34)
  7553   0013B2  20F4               	addwfc	prodh,w,c
  7554   0013B4  6EDA               	movwf	fsr2h,c
  7555   0013B6  50DF               	movf	indf2,w,c
  7556   0013B8  0102               	movlb	2	; () banked
  7557   0013BA  6F3D               	movwf	??_mutex_lock& (0+255),b
  7558   0013BC  513D               	movf	??_mutex_lock& (0+255),w,b
  7559   0013BE  0D03               	mullw	3
  7560   0013C0  CFF3 F23E          	movff	prodl,??_mutex_lock+1
  7561   0013C4  CFF4 F23F          	movff	prodh,??_mutex_lock+2
  7562   0013C8  0101               	movlb	1	; () banked
  7563   0013CA  51D3               	movf	(_r_queue+211)& (0+255),w,b
  7564   0013CC  0D23               	mullw	35
  7565   0013CE  0E0C               	movlw	low (_r_queue+12)
  7566   0013D0  24F3               	addwf	243,w,c
  7567   0013D2  0102               	movlb	2	; () banked
  7568   0013D4  6F40               	movwf	(??_mutex_lock+3)& (0+255),b
  7569   0013D6  0E01               	movlw	high (_r_queue+12)
  7570   0013D8  20F4               	addwfc	prodh,w,c
  7571   0013DA  6F41               	movwf	(??_mutex_lock+4)& (0+255),b
  7572   0013DC  513E               	movf	(??_mutex_lock+1)& (0+255),w,b
  7573   0013DE  2540               	addwf	(??_mutex_lock+3)& (0+255),w,b
  7574   0013E0  6ED9               	movwf	fsr2l,c
  7575   0013E2  513F               	movf	(??_mutex_lock+2)& (0+255),w,b
  7576   0013E4  2141               	addwfc	(??_mutex_lock+4)& (0+255),w,b
  7577   0013E6  6EDA               	movwf	fsr2h,c
  7578   0013E8  50DF               	movf	indf2,w,c
  7579   0013EA  6EFF               	movwf	255,c	;volatile
  7580   0013EC  0005               	push		;# 
  7581   0013EE                     i1l168:
  7582   0013EE  0101               	movlb	1	; () banked
  7583   0013F0  51D3               	movf	(_r_queue+211)& (0+255),w,b
  7584   0013F2  0D23               	mullw	35
  7585   0013F4  0E22               	movlw	low (_r_queue+34)
  7586   0013F6  24F3               	addwf	243,w,c
  7587   0013F8  6ED9               	movwf	fsr2l,c
  7588   0013FA  0E01               	movlw	high (_r_queue+34)
  7589   0013FC  20F4               	addwfc	prodh,w,c
  7590   0013FE  6EDA               	movwf	fsr2h,c
  7591   001400  50DF               	movf	indf2,w,c
  7592   001402  A4D8               	btfss	status,2,c
  7593   001404  EF06  F00A         	goto	i1u446_21
  7594   001408  EF08  F00A         	goto	i1u446_20
  7595   00140C                     i1u446_21:
  7596   00140C  EF82  F009         	goto	i1l5011
  7597   001410                     i1u446_20:
  7598   001410                     
  7599                           ; BSR set to: 1
  7600   001410  0012               	return		;# 
  7601   001412                     i1l5013:
  7602                           
  7603                           ;sync.c: 74:         m->owner_id = r_queue.TASKS[r_queue.pos_task_running].task_id;
  7604   001412  0101               	movlb	1	; () banked
  7605   001414  51D3               	movf	(_r_queue+211)& (0+255),w,b
  7606   001416  0D23               	mullw	35
  7607   001418  0E00               	movlw	low _r_queue
  7608   00141A  24F3               	addwf	243,w,c
  7609   00141C  6ED9               	movwf	fsr2l,c
  7610   00141E  0E01               	movlw	high _r_queue
  7611   001420  20F4               	addwfc	prodh,w,c
  7612   001422  6EDA               	movwf	fsr2h,c
  7613   001424  0102               	movlb	2	; () banked
  7614   001426  513C               	movf	mutex_lock@m& (0+255),w,b
  7615   001428  6EE1               	movwf	fsr1l,c
  7616   00142A  6AE2               	clrf	fsr1h,c
  7617   00142C  0E01               	movlw	1
  7618   00142E  26E1               	addwf	fsr1l,f,c
  7619   001430  CFDF FFE7          	movff	indf2,indf1
  7620                           
  7621                           ;sync.c: 75:     } else {
  7622   001434  EF32  F00A         	goto	i1l5019
  7623   001438                     i1l5015:
  7624                           
  7625                           ; BSR set to: 2
  7626                           ;sync.c: 76:         m->locked = 1;
  7627   001438  513C               	movf	mutex_lock@m& (0+255),w,b
  7628   00143A  6ED9               	movwf	fsr2l,c
  7629   00143C  6ADA               	clrf	fsr2h,c
  7630   00143E  0E01               	movlw	1
  7631   001440  6EDF               	movwf	indf2,c
  7632   001442                     
  7633                           ; BSR set to: 2
  7634                           ;sync.c: 77:         m->owner_id = r_queue.TASKS[r_queue.pos_task_running].task_id;
  7635   001442  0101               	movlb	1	; () banked
  7636   001444  51D3               	movf	(_r_queue+211)& (0+255),w,b
  7637   001446  0D23               	mullw	35
  7638   001448  0E00               	movlw	low _r_queue
  7639   00144A  24F3               	addwf	243,w,c
  7640   00144C  6ED9               	movwf	fsr2l,c
  7641   00144E  0E01               	movlw	high _r_queue
  7642   001450  20F4               	addwfc	prodh,w,c
  7643   001452  6EDA               	movwf	fsr2h,c
  7644   001454  0102               	movlb	2	; () banked
  7645   001456  513C               	movf	mutex_lock@m& (0+255),w,b
  7646   001458  6EE1               	movwf	fsr1l,c
  7647   00145A  6AE2               	clrf	fsr1h,c
  7648   00145C  0E01               	movlw	1
  7649   00145E  26E1               	addwf	fsr1l,f,c
  7650   001460  CFDF FFE7          	movff	indf2,indf1
  7651   001464                     i1l5019:
  7652                           
  7653                           ; BSR set to: 2
  7654                           ;sync.c: 79:     INTCONbits.GIE = 1;;
  7655   001464  8EF2               	bsf	242,7,c	;volatile
  7656   001466                     
  7657                           ; BSR set to: 2
  7658   001466  0012               	return		;funcret
  7659   001468                     __end_of_mutex_lock:
  7660                           	callstack 0
  7661                           
  7662 ;; *************** function _tarefaFeedbackLED *****************
  7663 ;; Defined at:
  7664 ;;		line 89 in file "user.c"
  7665 ;; Parameters:    Size  Location     Type
  7666 ;;		None
  7667 ;; Auto vars:     Size  Location     Type
  7668 ;;		None
  7669 ;; Return value:  Size  Location     Type
  7670 ;;                  1    wreg      void 
  7671 ;; Registers used:
  7672 ;;		wreg, fsr1l, fsr1h, fsr2l, fsr2h, status,2, status,0, prodl, prodh, cstack
  7673 ;; Tracked objects:
  7674 ;;		On entry : 0/0
  7675 ;;		On exit  : 0/0
  7676 ;;		Unchanged: 0/0
  7677 ;; Data sizes:     COMRAM   BANK0   BANK1   BANK2   BANK3   BANK4   BANK5   BANK6   BANK7   BANK8   BANK9  BANK10  BANK1
      +1  BANK12  BANK13  BANK14  BANK15
  7678 ;;      Params:         0       0       0       0       0       0       0       0       0       0       0       0       
      +0       0       0       0       0
  7679 ;;      Locals:         0       0       0       0       0       0       0       0       0       0       0       0       
      +0       0       0       0       0
  7680 ;;      Temps:          0       0       0       1       0       0       0       0       0       0       0       0       
      +0       0       0       0       0
  7681 ;;      Totals:         0       0       0       1       0       0       0       0       0       0       0       0       
      +0       0       0       0       0
  7682 ;;Total ram usage:        1 bytes
  7683 ;; Hardware stack levels used: 1
  7684 ;; Hardware stack levels required when called: 6
  7685 ;; This function calls:
  7686 ;;		_os_delay
  7687 ;; This function is called by:
  7688 ;;		_main
  7689 ;; This function uses a non-reentrant model
  7690 ;;
  7691                           
  7692                           	psect	text30
  7693   002DFA                     __ptext30:
  7694                           	callstack 0
  7695   002DFA                     _tarefaFeedbackLED:
  7696                           	callstack 20
  7697   002DFA                     l321:
  7698   002DFA                     
  7699                           ;user.c: 91:         LATDbits.LATD7 = ~LATDbits.LATD7;
  7700   002DFA  BE8C               	btfsc	140,7,c	;volatile
  7701   002DFC  EF02  F017         	goto	u453_21
  7702   002E00  EF05  F017         	goto	u453_20
  7703   002E04                     u453_21:
  7704   002E04  0E01               	movlw	1
  7705   002E06  EF06  F017         	goto	u453_26
  7706   002E0A                     u453_20:
  7707   002E0A  0E00               	movlw	0
  7708   002E0C                     u453_26:
  7709   002E0C  0AFF               	xorlw	255
  7710   002E0E  0102               	movlb	2	; () banked
  7711   002E10  6F4B               	movwf	??_tarefaFeedbackLED& (0+255),b
  7712   002E12  334B               	rrcf	??_tarefaFeedbackLED& (0+255),f,b
  7713   002E14  334B               	rrcf	??_tarefaFeedbackLED& (0+255),f,b
  7714   002E16  508C               	movf	140,w,c	;volatile
  7715   002E18  194B               	xorwf	??_tarefaFeedbackLED& (0+255),w,b
  7716   002E1A  0B7F               	andlw	-129
  7717   002E1C  194B               	xorwf	??_tarefaFeedbackLED& (0+255),w,b
  7718   002E1E  6E8C               	movwf	140,c	;volatile
  7719   002E20                     
  7720                           ; BSR set to: 2
  7721                           ;user.c: 92:         os_delay(5);
  7722   002E20  0E05               	movlw	5
  7723   002E22  EC2C  F00E         	call	_os_delay
  7724   002E26  EFFD  F016         	goto	l321
  7725   002E2A  0012               	return		;funcret
  7726   002E2C                     __end_of_tarefaFeedbackLED:
  7727                           	callstack 0
  7728                           
  7729 ;; *************** function _tarefaOneShot *****************
  7730 ;; Defined at:
  7731 ;;		line 97 in file "user.c"
  7732 ;; Parameters:    Size  Location     Type
  7733 ;;		None
  7734 ;; Auto vars:     Size  Location     Type
  7735 ;;		None
  7736 ;; Return value:  Size  Location     Type
  7737 ;;                  1    wreg      void 
  7738 ;; Registers used:
  7739 ;;		wreg, fsr1l, fsr1h, fsr2l, fsr2h, status,2, status,0, prodl, prodh, cstack
  7740 ;; Tracked objects:
  7741 ;;		On entry : 0/0
  7742 ;;		On exit  : 0/0
  7743 ;;		Unchanged: 0/0
  7744 ;; Data sizes:     COMRAM   BANK0   BANK1   BANK2   BANK3   BANK4   BANK5   BANK6   BANK7   BANK8   BANK9  BANK10  BANK1
      +1  BANK12  BANK13  BANK14  BANK15
  7745 ;;      Params:         0       0       0       0       0       0       0       0       0       0       0       0       
      +0       0       0       0       0
  7746 ;;      Locals:         0       0       0       0       0       0       0       0       0       0       0       0       
      +0       0       0       0       0
  7747 ;;      Temps:          0       0       0       0       0       0       0       0       0       0       0       0       
      +0       0       0       0       0
  7748 ;;      Totals:         0       0       0       0       0       0       0       0       0       0       0       0       
      +0       0       0       0       0
  7749 ;;Total ram usage:        0 bytes
  7750 ;; Hardware stack levels used: 1
  7751 ;; Hardware stack levels required when called: 6
  7752 ;; This function calls:
  7753 ;;		_os_delay
  7754 ;;		_os_task_change_state
  7755 ;; This function is called by:
  7756 ;;		_ISR
  7757 ;; This function uses a non-reentrant model
  7758 ;;
  7759                           
  7760                           	psect	text31
  7761   002F22                     __ptext31:
  7762                           	callstack 0
  7763   002F22                     _tarefaOneShot:
  7764                           	callstack 20
  7765   002F22                     l327:
  7766                           
  7767                           ;user.c: 103:         LATDbits.LATD1 = 1;
  7768   002F22  828C               	bsf	140,1,c	;volatile
  7769   002F24                     
  7770                           ;user.c: 104:         os_delay(10);
  7771   002F24  0E0A               	movlw	10
  7772   002F26  EC2C  F00E         	call	_os_delay
  7773   002F2A                     
  7774                           ;user.c: 105:         LATDbits.LATD1 = 0;
  7775   002F2A  928C               	bcf	140,1,c	;volatile
  7776                           
  7777                           ;user.c: 107:         os_task_change_state(WAITING, 0);
  7778   002F2C  0E00               	movlw	0
  7779   002F2E  0102               	movlb	2	; () banked
  7780   002F30  6F4D               	movwf	os_task_change_state@task_handle& (0+255),b
  7781   002F32  0E00               	movlw	0
  7782   002F34  6F4E               	movwf	(os_task_change_state@task_handle+1)& (0+255),b
  7783   002F36  0E01               	movlw	1
  7784   002F38  EC3C  F00C         	call	_os_task_change_state
  7785   002F3C  EF91  F017         	goto	l327
  7786   002F40  0012               	return		;funcret
  7787   002F42                     __end_of_tarefaOneShot:
  7788                           	callstack 0
  7789                           
  7790 ;; *************** function _ISR *****************
  7791 ;; Defined at:
  7792 ;;		line 26 in file "hw.c"
  7793 ;; Parameters:    Size  Location     Type
  7794 ;;		None
  7795 ;; Auto vars:     Size  Location     Type
  7796 ;;  i               2   18[COMRAM] int 
  7797 ;; Return value:  Size  Location     Type
  7798 ;;                  1    wreg      void 
  7799 ;; Registers used:
  7800 ;;		wreg, fsr1l, fsr1h, fsr2l, fsr2h, status,2, status,0, prodl, prodh, cstack
  7801 ;; Tracked objects:
  7802 ;;		On entry : 0/0
  7803 ;;		On exit  : 0/0
  7804 ;;		Unchanged: 0/0
  7805 ;; Data sizes:     COMRAM   BANK0   BANK1   BANK2   BANK3   BANK4   BANK5   BANK6   BANK7   BANK8   BANK9  BANK10  BANK1
      +1  BANK12  BANK13  BANK14  BANK15
  7806 ;;      Params:         0       0       0       0       0       0       0       0       0       0       0       0       
      +0       0       0       0       0
  7807 ;;      Locals:         2       0       0       0       0       0       0       0       0       0       0       0       
      +0       0       0       0       0
  7808 ;;      Temps:         11       0       0       0       0       0       0       0       0       0       0       0       
      +0       0       0       0       0
  7809 ;;      Totals:        13       0       0       0       0       0       0       0       0       0       0       0       
      +0       0       0       0       0
  7810 ;;Total ram usage:       13 bytes
  7811 ;; Hardware stack levels used: 1
  7812 ;; Hardware stack levels required when called: 2
  7813 ;; This function calls:
  7814 ;;		i2_os_create_task
  7815 ;;		i2_scheduler
  7816 ;; This function is called by:
  7817 ;;		Interrupt level 2
  7818 ;; This function uses a non-reentrant model
  7819 ;;
  7820                           
  7821                           	psect	intcode
  7822   000008                     __pintcode:
  7823                           	callstack 0
  7824   000008                     _ISR:
  7825                           	callstack 19
  7826                           
  7827                           ;incstack = 0
  7828   000008  8201               	bsf	int$flags,1,c	;set compiler interrupt flag (level 2)
  7829   00000A  CFE1 F00E          	movff	fsr1l,??_ISR+5
  7830   00000E  CFE2 F00F          	movff	fsr1h,??_ISR+6
  7831   000012  CFD9 F010          	movff	fsr2l,??_ISR+7
  7832   000016  CFDA F011          	movff	fsr2h,??_ISR+8
  7833   00001A  CFF3 F012          	movff	prodl,??_ISR+9
  7834   00001E  CFF4 F013          	movff	prodh,??_ISR+10
  7835   000022                     
  7836                           ;hw.c: 28:     if (INTCONbits.TMR0IF) {
  7837   000022  A4F2               	btfss	242,2,c	;volatile
  7838   000024  EF16  F000         	goto	i2u454_41
  7839   000028  EF18  F000         	goto	i2u454_40
  7840   00002C                     i2u454_41:
  7841   00002C  EF4D  F002         	goto	i2l475
  7842   000030                     i2u454_40:
  7843   000030                     
  7844                           ;hw.c: 29:         INTCONbits.TMR0IF = 0;
  7845   000030  94F2               	bcf	242,2,c	;volatile
  7846   000032                     
  7847                           ;hw.c: 32:         for (int i = 0; i < r_queue.size; i++) {
  7848   000032  6A15               	clrf	(ISR@i+1)^0,c
  7849   000034  0E00               	movlw	0
  7850   000036  6E14               	movwf	ISR@i^0,c
  7851   000038  EF7F  F000         	goto	i2l5113
  7852   00003C                     i2l5105:
  7853                           
  7854                           ; BSR set to: 1
  7855                           ;hw.c: 33:             if (r_queue.TASKS[i].task_delay > 0) {
  7856   00003C  0E23               	movlw	35
  7857   00003E  0214               	mulwf	ISR@i^0,c
  7858   000040  CFF3 F009          	movff	prodl,??_ISR
  7859   000044  CFF4 F00A          	movff	prodh,??_ISR+1
  7860   000048  0215               	mulwf	(ISR@i+1)^0,c
  7861   00004A  50F3               	movf	prodl,w,c
  7862   00004C  260A               	addwf	(??_ISR+1)^0,f,c
  7863   00004E  0E03               	movlw	low (_r_queue+3)
  7864   000050  2409               	addwf	??_ISR^0,w,c
  7865   000052  6ED9               	movwf	fsr2l,c
  7866   000054  0E01               	movlw	high (_r_queue+3)
  7867   000056  200A               	addwfc	(??_ISR+1)^0,w,c
  7868   000058  6EDA               	movwf	fsr2h,c
  7869   00005A  50DF               	movf	indf2,w,c
  7870   00005C  B4D8               	btfsc	status,2,c
  7871   00005E  EF33  F000         	goto	i2u455_41
  7872   000062  EF35  F000         	goto	i2u455_40
  7873   000066                     i2u455_41:
  7874   000066  EF7D  F000         	goto	i2l5111
  7875   00006A                     i2u455_40:
  7876   00006A                     
  7877                           ; BSR set to: 1
  7878                           ;hw.c: 34:                 r_queue.TASKS[i].task_delay--;
  7879   00006A  0E23               	movlw	35
  7880   00006C  0214               	mulwf	ISR@i^0,c
  7881   00006E  CFF3 F009          	movff	prodl,??_ISR
  7882   000072  CFF4 F00A          	movff	prodh,??_ISR+1
  7883   000076  0215               	mulwf	(ISR@i+1)^0,c
  7884   000078  50F3               	movf	prodl,w,c
  7885   00007A  260A               	addwf	(??_ISR+1)^0,f,c
  7886   00007C  0E03               	movlw	low (_r_queue+3)
  7887   00007E  2409               	addwf	??_ISR^0,w,c
  7888   000080  6ED9               	movwf	fsr2l,c
  7889   000082  0E01               	movlw	high (_r_queue+3)
  7890   000084  200A               	addwfc	(??_ISR+1)^0,w,c
  7891   000086  6EDA               	movwf	fsr2h,c
  7892   000088  06DF               	decf	indf2,f,c
  7893                           
  7894                           ;hw.c: 35:                 if (r_queue.TASKS[i].task_delay == 0) {
  7895   00008A  0E23               	movlw	35
  7896   00008C  0214               	mulwf	ISR@i^0,c
  7897   00008E  CFF3 F009          	movff	prodl,??_ISR
  7898   000092  CFF4 F00A          	movff	prodh,??_ISR+1
  7899   000096  0215               	mulwf	(ISR@i+1)^0,c
  7900   000098  50F3               	movf	prodl,w,c
  7901   00009A  260A               	addwf	(??_ISR+1)^0,f,c
  7902   00009C  0E03               	movlw	low (_r_queue+3)
  7903   00009E  2409               	addwf	??_ISR^0,w,c
  7904   0000A0  6ED9               	movwf	fsr2l,c
  7905   0000A2  0E01               	movlw	high (_r_queue+3)
  7906   0000A4  200A               	addwfc	(??_ISR+1)^0,w,c
  7907   0000A6  6EDA               	movwf	fsr2h,c
  7908   0000A8  50DF               	movf	indf2,w,c
  7909   0000AA  A4D8               	btfss	status,2,c
  7910   0000AC  EF5A  F000         	goto	i2u456_41
  7911   0000B0  EF5C  F000         	goto	i2u456_40
  7912   0000B4                     i2u456_41:
  7913   0000B4  EF7D  F000         	goto	i2l5111
  7914   0000B8                     i2u456_40:
  7915   0000B8                     
  7916                           ; BSR set to: 1
  7917                           ;hw.c: 36:                     ((r_queue.TASKS[i]).state_prio = (uint8_t)(((r_queue.TASK
      +                          S[i]).state_prio & 0xFC) | (uint8_t)(READY)));
  7918   0000B8  0E23               	movlw	35
  7919   0000BA  0214               	mulwf	ISR@i^0,c
  7920   0000BC  CFF3 F009          	movff	prodl,??_ISR
  7921   0000C0  CFF4 F00A          	movff	prodh,??_ISR+1
  7922   0000C4  0215               	mulwf	(ISR@i+1)^0,c
  7923   0000C6  50F3               	movf	prodl,w,c
  7924   0000C8  260A               	addwf	(??_ISR+1)^0,f,c
  7925   0000CA  0E04               	movlw	low (_r_queue+4)
  7926   0000CC  2409               	addwf	??_ISR^0,w,c
  7927   0000CE  6ED9               	movwf	fsr2l,c
  7928   0000D0  0E01               	movlw	high (_r_queue+4)
  7929   0000D2  200A               	addwfc	(??_ISR+1)^0,w,c
  7930   0000D4  6EDA               	movwf	fsr2h,c
  7931   0000D6  0E23               	movlw	35
  7932   0000D8  0214               	mulwf	ISR@i^0,c
  7933   0000DA  CFF3 F00B          	movff	prodl,??_ISR+2
  7934   0000DE  CFF4 F00C          	movff	prodh,??_ISR+3
  7935   0000E2  0215               	mulwf	(ISR@i+1)^0,c
  7936   0000E4  50F3               	movf	prodl,w,c
  7937   0000E6  260C               	addwf	(??_ISR+3)^0,f,c
  7938   0000E8  0E04               	movlw	low (_r_queue+4)
  7939   0000EA  240B               	addwf	(??_ISR+2)^0,w,c
  7940   0000EC  6EE1               	movwf	fsr1l,c
  7941   0000EE  0E01               	movlw	high (_r_queue+4)
  7942   0000F0  200C               	addwfc	(??_ISR+3)^0,w,c
  7943   0000F2  6EE2               	movwf	fsr1h,c
  7944   0000F4  50E7               	movf	indf1,w,c
  7945   0000F6  0BFC               	andlw	252
  7946   0000F8  6EDF               	movwf	indf2,c
  7947   0000FA                     i2l5111:
  7948                           
  7949                           ; BSR set to: 1
  7950                           ;hw.c: 39:         }
  7951   0000FA  4A14               	infsnz	ISR@i^0,f,c
  7952   0000FC  2A15               	incf	(ISR@i+1)^0,f,c
  7953   0000FE                     i2l5113:
  7954   0000FE  0101               	movlb	1	; () banked
  7955   000100  51D2               	movf	(_r_queue+210)& (0+255),w,b
  7956   000102  6E09               	movwf	??_ISR^0,c
  7957   000104  6A0A               	clrf	(??_ISR+1)^0,c
  7958   000106  5009               	movf	??_ISR^0,w,c
  7959   000108  5C14               	subwf	ISR@i^0,w,c
  7960   00010A  5015               	movf	(ISR@i+1)^0,w,c
  7961   00010C  0A80               	xorlw	128
  7962   00010E  6E0B               	movwf	(??_ISR+2)^0,c
  7963   000110  500A               	movf	(??_ISR+1)^0,w,c
  7964   000112  0A80               	xorlw	128
  7965   000114  580B               	subwfb	(??_ISR+2)^0,w,c
  7966   000116  A0D8               	btfss	status,0,c
  7967   000118  EF90  F000         	goto	i2u457_41
  7968   00011C  EF92  F000         	goto	i2u457_40
  7969   000120                     i2u457_41:
  7970   000120  EF1E  F000         	goto	i2l5105
  7971   000124                     i2u457_40:
  7972   000124                     
  7973                           ; BSR set to: 1
  7974                           ;hw.c: 43:         rr_quantum--;
  7975   000124  0620               	decf	_rr_quantum^0,f,c
  7976   000126                     
  7977                           ; BSR set to: 1
  7978                           ;hw.c: 44:         if (rr_quantum == 0) {
  7979   000126  5020               	movf	_rr_quantum^0,w,c
  7980   000128  A4D8               	btfss	status,2,c
  7981   00012A  EF99  F000         	goto	i2u458_41
  7982   00012E  EF9B  F000         	goto	i2u458_40
  7983   000132                     i2u458_41:
  7984   000132  EF4D  F002         	goto	i2l475
  7985   000136                     i2u458_40:
  7986   000136                     
  7987                           ; BSR set to: 1
  7988                           ;hw.c: 45:             rr_quantum = 20;
  7989   000136  0E14               	movlw	20
  7990   000138  6E20               	movwf	_rr_quantum^0,c
  7991   00013A                     
  7992                           ; BSR set to: 1
  7993                           ;hw.c: 46:             { if (((r_queue.TASKS[r_queue.pos_task_running]).state_prio & 0x0
      +                          3) == RUNNING) { ((r_queue.TASKS[r_queue.pos_task_running]).state_prio = (uint8_t)(((r_q
      +                          ueue.TASKS[r_queue.pos_task_running]).state_prio & 0xFC) | (uint8_t)(READY))); r_queue.T
      +                          ASKS[r_queue.pos_task_running].BSR_REG = BSR; r_queue.TASKS[r_queue.pos_task_running].W_
      +                          REG = WREG; r_queue.TASKS[r_queue.pos_task_running].STATUS_REG = STATUS; r_queue.TASKS[r
      +                          _queue.pos_task_running].FSR0H_REG = FSR0H; r_queue.TASKS[r_queue.pos_task_running].FSR0
      +                          L_REG = FSR0L; r_queue.TASKS[r_queue.pos_task_running].task_stack.stack_size = 0; while 
      +                          (STKPTR > 0) { r_queue.TASKS[r_queue.pos_task_running].task_stack.stack[r_queue.TASKS[r_
      +                          queue.pos_task_running].task_stack.stack_size].TOSL_REG = TOSL; r_queue.TASKS[r_queue.po
      +                          s_task_running].task_stack.stack[r_queue.TASKS[r_queue.pos_task_running].task_stack.stac
      +                          k_size].TOSH_REG = TOSH; r_queue.TASKS[r_queue.pos_task_running].task_stack.stack[r_queu
      +                          e.TASKS[r_queue.pos_task_running].task_stack.stack_size].TOSU_REG = TOSU; r_queue.TASKS[
      +                          r_queue.pos_task_running].task_stack.stack_size++; __asm("POP"); } } };
  7994   00013A  51D3               	movf	(_r_queue+211)& (0+255),w,b
  7995   00013C  0D23               	mullw	35
  7996   00013E  0E04               	movlw	low (_r_queue+4)
  7997   000140  24F3               	addwf	243,w,c
  7998   000142  6ED9               	movwf	fsr2l,c
  7999   000144  0E01               	movlw	high (_r_queue+4)
  8000   000146  20F4               	addwfc	prodh,w,c
  8001   000148  6EDA               	movwf	fsr2h,c
  8002   00014A  50DF               	movf	indf2,w,c
  8003   00014C  0B03               	andlw	3
  8004   00014E  0A02               	xorlw	2
  8005   000150  A4D8               	btfss	status,2,c
  8006   000152  EFAD  F000         	goto	i2u459_41
  8007   000156  EFAF  F000         	goto	i2u459_40
  8008   00015A                     i2u459_41:
  8009   00015A  EF72  F001         	goto	i2l5141
  8010   00015E                     i2u459_40:
  8011   00015E                     
  8012                           ; BSR set to: 1
  8013   00015E  51D3               	movf	(_r_queue+211)& (0+255),w,b
  8014   000160  0D23               	mullw	35
  8015   000162  0E04               	movlw	low (_r_queue+4)
  8016   000164  24F3               	addwf	243,w,c
  8017   000166  6ED9               	movwf	fsr2l,c
  8018   000168  0E01               	movlw	high (_r_queue+4)
  8019   00016A  20F4               	addwfc	prodh,w,c
  8020   00016C  6EDA               	movwf	fsr2h,c
  8021   00016E  51D3               	movf	(_r_queue+211)& (0+255),w,b
  8022   000170  0D23               	mullw	35
  8023   000172  0E04               	movlw	low (_r_queue+4)
  8024   000174  24F3               	addwf	243,w,c
  8025   000176  6EE1               	movwf	fsr1l,c
  8026   000178  0E01               	movlw	high (_r_queue+4)
  8027   00017A  20F4               	addwfc	prodh,w,c
  8028   00017C  6EE2               	movwf	fsr1h,c
  8029   00017E  50E7               	movf	indf1,w,c
  8030   000180  0BFC               	andlw	252
  8031   000182  6EDF               	movwf	indf2,c
  8032   000184                     
  8033                           ; BSR set to: 1
  8034   000184  51D3               	movf	(_r_queue+211)& (0+255),w,b
  8035   000186  0D23               	mullw	35
  8036   000188  0E07               	movlw	low (_r_queue+7)
  8037   00018A  24F3               	addwf	243,w,c
  8038   00018C  6ED9               	movwf	fsr2l,c
  8039   00018E  0E01               	movlw	high (_r_queue+7)
  8040   000190  20F4               	addwfc	prodh,w,c
  8041   000192  6EDA               	movwf	fsr2h,c
  8042   000194  CFE0 FFDF          	movff	bsr,indf2	;volatile
  8043   000198                     
  8044                           ; BSR set to: 1
  8045   000198  51D3               	movf	(_r_queue+211)& (0+255),w,b
  8046   00019A  0D23               	mullw	35
  8047   00019C  0E05               	movlw	low (_r_queue+5)
  8048   00019E  24F3               	addwf	243,w,c
  8049   0001A0  6ED9               	movwf	fsr2l,c
  8050   0001A2  0E01               	movlw	high (_r_queue+5)
  8051   0001A4  20F4               	addwfc	prodh,w,c
  8052   0001A6  6EDA               	movwf	fsr2h,c
  8053   0001A8  CFE8 FFDF          	movff	wreg,indf2	;volatile
  8054   0001AC                     
  8055                           ; BSR set to: 1
  8056   0001AC  51D3               	movf	(_r_queue+211)& (0+255),w,b
  8057   0001AE  0D23               	mullw	35
  8058   0001B0  0E06               	movlw	low (_r_queue+6)
  8059   0001B2  24F3               	addwf	243,w,c
  8060   0001B4  6ED9               	movwf	fsr2l,c
  8061   0001B6  0E01               	movlw	high (_r_queue+6)
  8062   0001B8  20F4               	addwfc	prodh,w,c
  8063   0001BA  6EDA               	movwf	fsr2h,c
  8064   0001BC  CFD8 FFDF          	movff	status,indf2	;volatile
  8065   0001C0                     
  8066                           ; BSR set to: 1
  8067   0001C0  51D3               	movf	(_r_queue+211)& (0+255),w,b
  8068   0001C2  0D23               	mullw	35
  8069   0001C4  0E09               	movlw	low (_r_queue+9)
  8070   0001C6  24F3               	addwf	243,w,c
  8071   0001C8  6ED9               	movwf	fsr2l,c
  8072   0001CA  0E01               	movlw	high (_r_queue+9)
  8073   0001CC  20F4               	addwfc	prodh,w,c
  8074   0001CE  6EDA               	movwf	fsr2h,c
  8075   0001D0  CFEA FFDF          	movff	fsr0h,indf2	;volatile
  8076   0001D4                     
  8077                           ; BSR set to: 1
  8078   0001D4  51D3               	movf	(_r_queue+211)& (0+255),w,b
  8079   0001D6  0D23               	mullw	35
  8080   0001D8  0E08               	movlw	low (_r_queue+8)
  8081   0001DA  24F3               	addwf	243,w,c
  8082   0001DC  6ED9               	movwf	fsr2l,c
  8083   0001DE  0E01               	movlw	high (_r_queue+8)
  8084   0001E0  20F4               	addwfc	prodh,w,c
  8085   0001E2  6EDA               	movwf	fsr2h,c
  8086   0001E4  CFE9 FFDF          	movff	fsr0l,indf2	;volatile
  8087   0001E8                     
  8088                           ; BSR set to: 1
  8089   0001E8  51D3               	movf	(_r_queue+211)& (0+255),w,b
  8090   0001EA  0D23               	mullw	35
  8091   0001EC  0E22               	movlw	low (_r_queue+34)
  8092   0001EE  24F3               	addwf	243,w,c
  8093   0001F0  6ED9               	movwf	fsr2l,c
  8094   0001F2  0E01               	movlw	high (_r_queue+34)
  8095   0001F4  20F4               	addwfc	prodh,w,c
  8096   0001F6  6EDA               	movwf	fsr2h,c
  8097   0001F8  6ADF               	clrf	indf2,c
  8098   0001FA  EF6A  F001         	goto	i2l5139
  8099   0001FE                     i2l5137:
  8100   0001FE  0101               	movlb	1	; () banked
  8101   000200  51D3               	movf	(_r_queue+211)& (0+255),w,b
  8102   000202  0D23               	mullw	35
  8103   000204  0E22               	movlw	low (_r_queue+34)
  8104   000206  24F3               	addwf	243,w,c
  8105   000208  6ED9               	movwf	fsr2l,c
  8106   00020A  0E01               	movlw	high (_r_queue+34)
  8107   00020C  20F4               	addwfc	prodh,w,c
  8108   00020E  6EDA               	movwf	fsr2h,c
  8109   000210  50DF               	movf	indf2,w,c
  8110   000212  6E09               	movwf	??_ISR^0,c
  8111   000214  5009               	movf	??_ISR^0,w,c
  8112   000216  0D03               	mullw	3
  8113   000218  CFF3 F00A          	movff	prodl,??_ISR+1
  8114   00021C  CFF4 F00B          	movff	prodh,??_ISR+2
  8115   000220  51D3               	movf	(_r_queue+211)& (0+255),w,b
  8116   000222  0D23               	mullw	35
  8117   000224  0E0A               	movlw	low (_r_queue+10)
  8118   000226  24F3               	addwf	243,w,c
  8119   000228  6E0C               	movwf	(??_ISR+3)^0,c
  8120   00022A  0E01               	movlw	high (_r_queue+10)
  8121   00022C  20F4               	addwfc	prodh,w,c
  8122   00022E  6E0D               	movwf	(??_ISR+4)^0,c
  8123   000230  500A               	movf	(??_ISR+1)^0,w,c
  8124   000232  240C               	addwf	(??_ISR+3)^0,w,c
  8125   000234  6ED9               	movwf	fsr2l,c
  8126   000236  500B               	movf	(??_ISR+2)^0,w,c
  8127   000238  200D               	addwfc	(??_ISR+4)^0,w,c
  8128   00023A  6EDA               	movwf	fsr2h,c
  8129   00023C  CFFD FFDF          	movff	tosl,indf2	;volatile
  8130   000240  51D3               	movf	(_r_queue+211)& (0+255),w,b
  8131   000242  0D23               	mullw	35
  8132   000244  0E22               	movlw	low (_r_queue+34)
  8133   000246  24F3               	addwf	243,w,c
  8134   000248  6ED9               	movwf	fsr2l,c
  8135   00024A  0E01               	movlw	high (_r_queue+34)
  8136   00024C  20F4               	addwfc	prodh,w,c
  8137   00024E  6EDA               	movwf	fsr2h,c
  8138   000250  50DF               	movf	indf2,w,c
  8139   000252  6E09               	movwf	??_ISR^0,c
  8140   000254  5009               	movf	??_ISR^0,w,c
  8141   000256  0D03               	mullw	3
  8142   000258  CFF3 F00A          	movff	prodl,??_ISR+1
  8143   00025C  CFF4 F00B          	movff	prodh,??_ISR+2
  8144   000260  51D3               	movf	(_r_queue+211)& (0+255),w,b
  8145   000262  0D23               	mullw	35
  8146   000264  0E0B               	movlw	low (_r_queue+11)
  8147   000266  24F3               	addwf	243,w,c
  8148   000268  6E0C               	movwf	(??_ISR+3)^0,c
  8149   00026A  0E01               	movlw	high (_r_queue+11)
  8150   00026C  20F4               	addwfc	prodh,w,c
  8151   00026E  6E0D               	movwf	(??_ISR+4)^0,c
  8152   000270  500A               	movf	(??_ISR+1)^0,w,c
  8153   000272  240C               	addwf	(??_ISR+3)^0,w,c
  8154   000274  6ED9               	movwf	fsr2l,c
  8155   000276  500B               	movf	(??_ISR+2)^0,w,c
  8156   000278  200D               	addwfc	(??_ISR+4)^0,w,c
  8157   00027A  6EDA               	movwf	fsr2h,c
  8158   00027C  CFFE FFDF          	movff	tosh,indf2	;volatile
  8159   000280  51D3               	movf	(_r_queue+211)& (0+255),w,b
  8160   000282  0D23               	mullw	35
  8161   000284  0E22               	movlw	low (_r_queue+34)
  8162   000286  24F3               	addwf	243,w,c
  8163   000288  6ED9               	movwf	fsr2l,c
  8164   00028A  0E01               	movlw	high (_r_queue+34)
  8165   00028C  20F4               	addwfc	prodh,w,c
  8166   00028E  6EDA               	movwf	fsr2h,c
  8167   000290  50DF               	movf	indf2,w,c
  8168   000292  6E09               	movwf	??_ISR^0,c
  8169   000294  5009               	movf	??_ISR^0,w,c
  8170   000296  0D03               	mullw	3
  8171   000298  CFF3 F00A          	movff	prodl,??_ISR+1
  8172   00029C  CFF4 F00B          	movff	prodh,??_ISR+2
  8173   0002A0  51D3               	movf	(_r_queue+211)& (0+255),w,b
  8174   0002A2  0D23               	mullw	35
  8175   0002A4  0E0C               	movlw	low (_r_queue+12)
  8176   0002A6  24F3               	addwf	243,w,c
  8177   0002A8  6E0C               	movwf	(??_ISR+3)^0,c
  8178   0002AA  0E01               	movlw	high (_r_queue+12)
  8179   0002AC  20F4               	addwfc	prodh,w,c
  8180   0002AE  6E0D               	movwf	(??_ISR+4)^0,c
  8181   0002B0  500A               	movf	(??_ISR+1)^0,w,c
  8182   0002B2  240C               	addwf	(??_ISR+3)^0,w,c
  8183   0002B4  6ED9               	movwf	fsr2l,c
  8184   0002B6  500B               	movf	(??_ISR+2)^0,w,c
  8185   0002B8  200D               	addwfc	(??_ISR+4)^0,w,c
  8186   0002BA  6EDA               	movwf	fsr2h,c
  8187   0002BC  CFFF FFDF          	movff	tosu,indf2	;volatile
  8188   0002C0  51D3               	movf	(_r_queue+211)& (0+255),w,b
  8189   0002C2  0D23               	mullw	35
  8190   0002C4  0E22               	movlw	low (_r_queue+34)
  8191   0002C6  24F3               	addwf	243,w,c
  8192   0002C8  6ED9               	movwf	fsr2l,c
  8193   0002CA  0E01               	movlw	high (_r_queue+34)
  8194   0002CC  20F4               	addwfc	prodh,w,c
  8195   0002CE  6EDA               	movwf	fsr2h,c
  8196   0002D0  2ADF               	incf	indf2,f,c
  8197   0002D2  0006               	pop		;# 
  8198   0002D4                     i2l5139:
  8199   0002D4  50FC               	movf	252,w,c	;volatile
  8200   0002D6  A4D8               	btfss	status,2,c
  8201   0002D8  EF70  F001         	goto	i2u460_41
  8202   0002DC  EF72  F001         	goto	i2u460_40
  8203   0002E0                     i2u460_41:
  8204   0002E0  EFFF  F000         	goto	i2l5137
  8205   0002E4                     i2u460_40:
  8206   0002E4                     i2l5141:
  8207                           
  8208                           ;hw.c: 47:             scheduler();
  8209   0002E4  ECC0  F017         	call	i2_scheduler	;wreg free
  8210   0002E8                     
  8211                           ;hw.c: 48:             { if (((r_queue.TASKS[r_queue.pos_task_running]).state_prio & 0x0
      +                          3) == READY) { ((r_queue.TASKS[r_queue.pos_task_running]).state_prio = (uint8_t)(((r_que
      +                          ue.TASKS[r_queue.pos_task_running]).state_prio & 0xFC) | (uint8_t)(RUNNING))); BSR = r_q
      +                          ueue.TASKS[r_queue.pos_task_running].BSR_REG; WREG = r_queue.TASKS[r_queue.pos_task_runn
      +                          ing].W_REG; STATUS = r_queue.TASKS[r_queue.pos_task_running].STATUS_REG; FSR0H = r_queue
      +                          .TASKS[r_queue.pos_task_running].FSR0H_REG; FSR0L = r_queue.TASKS[r_queue.pos_task_runni
      +                          ng].FSR0L_REG; while (r_queue.TASKS[r_queue.pos_task_running].task_stack.stack_size > 0)
      +                           { r_queue.TASKS[r_queue.pos_task_running].task_stack.stack_size--; TOSL = r_queue.TASKS
      +                          [r_queue.pos_task_running].task_stack.stack[r_queue.TASKS[r_queue.pos_task_running].task
      +                          _stack.stack_size].TOSL_REG; TOSH = r_queue.TASKS[r_queue.pos_task_running].task_stack.s
      +                          tack[r_queue.TASKS[r_queue.pos_task_running].task_stack.stack_size].TOSH_REG; TOSU = r_q
      +                          ueue.TASKS[r_queue.pos_task_running].task_stack.stack[r_queue.TASKS[r_queue.pos_task_run
      +                          ning].task_stack.stack_size].TOSU_REG; __asm("PUSH"); } __asm("RETURN"); } };
  8212   0002E8  0101               	movlb	1	; () banked
  8213   0002EA  51D3               	movf	(_r_queue+211)& (0+255),w,b
  8214   0002EC  0D23               	mullw	35
  8215   0002EE  0E04               	movlw	low (_r_queue+4)
  8216   0002F0  24F3               	addwf	243,w,c
  8217   0002F2  6ED9               	movwf	fsr2l,c
  8218   0002F4  0E01               	movlw	high (_r_queue+4)
  8219   0002F6  20F4               	addwfc	prodh,w,c
  8220   0002F8  6EDA               	movwf	fsr2h,c
  8221   0002FA  50DF               	movf	indf2,w,c
  8222   0002FC  6E09               	movwf	??_ISR^0,c
  8223   0002FE  0E03               	movlw	3
  8224   000300  1609               	andwf	??_ISR^0,f,c
  8225   000302  A4D8               	btfss	status,2,c
  8226   000304  EF86  F001         	goto	i2u461_41
  8227   000308  EF88  F001         	goto	i2u461_40
  8228   00030C                     i2u461_41:
  8229   00030C  EF4D  F002         	goto	i2l475
  8230   000310                     i2u461_40:
  8231   000310                     
  8232                           ; BSR set to: 1
  8233   000310  51D3               	movf	(_r_queue+211)& (0+255),w,b
  8234   000312  0D23               	mullw	35
  8235   000314  0E04               	movlw	low (_r_queue+4)
  8236   000316  24F3               	addwf	243,w,c
  8237   000318  6ED9               	movwf	fsr2l,c
  8238   00031A  0E01               	movlw	high (_r_queue+4)
  8239   00031C  20F4               	addwfc	prodh,w,c
  8240   00031E  6EDA               	movwf	fsr2h,c
  8241   000320  51D3               	movf	(_r_queue+211)& (0+255),w,b
  8242   000322  0D23               	mullw	35
  8243   000324  0E04               	movlw	low (_r_queue+4)
  8244   000326  24F3               	addwf	243,w,c
  8245   000328  6EE1               	movwf	fsr1l,c
  8246   00032A  0E01               	movlw	high (_r_queue+4)
  8247   00032C  20F4               	addwfc	prodh,w,c
  8248   00032E  6EE2               	movwf	fsr1h,c
  8249   000330  50E7               	movf	indf1,w,c
  8250   000332  0BFC               	andlw	252
  8251   000334  0902               	iorlw	2
  8252   000336  6EDF               	movwf	indf2,c
  8253   000338                     
  8254                           ; BSR set to: 1
  8255   000338  51D3               	movf	(_r_queue+211)& (0+255),w,b
  8256   00033A  0D23               	mullw	35
  8257   00033C  0E07               	movlw	low (_r_queue+7)
  8258   00033E  24F3               	addwf	243,w,c
  8259   000340  6ED9               	movwf	fsr2l,c
  8260   000342  0E01               	movlw	high (_r_queue+7)
  8261   000344  20F4               	addwfc	prodh,w,c
  8262   000346  6EDA               	movwf	fsr2h,c
  8263   000348  50DF               	movf	indf2,w,c
  8264   00034A  6EE0               	movwf	224,c	;volatile
  8265   00034C                     
  8266                           ; BSR set to: 1
  8267   00034C  51D3               	movf	(_r_queue+211)& (0+255),w,b
  8268   00034E  0D23               	mullw	35
  8269   000350  0E05               	movlw	low (_r_queue+5)
  8270   000352  24F3               	addwf	243,w,c
  8271   000354  6ED9               	movwf	fsr2l,c
  8272   000356  0E01               	movlw	high (_r_queue+5)
  8273   000358  20F4               	addwfc	prodh,w,c
  8274   00035A  6EDA               	movwf	fsr2h,c
  8275   00035C  50DF               	movf	indf2,w,c
  8276   00035E  6E09               	movwf	??_ISR^0,c
  8277   000360  5009               	movf	??_ISR^0,w,c
  8278   000362                     
  8279                           ; BSR set to: 1
  8280   000362  51D3               	movf	(_r_queue+211)& (0+255),w,b
  8281   000364  0D23               	mullw	35
  8282   000366  0E06               	movlw	low (_r_queue+6)
  8283   000368  24F3               	addwf	243,w,c
  8284   00036A  6ED9               	movwf	fsr2l,c
  8285   00036C  0E01               	movlw	high (_r_queue+6)
  8286   00036E  20F4               	addwfc	prodh,w,c
  8287   000370  6EDA               	movwf	fsr2h,c
  8288   000372  50DF               	movf	indf2,w,c
  8289   000374  6ED8               	movwf	216,c	;volatile
  8290   000376                     
  8291                           ; BSR set to: 1
  8292   000376  51D3               	movf	(_r_queue+211)& (0+255),w,b
  8293   000378  0D23               	mullw	35
  8294   00037A  0E09               	movlw	low (_r_queue+9)
  8295   00037C  24F3               	addwf	243,w,c
  8296   00037E  6ED9               	movwf	fsr2l,c
  8297   000380  0E01               	movlw	high (_r_queue+9)
  8298   000382  20F4               	addwfc	prodh,w,c
  8299   000384  6EDA               	movwf	fsr2h,c
  8300   000386  50DF               	movf	indf2,w,c
  8301   000388  6EEA               	movwf	234,c	;volatile
  8302   00038A                     
  8303                           ; BSR set to: 1
  8304   00038A  51D3               	movf	(_r_queue+211)& (0+255),w,b
  8305   00038C  0D23               	mullw	35
  8306   00038E  0E08               	movlw	low (_r_queue+8)
  8307   000390  24F3               	addwf	243,w,c
  8308   000392  6ED9               	movwf	fsr2l,c
  8309   000394  0E01               	movlw	high (_r_queue+8)
  8310   000396  20F4               	addwfc	prodh,w,c
  8311   000398  6EDA               	movwf	fsr2h,c
  8312   00039A  50DF               	movf	indf2,w,c
  8313   00039C  6EE9               	movwf	233,c	;volatile
  8314   00039E  EF3B  F002         	goto	i2l487
  8315   0003A2                     i2l5157:
  8316                           
  8317                           ; BSR set to: 1
  8318   0003A2  51D3               	movf	(_r_queue+211)& (0+255),w,b
  8319   0003A4  0D23               	mullw	35
  8320   0003A6  0E22               	movlw	low (_r_queue+34)
  8321   0003A8  24F3               	addwf	243,w,c
  8322   0003AA  6ED9               	movwf	fsr2l,c
  8323   0003AC  0E01               	movlw	high (_r_queue+34)
  8324   0003AE  20F4               	addwfc	prodh,w,c
  8325   0003B0  6EDA               	movwf	fsr2h,c
  8326   0003B2  06DF               	decf	indf2,f,c
  8327   0003B4  51D3               	movf	(_r_queue+211)& (0+255),w,b
  8328   0003B6  0D23               	mullw	35
  8329   0003B8  0E22               	movlw	low (_r_queue+34)
  8330   0003BA  24F3               	addwf	243,w,c
  8331   0003BC  6ED9               	movwf	fsr2l,c
  8332   0003BE  0E01               	movlw	high (_r_queue+34)
  8333   0003C0  20F4               	addwfc	prodh,w,c
  8334   0003C2  6EDA               	movwf	fsr2h,c
  8335   0003C4  50DF               	movf	indf2,w,c
  8336   0003C6  6E09               	movwf	??_ISR^0,c
  8337   0003C8  5009               	movf	??_ISR^0,w,c
  8338   0003CA  0D03               	mullw	3
  8339   0003CC  CFF3 F00A          	movff	prodl,??_ISR+1
  8340   0003D0  CFF4 F00B          	movff	prodh,??_ISR+2
  8341   0003D4  51D3               	movf	(_r_queue+211)& (0+255),w,b
  8342   0003D6  0D23               	mullw	35
  8343   0003D8  0E0A               	movlw	low (_r_queue+10)
  8344   0003DA  24F3               	addwf	243,w,c
  8345   0003DC  6E0C               	movwf	(??_ISR+3)^0,c
  8346   0003DE  0E01               	movlw	high (_r_queue+10)
  8347   0003E0  20F4               	addwfc	prodh,w,c
  8348   0003E2  6E0D               	movwf	(??_ISR+4)^0,c
  8349   0003E4  500A               	movf	(??_ISR+1)^0,w,c
  8350   0003E6  240C               	addwf	(??_ISR+3)^0,w,c
  8351   0003E8  6ED9               	movwf	fsr2l,c
  8352   0003EA  500B               	movf	(??_ISR+2)^0,w,c
  8353   0003EC  200D               	addwfc	(??_ISR+4)^0,w,c
  8354   0003EE  6EDA               	movwf	fsr2h,c
  8355   0003F0  50DF               	movf	indf2,w,c
  8356   0003F2  6EFD               	movwf	253,c	;volatile
  8357   0003F4  51D3               	movf	(_r_queue+211)& (0+255),w,b
  8358   0003F6  0D23               	mullw	35
  8359   0003F8  0E22               	movlw	low (_r_queue+34)
  8360   0003FA  24F3               	addwf	243,w,c
  8361   0003FC  6ED9               	movwf	fsr2l,c
  8362   0003FE  0E01               	movlw	high (_r_queue+34)
  8363   000400  20F4               	addwfc	prodh,w,c
  8364   000402  6EDA               	movwf	fsr2h,c
  8365   000404  50DF               	movf	indf2,w,c
  8366   000406  6E09               	movwf	??_ISR^0,c
  8367   000408  5009               	movf	??_ISR^0,w,c
  8368   00040A  0D03               	mullw	3
  8369   00040C  CFF3 F00A          	movff	prodl,??_ISR+1
  8370   000410  CFF4 F00B          	movff	prodh,??_ISR+2
  8371   000414  51D3               	movf	(_r_queue+211)& (0+255),w,b
  8372   000416  0D23               	mullw	35
  8373   000418  0E0B               	movlw	low (_r_queue+11)
  8374   00041A  24F3               	addwf	243,w,c
  8375   00041C  6E0C               	movwf	(??_ISR+3)^0,c
  8376   00041E  0E01               	movlw	high (_r_queue+11)
  8377   000420  20F4               	addwfc	prodh,w,c
  8378   000422  6E0D               	movwf	(??_ISR+4)^0,c
  8379   000424  500A               	movf	(??_ISR+1)^0,w,c
  8380   000426  240C               	addwf	(??_ISR+3)^0,w,c
  8381   000428  6ED9               	movwf	fsr2l,c
  8382   00042A  500B               	movf	(??_ISR+2)^0,w,c
  8383   00042C  200D               	addwfc	(??_ISR+4)^0,w,c
  8384   00042E  6EDA               	movwf	fsr2h,c
  8385   000430  50DF               	movf	indf2,w,c
  8386   000432  6EFE               	movwf	254,c	;volatile
  8387   000434  51D3               	movf	(_r_queue+211)& (0+255),w,b
  8388   000436  0D23               	mullw	35
  8389   000438  0E22               	movlw	low (_r_queue+34)
  8390   00043A  24F3               	addwf	243,w,c
  8391   00043C  6ED9               	movwf	fsr2l,c
  8392   00043E  0E01               	movlw	high (_r_queue+34)
  8393   000440  20F4               	addwfc	prodh,w,c
  8394   000442  6EDA               	movwf	fsr2h,c
  8395   000444  50DF               	movf	indf2,w,c
  8396   000446  6E09               	movwf	??_ISR^0,c
  8397   000448  5009               	movf	??_ISR^0,w,c
  8398   00044A  0D03               	mullw	3
  8399   00044C  CFF3 F00A          	movff	prodl,??_ISR+1
  8400   000450  CFF4 F00B          	movff	prodh,??_ISR+2
  8401   000454  51D3               	movf	(_r_queue+211)& (0+255),w,b
  8402   000456  0D23               	mullw	35
  8403   000458  0E0C               	movlw	low (_r_queue+12)
  8404   00045A  24F3               	addwf	243,w,c
  8405   00045C  6E0C               	movwf	(??_ISR+3)^0,c
  8406   00045E  0E01               	movlw	high (_r_queue+12)
  8407   000460  20F4               	addwfc	prodh,w,c
  8408   000462  6E0D               	movwf	(??_ISR+4)^0,c
  8409   000464  500A               	movf	(??_ISR+1)^0,w,c
  8410   000466  240C               	addwf	(??_ISR+3)^0,w,c
  8411   000468  6ED9               	movwf	fsr2l,c
  8412   00046A  500B               	movf	(??_ISR+2)^0,w,c
  8413   00046C  200D               	addwfc	(??_ISR+4)^0,w,c
  8414   00046E  6EDA               	movwf	fsr2h,c
  8415   000470  50DF               	movf	indf2,w,c
  8416   000472  6EFF               	movwf	255,c	;volatile
  8417   000474  0005               	push		;# 
  8418   000476                     i2l487:
  8419   000476  0101               	movlb	1	; () banked
  8420   000478  51D3               	movf	(_r_queue+211)& (0+255),w,b
  8421   00047A  0D23               	mullw	35
  8422   00047C  0E22               	movlw	low (_r_queue+34)
  8423   00047E  24F3               	addwf	243,w,c
  8424   000480  6ED9               	movwf	fsr2l,c
  8425   000482  0E01               	movlw	high (_r_queue+34)
  8426   000484  20F4               	addwfc	prodh,w,c
  8427   000486  6EDA               	movwf	fsr2h,c
  8428   000488  50DF               	movf	indf2,w,c
  8429   00048A  A4D8               	btfss	status,2,c
  8430   00048C  EF4A  F002         	goto	i2u462_41
  8431   000490  EF4C  F002         	goto	i2u462_40
  8432   000494                     i2u462_41:
  8433   000494  EFD1  F001         	goto	i2l5157
  8434   000498                     i2u462_40:
  8435   000498                     
  8436                           ; BSR set to: 1
  8437   000498  0012               	return		;# 
  8438   00049A                     i2l475:
  8439                           
  8440                           ;hw.c: 53:     if (INTCONbits.INT0IF == 1) {
  8441   00049A  A2F2               	btfss	242,1,c	;volatile
  8442   00049C  EF52  F002         	goto	i2u463_41
  8443   0004A0  EF54  F002         	goto	i2u463_40
  8444   0004A4                     i2u463_41:
  8445   0004A4  EF5E  F002         	goto	i2l491
  8446   0004A8                     i2u463_40:
  8447   0004A8                     
  8448                           ;hw.c: 54:         INTCONbits.INT0IF = 0;
  8449   0004A8  92F2               	bcf	242,1,c	;volatile
  8450   0004AA                     
  8451                           ;hw.c: 57:         os_create_task(6, tarefaOneShot, 6);
  8452   0004AA  0E22               	movlw	low _tarefaOneShot
  8453   0004AC  6E02               	movwf	i2os_create_task@func^0,c
  8454   0004AE  0E2F               	movlw	high _tarefaOneShot
  8455   0004B0  6E03               	movwf	(i2os_create_task@func+1)^0,c
  8456   0004B2  0E06               	movlw	6
  8457   0004B4  6E04               	movwf	i2os_create_task@prior^0,c
  8458   0004B6  0E06               	movlw	6
  8459   0004B8  EC95  F013         	call	i2_os_create_task
  8460   0004BC                     i2l491:
  8461   0004BC  C013  FFF4         	movff	??_ISR+10,prodh
  8462   0004C0  C012  FFF3         	movff	??_ISR+9,prodl
  8463   0004C4  C011  FFDA         	movff	??_ISR+8,fsr2h
  8464   0004C8  C010  FFD9         	movff	??_ISR+7,fsr2l
  8465   0004CC  C00F  FFE2         	movff	??_ISR+6,fsr1h
  8466   0004D0  C00E  FFE1         	movff	??_ISR+5,fsr1l
  8467   0004D4  9201               	bcf	int$flags,1,c	;clear compiler interrupt flag (level 2)
  8468   0004D6  0011               	retfie		f
  8469   0004D8                     __end_of_ISR:
  8470                           	callstack 0
  8471                           
  8472 ;; *************** function i2_scheduler *****************
  8473 ;; Defined at:
  8474 ;;		line 9 in file "scheduler.c"
  8475 ;; Parameters:    Size  Location     Type
  8476 ;;		None
  8477 ;; Auto vars:     Size  Location     Type
  8478 ;;		None
  8479 ;; Return value:  Size  Location     Type
  8480 ;;                  1    wreg      void 
  8481 ;; Registers used:
  8482 ;;		wreg, fsr2l, fsr2h, status,2, status,0, prodl, prodh, cstack
  8483 ;; Tracked objects:
  8484 ;;		On entry : 0/0
  8485 ;;		On exit  : 0/0
  8486 ;;		Unchanged: 0/0
  8487 ;; Data sizes:     COMRAM   BANK0   BANK1   BANK2   BANK3   BANK4   BANK5   BANK6   BANK7   BANK8   BANK9  BANK10  BANK1
      +1  BANK12  BANK13  BANK14  BANK15
  8488 ;;      Params:         0       0       0       0       0       0       0       0       0       0       0       0       
      +0       0       0       0       0
  8489 ;;      Locals:         0       0       0       0       0       0       0       0       0       0       0       0       
      +0       0       0       0       0
  8490 ;;      Temps:          0       0       0       0       0       0       0       0       0       0       0       0       
      +0       0       0       0       0
  8491 ;;      Totals:         0       0       0       0       0       0       0       0       0       0       0       0       
      +0       0       0       0       0
  8492 ;;Total ram usage:        0 bytes
  8493 ;; Hardware stack levels used: 1
  8494 ;; Hardware stack levels required when called: 1
  8495 ;; This function calls:
  8496 ;;		i2_priority_rr_scheduler
  8497 ;; This function is called by:
  8498 ;;		_ISR
  8499 ;; This function uses a non-reentrant model
  8500 ;;
  8501                           
  8502                           	psect	text33
  8503   002F80                     __ptext33:
  8504                           	callstack 0
  8505   002F80                     i2_scheduler:
  8506                           	callstack 19
  8507   002F80                     
  8508                           ;scheduler.c: 15:     r_queue.pos_task_running = priority_rr_scheduler();
  8509   002F80  EC53  F012         	call	i2_priority_rr_scheduler	;wreg free
  8510   002F84  0101               	movlb	1	; () banked
  8511   002F86  6FD3               	movwf	(_r_queue+211)& (0+255),b
  8512   002F88                     
  8513                           ; BSR set to: 1
  8514   002F88  0012               	return		;funcret
  8515   002F8A                     __end_ofi2_scheduler:
  8516                           	callstack 0
  8517                           
  8518 ;; *************** function i2_priority_rr_scheduler *****************
  8519 ;; Defined at:
  8520 ;;		line 69 in file "scheduler.c"
  8521 ;; Parameters:    Size  Location     Type
  8522 ;;		None
  8523 ;; Auto vars:     Size  Location     Type
  8524 ;;		None
  8525 ;; Return value:  Size  Location     Type
  8526 ;;                  1    wreg      unsigned char 
  8527 ;; Registers used:
  8528 ;;		wreg, fsr2l, fsr2h, status,2, status,0, prodl, prodh
  8529 ;; Tracked objects:
  8530 ;;		On entry : 0/0
  8531 ;;		On exit  : 0/0
  8532 ;;		Unchanged: 0/0
  8533 ;; Data sizes:     COMRAM   BANK0   BANK1   BANK2   BANK3   BANK4   BANK5   BANK6   BANK7   BANK8   BANK9  BANK10  BANK1
      +1  BANK12  BANK13  BANK14  BANK15
  8534 ;;      Params:         0       0       0       0       0       0       0       0       0       0       0       0       
      +0       0       0       0       0
  8535 ;;      Locals:         0       0       0       0       0       0       0       0       0       0       0       0       
      +0       0       0       0       0
  8536 ;;      Temps:          1       0       0       0       0       0       0       0       0       0       0       0       
      +0       0       0       0       0
  8537 ;;      Totals:         1       0       0       0       0       0       0       0       0       0       0       0       
      +0       0       0       0       0
  8538 ;;Total ram usage:        1 bytes
  8539 ;; Hardware stack levels used: 1
  8540 ;; This function calls:
  8541 ;;		Nothing
  8542 ;; This function is called by:
  8543 ;;		i2_scheduler
  8544 ;; This function uses a non-reentrant model
  8545 ;;
  8546                           
  8547                           	psect	text34
  8548   0024A6                     __ptext34:
  8549                           	callstack 0
  8550   0024A6                     i2_priority_rr_scheduler:
  8551                           	callstack 19
  8552   0024A6                     
  8553                           ;scheduler.c: 70:     static uint8_t max_prio;;scheduler.c: 71:     static uint8_t found
      +                          ;;scheduler.c: 72:     static uint8_t i;;scheduler.c: 73:     static uint8_t current;;sc
      +                          heduler.c: 74:     static uint8_t idx;;scheduler.c: 76:     max_prio = 0;
  8554   0024A6  6A1A               	clrf	priority_rr_scheduler@max_prio^0,c
  8555                           
  8556                           ;scheduler.c: 77:     found = 0;
  8557   0024A8  6A19               	clrf	priority_rr_scheduler@found^0,c
  8558                           
  8559                           ;scheduler.c: 80:     for (i = 0; i < r_queue.size; i++) {
  8560   0024AA  6A18               	clrf	priority_rr_scheduler@i^0,c
  8561   0024AC  EF9C  F012         	goto	i2l1519
  8562   0024B0                     i2l1507:
  8563                           
  8564                           ; BSR set to: 1
  8565                           ;scheduler.c: 81:         if (((r_queue.TASKS[i]).state_prio & 0x03) == READY) {
  8566   0024B0  5018               	movf	priority_rr_scheduler@i^0,w,c
  8567   0024B2  0D23               	mullw	35
  8568   0024B4  0E04               	movlw	low (_r_queue+4)
  8569   0024B6  24F3               	addwf	243,w,c
  8570   0024B8  6ED9               	movwf	fsr2l,c
  8571   0024BA  0E01               	movlw	high (_r_queue+4)
  8572   0024BC  20F4               	addwfc	prodh,w,c
  8573   0024BE  6EDA               	movwf	fsr2h,c
  8574   0024C0  50DF               	movf	indf2,w,c
  8575   0024C2  6E02               	movwf	??i2_priority_rr_scheduler^0,c
  8576   0024C4  0E03               	movlw	3
  8577   0024C6  1602               	andwf	??i2_priority_rr_scheduler^0,f,c
  8578   0024C8  A4D8               	btfss	status,2,c
  8579   0024CA  EF69  F012         	goto	i2u27_41
  8580   0024CE  EF6B  F012         	goto	i2u27_40
  8581   0024D2                     i2u27_41:
  8582   0024D2  EF9B  F012         	goto	i2l1517
  8583   0024D6                     i2u27_40:
  8584   0024D6                     
  8585                           ; BSR set to: 1
  8586                           ;scheduler.c: 82:             if (!found || (((r_queue.TASKS[i]).state_prio >> 2) & 0x07
      +                          ) > max_prio) {
  8587   0024D6  5019               	movf	priority_rr_scheduler@found^0,w,c
  8588   0024D8  B4D8               	btfsc	status,2,c
  8589   0024DA  EF71  F012         	goto	i2u28_41
  8590   0024DE  EF73  F012         	goto	i2u28_40
  8591   0024E2                     i2u28_41:
  8592   0024E2  EF89  F012         	goto	i2l1513
  8593   0024E6                     i2u28_40:
  8594   0024E6                     
  8595                           ; BSR set to: 1
  8596   0024E6  5018               	movf	priority_rr_scheduler@i^0,w,c
  8597   0024E8  0D23               	mullw	35
  8598   0024EA  0E04               	movlw	low (_r_queue+4)
  8599   0024EC  24F3               	addwf	243,w,c
  8600   0024EE  6ED9               	movwf	fsr2l,c
  8601   0024F0  0E01               	movlw	high (_r_queue+4)
  8602   0024F2  20F4               	addwfc	prodh,w,c
  8603   0024F4  6EDA               	movwf	fsr2h,c
  8604   0024F6  50DF               	movf	indf2,w,c
  8605   0024F8  6E02               	movwf	??i2_priority_rr_scheduler^0,c
  8606   0024FA  90D8               	bcf	status,0,c
  8607   0024FC  3202               	rrcf	??i2_priority_rr_scheduler^0,f,c
  8608   0024FE  90D8               	bcf	status,0,c
  8609   002500  3002               	rrcf	??i2_priority_rr_scheduler^0,w,c
  8610   002502  0B07               	andlw	7
  8611   002504  601A               	cpfslt	priority_rr_scheduler@max_prio^0,c
  8612   002506  EF87  F012         	goto	i2u29_41
  8613   00250A  EF89  F012         	goto	i2u29_40
  8614   00250E                     i2u29_41:
  8615   00250E  EF9B  F012         	goto	i2l1517
  8616   002512                     i2u29_40:
  8617   002512                     i2l1513:
  8618                           
  8619                           ; BSR set to: 1
  8620                           ;scheduler.c: 83:                 max_prio = (((r_queue.TASKS[i]).state_prio >> 2) & 0x0
      +                          7);
  8621   002512  5018               	movf	priority_rr_scheduler@i^0,w,c
  8622   002514  0D23               	mullw	35
  8623   002516  0E04               	movlw	low (_r_queue+4)
  8624   002518  24F3               	addwf	243,w,c
  8625   00251A  6ED9               	movwf	fsr2l,c
  8626   00251C  0E01               	movlw	high (_r_queue+4)
  8627   00251E  20F4               	addwfc	prodh,w,c
  8628   002520  6EDA               	movwf	fsr2h,c
  8629   002522  50DF               	movf	indf2,w,c
  8630   002524  6E02               	movwf	??i2_priority_rr_scheduler^0,c
  8631   002526  90D8               	bcf	status,0,c
  8632   002528  3202               	rrcf	??i2_priority_rr_scheduler^0,f,c
  8633   00252A  90D8               	bcf	status,0,c
  8634   00252C  3002               	rrcf	??i2_priority_rr_scheduler^0,w,c
  8635   00252E  0B07               	andlw	7
  8636   002530  6E1A               	movwf	priority_rr_scheduler@max_prio^0,c
  8637   002532                     
  8638                           ; BSR set to: 1
  8639                           ;scheduler.c: 84:                 found = 1;
  8640   002532  0E01               	movlw	1
  8641   002534  6E19               	movwf	priority_rr_scheduler@found^0,c
  8642   002536                     i2l1517:
  8643                           
  8644                           ; BSR set to: 1
  8645                           ;scheduler.c: 87:     }
  8646   002536  2A18               	incf	priority_rr_scheduler@i^0,f,c
  8647   002538                     i2l1519:
  8648   002538  0101               	movlb	1	; () banked
  8649   00253A  51D2               	movf	(_r_queue+210)& (0+255),w,b
  8650   00253C  5C18               	subwf	priority_rr_scheduler@i^0,w,c
  8651   00253E  A0D8               	btfss	status,0,c
  8652   002540  EFA4  F012         	goto	i2u30_41
  8653   002544  EFA6  F012         	goto	i2u30_40
  8654   002548                     i2u30_41:
  8655   002548  EF58  F012         	goto	i2l1507
  8656   00254C                     i2u30_40:
  8657   00254C                     
  8658                           ; BSR set to: 1
  8659                           ;scheduler.c: 88:     if (!found)return 0;
  8660   00254C  5019               	movf	priority_rr_scheduler@found^0,w,c
  8661   00254E  A4D8               	btfss	status,2,c
  8662   002550  EFAC  F012         	goto	i2u31_41
  8663   002554  EFAE  F012         	goto	i2u31_40
  8664   002558                     i2u31_41:
  8665   002558  EFB1  F012         	goto	i2l427
  8666   00255C                     i2u31_40:
  8667   00255C                     i2l1523:
  8668                           
  8669                           ; BSR set to: 1
  8670   00255C  0E00               	movlw	0
  8671   00255E  EFFD  F012         	goto	i2l428
  8672   002562                     i2l427:
  8673                           
  8674                           ; BSR set to: 1
  8675                           ;scheduler.c: 89:     current = r_queue.pos_task_running;
  8676   002562  C1D3  F017         	movff	_r_queue+211,priority_rr_scheduler@current
  8677                           
  8678                           ;scheduler.c: 91:     for (i = 0; i < r_queue.size; i++) {
  8679   002566  6A18               	clrf	priority_rr_scheduler@i^0,c
  8680   002568  EFF2  F012         	goto	i2l1541
  8681   00256C                     i2l1527:
  8682                           
  8683                           ; BSR set to: 1
  8684                           ;scheduler.c: 93:         idx = current + i;
  8685   00256C  5017               	movf	priority_rr_scheduler@current^0,w,c
  8686   00256E  2418               	addwf	priority_rr_scheduler@i^0,w,c
  8687   002570  6E16               	movwf	priority_rr_scheduler@idx^0,c
  8688                           
  8689                           ;scheduler.c: 94:         if (idx >= r_queue.size)
  8690   002572  51D2               	movf	(_r_queue+210)& (0+255),w,b
  8691   002574  5C16               	subwf	priority_rr_scheduler@idx^0,w,c
  8692   002576  A0D8               	btfss	status,0,c
  8693   002578  EFC0  F012         	goto	i2u32_41
  8694   00257C  EFC2  F012         	goto	i2u32_40
  8695   002580                     i2u32_41:
  8696   002580  EFC4  F012         	goto	i2l1531
  8697   002584                     i2u32_40:
  8698   002584                     
  8699                           ; BSR set to: 1
  8700                           ;scheduler.c: 95:             idx -= r_queue.size;
  8701   002584  51D2               	movf	(_r_queue+210)& (0+255),w,b
  8702   002586  5E16               	subwf	priority_rr_scheduler@idx^0,f,c
  8703   002588                     i2l1531:
  8704                           
  8705                           ; BSR set to: 1
  8706                           ;scheduler.c: 96:         if (((r_queue.TASKS[i]).state_prio & 0x03) == READY &&
  8707   002588  5018               	movf	priority_rr_scheduler@i^0,w,c
  8708   00258A  0D23               	mullw	35
  8709   00258C  0E04               	movlw	low (_r_queue+4)
  8710   00258E  24F3               	addwf	243,w,c
  8711   002590  6ED9               	movwf	fsr2l,c
  8712   002592  0E01               	movlw	high (_r_queue+4)
  8713   002594  20F4               	addwfc	prodh,w,c
  8714   002596  6EDA               	movwf	fsr2h,c
  8715   002598  50DF               	movf	indf2,w,c
  8716   00259A  6E02               	movwf	??i2_priority_rr_scheduler^0,c
  8717   00259C  0E03               	movlw	3
  8718   00259E  1602               	andwf	??i2_priority_rr_scheduler^0,f,c
  8719   0025A0  A4D8               	btfss	status,2,c
  8720   0025A2  EFD5  F012         	goto	i2u33_41
  8721   0025A6  EFD7  F012         	goto	i2u33_40
  8722   0025AA                     i2u33_41:
  8723   0025AA  EFF1  F012         	goto	i2l1539
  8724   0025AE                     i2u33_40:
  8725   0025AE                     
  8726                           ; BSR set to: 1
  8727   0025AE  5018               	movf	priority_rr_scheduler@i^0,w,c
  8728   0025B0  0D23               	mullw	35
  8729   0025B2  0E04               	movlw	low (_r_queue+4)
  8730   0025B4  24F3               	addwf	243,w,c
  8731   0025B6  6ED9               	movwf	fsr2l,c
  8732   0025B8  0E01               	movlw	high (_r_queue+4)
  8733   0025BA  20F4               	addwfc	prodh,w,c
  8734   0025BC  6EDA               	movwf	fsr2h,c
  8735   0025BE  50DF               	movf	indf2,w,c
  8736   0025C0  6E02               	movwf	??i2_priority_rr_scheduler^0,c
  8737   0025C2  90D8               	bcf	status,0,c
  8738   0025C4  3202               	rrcf	??i2_priority_rr_scheduler^0,f,c
  8739   0025C6  90D8               	bcf	status,0,c
  8740   0025C8  3002               	rrcf	??i2_priority_rr_scheduler^0,w,c
  8741   0025CA  0B07               	andlw	7
  8742   0025CC  181A               	xorwf	priority_rr_scheduler@max_prio^0,w,c
  8743   0025CE  A4D8               	btfss	status,2,c
  8744   0025D0  EFEC  F012         	goto	i2u34_41
  8745   0025D4  EFEE  F012         	goto	i2u34_40
  8746   0025D8                     i2u34_41:
  8747   0025D8  EFF1  F012         	goto	i2l1539
  8748   0025DC                     i2u34_40:
  8749   0025DC                     
  8750                           ; BSR set to: 1
  8751                           ;scheduler.c: 97:             (((r_queue.TASKS[i]).state_prio >> 2) & 0x07) == max_prio)
      +                           {;scheduler.c: 98:             return idx;
  8752   0025DC  5016               	movf	priority_rr_scheduler@idx^0,w,c
  8753   0025DE  EFFD  F012         	goto	i2l428
  8754   0025E2                     i2l1539:
  8755                           
  8756                           ; BSR set to: 1
  8757                           ;scheduler.c: 100:     }
  8758   0025E2  2A18               	incf	priority_rr_scheduler@i^0,f,c
  8759   0025E4                     i2l1541:
  8760                           
  8761                           ; BSR set to: 1
  8762   0025E4  51D2               	movf	(_r_queue+210)& (0+255),w,b
  8763   0025E6  5C18               	subwf	priority_rr_scheduler@i^0,w,c
  8764   0025E8  A0D8               	btfss	status,0,c
  8765   0025EA  EFF9  F012         	goto	i2u35_41
  8766   0025EE  EFFB  F012         	goto	i2u35_40
  8767   0025F2                     i2u35_41:
  8768   0025F2  EFB6  F012         	goto	i2l1527
  8769   0025F6                     i2u35_40:
  8770   0025F6  EFAE  F012         	goto	i2l1523
  8771   0025FA                     i2l428:
  8772                           
  8773                           ; BSR set to: 1
  8774   0025FA  0012               	return		;funcret
  8775   0025FC                     __end_ofi2_priority_rr_scheduler:
  8776                           	callstack 0
  8777                           
  8778 ;; *************** function i2_os_create_task *****************
  8779 ;; Defined at:
  8780 ;;		line 25 in file "kernel.c"
  8781 ;; Parameters:    Size  Location     Type
  8782 ;;  id              1    wreg     unsigned char 
  8783 ;;  func            2    0[COMRAM] PTR FTN()void 
  8784 ;;		 -> tarefaOneShot(1), idle(1), tarefaFeedbackLED(1), tarefaControlePWM(1), 
  8785 ;;		 -> tarefaProcessamento(1), tarefaLeituraADC(1), 
  8786 ;;  prior           1    2[COMRAM] unsigned char 
  8787 ;; Auto vars:     Size  Location     Type
  8788 ;;  id              1    4[COMRAM] unsigned char 
  8789 ;;  new_task        2    5[COMRAM] PTR struct tcb
  8790 ;;		 -> r_queue$TASKS(210), r_queue(212), 
  8791 ;; Return value:  Size  Location     Type
  8792 ;;                  1    wreg      void 
  8793 ;; Registers used:
  8794 ;;		wreg, fsr1l, fsr1h, fsr2l, fsr2h, status,2, status,0, prodl, prodh
  8795 ;; Tracked objects:
  8796 ;;		On entry : 0/0
  8797 ;;		On exit  : 0/0
  8798 ;;		Unchanged: 0/0
  8799 ;; Data sizes:     COMRAM   BANK0   BANK1   BANK2   BANK3   BANK4   BANK5   BANK6   BANK7   BANK8   BANK9  BANK10  BANK1
      +1  BANK12  BANK13  BANK14  BANK15
  8800 ;;      Params:         3       0       0       0       0       0       0       0       0       0       0       0       
      +0       0       0       0       0
  8801 ;;      Locals:         3       0       0       0       0       0       0       0       0       0       0       0       
      +0       0       0       0       0
  8802 ;;      Temps:          1       0       0       0       0       0       0       0       0       0       0       0       
      +0       0       0       0       0
  8803 ;;      Totals:         7       0       0       0       0       0       0       0       0       0       0       0       
      +0       0       0       0       0
  8804 ;;Total ram usage:        7 bytes
  8805 ;; Hardware stack levels used: 1
  8806 ;; This function calls:
  8807 ;;		Nothing
  8808 ;; This function is called by:
  8809 ;;		_ISR
  8810 ;; This function uses a non-reentrant model
  8811 ;;
  8812                           
  8813                           	psect	text35
  8814   00272A                     __ptext35:
  8815                           	callstack 0
  8816   00272A                     i2_os_create_task:
  8817                           	callstack 20
  8818                           
  8819                           ; BSR set to: 1
  8820                           ;incstack = 0
  8821                           ;i2os_create_task@id stored from wreg
  8822   00272A  6E06               	movwf	i2os_create_task@id^0,c
  8823   00272C                     
  8824                           ;kernel.c: 25: void os_create_task(uint8_t id, f_ptr func, uint8_t prior);kernel.c: 26: 
      +                          {;kernel.c: 27:     tcb_t *new_task;;kernel.c: 29:     if (r_queue.size >= 5 +1)
  8825   00272C  0E05               	movlw	5
  8826   00272E  0101               	movlb	1	; () banked
  8827   002730  65D2               	cpfsgt	(_r_queue+210)& (0+255),b
  8828   002732  EF9D  F013         	goto	i2u149_41
  8829   002736  EF9F  F013         	goto	i2u149_40
  8830   00273A                     i2u149_41:
  8831   00273A  EFA1  F013         	goto	i2l2571
  8832   00273E                     i2u149_40:
  8833   00273E  EF28  F014         	goto	i2l71
  8834   002742                     i2l2571:
  8835                           
  8836                           ; BSR set to: 1
  8837                           ;kernel.c: 32:     new_task = &r_queue.TASKS[r_queue.size];
  8838   002742  51D2               	movf	(_r_queue+210)& (0+255),w,b
  8839   002744  0D23               	mullw	35
  8840   002746  0E00               	movlw	low _r_queue
  8841   002748  24F3               	addwf	243,w,c
  8842   00274A  6E07               	movwf	i2os_create_task@new_task^0,c
  8843   00274C  0E01               	movlw	high _r_queue
  8844   00274E  20F4               	addwfc	prodh,w,c
  8845   002750  6E08               	movwf	(i2os_create_task@new_task+1)^0,c
  8846   002752                     
  8847                           ; BSR set to: 1
  8848                           ;kernel.c: 34:     new_task->task_id = id;
  8849   002752  C007  FFD9         	movff	i2os_create_task@new_task,fsr2l
  8850   002756  C008  FFDA         	movff	i2os_create_task@new_task+1,fsr2h
  8851   00275A  C006  FFDF         	movff	i2os_create_task@id,indf2
  8852   00275E                     
  8853                           ; BSR set to: 1
  8854                           ;kernel.c: 35:     new_task->task_delay = 0;
  8855   00275E  EE20 F003          	lfsr	2,3
  8856   002762  5007               	movf	i2os_create_task@new_task^0,w,c
  8857   002764  26D9               	addwf	fsr2l,f,c
  8858   002766  5008               	movf	(i2os_create_task@new_task+1)^0,w,c
  8859   002768  22DA               	addwfc	fsr2h,f,c
  8860   00276A  6ADF               	clrf	indf2,c
  8861   00276C                     
  8862                           ; BSR set to: 1
  8863                           ;kernel.c: 36:     new_task->task_ptr = func;
  8864   00276C  EE20 F001          	lfsr	2,1
  8865   002770  5007               	movf	i2os_create_task@new_task^0,w,c
  8866   002772  26D9               	addwf	fsr2l,f,c
  8867   002774  5008               	movf	(i2os_create_task@new_task+1)^0,w,c
  8868   002776  22DA               	addwfc	fsr2h,f,c
  8869   002778  C002  FFDE         	movff	i2os_create_task@func,postinc2
  8870   00277C  C003  FFDD         	movff	i2os_create_task@func+1,postdec2
  8871   002780                     
  8872                           ; BSR set to: 1
  8873                           ;kernel.c: 37:     (((*new_task)).state_prio = (uint8_t)((((*new_task)).state_prio & 0xF
      +                          C) | (uint8_t)(READY)));
  8874   002780  EE20 F004          	lfsr	2,4
  8875   002784  5007               	movf	i2os_create_task@new_task^0,w,c
  8876   002786  26D9               	addwf	fsr2l,f,c
  8877   002788  5008               	movf	(i2os_create_task@new_task+1)^0,w,c
  8878   00278A  22DA               	addwfc	fsr2h,f,c
  8879   00278C  EE10 F004          	lfsr	1,4
  8880   002790  5007               	movf	i2os_create_task@new_task^0,w,c
  8881   002792  26E1               	addwf	fsr1l,f,c
  8882   002794  5008               	movf	(i2os_create_task@new_task+1)^0,w,c
  8883   002796  22E2               	addwfc	fsr1h,f,c
  8884   002798  50E7               	movf	indf1,w,c
  8885   00279A  0BFC               	andlw	252
  8886   00279C  6EDF               	movwf	indf2,c
  8887   00279E                     
  8888                           ; BSR set to: 1
  8889                           ;kernel.c: 38:     (((*new_task)).state_prio = (uint8_t)((((*new_task)).state_prio & 0x0
      +                          3) | ((uint8_t)(prior) << 2)));
  8890   00279E  EE20 F004          	lfsr	2,4
  8891   0027A2  5007               	movf	i2os_create_task@new_task^0,w,c
  8892   0027A4  26D9               	addwf	fsr2l,f,c
  8893   0027A6  5008               	movf	(i2os_create_task@new_task+1)^0,w,c
  8894   0027A8  22DA               	addwfc	fsr2h,f,c
  8895   0027AA  C004  F005         	movff	i2os_create_task@prior,??i2_os_create_task
  8896   0027AE  90D8               	bcf	status,0,c
  8897   0027B0  3605               	rlcf	??i2_os_create_task^0,f,c
  8898   0027B2  90D8               	bcf	status,0,c
  8899   0027B4  3605               	rlcf	??i2_os_create_task^0,f,c
  8900   0027B6  EE10 F004          	lfsr	1,4
  8901   0027BA  5007               	movf	i2os_create_task@new_task^0,w,c
  8902   0027BC  26E1               	addwf	fsr1l,f,c
  8903   0027BE  5008               	movf	(i2os_create_task@new_task+1)^0,w,c
  8904   0027C0  22E2               	addwfc	fsr1h,f,c
  8905   0027C2  50E7               	movf	indf1,w,c
  8906   0027C4  0B03               	andlw	3
  8907   0027C6  1005               	iorwf	??i2_os_create_task^0,w,c
  8908   0027C8  6EDF               	movwf	indf2,c
  8909   0027CA                     
  8910                           ; BSR set to: 1
  8911                           ;kernel.c: 40:     new_task->BSR_REG = 0;
  8912   0027CA  EE20 F007          	lfsr	2,7
  8913   0027CE  5007               	movf	i2os_create_task@new_task^0,w,c
  8914   0027D0  26D9               	addwf	fsr2l,f,c
  8915   0027D2  5008               	movf	(i2os_create_task@new_task+1)^0,w,c
  8916   0027D4  22DA               	addwfc	fsr2h,f,c
  8917   0027D6  6ADF               	clrf	indf2,c
  8918   0027D8                     
  8919                           ; BSR set to: 1
  8920                           ;kernel.c: 41:     new_task->STATUS_REG = 0;
  8921   0027D8  EE20 F006          	lfsr	2,6
  8922   0027DC  5007               	movf	i2os_create_task@new_task^0,w,c
  8923   0027DE  26D9               	addwf	fsr2l,f,c
  8924   0027E0  5008               	movf	(i2os_create_task@new_task+1)^0,w,c
  8925   0027E2  22DA               	addwfc	fsr2h,f,c
  8926   0027E4  6ADF               	clrf	indf2,c
  8927   0027E6                     
  8928                           ; BSR set to: 1
  8929                           ;kernel.c: 42:     new_task->W_REG = 0;
  8930   0027E6  EE20 F005          	lfsr	2,5
  8931   0027EA  5007               	movf	i2os_create_task@new_task^0,w,c
  8932   0027EC  26D9               	addwf	fsr2l,f,c
  8933   0027EE  5008               	movf	(i2os_create_task@new_task+1)^0,w,c
  8934   0027F0  22DA               	addwfc	fsr2h,f,c
  8935   0027F2  6ADF               	clrf	indf2,c
  8936   0027F4                     
  8937                           ; BSR set to: 1
  8938                           ;kernel.c: 43:     new_task->FSR0H_REG = 0;
  8939   0027F4  EE20 F009          	lfsr	2,9
  8940   0027F8  5007               	movf	i2os_create_task@new_task^0,w,c
  8941   0027FA  26D9               	addwf	fsr2l,f,c
  8942   0027FC  5008               	movf	(i2os_create_task@new_task+1)^0,w,c
  8943   0027FE  22DA               	addwfc	fsr2h,f,c
  8944   002800  6ADF               	clrf	indf2,c
  8945   002802                     
  8946                           ; BSR set to: 1
  8947                           ;kernel.c: 44:     new_task->FSR0L_REG = 0;
  8948   002802  EE20 F008          	lfsr	2,8
  8949   002806  5007               	movf	i2os_create_task@new_task^0,w,c
  8950   002808  26D9               	addwf	fsr2l,f,c
  8951   00280A  5008               	movf	(i2os_create_task@new_task+1)^0,w,c
  8952   00280C  22DA               	addwfc	fsr2h,f,c
  8953   00280E  6ADF               	clrf	indf2,c
  8954   002810                     
  8955                           ; BSR set to: 1
  8956                           ;kernel.c: 47:     new_task->task_stack.stack[0].TOSL_REG =
  8957   002810  EE20 F00A          	lfsr	2,10
  8958   002814  5007               	movf	i2os_create_task@new_task^0,w,c
  8959   002816  26D9               	addwf	fsr2l,f,c
  8960   002818  5008               	movf	(i2os_create_task@new_task+1)^0,w,c
  8961   00281A  22DA               	addwfc	fsr2h,f,c
  8962   00281C  C002  FFDF         	movff	i2os_create_task@func,indf2
  8963   002820                     
  8964                           ; BSR set to: 1
  8965                           ;kernel.c: 50:     new_task->task_stack.stack[0].TOSH_REG =
  8966   002820  EE20 F00B          	lfsr	2,11
  8967   002824  5007               	movf	i2os_create_task@new_task^0,w,c
  8968   002826  26D9               	addwf	fsr2l,f,c
  8969   002828  5008               	movf	(i2os_create_task@new_task+1)^0,w,c
  8970   00282A  22DA               	addwfc	fsr2h,f,c
  8971   00282C  5003               	movf	(i2os_create_task@func+1)^0,w,c
  8972   00282E  6EDF               	movwf	indf2,c
  8973   002830                     
  8974                           ; BSR set to: 1
  8975                           ;kernel.c: 53:     new_task->task_stack.stack[0].TOSU_REG = 0;
  8976   002830  EE20 F00C          	lfsr	2,12
  8977   002834  5007               	movf	i2os_create_task@new_task^0,w,c
  8978   002836  26D9               	addwf	fsr2l,f,c
  8979   002838  5008               	movf	(i2os_create_task@new_task+1)^0,w,c
  8980   00283A  22DA               	addwfc	fsr2h,f,c
  8981   00283C  6ADF               	clrf	indf2,c
  8982   00283E                     
  8983                           ; BSR set to: 1
  8984                           ;kernel.c: 55:     new_task->task_stack.stack_size = 1;
  8985   00283E  EE20 F022          	lfsr	2,34
  8986   002842  5007               	movf	i2os_create_task@new_task^0,w,c
  8987   002844  26D9               	addwf	fsr2l,f,c
  8988   002846  5008               	movf	(i2os_create_task@new_task+1)^0,w,c
  8989   002848  22DA               	addwfc	fsr2h,f,c
  8990   00284A  0E01               	movlw	1
  8991   00284C  6EDF               	movwf	indf2,c
  8992   00284E                     
  8993                           ; BSR set to: 1
  8994                           ;kernel.c: 57:     r_queue.size++;
  8995   00284E  2BD2               	incf	(_r_queue+210)& (0+255),f,b
  8996   002850                     i2l71:
  8997                           
  8998                           ; BSR set to: 1
  8999   002850  0012               	return		;funcret
  9000   002852                     __end_ofi2_os_create_task:
  9001                           	callstack 0
  9002                           
  9003                           	psect	smallconst
  9004   001000                     __psmallconst:
  9005                           	callstack 0
  9006   001000  00                 	db	0
  9007   001001  00                 	db	0	; dummy byte at the end
  9008   001000                     __smallconst    set	__psmallconst
  9009   001000                     __mediumconst   set	__psmallconst
  9010   000000                     __activetblptr  equ	0
  9011                           
  9012                           	psect	rparam
  9013   000001                     ___rparam_used  equ	1
  9014   000000                     ___param_bank   equ	0
  9015   000000                     __Lparam        equ	__Lrparam
  9016   000000                     __Hparam        equ	__Hrparam
  9017   000001                     btemp           set	1	;btemp
  9018   000001                     int$flags       set	1
  9019   000001                     btemp0          set	1
  9020   000002                     btemp1          set	2
  9021                           tosu	equ	0xFFF
  9022                           tosh	equ	0xFFE
  9023                           tosl	equ	0xFFD
  9024                           stkptr	equ	0xFFC
  9025                           pclatu	equ	0xFFB
  9026                           pclath	equ	0xFFA
  9027                           pcl	equ	0xFF9
  9028                           tblptru	equ	0xFF8
  9029                           tblptrh	equ	0xFF7
  9030                           tblptrl	equ	0xFF6
  9031                           tablat	equ	0xFF5
  9032                           prodh	equ	0xFF4
  9033                           prodl	equ	0xFF3
  9034                           indf0	equ	0xFEF
  9035                           postinc0	equ	0xFEE
  9036                           postdec0	equ	0xFED
  9037                           preinc0	equ	0xFEC
  9038                           plusw0	equ	0xFEB
  9039                           fsr0h	equ	0xFEA
  9040                           fsr0l	equ	0xFE9
  9041                           wreg	equ	0xFE8
  9042                           indf1	equ	0xFE7
  9043                           postinc1	equ	0xFE6
  9044                           postdec1	equ	0xFE5
  9045                           preinc1	equ	0xFE4
  9046                           plusw1	equ	0xFE3
  9047                           fsr1h	equ	0xFE2
  9048                           fsr1l	equ	0xFE1
  9049                           bsr	equ	0xFE0
  9050                           indf2	equ	0xFDF
  9051                           postinc2	equ	0xFDE
  9052                           postdec2	equ	0xFDD
  9053                           preinc2	equ	0xFDC
  9054                           plusw2	equ	0xFDB
  9055                           fsr2h	equ	0xFDA
  9056                           fsr2l	equ	0xFD9
  9057                           status	equ	0xFD8

Data Sizes:
    Strings     0
    Constant    0
    Data        1
    BSS         775
    Persistent  0
    Stack       0

Auto Spaces:
    Space          Size  Autos    Used
    COMRAM           94     21      32
    BANK0           160     16      57
    BANK1           256      0     212
    BANK2           256     92      92
    BANK3           256      0       0
    BANK4           256      0       0
    BANK5           256      0       0
    BANK6           256      0       0
    BANK7           256      0       0
    BANK8           256      0       0
    BANK9           256      0       0
    BANK10          256      0       0
    BANK11          256      0       0
    BANK12          256      0       0
    BANK13          256      0       0
    BANK14          256      0       0
    BANK15           56      0       0

Pointer List with Targets:

    mutex_init@m	PTR struct mutex size(1) Largest target is 10
		 -> mutex_recurso(BANK0[10]), 

    mutex_lock@m	PTR struct mutex size(1) Largest target is 10
		 -> mutex_recurso(BANK0[10]), 

    mutex_unlock@m	PTR struct mutex size(1) Largest target is 10
		 -> mutex_recurso(BANK0[10]), 

    os_create_task@func	PTR FTN()void  size(2) Largest target is 1
		 -> idle(), tarefaControlePWM(), tarefaFeedbackLED(), tarefaLeituraADC(), 
		 -> tarefaOneShot(), tarefaProcessamento(), 

    os_create_task@new_task	PTR struct tcb size(2) Largest target is 212
		 -> r_queue(BANK1[212]), r_queue$TASKS(BANK1[210]), 

    os_create_task@new_task$task_ptr	PTR FTN()void  size(2) Largest target is 1
		 -> idle(), tarefaControlePWM(), tarefaFeedbackLED(), tarefaLeituraADC(), 
		 -> tarefaOneShot(), tarefaProcessamento(), 

    os_task_change_state@task_handle	PTR struct tcb size(2) Largest target is 0
		 -> NULL(NULL[0]), 

    os_task_change_state@task_handle$task_ptr	PTR FTN()void  size(2) Largest target is 1
		 -> idle(), tarefaControlePWM(), tarefaFeedbackLED(), tarefaLeituraADC(), 
		 -> tarefaOneShot(), tarefaProcessamento(), 

    pipe_init@p	PTR struct pipe size(1) Largest target is 22
		 -> pipe_adc(BANK0[22]), 

    pipe_read@dado	PTR unsigned char  size(2) Largest target is 1
		 -> tarefaProcessamento@dado(BANK2[1]), 

    pipe_read@p	PTR struct pipe size(1) Largest target is 22
		 -> pipe_adc(BANK0[22]), 

    pipe_write@p	PTR struct pipe size(1) Largest target is 22
		 -> pipe_adc(BANK0[22]), 

    r_queue$task_ptr	PTR FTN()void  size(2) Largest target is 1
		 -> idle(), tarefaControlePWM(), tarefaFeedbackLED(), tarefaLeituraADC(), 
		 -> tarefaOneShot(), tarefaProcessamento(), 

    r_queue$TASKS$task_ptr	PTR FTN()void  size(2) Largest target is 1
		 -> idle(), tarefaControlePWM(), tarefaFeedbackLED(), tarefaLeituraADC(), 
		 -> tarefaOneShot(), tarefaProcessamento(), 

    S69tcb$task_ptr	PTR FTN()void  size(2) Largest target is 1
		 -> idle(), tarefaControlePWM(), tarefaFeedbackLED(), tarefaLeituraADC(), 
		 -> tarefaOneShot(), tarefaProcessamento(), 

    sem_init@sem	PTR struct sem size(1) Largest target is 22
		 -> pipe_adc(BANK0[22]), sem_processamento(BANK0[8]), 

    sem_post@sem	PTR struct sem size(1) Largest target is 22
		 -> pipe_adc(BANK0[22]), sem_processamento(BANK0[8]), 

    sem_wait@sem	PTR struct sem size(1) Largest target is 22
		 -> pipe_adc(BANK0[22]), sem_processamento(BANK0[8]), 

    sp__SRAMalloc	PTR unsigned char  size(2) Largest target is 512
		 -> _uDynamicHeap(BIGRAM[512]), NULL(NULL[0]), 


Critical Paths under _main in COMRAM

    None.

Critical Paths under _idle in COMRAM

    None.

Critical Paths under _idle in COMRAM

    None.

Critical Paths under _tarefaLeituraADC in COMRAM

    _tarefaLeituraADC->_adc_read

Critical Paths under _tarefaProcessamento in COMRAM

    None.

Critical Paths under _tarefaControlePWM in COMRAM

    None.

Critical Paths under _tarefaFeedbackLED in COMRAM

    None.

Critical Paths under _tarefaLeituraADC in COMRAM

    _tarefaLeituraADC->_adc_read

Critical Paths under _tarefaProcessamento in COMRAM

    None.

Critical Paths under _tarefaControlePWM in COMRAM

    None.

Critical Paths under _tarefaFeedbackLED in COMRAM

    None.

Critical Paths under _tarefaOneShot in COMRAM

    None.

Critical Paths under _ISR in COMRAM

    _ISR->i2_os_create_task
    i2_scheduler->i2_priority_rr_scheduler

Critical Paths under _main in BANK0

    None.

Critical Paths under _idle in BANK0

    None.

Critical Paths under _idle in BANK0

    None.

Critical Paths under _tarefaLeituraADC in BANK0

    _tarefaLeituraADC->_pipe_write
    _sem_post->___awmod

Critical Paths under _tarefaProcessamento in BANK0

    _tarefaProcessamento->_sem_post
    _pipe_read->_sem_post
    _sem_post->___awmod

Critical Paths under _tarefaControlePWM in BANK0

    None.

Critical Paths under _tarefaFeedbackLED in BANK0

    None.

Critical Paths under _tarefaLeituraADC in BANK0

    _tarefaLeituraADC->_pipe_write
    _sem_post->___awmod

Critical Paths under _tarefaProcessamento in BANK0

    _tarefaProcessamento->_sem_post
    _pipe_read->_sem_post
    _sem_post->___awmod

Critical Paths under _tarefaControlePWM in BANK0

    None.

Critical Paths under _tarefaFeedbackLED in BANK0

    None.

Critical Paths under _tarefaOneShot in BANK0

    None.

Critical Paths under _ISR in BANK0

    None.

Critical Paths under _main in BANK1

    None.

Critical Paths under _idle in BANK1

    None.

Critical Paths under _idle in BANK1

    None.

Critical Paths under _tarefaLeituraADC in BANK1

    None.

Critical Paths under _tarefaProcessamento in BANK1

    None.

Critical Paths under _tarefaControlePWM in BANK1

    None.

Critical Paths under _tarefaFeedbackLED in BANK1

    None.

Critical Paths under _tarefaLeituraADC in BANK1

    None.

Critical Paths under _tarefaProcessamento in BANK1

    None.

Critical Paths under _tarefaControlePWM in BANK1

    None.

Critical Paths under _tarefaFeedbackLED in BANK1

    None.

Critical Paths under _tarefaOneShot in BANK1

    None.

Critical Paths under _ISR in BANK1

    None.

Critical Paths under _main in BANK2

    _main->_os_create_task
    _scheduler->_priority_rr_scheduler
    _os_config->_os_create_task
    _config_user->_pipe_init
    _pipe_init->_sem_init

Critical Paths under _idle in BANK2

    None.

Critical Paths under _idle in BANK2

    None.

Critical Paths under _tarefaLeituraADC in BANK2

    _sem_post->___awmod
    i1_scheduler->i1_priority_rr_scheduler

Critical Paths under _tarefaProcessamento in BANK2

    _tarefaProcessamento->_pipe_read
    _pipe_read->_sem_post
    _sem_post->___awmod
    i1_scheduler->i1_priority_rr_scheduler

Critical Paths under _tarefaControlePWM in BANK2

    _tarefaControlePWM->_mutex_lock
    _tarefaControlePWM->_sem_wait
    i1_scheduler->i1_priority_rr_scheduler

Critical Paths under _tarefaFeedbackLED in BANK2

    i1_scheduler->i1_priority_rr_scheduler

Critical Paths under _tarefaLeituraADC in BANK2

    _sem_post->___awmod
    i1_scheduler->i1_priority_rr_scheduler

Critical Paths under _tarefaProcessamento in BANK2

    _tarefaProcessamento->_pipe_read
    _pipe_read->_sem_post
    _sem_post->___awmod
    i1_scheduler->i1_priority_rr_scheduler

Critical Paths under _tarefaControlePWM in BANK2

    _tarefaControlePWM->_mutex_lock
    _tarefaControlePWM->_sem_wait
    i1_scheduler->i1_priority_rr_scheduler

Critical Paths under _tarefaFeedbackLED in BANK2

    i1_scheduler->i1_priority_rr_scheduler

Critical Paths under _tarefaOneShot in BANK2

    _tarefaOneShot->_os_task_change_state
    i1_scheduler->i1_priority_rr_scheduler

Critical Paths under _ISR in BANK2

    None.

Critical Paths under _main in BANK3

    None.

Critical Paths under _idle in BANK3

    None.

Critical Paths under _idle in BANK3

    None.

Critical Paths under _tarefaLeituraADC in BANK3

    None.

Critical Paths under _tarefaProcessamento in BANK3

    None.

Critical Paths under _tarefaControlePWM in BANK3

    None.

Critical Paths under _tarefaFeedbackLED in BANK3

    None.

Critical Paths under _tarefaLeituraADC in BANK3

    None.

Critical Paths under _tarefaProcessamento in BANK3

    None.

Critical Paths under _tarefaControlePWM in BANK3

    None.

Critical Paths under _tarefaFeedbackLED in BANK3

    None.

Critical Paths under _tarefaOneShot in BANK3

    None.

Critical Paths under _ISR in BANK3

    None.

Critical Paths under _main in BANK4

    None.

Critical Paths under _idle in BANK4

    None.

Critical Paths under _idle in BANK4

    None.

Critical Paths under _tarefaLeituraADC in BANK4

    None.

Critical Paths under _tarefaProcessamento in BANK4

    None.

Critical Paths under _tarefaControlePWM in BANK4

    None.

Critical Paths under _tarefaFeedbackLED in BANK4

    None.

Critical Paths under _tarefaLeituraADC in BANK4

    None.

Critical Paths under _tarefaProcessamento in BANK4

    None.

Critical Paths under _tarefaControlePWM in BANK4

    None.

Critical Paths under _tarefaFeedbackLED in BANK4

    None.

Critical Paths under _tarefaOneShot in BANK4

    None.

Critical Paths under _ISR in BANK4

    None.

Critical Paths under _main in BANK5

    None.

Critical Paths under _idle in BANK5

    None.

Critical Paths under _idle in BANK5

    None.

Critical Paths under _tarefaLeituraADC in BANK5

    None.

Critical Paths under _tarefaProcessamento in BANK5

    None.

Critical Paths under _tarefaControlePWM in BANK5

    None.

Critical Paths under _tarefaFeedbackLED in BANK5

    None.

Critical Paths under _tarefaLeituraADC in BANK5

    None.

Critical Paths under _tarefaProcessamento in BANK5

    None.

Critical Paths under _tarefaControlePWM in BANK5

    None.

Critical Paths under _tarefaFeedbackLED in BANK5

    None.

Critical Paths under _tarefaOneShot in BANK5

    None.

Critical Paths under _ISR in BANK5

    None.

Critical Paths under _main in BANK6

    None.

Critical Paths under _idle in BANK6

    None.

Critical Paths under _idle in BANK6

    None.

Critical Paths under _tarefaLeituraADC in BANK6

    None.

Critical Paths under _tarefaProcessamento in BANK6

    None.

Critical Paths under _tarefaControlePWM in BANK6

    None.

Critical Paths under _tarefaFeedbackLED in BANK6

    None.

Critical Paths under _tarefaLeituraADC in BANK6

    None.

Critical Paths under _tarefaProcessamento in BANK6

    None.

Critical Paths under _tarefaControlePWM in BANK6

    None.

Critical Paths under _tarefaFeedbackLED in BANK6

    None.

Critical Paths under _tarefaOneShot in BANK6

    None.

Critical Paths under _ISR in BANK6

    None.

Critical Paths under _main in BANK7

    None.

Critical Paths under _idle in BANK7

    None.

Critical Paths under _idle in BANK7

    None.

Critical Paths under _tarefaLeituraADC in BANK7

    None.

Critical Paths under _tarefaProcessamento in BANK7

    None.

Critical Paths under _tarefaControlePWM in BANK7

    None.

Critical Paths under _tarefaFeedbackLED in BANK7

    None.

Critical Paths under _tarefaLeituraADC in BANK7

    None.

Critical Paths under _tarefaProcessamento in BANK7

    None.

Critical Paths under _tarefaControlePWM in BANK7

    None.

Critical Paths under _tarefaFeedbackLED in BANK7

    None.

Critical Paths under _tarefaOneShot in BANK7

    None.

Critical Paths under _ISR in BANK7

    None.

Critical Paths under _main in BANK8

    None.

Critical Paths under _idle in BANK8

    None.

Critical Paths under _idle in BANK8

    None.

Critical Paths under _tarefaLeituraADC in BANK8

    None.

Critical Paths under _tarefaProcessamento in BANK8

    None.

Critical Paths under _tarefaControlePWM in BANK8

    None.

Critical Paths under _tarefaFeedbackLED in BANK8

    None.

Critical Paths under _tarefaLeituraADC in BANK8

    None.

Critical Paths under _tarefaProcessamento in BANK8

    None.

Critical Paths under _tarefaControlePWM in BANK8

    None.

Critical Paths under _tarefaFeedbackLED in BANK8

    None.

Critical Paths under _tarefaOneShot in BANK8

    None.

Critical Paths under _ISR in BANK8

    None.

Critical Paths under _main in BANK9

    None.

Critical Paths under _idle in BANK9

    None.

Critical Paths under _idle in BANK9

    None.

Critical Paths under _tarefaLeituraADC in BANK9

    None.

Critical Paths under _tarefaProcessamento in BANK9

    None.

Critical Paths under _tarefaControlePWM in BANK9

    None.

Critical Paths under _tarefaFeedbackLED in BANK9

    None.

Critical Paths under _tarefaLeituraADC in BANK9

    None.

Critical Paths under _tarefaProcessamento in BANK9

    None.

Critical Paths under _tarefaControlePWM in BANK9

    None.

Critical Paths under _tarefaFeedbackLED in BANK9

    None.

Critical Paths under _tarefaOneShot in BANK9

    None.

Critical Paths under _ISR in BANK9

    None.

Critical Paths under _main in BANK10

    None.

Critical Paths under _idle in BANK10

    None.

Critical Paths under _idle in BANK10

    None.

Critical Paths under _tarefaLeituraADC in BANK10

    None.

Critical Paths under _tarefaProcessamento in BANK10

    None.

Critical Paths under _tarefaControlePWM in BANK10

    None.

Critical Paths under _tarefaFeedbackLED in BANK10

    None.

Critical Paths under _tarefaLeituraADC in BANK10

    None.

Critical Paths under _tarefaProcessamento in BANK10

    None.

Critical Paths under _tarefaControlePWM in BANK10

    None.

Critical Paths under _tarefaFeedbackLED in BANK10

    None.

Critical Paths under _tarefaOneShot in BANK10

    None.

Critical Paths under _ISR in BANK10

    None.

Critical Paths under _main in BANK11

    None.

Critical Paths under _idle in BANK11

    None.

Critical Paths under _idle in BANK11

    None.

Critical Paths under _tarefaLeituraADC in BANK11

    None.

Critical Paths under _tarefaProcessamento in BANK11

    None.

Critical Paths under _tarefaControlePWM in BANK11

    None.

Critical Paths under _tarefaFeedbackLED in BANK11

    None.

Critical Paths under _tarefaLeituraADC in BANK11

    None.

Critical Paths under _tarefaProcessamento in BANK11

    None.

Critical Paths under _tarefaControlePWM in BANK11

    None.

Critical Paths under _tarefaFeedbackLED in BANK11

    None.

Critical Paths under _tarefaOneShot in BANK11

    None.

Critical Paths under _ISR in BANK11

    None.

Critical Paths under _main in BANK12

    None.

Critical Paths under _idle in BANK12

    None.

Critical Paths under _idle in BANK12

    None.

Critical Paths under _tarefaLeituraADC in BANK12

    None.

Critical Paths under _tarefaProcessamento in BANK12

    None.

Critical Paths under _tarefaControlePWM in BANK12

    None.

Critical Paths under _tarefaFeedbackLED in BANK12

    None.

Critical Paths under _tarefaLeituraADC in BANK12

    None.

Critical Paths under _tarefaProcessamento in BANK12

    None.

Critical Paths under _tarefaControlePWM in BANK12

    None.

Critical Paths under _tarefaFeedbackLED in BANK12

    None.

Critical Paths under _tarefaOneShot in BANK12

    None.

Critical Paths under _ISR in BANK12

    None.

Critical Paths under _main in BANK13

    None.

Critical Paths under _idle in BANK13

    None.

Critical Paths under _idle in BANK13

    None.

Critical Paths under _tarefaLeituraADC in BANK13

    None.

Critical Paths under _tarefaProcessamento in BANK13

    None.

Critical Paths under _tarefaControlePWM in BANK13

    None.

Critical Paths under _tarefaFeedbackLED in BANK13

    None.

Critical Paths under _tarefaLeituraADC in BANK13

    None.

Critical Paths under _tarefaProcessamento in BANK13

    None.

Critical Paths under _tarefaControlePWM in BANK13

    None.

Critical Paths under _tarefaFeedbackLED in BANK13

    None.

Critical Paths under _tarefaOneShot in BANK13

    None.

Critical Paths under _ISR in BANK13

    None.

Critical Paths under _main in BANK14

    None.

Critical Paths under _idle in BANK14

    None.

Critical Paths under _idle in BANK14

    None.

Critical Paths under _tarefaLeituraADC in BANK14

    None.

Critical Paths under _tarefaProcessamento in BANK14

    None.

Critical Paths under _tarefaControlePWM in BANK14

    None.

Critical Paths under _tarefaFeedbackLED in BANK14

    None.

Critical Paths under _tarefaLeituraADC in BANK14

    None.

Critical Paths under _tarefaProcessamento in BANK14

    None.

Critical Paths under _tarefaControlePWM in BANK14

    None.

Critical Paths under _tarefaFeedbackLED in BANK14

    None.

Critical Paths under _tarefaOneShot in BANK14

    None.

Critical Paths under _ISR in BANK14

    None.

Critical Paths under _main in BANK15

    None.

Critical Paths under _idle in BANK15

    None.

Critical Paths under _idle in BANK15

    None.

Critical Paths under _tarefaLeituraADC in BANK15

    None.

Critical Paths under _tarefaProcessamento in BANK15

    None.

Critical Paths under _tarefaControlePWM in BANK15

    None.

Critical Paths under _tarefaFeedbackLED in BANK15

    None.

Critical Paths under _tarefaLeituraADC in BANK15

    None.

Critical Paths under _tarefaProcessamento in BANK15

    None.

Critical Paths under _tarefaControlePWM in BANK15

    None.

Critical Paths under _tarefaFeedbackLED in BANK15

    None.

Critical Paths under _tarefaOneShot in BANK15

    None.

Critical Paths under _ISR in BANK15

    None.

Call Graph Tables:

 ---------------------------------------------------------------------------------
 (Depth) Function   	        Calls       Base Space   Used Autos Params    Refs
 ---------------------------------------------------------------------------------
 (0) _main                                                 0     0      0    2780
                          _os_config
                     _os_create_task
                           _os_start
 ---------------------------------------------------------------------------------
 (1) _os_start                                             5     5      0       0
                                             86 BANK2      5     5      0
                          _scheduler
                     _setup_hardware
 ---------------------------------------------------------------------------------
 (2) _setup_hardware                                       0     0      0       0
 ---------------------------------------------------------------------------------
 (2) _scheduler                                            0     0      0       0
              _priority_rr_scheduler
 ---------------------------------------------------------------------------------
 (3) _priority_rr_scheduler                                1     1      0       0
                                             85 BANK2      1     1      0
 ---------------------------------------------------------------------------------
 (1) _os_config                                            0     0      0    1789
                        _config_user
                     _os_create_task
 ---------------------------------------------------------------------------------
 (2) _os_create_task                                       7     4      3     991
                                             85 BANK2      7     4      3
 ---------------------------------------------------------------------------------
 (2) _config_user                                          0     0      0     798
                         _adc_config
                         _mutex_init
                          _pipe_init
                           _pwm_init
                           _sem_init
 ---------------------------------------------------------------------------------
 (3) _pwm_init                                             0     0      0       0
 ---------------------------------------------------------------------------------
 (3) _pipe_init                                            1     0      1     378
                                             87 BANK2      1     0      1
                           _sem_init
 ---------------------------------------------------------------------------------
 (4) _sem_init                                             2     0      2     204
                                             85 BANK2      2     0      2
 ---------------------------------------------------------------------------------
 (3) _mutex_init                                           1     0      1     216
                                             85 BANK2      1     0      1
 ---------------------------------------------------------------------------------
 (3) _adc_config                                           0     0      0       0
 ---------------------------------------------------------------------------------
 Estimated maximum stack depth 4
 ---------------------------------------------------------------------------------
 (Depth) Function   	        Calls       Base Space   Used Autos Params    Refs
 ---------------------------------------------------------------------------------
 (5) _idle                                                 1     1      0       0
                                              0 COMRAM     1     1      0
 ---------------------------------------------------------------------------------
 Estimated maximum stack depth 5
 ---------------------------------------------------------------------------------
 (Depth) Function   	        Calls       Base Space   Used Autos Params    Refs
 ---------------------------------------------------------------------------------
 (5) _idle                                                 1     1      0       0
                                              0 COMRAM     1     1      0
 ---------------------------------------------------------------------------------
 Estimated maximum stack depth 5
 ---------------------------------------------------------------------------------
 (Depth) Function   	        Calls       Base Space   Used Autos Params    Refs
 ---------------------------------------------------------------------------------
 (5) _tarefaLeituraADC                                     1     1      0    3866
                                              8 COMRAM     1     1      0
                           _adc_read
                           _os_delay
                         _pipe_write
 ---------------------------------------------------------------------------------
 (6) _pipe_write                                           3     1      2    3552
                                              5 COMRAM     1     1      0
                                             11 BANK0      2     0      2
                           _sem_post
                           _sem_wait
 ---------------------------------------------------------------------------------
 (7) _sem_wait                                             6     5      1     672
                                             60 BANK2      6     5      1
                        i1_scheduler
 ---------------------------------------------------------------------------------
 (7) _sem_post                                             5     4      1    2142
                                             15 BANK0      1     0      1
                                             50 BANK2      4     4      0
                            ___awmod
 ---------------------------------------------------------------------------------
 (8) ___awmod                                              6     2      4    1383
                                             13 BANK0      2     2      0
                                             46 BANK2      4     0      4
 ---------------------------------------------------------------------------------
 (6) _os_delay                                             6     6      0     159
                                             77 BANK2      6     6      0
                        i1_scheduler
 ---------------------------------------------------------------------------------
 (8) i1_scheduler                                          0     0      0       0
            i1_priority_rr_scheduler
 ---------------------------------------------------------------------------------
 (9) i1_priority_rr_scheduler                              1     1      0       0
                                             76 BANK2      1     1      0
 ---------------------------------------------------------------------------------
 (6) _adc_read                                             5     3      2      47
                                              5 COMRAM     3     3      0
                                              8 BANK0      2     0      2
 ---------------------------------------------------------------------------------
 Estimated maximum stack depth 9
 ---------------------------------------------------------------------------------
 (Depth) Function   	        Calls       Base Space   Used Autos Params    Refs
 ---------------------------------------------------------------------------------
 (5) _tarefaProcessamento                                  1     1      0    6618
                                             58 BANK2      1     1      0
               _os_task_change_state
                          _pipe_read
                           _sem_post
 ---------------------------------------------------------------------------------
 (6) _pipe_read                                            4     1      3    3552
                                             54 BANK2      4     1      3
                           _sem_post
                           _sem_wait
 ---------------------------------------------------------------------------------
 (7) _sem_wait                                             6     5      1     672
                                             60 BANK2      6     5      1
                        i1_scheduler
 ---------------------------------------------------------------------------------
 (7) _sem_post                                             5     4      1    2142
                                             15 BANK0      1     0      1
                                             50 BANK2      4     4      0
                            ___awmod
 ---------------------------------------------------------------------------------
 (8) ___awmod                                              6     2      4    1383
                                             13 BANK0      2     2      0
                                             46 BANK2      4     0      4
 ---------------------------------------------------------------------------------
 (6) _os_task_change_state                                 8     6      2     621
                                             77 BANK2      8     6      2
                        i1_scheduler
 ---------------------------------------------------------------------------------
 (8) i1_scheduler                                          0     0      0       0
            i1_priority_rr_scheduler
 ---------------------------------------------------------------------------------
 (9) i1_priority_rr_scheduler                              1     1      0       0
                                             76 BANK2      1     1      0
 ---------------------------------------------------------------------------------
 Estimated maximum stack depth 9
 ---------------------------------------------------------------------------------
 (Depth) Function   	        Calls       Base Space   Used Autos Params    Refs
 ---------------------------------------------------------------------------------
 (5) _tarefaControlePWM                                    2     2      0    3018
                                             66 BANK2      2     2      0
                         _mutex_lock
                       _mutex_unlock
                       _pwm_set_duty
                           _sem_wait
 ---------------------------------------------------------------------------------
 (7) _sem_wait                                             6     5      1     672
                                             60 BANK2      6     5      1
                        i1_scheduler
 ---------------------------------------------------------------------------------
 (6) _pwm_set_duty                                         4     2      2     195
                                             59 BANK2      4     2      2
 ---------------------------------------------------------------------------------
 (6) _mutex_unlock                                         4     3      1    1260
                                             59 BANK2      4     3      1
 ---------------------------------------------------------------------------------
 (6) _mutex_lock                                           6     5      1     891
                                             60 BANK2      6     5      1
                        i1_scheduler
 ---------------------------------------------------------------------------------
 (8) i1_scheduler                                          0     0      0       0
            i1_priority_rr_scheduler
 ---------------------------------------------------------------------------------
 (9) i1_priority_rr_scheduler                              1     1      0       0
                                             76 BANK2      1     1      0
 ---------------------------------------------------------------------------------
 Estimated maximum stack depth 9
 ---------------------------------------------------------------------------------
 (Depth) Function   	        Calls       Base Space   Used Autos Params    Refs
 ---------------------------------------------------------------------------------
 (5) _tarefaFeedbackLED                                    1     1      0     159
                                             75 BANK2      1     1      0
                           _os_delay
 ---------------------------------------------------------------------------------
 (6) _os_delay                                             6     6      0     159
                                             77 BANK2      6     6      0
                        i1_scheduler
 ---------------------------------------------------------------------------------
 (8) i1_scheduler                                          0     0      0       0
            i1_priority_rr_scheduler
 ---------------------------------------------------------------------------------
 (9) i1_priority_rr_scheduler                              1     1      0       0
                                             76 BANK2      1     1      0
 ---------------------------------------------------------------------------------
 Estimated maximum stack depth 9
 ---------------------------------------------------------------------------------
 (Depth) Function   	        Calls       Base Space   Used Autos Params    Refs
 ---------------------------------------------------------------------------------
 (5) _tarefaLeituraADC                                     1     1      0    3866
                                              8 COMRAM     1     1      0
                           _adc_read
                           _os_delay
                         _pipe_write
 ---------------------------------------------------------------------------------
 (6) _pipe_write                                           3     1      2    3552
                                              5 COMRAM     1     1      0
                                             11 BANK0      2     0      2
                           _sem_post
                           _sem_wait
 ---------------------------------------------------------------------------------
 (7) _sem_wait                                             6     5      1     672
                                             60 BANK2      6     5      1
                        i1_scheduler
 ---------------------------------------------------------------------------------
 (7) _sem_post                                             5     4      1    2142
                                             15 BANK0      1     0      1
                                             50 BANK2      4     4      0
                            ___awmod
 ---------------------------------------------------------------------------------
 (8) ___awmod                                              6     2      4    1383
                                             13 BANK0      2     2      0
                                             46 BANK2      4     0      4
 ---------------------------------------------------------------------------------
 (6) _os_delay                                             6     6      0     159
                                             77 BANK2      6     6      0
                        i1_scheduler
 ---------------------------------------------------------------------------------
 (8) i1_scheduler                                          0     0      0       0
            i1_priority_rr_scheduler
 ---------------------------------------------------------------------------------
 (9) i1_priority_rr_scheduler                              1     1      0       0
                                             76 BANK2      1     1      0
 ---------------------------------------------------------------------------------
 (6) _adc_read                                             5     3      2      47
                                              5 COMRAM     3     3      0
                                              8 BANK0      2     0      2
 ---------------------------------------------------------------------------------
 Estimated maximum stack depth 9
 ---------------------------------------------------------------------------------
 (Depth) Function   	        Calls       Base Space   Used Autos Params    Refs
 ---------------------------------------------------------------------------------
 (5) _tarefaProcessamento                                  1     1      0    6618
                                             58 BANK2      1     1      0
               _os_task_change_state
                          _pipe_read
                           _sem_post
 ---------------------------------------------------------------------------------
 (6) _pipe_read                                            4     1      3    3552
                                             54 BANK2      4     1      3
                           _sem_post
                           _sem_wait
 ---------------------------------------------------------------------------------
 (7) _sem_wait                                             6     5      1     672
                                             60 BANK2      6     5      1
                        i1_scheduler
 ---------------------------------------------------------------------------------
 (7) _sem_post                                             5     4      1    2142
                                             15 BANK0      1     0      1
                                             50 BANK2      4     4      0
                            ___awmod
 ---------------------------------------------------------------------------------
 (8) ___awmod                                              6     2      4    1383
                                             13 BANK0      2     2      0
                                             46 BANK2      4     0      4
 ---------------------------------------------------------------------------------
 (6) _os_task_change_state                                 8     6      2     621
                                             77 BANK2      8     6      2
                        i1_scheduler
 ---------------------------------------------------------------------------------
 (8) i1_scheduler                                          0     0      0       0
            i1_priority_rr_scheduler
 ---------------------------------------------------------------------------------
 (9) i1_priority_rr_scheduler                              1     1      0       0
                                             76 BANK2      1     1      0
 ---------------------------------------------------------------------------------
 Estimated maximum stack depth 9
 ---------------------------------------------------------------------------------
 (Depth) Function   	        Calls       Base Space   Used Autos Params    Refs
 ---------------------------------------------------------------------------------
 (5) _tarefaControlePWM                                    2     2      0    3018
                                             66 BANK2      2     2      0
                         _mutex_lock
                       _mutex_unlock
                       _pwm_set_duty
                           _sem_wait
 ---------------------------------------------------------------------------------
 (7) _sem_wait                                             6     5      1     672
                                             60 BANK2      6     5      1
                        i1_scheduler
 ---------------------------------------------------------------------------------
 (6) _pwm_set_duty                                         4     2      2     195
                                             59 BANK2      4     2      2
 ---------------------------------------------------------------------------------
 (6) _mutex_unlock                                         4     3      1    1260
                                             59 BANK2      4     3      1
 ---------------------------------------------------------------------------------
 (6) _mutex_lock                                           6     5      1     891
                                             60 BANK2      6     5      1
                        i1_scheduler
 ---------------------------------------------------------------------------------
 (8) i1_scheduler                                          0     0      0       0
            i1_priority_rr_scheduler
 ---------------------------------------------------------------------------------
 (9) i1_priority_rr_scheduler                              1     1      0       0
                                             76 BANK2      1     1      0
 ---------------------------------------------------------------------------------
 Estimated maximum stack depth 9
 ---------------------------------------------------------------------------------
 (Depth) Function   	        Calls       Base Space   Used Autos Params    Refs
 ---------------------------------------------------------------------------------
 (5) _tarefaFeedbackLED                                    1     1      0     159
                                             75 BANK2      1     1      0
                           _os_delay
 ---------------------------------------------------------------------------------
 (6) _os_delay                                             6     6      0     159
                                             77 BANK2      6     6      0
                        i1_scheduler
 ---------------------------------------------------------------------------------
 (8) i1_scheduler                                          0     0      0       0
            i1_priority_rr_scheduler
 ---------------------------------------------------------------------------------
 (9) i1_priority_rr_scheduler                              1     1      0       0
                                             76 BANK2      1     1      0
 ---------------------------------------------------------------------------------
 Estimated maximum stack depth 9
 ---------------------------------------------------------------------------------
 (Depth) Function   	        Calls       Base Space   Used Autos Params    Refs
 ---------------------------------------------------------------------------------
 (5) _tarefaOneShot                                        0     0      0     780
                           _os_delay
               _os_task_change_state
 ---------------------------------------------------------------------------------
 (6) _os_task_change_state                                 8     6      2     621
                                             77 BANK2      8     6      2
                        i1_scheduler
 ---------------------------------------------------------------------------------
 (6) _os_delay                                             6     6      0     159
                                             77 BANK2      6     6      0
                        i1_scheduler
 ---------------------------------------------------------------------------------
 (8) i1_scheduler                                          0     0      0       0
            i1_priority_rr_scheduler
 ---------------------------------------------------------------------------------
 (9) i1_priority_rr_scheduler                              1     1      0       0
                                             76 BANK2      1     1      0
 ---------------------------------------------------------------------------------
 Estimated maximum stack depth 9
 ---------------------------------------------------------------------------------
 (Depth) Function   	        Calls       Base Space   Used Autos Params    Refs
 ---------------------------------------------------------------------------------
 (10) _ISR                                                13    13      0    1036
                                              7 COMRAM    13    13      0
                   i2_os_create_task
                        i2_scheduler
 ---------------------------------------------------------------------------------
 (11) i2_scheduler                                         0     0      0       0
            i2_priority_rr_scheduler
 ---------------------------------------------------------------------------------
 (12) i2_priority_rr_scheduler                             1     1      0       0
                                              0 COMRAM     1     1      0
 ---------------------------------------------------------------------------------
 (11) i2_os_create_task                                    7     4      3     472
                                              0 COMRAM     7     4      3
 ---------------------------------------------------------------------------------
 Estimated maximum stack depth 12
 ---------------------------------------------------------------------------------

 Call Graph Graphs:

 _main (ROOT)
   _os_config
     _config_user
       _adc_config
       _mutex_init
       _pipe_init
         _sem_init
       _pwm_init
       _sem_init
     _os_create_task
   _os_create_task
   _os_start
     _scheduler
       _priority_rr_scheduler
     _setup_hardware

 _idle (ROOT)

 _idle (ROOT)

 _tarefaLeituraADC (ROOT)
   _adc_read
   _os_delay
     i1_scheduler
       i1_priority_rr_scheduler
   _pipe_write
     _sem_post
       ___awmod
     _sem_wait
       i1_scheduler

 _tarefaProcessamento (ROOT)
   _os_task_change_state
     i1_scheduler
       i1_priority_rr_scheduler
   _pipe_read
     _sem_post
       ___awmod
     _sem_wait
       i1_scheduler
   _sem_post

 _tarefaControlePWM (ROOT)
   _mutex_lock
     i1_scheduler
       i1_priority_rr_scheduler
   _mutex_unlock
   _pwm_set_duty
   _sem_wait
     i1_scheduler

 _tarefaFeedbackLED (ROOT)
   _os_delay
     i1_scheduler
       i1_priority_rr_scheduler

 _tarefaLeituraADC (ROOT)
   _adc_read
   _os_delay
     i1_scheduler
       i1_priority_rr_scheduler
   _pipe_write
     _sem_post
       ___awmod
     _sem_wait
       i1_scheduler

 _tarefaProcessamento (ROOT)
   _os_task_change_state
     i1_scheduler
       i1_priority_rr_scheduler
   _pipe_read
     _sem_post
       ___awmod
     _sem_wait
       i1_scheduler
   _sem_post

 _tarefaControlePWM (ROOT)
   _mutex_lock
     i1_scheduler
       i1_priority_rr_scheduler
   _mutex_unlock
   _pwm_set_duty
   _sem_wait
     i1_scheduler

 _tarefaFeedbackLED (ROOT)
   _os_delay
     i1_scheduler
       i1_priority_rr_scheduler

 _tarefaOneShot (ROOT)
   _os_delay
     i1_scheduler
       i1_priority_rr_scheduler
   _os_task_change_state
     i1_scheduler

 _ISR (ROOT)
   i2_os_create_task
   i2_scheduler
     i2_priority_rr_scheduler

Address spaces:
Name               Size   Autos  Total    Usage
BIGRAM            3895      0     512     13.1%
BITBANK14          256      0       0      0.0%
BANK14             256      0       0      0.0%
BITBANK13          256      0       0      0.0%
BANK13             256      0       0      0.0%
BITBANK12          256      0       0      0.0%
BANK12             256      0       0      0.0%
BITBANK11          256      0       0      0.0%
BANK11             256      0       0      0.0%
BITBANK10          256      0       0      0.0%
BANK10             256      0       0      0.0%
BITBANK9           256      0       0      0.0%
BANK9              256      0       0      0.0%
BITBANK8           256      0       0      0.0%
BANK8              256      0       0      0.0%
BITBANK7           256      0       0      0.0%
BANK7              256      0       0      0.0%
BITBANK6           256      0       0      0.0%
BANK6              256      0       0      0.0%
BITBANK5           256      0       0      0.0%
BANK5              256      0       0      0.0%
BITBANK4           256      0       0      0.0%
BANK4              256      0       0      0.0%
BITBANK3           256      0       0      0.0%
BANK3              256      0       0      0.0%
BITBANK2           256      0       0      0.0%
BANK2              256     92      92     35.9%
BITBANK1           256      0       0      0.0%
BANK1              256      0     212     82.8%
BITBANK0           160      0       0      0.0%
BANK0              160     16      57     35.6%
BITCOMRAM           94      0       0      0.0%
COMRAM              94     21      32     34.0%
BITBIGSFRlllh       80      0       0      0.0%
BITBIGSFRh          66      0       0      0.0%
BITBANK15           56      0       0      0.0%
BANK15              56      0       0      0.0%
BITBIGSFRllh        45      0       0      0.0%
BITBIGSFRlh          2      0       0      0.0%
STACK                0      0       0      0.0%
DATA                 0      0     887      0.0%


Microchip Technology PIC18 Macro Assembler V3.10 build 20250813170317 
Symbol Table                                                                                   Thu May  7 11:28:17 2026

            __end_ofi2_scheduler 2F8A                               l20 2C2C                               l19 2C2C  
                             l71 2728                               l91 21EA                               l92 21EC  
                             l85 2F20                               l89 21C8                              l300 2CCE  
                            l303 2E2C                              l321 2DFA                              l225 2EB2  
                            l138 2F00                              l234 2F6A                              l315 2CD0  
                            l309 2D8C                              l158 2D50                              l327 2F22  
                            l427 22AC                              l188 2D8A                              l428 2348  
                            l470 2F5C                              l379 2F74                              _BSR 0FE0  
                            _PR2 0FBB                              _ISR 0008         priority_rr_scheduler@idx 0016  
                   ___awmod@sign 0097                     _pwm_set_duty 2E5C                              prod 0FF3  
                            wreg 0FE8                             ?_ISR 0002                             ISR@i 0014  
                           l2171 2EB0                             l2163 2E8C                             l2165 2E98  
                           l2173 2F5E                             l2167 2EAA                             l2175 2F60  
                           l2169 2EAC                             l2177 2F68                             l4201 2330  
                           l1491 2F5A                             l1483 2F42                             l1901 2EB4  
                           l4301 26A0                             l1485 2F4C                             l1903 2EB6  
                           l4151 2D20                             l4143 2EDC                             l4311 26E6  
                           l4303 26AE                             l1487 2F50                             l4153 2D2C  
                           l4145 2EE8                             l4161 2D6C                             l4313 26F6  
                           l4305 26BC                             l4321 2F6C                             l1489 2F58  
                           l4155 2D38                             l4147 2EF4                             l4163 2D7A  
                           l4331 2CC0                             l4323 2C88                             l4315 2706  
                           l4307 26CA                             l4171 2230                             l4157 2D44  
                           l4149 2D16                             l4325 2CA4                             l4317 2714  
                           l4309 26D8                             l4181 2296                             l4173 225C  
                           l4165 21EE                             l4159 2D52                             l4327 2CAC  
                           l4319 2724                             l4191 22D2                             l4183 22A6  
                           l4175 227C                             l4167 21F8                             l4351 2012  
                           l5071 2BD4                             l5081 2D9E                             l5073 2E2C  
                           l4329 2CB6                             l4345 2F02                             l4193 22FA  
                           l4169 2220                             l4177 2280                             l4361 2070  
                           l4353 2016                             l5091 2DFA                             l5083 2DA2  
                           l5075 2E44                             l4291 2628                             l4347 2F08  
                           l4195 2328                             l4187 22B6                             l4179 2282  
                           l4371 20DE                             l4363 2084                             l4355 2018  
                           l5093 2E20                             l5085 2CD0                             l5077 2E50  
                           l4293 2634                             l4285 2600                             l4349 2F1C  
                           l4189 22CE                             l4365 209C                             l4357 201C  
                           l5095 2F24                             l5087 2CE4                             l5079 2D8C  
                           l4295 2642                             l4199 232E                             l4367 20B2  
                           l4359 2046                             l5097 2F2A                             l5089 2D06  
                           l4297 2656                             l4289 2616                             l4369 20C6  
                           l4299 2674                             _LATD 0F8C                             u3400 2220  
                           u3401 221C                             u3410 2230                             u3411 222C  
                           u3420 225C                             u3421 2258                             u3430 2296  
                           u3431 2292                             u3440 22A6                             u3441 22A2  
                           u3450 22CE                             u3451 22CA                             u3460 22FA  
                           u3461 22F6                             u3470 2328                             u3471 2324  
                           u3640 2612                             u3480 2344                             u3641 260E  
                           u3481 2340                             u3660 2046                             u3661 2042  
                           u3670 21EA                             u3671 21E6                             i1l63 200E  
                           i1l64 1FEA                             i1l66 200C                             i1l67 2010  
                           i2l71 2850             _os_task_change_state 1878                             _TMR0 0FD6  
                           _TOSH 0FFE                             _TOSL 0FFD                             _WREG 0FE8  
                           _TOSU 0FFF                             _idle 2EB4                             _main 2BD4  
                           fsr1h 0FE2                             fsr2h 0FDA                             indf1 0FE7  
                           indf2 0FDF                             fsr1l 0FE1                             fsr2l 0FD9  
                           btemp 0001                             prodh 0FF4                             prodl 0FF3  
                           start 04D8                 pwm_set_duty@duty 023B                     ___param_bank 0000  
                          ??_ISR 0009              _tarefaProcessamento 2D8C                            ?_idle 0002  
                          ?_main 0002                  __end_of___awmod 2AFC                            _T2CON 0FBA  
                          _FSR0H 0FEA                            _FSR0L 0FE9                            i1l101 1C0C  
                          i1l103 1C2E                            i1l105 1C56                            i1l141 1874  
                          i1l150 1872                            i1l231 2DF8                            i1l151 1876  
                          i1l170 1410                            i1l162 106C                            i1l155 2A36  
                          i1l172 1466                            i1l228 2DDC                            i1l148 1850  
                          i1l237 2E8A                            i1l168 13EE                            i1l192 2BD2  
                          i1l177 292C                            i1l179 2964                            i1l427 2408  
                          i1l196 2B6A                            i1l428 24A4                            i1l379 2F7E  
                          i2l427 2562                            i2l428 25FA                            i1l848 2AFA  
                          i2l379 2F88                            i2l491 04BC                            i2l475 049A  
                          i2l487 0476                            i2l489 0498                            u71_20 2EC6  
                          u71_21 2EC0                            u71_26 2EC8                            _TRISD 0F95  
                 pipe_write@dado 0095     priority_rr_scheduler@current 0017                      i1_scheduler 2F76  
               i2_os_create_task 272A                            btemp0 0001                            btemp1 0002  
          ?_os_task_change_state 024D             ?_tarefaProcessamento 0002                            tablat 0FF5  
                          plusw2 0FDB                            status 0FD8                      i2_scheduler 2F80  
        tarefaProcessamento@dado 023A                  __initialization 2C34                     __end_of_idle 2EDC  
                   __end_of_main 2C34            __end_of_tarefaOneShot 2F42    __end_of_priority_rr_scheduler 234A  
                         ??_idle 0002                           ??_main 0000                    __activetblptr 0000  
       __end_of_tarefaLeituraADC 2E5C                           _ADRESH 0FC4                           _ADRESL 0FC3  
                         _CCPR1L 0FBE            ??_tarefaProcessamento 000B                 __end_of_adc_read 2DFA  
                         i1l5001 1296                           i1l3161 2DC8                           i1l5011 1304  
                         i1l5003 12AA                           i1l3163 2DDA                           i1l5005 12C2  
                         i1l5013 1412                           i1l5021 2852                           i1l3165 2DEA  
                         i1l5007 12D8                           i1l5015 1438                           i1l5031 28D4  
                         i1l5023 2854                           i1l5017 1442                           i1l5009 12EC  
                         i1l5033 28FA                           i1l5041 295A                           i1l5025 286C  
                         i1l5019 1464                           i1l5035 2906                           i1l5027 289C  
                         i1l5043 2962                           i1l5051 2BA2                           i1l5037 2920  
                         i1l5029 28B6                           i1l5061 2B2C                           i1l5053 2BBC  
                         i1l5045 2B6C                           i1l5039 2938                           i1l5063 2B38  
                         i1l5055 2BC8                           i1l5047 2B7A                           i1l5065 2B52  
                         i1l5057 2AFC                           i1l5049 2B96                           i1l5067 2B5E  
                         i1l5059 2B08                           i1l5069 2E5C                           i2l1511 24E6  
                         i2l1521 254C                           i2l1513 2512                           i2l1505 24A6  
                         i1l4801 2412                           i2l1531 2588                           i2l1523 255C  
                         i2l1515 2532                           i2l1507 24B0                           i1l4803 242A  
                         i2l1533 25AE                           i2l1541 25E4                           i2l1509 24D6  
                         i2l1517 2536                           i1l4901 1A60                           i1l4813 248A  
                         i1l4805 242E                           i1l4821 2966                           i2l1535 25DC  
                         i2l1527 256C                           i2l1519 2538                           i1l4911 1AF6  
                         i1l4903 1A8A                           i1l4807 2456                           i1l4815 248C  
                         i1l4831 2F76                           i1l4751 2A5A                           i1l4743 2A38  
                         i1l4823 2968                           i2l2601 284E                           i2l1529 2584  
                         i1l4913 1B0A                           i1l4905 1AB4                           i1l4809 2484  
                         i1l4841 1CC0                           i1l4833 1C5C                           i1l4761 2A98  
                         i1l4753 2A6A                           i1l4745 2A3C                           i1l4825 298C  
                         i1l4921 1468                           i2l1539 25E2                           i1l4915 1B22  
                         i1l4907 1AC8                           i1l4851 1D26                           i1l4843 1CD4  
                         i1l4835 1C5E                           i1l4763 2AA8                           i1l4771 2AD6  
                         i1l4755 2A72                           i1l4747 2A4C                           i1l4827 29FC  
                         i1l4931 1500                           i1l4923 146A                           i2l5101 0030  
                         i1l4909 1AE0                           i1l4917 1C34                           i1l4781 2354  
                         i1l4861 1E68                           i1l4853 1E14                           i1l4845 1CE8  
                         i1l4837 1C84                           i1l4773 2AE8                           i1l4765 2AC0  
                         i1l4757 2A84                           i1l4749 2A54                           i1l4829 2A34  
                         i1l4941 1578                           i1l4933 1528                           i1l4925 148A  
                         i2l5111 00FA                           i2l5103 0032                           i1l4919 1C54  
                         i1l4783 237C                           i1l4791 23DC                           i1l4871 1EE8  
                         i1l4863 1E92                           i1l4847 1CFC                           i1l4839 1CAC  
                         i1l4855 1E24                           i1l4775 2AF2                           i1l4767 2AC8  
                         i1l4759 2A8E                           i1l4951 16A4                           i1l4943 158C  
                         i1l4935 153C                           i1l4927 14CE                           i2l5121 013A  
                         i2l5105 003C                           i2l5113 00FE                           i1l4881 18B8  
                         i1l4785 238C                           i1l4793 23DE                           i1l4873 1F00  
                         i1l4865 1EA6                           i1l4857 1E3A                           i1l4849 1D10  
                         i1l4769 2ACE                           i1l4961 173A                           i1l4953 16CE  
                         i1l4945 15A2                           i1l4937 1550                           i1l4929 14DA  
                         i2l2571 2742                           i2l5131 01C0                           i2l5123 015E  
                         i2l5115 0124                           i2l5107 006A                           i1l4971 101C  
                         i1l4891 1934                           i1l4883 18E2                           i1l4875 187C  
                         i1l4795 23F2                           i1l4787 23B8                           i1l4779 234A  
                         i1l4867 1EBE                           i1l4859 1E3E                           i1l4963 174E  
                         i1l4955 16F8                           i1l4947 1690                           i1l4939 1564  
                         i2l2581 279E                           i2l2573 2752                           i2l5133 01D4  
                         i2l5125 0184                           i2l5141 02E4                           i2l5117 0126  
                         i2l5109 00B8                           i1l4981 10DA                           i1l4973 1060  
                         i1l4893 1948                           i1l4885 18F8                           i1l4877 187E  
                         i1l4797 2402                           i1l4789 23D8                           i1l4869 1ED4  
                         i1l4965 1766                           i1l4957 170C                           i1l4949 16A0  
                         i2l2591 2802                           i2l2583 27CA                           i2l2575 275E  
                         i2l2567 272C                           i2l5151 0362                           i2l5143 02E8  
                         i2l5135 01E8                           i2l5127 0198                           i2l5119 0136  
                         i1l4991 1140                           i1l4983 10EE                           i1l4975 1078  
                         i1l4967 1002                           i1l4895 195E                           i1l4887 190C  
                         i1l4879 1892                           i1l4959 1724                           i2l2593 2810  
                         i2l2585 27D8                           i2l2577 276C                           i2l1857 2F80  
                         i2l5161 04AA                           i2l5153 0376                           i2l5145 0310  
                         i2l5137 01FE                           i2l5129 01AC                           i1l4993 122E  
                         i1l4985 1102                           i1l4977 109E                           i1l4969 1004  
                         i1l4897 1A4C                           i1l4889 1920                           i2l2595 2820  
                         i2l2587 27E6                           i2l2579 2780                           i2l5155 038A  
                         i2l5147 0338                           i2l5139 02D4                           i1l4987 1116  
                         i1l4979 10C6                           i1l4995 123E                           i1l4899 1A5C  
                         i2l2597 2830                           i2l2589 27F4                           i2l5157 03A2  
                         i2l5149 034C                           i1l4997 1242                           i1l4989 112A  
                         i2l2599 283E                           i2l5159 04A8                           i1l4999 126C  
                         i2l5099 0022                           u453_20 2E0A                           u453_21 2E04  
                         u453_26 2E0C                           _STATUS 0FD8                           _STKPTR 0FFC  
       ?i2_priority_rr_scheduler 0002                        ??___awmod 000B                    mutex_unlock@m 023B  
                         clear_0 2C4E                           clear_1 2C60                           clear_2 2C6C  
                         clear_3 2C78                  ___awmod@divisor 0230               os_create_task@func 0255  
               ??_setup_hardware 0000                           isa$std 0001                  ___awmod@counter 0096  
               __end_of_os_delay 2012                 __end_of_sem_init 2F02                 __end_of_sem_wait 1878  
               __end_of_sem_post 2A38                     __pdataCOMRAM 0020                 __end_of_os_start 21EE  
                   __mediumconst 1000                           tblptrh 0FF7                           tblptrl 0FF6  
                         tblptru 0FF8            i2os_create_task@prior 0004                 __end_of_pwm_init 2F6C  
         ??_os_task_change_state 024F                       __accesstop 0060          __end_of__initialization 2C7E  
         priority_rr_scheduler@i 0018                    ___rparam_used 0001                   _os_create_task 25FC  
                 __pcstackCOMRAM 0002                       _adc_config 2E8C                 RR_scheduler@prox 001F  
               os_create_task@id 0259                       __pbssBANK0 0060                       __pbssBANK1 0100  
__end_ofi2_priority_rr_scheduler 25FC                    __uDynamicHeap 025C           __end_of_os_create_task 272A  
       __end_ofi2_os_create_task 2852                          _CCP1CON 0FBD                        ?_adc_read 0091  
        i1_priority_rr_scheduler 234A                          i2u30_40 254C                          i2u30_41 2548  
                        i2u31_40 255C                          i2u31_41 2558                          i2u32_40 2584  
                        i2u32_41 2580                          i2u33_40 25AE                          i2u33_41 25AA  
                        i2u34_40 25DC                          i2u34_41 25D8                          i2u35_40 25F6  
                        i2u27_40 24D6                          i2u35_41 25F2                          i2u27_41 24D2  
                        i2u28_40 24E6                          i2u28_41 24E2                          i2u29_40 2512  
                        i2u29_41 250E                     ?i1_scheduler 0002             mutex_unlock@task_idx 023E  
                    sem_init@sem 0255                     ?i2_scheduler 0002                      pipe_write@p 0094  
                    sem_wait@sem 023C                  ?_os_create_task 0255                        ?_os_delay 0002  
                        __Hparam 0000                      sem_post@sem 0098                        ?_sem_init 0255  
                      ?_sem_wait 023C                        ?_sem_post 0098                          __Lparam 0000  
                      ?_os_start 0002                      ?_adc_config 0002                          ___awmod 2A38  
                      ?_pwm_init 0002                     __psmallconst 1000                          __pcinit 2C34  
                        __ramtop 1000                       ??_adc_read 0007                          __ptext0 2BD4  
                        __ptext1 2012                          __ptext2 2F42                          __ptext3 2F6C  
                        __ptext4 21EE                          __ptext5 2F02                          __ptext6 25FC  
                        __ptext7 2C88                          __ptext8 2F5E                          __ptext9 2D52  
                      _T0CONbits 0FD5                 ___awmod@dividend 022E                          _r_queue 0100  
              ?_tarefaLeituraADC 0002              os_create_task@prior 0257              priority_scheduler@i 001D  
             ??_tarefaLeituraADC 000A                __end_of_scheduler 2F76             end_of_initialization 2C7E  
              __end_of_pipe_init 2D8C                __end_of_pipe_read 2B6C                __end_of_os_config 2F22  
                     _pipe_write 2B6C           os_create_task@new_task 025A                       ??_os_delay 024D  
                     ??_sem_init 0000                       ??_sem_wait 023D                       ??_sem_post 0232  
                     ??_os_start 0256                          postdec1 0FE5                          postdec2 0FDD  
                        postinc0 0FEE                          postinc1 0FE6                          postinc2 0FDE  
                     ??_pwm_init 0000        ??i1_priority_rr_scheduler 024C                    pipe_read@dado 0237  
                      _PORTCbits 0F82                       _rr_quantum 0020            _priority_rr_scheduler 21EE  
    __end_of_tarefaProcessamento 2DC6                       _mutex_init 2D16                       _mutex_lock 1002  
                      _TRISAbits 0F92                        _TRISBbits 0F93                        _TRISCbits 0F94  
                      _TRISDbits 0F95                    sem_init@valor 0256           priority_scheduler@prox 001C  
                  ?_mutex_unlock 023B                      _CCP1CONbits 0FBD            tarefaLeituraADC@valor 000A  
                  ??_config_user 0000   priority_scheduler@current_task 001B                      mutex_init@m 0255  
                    mutex_lock@m 023C                    __pidataCOMRAM 2F8A                    ?_pwm_set_duty 023B  
            start_initialization 2C34                      __end_of_ISR 04D8           RR_scheduler@tentativas 001E  
                 ??_mutex_unlock 023C                _sem_processamento 0081                      ?_pipe_write 0094  
              ?i2_os_create_task 0002             i2os_create_task@func 0002              __end_of_config_user 2CD0  
             ??i2_os_create_task 0005                    _tarefaOneShot 2F22           ?_priority_rr_scheduler 0002  
                 ??_pwm_set_duty 023D                      __pbssBIGRAM 025C                      ?_mutex_init 0255  
                    ?_mutex_lock 023C                      __pbssCOMRAM 0016                  adc_read@channel 0009  
                  __pcstackBANK0 0089                    __pcstackBANK1 0000                    __pcstackBANK2 0200  
               ??_os_create_task 0258               i2os_create_task@id 0006                        __pintcode 0008  
                   ??_adc_config 0000                         ?___awmod 022E                _tarefaFeedbackLED 2DFA  
                 ?_tarefaOneShot 0002                       pipe_init@p 0257                       pipe_read@p 0236  
        i2_priority_rr_scheduler 24A6               ?_tarefaFeedbackLED 0002                      __smallconst 1000  
                _dado_processado 0060              ??_tarefaFeedbackLED 024B               __end_of_adc_config 2EB4  
                      _scheduler 2F6C                         _LATDbits 0F8C                        _pipe_init 2D52  
                      _pipe_read 2AFC                        _os_config 2F02                         i1u216_20 2DEA  
                       i1u216_21 2DE6                         i1u410_20 2A4C                         i1u410_21 2A48  
                       i1u411_20 2A6A                         i1u411_21 2A66                         i1u420_20 2402  
                       i1u412_20 2A84                         i1u420_21 23FE                         i1u412_21 2A80  
                       i1u421_20 242A                         i1u413_20 2AA8                         i1u421_21 2426  
                       i1u413_21 2AA4                         i1u430_20 1892                         i1u422_20 2456  
                       i1u414_20 2AC0                         i1u430_21 188E                         i1u422_21 2452  
                       i1u414_21 2ABC                         i1u431_20 18B8                         i1u423_20 2484  
                       i1u415_20 2AE8                         i1u431_21 18B4                         i1u423_21 2480  
                       i1u415_21 2AE4                         i1u432_20 1A5C                         i1u424_20 24A0  
                       i1u416_20 237C                         i1u440_20 1872                         i1u432_21 1A58  
                       i1u424_21 249C                         i1u416_21 2378                         i1u440_21 186E  
                       i1u441_20 101C                         i1u433_20 1A8A                         i1u417_20 238C  
                       i1u425_20 298C                         i1u441_21 1018                         i1u433_21 1A86  
                       i1u417_21 2388                         i1u425_21 2988                         i1u442_20 1060  
                       i1u450_20 2920                         i1u434_20 1C2E                         i1u418_20 23B8  
                       i1u426_20 1C84                         i1u442_21 105C                         i1u450_21 291C  
                       i1u434_21 1C2A                         i1u418_21 23B4                         i1u426_21 1C80  
                       i1u443_20 109E                         i1u419_20 23F2                         i1u427_20 1E24  
                       i1u435_20 148A                         i1u451_20 2BBC                         i1u443_21 109A  
                       i1u419_21 23EE                         i1u427_21 1E20                         i1u435_21 1486  
                       i1u451_21 2BB8                         i1u444_20 123E                         i1u452_20 2B52  
                       i1u428_20 1E68                         i1u436_20 14CE                         i1u444_21 123A  
                       i1u452_21 2B4E                         i1u428_21 1E64                         i1u436_21 14CA  
                       i1u445_20 126C                         i1u429_20 200C                         i1u437_20 1500  
                       i1u445_21 1268                         i1u429_21 2008                         i1u437_21 14FC  
                       i1u446_20 1410                         i1u438_20 16A0                         i1u446_21 140C  
                       i1u438_21 169C                         i1u447_20 286C                         i1u439_20 16CE  
                       i1u447_21 2868                         i1u439_21 16CA                         i1u448_20 289C  
                       i1u448_21 2898                         i1u449_20 28B6                         i1u449_21 28B2  
                       i2u149_40 273E                         i2u149_41 273A                     os_delay@time 0252  
                       i2u460_40 02E4                         i2u460_41 02E0                         i2u461_40 0310  
                       i2u461_41 030C                         i2u462_40 0498                         i2u454_40 0030  
                       i2u462_41 0494                         i2u454_41 002C                         i2u463_40 04A8  
                       i2u455_40 006A                         i2u463_41 04A4                         i2u455_41 0066  
                       i2u456_40 00B8                         i2u456_41 00B4                         i2u457_40 0124  
                       i2u457_41 0120                         i2u458_40 0136                         i2u458_41 0132  
                       i2u459_40 015E                         i2u459_41 015A                      _config_user 2C88  
      __end_of_tarefaFeedbackLED 2E2C             __end_of_mutex_unlock 2966                       _ADCON0bits 0FC2  
                     _ADCON1bits 0FC1                       _ADCON2bits 0FC0                      _INTCON2bits 0FF1  
                     ?_scheduler 0002                       ?_pipe_init 0257                       ?_pipe_read 0236  
           __end_of_pwm_set_duty 2E8C                       ?_os_config 0002    priority_rr_scheduler@max_prio 001A  
                       __Hrparam 0000                         __Lrparam 0000                  ??_tarefaOneShot 0099  
      ??i2_priority_rr_scheduler 0002                _tarefaControlePWM 2CD0                         _adc_read 2DC6  
             ?_tarefaControlePWM 0002                       _ANSELAbits 0F38                       _ANSELBbits 0F39  
                     _ANSELCbits 0F3A                       _ANSELDbits 0F3B    os_task_change_state@new_state 0254  
                       __ptext10 2EDC                         __ptext11 2D16                         __ptext20 2F76  
                       __ptext12 2E8C                         __ptext21 234A                         __ptext13 2EB4  
                       __ptext30 2DFA                         __ptext22 2DC6                         __ptext14 2E2C  
                       __ptext31 2F22                         __ptext23 2D8C                         __ptext15 2B6C  
                       __ptext24 2AFC                         __ptext16 1468                         __ptext33 2F80  
                       __ptext25 1878                         __ptext17 2966                         __ptext34 24A6  
                       __ptext26 2CD0                         __ptext18 2A38                         __ptext35 272A  
                       __ptext27 2E5C                         __ptext19 1C58                         __ptext28 2852  
                       __ptext29 1002              ??_tarefaControlePWM 0242                   _setup_hardware 2F42  
       i2os_create_task@new_task 0007                     ??_pipe_write 0007                         _pipe_adc 0061  
                       _os_delay 1C58                         _sem_init 2EDC         ?i1_priority_rr_scheduler 0002  
                       _sem_wait 1468                         _sem_post 2966                         _os_start 2012  
                       isa$xinst 0000        __end_of_tarefaControlePWM 2D16                         int$flags 0001  
   __end_of_os_task_change_state 1C58                         _pwm_init 2F5E          ??_priority_rr_scheduler 0255  
     priority_rr_scheduler@found 0019                     ??_mutex_init 0000                     ??_mutex_lock 023D  
                     _INTCONbits 0FF2               __end_of_pipe_write 2BD4           __end_of_setup_hardware 2F5E  
                  ??i1_scheduler 0099                         intlevel1 0000                         intlevel2 0000  
                  ??i2_scheduler 0003                      ??_scheduler 0000                      ??_pipe_init 0000  
                    ??_pipe_read 0239                      ??_os_config 0000                 _tarefaLeituraADC 2E2C  
             __end_of_mutex_init 2D52               __end_of_mutex_lock 1468  os_task_change_state@task_handle 024D  
                  _mutex_recurso 0077                  ?_setup_hardware 0002  __end_ofi1_priority_rr_scheduler 24A6  
            __end_ofi1_scheduler 2F80                     _mutex_unlock 2852                     ?_config_user 0002  
